ARM GAS  /tmp/cc5xmcK2.s 			page 1


   1              		.cpu cortex-m4
   2              		.arch armv7e-m
   3              		.fpu fpv4-sp-d16
   4              		.eabi_attribute 27, 1
   5              		.eabi_attribute 28, 1
   6              		.eabi_attribute 20, 1
   7              		.eabi_attribute 21, 1
   8              		.eabi_attribute 23, 3
   9              		.eabi_attribute 24, 1
  10              		.eabi_attribute 25, 1
  11              		.eabi_attribute 26, 1
  12              		.eabi_attribute 30, 1
  13              		.eabi_attribute 34, 1
  14              		.eabi_attribute 18, 4
  15              		.file	"unitreeA1_cmd.c"
  16              		.text
  17              	.Ltext0:
  18              		.cfi_sections	.debug_frame
  19              		.section	.text.crc32_core,"ax",%progbits
  20              		.align	1
  21              		.global	crc32_core
  22              		.syntax unified
  23              		.thumb
  24              		.thumb_func
  26              	crc32_core:
  27              	.LVL0:
  28              	.LFB134:
  29              		.file 1 "Lib/modules/unitreeMotor/src/unitreeA1_cmd.c"
   1:Lib/modules/unitreeMotor/src/unitreeA1_cmd.c **** #include "main.h"
   2:Lib/modules/unitreeMotor/src/unitreeA1_cmd.c **** #include "motor_msg.h"
   3:Lib/modules/unitreeMotor/src/unitreeA1_cmd.c **** #include <string.h>
   4:Lib/modules/unitreeMotor/src/unitreeA1_cmd.c **** #include <stdio.h>
   5:Lib/modules/unitreeMotor/src/unitreeA1_cmd.c **** #include "usart.h"
   6:Lib/modules/unitreeMotor/src/unitreeA1_cmd.c **** #include "unitreeA1_cmd.h"
   7:Lib/modules/unitreeMotor/src/unitreeA1_cmd.c **** 
   8:Lib/modules/unitreeMotor/src/unitreeA1_cmd.c **** #define LF 0
   9:Lib/modules/unitreeMotor/src/unitreeA1_cmd.c **** #define LB 1
  10:Lib/modules/unitreeMotor/src/unitreeA1_cmd.c **** #define RF 2
  11:Lib/modules/unitreeMotor/src/unitreeA1_cmd.c **** #define RB 3
  12:Lib/modules/unitreeMotor/src/unitreeA1_cmd.c **** 
  13:Lib/modules/unitreeMotor/src/unitreeA1_cmd.c **** 
  14:Lib/modules/unitreeMotor/src/unitreeA1_cmd.c **** motor_send_t cmd_leg[2];
  15:Lib/modules/unitreeMotor/src/unitreeA1_cmd.c **** motor_recv_t data_leg[2];
  16:Lib/modules/unitreeMotor/src/unitreeA1_cmd.c **** motor_recv_t data_motor[2][3];
  17:Lib/modules/unitreeMotor/src/unitreeA1_cmd.c **** 
  18:Lib/modules/unitreeMotor/src/unitreeA1_cmd.c **** // void modfiy_cmd(motor_send_t *send, uint8_t id, float Pos, float KP, float KW, float W, float T)
  19:Lib/modules/unitreeMotor/src/unitreeA1_cmd.c **** //{
  20:Lib/modules/unitreeMotor/src/unitreeA1_cmd.c **** //
  21:Lib/modules/unitreeMotor/src/unitreeA1_cmd.c **** //     send->hex_len = 34;
  22:Lib/modules/unitreeMotor/src/unitreeA1_cmd.c **** //
  23:Lib/modules/unitreeMotor/src/unitreeA1_cmd.c **** //     send->mode = 10;
  24:Lib/modules/unitreeMotor/src/unitreeA1_cmd.c **** //     send->id = id;
  25:Lib/modules/unitreeMotor/src/unitreeA1_cmd.c **** //     send->K_P = KP;
  26:Lib/modules/unitreeMotor/src/unitreeA1_cmd.c **** //     send->K_W = KW;
  27:Lib/modules/unitreeMotor/src/unitreeA1_cmd.c **** //     send->Pos = 6.2832 * 9.1 * 2 * Pos;
  28:Lib/modules/unitreeMotor/src/unitreeA1_cmd.c **** //     send->W = 0;
  29:Lib/modules/unitreeMotor/src/unitreeA1_cmd.c **** //     send->T = 0.0;
ARM GAS  /tmp/cc5xmcK2.s 			page 2


  30:Lib/modules/unitreeMotor/src/unitreeA1_cmd.c **** // }
  31:Lib/modules/unitreeMotor/src/unitreeA1_cmd.c **** 
  32:Lib/modules/unitreeMotor/src/unitreeA1_cmd.c **** void unitreeA1_tx(int leg_id)
  33:Lib/modules/unitreeMotor/src/unitreeA1_cmd.c **** {
  34:Lib/modules/unitreeMotor/src/unitreeA1_cmd.c ****     /*———————————————————————————————
  35:Lib/modules/unitreeMotor/src/unitreeA1_cmd.c ****     uint8_t A1cmd[34];
  36:Lib/modules/unitreeMotor/src/unitreeA1_cmd.c **** 
  37:Lib/modules/unitreeMotor/src/unitreeA1_cmd.c ****     // 此处为左腿电机结构体//
  38:Lib/modules/unitreeMotor/src/unitreeA1_cmd.c ****     cmd_leg[leg_id].motor_send_data.head.start[0] = 0xFE;
  39:Lib/modules/unitreeMotor/src/unitreeA1_cmd.c ****     cmd_leg[leg_id].motor_send_data.head.start[1] = 0xEE;
  40:Lib/modules/unitreeMotor/src/unitreeA1_cmd.c ****     cmd_leg[leg_id].motor_send_data.head.motorID = cmd_leg[leg_id].id;
  41:Lib/modules/unitreeMotor/src/unitreeA1_cmd.c ****     cmd_leg[leg_id].motor_send_data.head.reserved = 0x00;
  42:Lib/modules/unitreeMotor/src/unitreeA1_cmd.c **** 
  43:Lib/modules/unitreeMotor/src/unitreeA1_cmd.c ****     cmd_leg[leg_id].motor_send_data.Mdata.mode = cmd_leg[leg_id].mode;
  44:Lib/modules/unitreeMotor/src/unitreeA1_cmd.c ****     cmd_leg[leg_id].motor_send_data.Mdata.ModifyBit = 0xFF;
  45:Lib/modules/unitreeMotor/src/unitreeA1_cmd.c ****     cmd_leg[leg_id].motor_send_data.Mdata.ReadBit = 0x00;
  46:Lib/modules/unitreeMotor/src/unitreeA1_cmd.c ****     cmd_leg[leg_id].motor_send_data.Mdata.reserved = 0x00;
  47:Lib/modules/unitreeMotor/src/unitreeA1_cmd.c ****     cmd_leg[leg_id].motor_send_data.Mdata.Modify.F = 0;
  48:Lib/modules/unitreeMotor/src/unitreeA1_cmd.c ****     cmd_leg[leg_id].motor_send_data.Mdata.T = (float)cmd_leg[leg_id].T * 256;
  49:Lib/modules/unitreeMotor/src/unitreeA1_cmd.c ****     cmd_leg[leg_id].motor_send_data.Mdata.W = (float)cmd_leg[leg_id].W * 128;
  50:Lib/modules/unitreeMotor/src/unitreeA1_cmd.c ****     cmd_leg[leg_id].motor_send_data.Mdata.Pos = (int)(((float)cmd_leg[leg_id].Pos / 6.2832f) * 1638
  51:Lib/modules/unitreeMotor/src/unitreeA1_cmd.c ****     cmd_leg[leg_id].motor_send_data.Mdata.K_P = (float)cmd_leg[leg_id].K_P * 2048;
  52:Lib/modules/unitreeMotor/src/unitreeA1_cmd.c ****     cmd_leg[leg_id].motor_send_data.Mdata.K_W = (float)cmd_leg[leg_id].K_W * 1024;
  53:Lib/modules/unitreeMotor/src/unitreeA1_cmd.c ****     cmd_leg[leg_id].motor_send_data.Mdata.LowHzMotorCmdIndex = 0;
  54:Lib/modules/unitreeMotor/src/unitreeA1_cmd.c ****     cmd_leg[leg_id].motor_send_data.Mdata.LowHzMotorCmdByte = 0;
  55:Lib/modules/unitreeMotor/src/unitreeA1_cmd.c ****     cmd_leg[leg_id].motor_send_data.Mdata.Res[0] = cmd_leg[leg_id].Res;
  56:Lib/modules/unitreeMotor/src/unitreeA1_cmd.c **** 
  57:Lib/modules/unitreeMotor/src/unitreeA1_cmd.c ****     cmd_leg[leg_id].motor_send_data.CRCdata.u32 = crc32_core((uint32_t *)(&cmd_leg[leg_id].motor_se
  58:Lib/modules/unitreeMotor/src/unitreeA1_cmd.c **** 
  59:Lib/modules/unitreeMotor/src/unitreeA1_cmd.c ****     memcpy(A1cmd, &cmd_leg[leg_id].motor_send_data, 34);
  60:Lib/modules/unitreeMotor/src/unitreeA1_cmd.c **** 
  61:Lib/modules/unitreeMotor/src/unitreeA1_cmd.c ****     switch (leg_id)
  62:Lib/modules/unitreeMotor/src/unitreeA1_cmd.c ****     {
  63:Lib/modules/unitreeMotor/src/unitreeA1_cmd.c ****     case 0:
  64:Lib/modules/unitreeMotor/src/unitreeA1_cmd.c ****         HAL_UART_Transmit(&huart1, A1cmd, 34, 0x01);
  65:Lib/modules/unitreeMotor/src/unitreeA1_cmd.c ****         break;
  66:Lib/modules/unitreeMotor/src/unitreeA1_cmd.c ****     case 1:
  67:Lib/modules/unitreeMotor/src/unitreeA1_cmd.c ****         HAL_UART_Transmit(&huart6, A1cmd, 34, 0x01);
  68:Lib/modules/unitreeMotor/src/unitreeA1_cmd.c ****         break;
  69:Lib/modules/unitreeMotor/src/unitreeA1_cmd.c ****     }
  70:Lib/modules/unitreeMotor/src/unitreeA1_cmd.c **** }
  71:Lib/modules/unitreeMotor/src/unitreeA1_cmd.c **** 
  72:Lib/modules/unitreeMotor/src/unitreeA1_cmd.c **** // CRC校验位的代码
  73:Lib/modules/unitreeMotor/src/unitreeA1_cmd.c **** uint32_t crc32_core(uint32_t *ptr, uint32_t len)
  74:Lib/modules/unitreeMotor/src/unitreeA1_cmd.c **** {
  30              		.loc 1 74 1 view -0
  31              		.cfi_startproc
  32              		@ args = 0, pretend = 0, frame = 0
  33              		@ frame_needed = 0, uses_anonymous_args = 0
  34              		.loc 1 74 1 is_stmt 0 view .LVU1
  35 0000 30B5     		push	{r4, r5, lr}
  36              		.cfi_def_cfa_offset 12
  37              		.cfi_offset 4, -12
  38              		.cfi_offset 5, -8
  39              		.cfi_offset 14, -4
  40 0002 0546     		mov	r5, r0
  41 0004 8E46     		mov	lr, r1
ARM GAS  /tmp/cc5xmcK2.s 			page 3


  75:Lib/modules/unitreeMotor/src/unitreeA1_cmd.c ****     uint32_t bits;
  42              		.loc 1 75 5 is_stmt 1 view .LVU2
  76:Lib/modules/unitreeMotor/src/unitreeA1_cmd.c ****     uint32_t i;
  43              		.loc 1 76 5 view .LVU3
  77:Lib/modules/unitreeMotor/src/unitreeA1_cmd.c ****     uint32_t xbit = 0;
  44              		.loc 1 77 5 view .LVU4
  45              	.LVL1:
  78:Lib/modules/unitreeMotor/src/unitreeA1_cmd.c ****     uint32_t data = 0;
  46              		.loc 1 78 5 view .LVU5
  79:Lib/modules/unitreeMotor/src/unitreeA1_cmd.c ****     uint32_t CRC32 = 0xFFFFFFFF;
  47              		.loc 1 79 5 view .LVU6
  80:Lib/modules/unitreeMotor/src/unitreeA1_cmd.c ****     const uint32_t dwPolynomial = 0x04c11db7;
  48              		.loc 1 80 5 view .LVU7
  81:Lib/modules/unitreeMotor/src/unitreeA1_cmd.c ****     for (i = 0; i < len; i++)
  49              		.loc 1 81 5 view .LVU8
  79:Lib/modules/unitreeMotor/src/unitreeA1_cmd.c ****     uint32_t CRC32 = 0xFFFFFFFF;
  50              		.loc 1 79 14 is_stmt 0 view .LVU9
  51 0006 4FF0FF30 		mov	r0, #-1
  52              	.LVL2:
  53              		.loc 1 81 12 view .LVU10
  54 000a 4FF0000C 		mov	ip, #0
  55              		.loc 1 81 5 view .LVU11
  56 000e 17E0     		b	.L2
  57              	.LVL3:
  58              	.L11:
  82:Lib/modules/unitreeMotor/src/unitreeA1_cmd.c ****     {
  83:Lib/modules/unitreeMotor/src/unitreeA1_cmd.c ****         xbit = 1 << 31;
  84:Lib/modules/unitreeMotor/src/unitreeA1_cmd.c ****         data = ptr[i];
  85:Lib/modules/unitreeMotor/src/unitreeA1_cmd.c ****         for (bits = 0; bits < 32; bits++)
  86:Lib/modules/unitreeMotor/src/unitreeA1_cmd.c ****         {
  87:Lib/modules/unitreeMotor/src/unitreeA1_cmd.c ****             if (CRC32 & 0x80000000)
  88:Lib/modules/unitreeMotor/src/unitreeA1_cmd.c ****             {
  89:Lib/modules/unitreeMotor/src/unitreeA1_cmd.c ****                 CRC32 <<= 1;
  59              		.loc 1 89 17 is_stmt 1 view .LVU12
  90:Lib/modules/unitreeMotor/src/unitreeA1_cmd.c ****                 CRC32 ^= dwPolynomial;
  60              		.loc 1 90 17 view .LVU13
  61              		.loc 1 90 23 is_stmt 0 view .LVU14
  62 0010 104C     		ldr	r4, .L13
  63 0012 84EA4000 		eor	r0, r4, r0, lsl #1
  64              	.LVL4:
  65              		.loc 1 90 23 view .LVU15
  66 0016 06E0     		b	.L5
  67              	.L6:
  91:Lib/modules/unitreeMotor/src/unitreeA1_cmd.c ****             }
  92:Lib/modules/unitreeMotor/src/unitreeA1_cmd.c ****             else
  93:Lib/modules/unitreeMotor/src/unitreeA1_cmd.c ****                 CRC32 <<= 1;
  94:Lib/modules/unitreeMotor/src/unitreeA1_cmd.c ****             if (data & xbit)
  95:Lib/modules/unitreeMotor/src/unitreeA1_cmd.c ****                 CRC32 ^= dwPolynomial;
  96:Lib/modules/unitreeMotor/src/unitreeA1_cmd.c **** 
  97:Lib/modules/unitreeMotor/src/unitreeA1_cmd.c ****             xbit >>= 1;
  68              		.loc 1 97 13 is_stmt 1 discriminator 2 view .LVU16
  69              		.loc 1 97 18 is_stmt 0 discriminator 2 view .LVU17
  70 0018 5208     		lsrs	r2, r2, #1
  71              	.LVL5:
  85:Lib/modules/unitreeMotor/src/unitreeA1_cmd.c ****         {
  72              		.loc 1 85 35 is_stmt 1 discriminator 2 view .LVU18
  85:Lib/modules/unitreeMotor/src/unitreeA1_cmd.c ****         {
ARM GAS  /tmp/cc5xmcK2.s 			page 4


  73              		.loc 1 85 39 is_stmt 0 discriminator 2 view .LVU19
  74 001a 0133     		adds	r3, r3, #1
  75              	.LVL6:
  76              	.L3:
  85:Lib/modules/unitreeMotor/src/unitreeA1_cmd.c ****         {
  77              		.loc 1 85 24 is_stmt 1 discriminator 1 view .LVU20
  85:Lib/modules/unitreeMotor/src/unitreeA1_cmd.c ****         {
  78              		.loc 1 85 9 is_stmt 0 discriminator 1 view .LVU21
  79 001c 1F2B     		cmp	r3, #31
  80 001e 0DD8     		bhi	.L10
  87:Lib/modules/unitreeMotor/src/unitreeA1_cmd.c ****             {
  81              		.loc 1 87 13 is_stmt 1 view .LVU22
  87:Lib/modules/unitreeMotor/src/unitreeA1_cmd.c ****             {
  82              		.loc 1 87 16 is_stmt 0 view .LVU23
  83 0020 0028     		cmp	r0, #0
  84 0022 F5DB     		blt	.L11
  93:Lib/modules/unitreeMotor/src/unitreeA1_cmd.c ****             if (data & xbit)
  85              		.loc 1 93 17 is_stmt 1 view .LVU24
  93:Lib/modules/unitreeMotor/src/unitreeA1_cmd.c ****             if (data & xbit)
  86              		.loc 1 93 23 is_stmt 0 view .LVU25
  87 0024 4000     		lsls	r0, r0, #1
  88              	.LVL7:
  89              	.L5:
  94:Lib/modules/unitreeMotor/src/unitreeA1_cmd.c ****                 CRC32 ^= dwPolynomial;
  90              		.loc 1 94 13 is_stmt 1 view .LVU26
  94:Lib/modules/unitreeMotor/src/unitreeA1_cmd.c ****                 CRC32 ^= dwPolynomial;
  91              		.loc 1 94 16 is_stmt 0 view .LVU27
  92 0026 0A42     		tst	r2, r1
  93 0028 F6D0     		beq	.L6
  95:Lib/modules/unitreeMotor/src/unitreeA1_cmd.c **** 
  94              		.loc 1 95 17 is_stmt 1 view .LVU28
  95:Lib/modules/unitreeMotor/src/unitreeA1_cmd.c **** 
  95              		.loc 1 95 23 is_stmt 0 view .LVU29
  96 002a 80F09860 		eor	r0, r0, #79691776
  97              	.LVL8:
  95:Lib/modules/unitreeMotor/src/unitreeA1_cmd.c **** 
  98              		.loc 1 95 23 view .LVU30
  99 002e 80F48E30 		eor	r0, r0, #72704
 100              	.LVL9:
  95:Lib/modules/unitreeMotor/src/unitreeA1_cmd.c **** 
 101              		.loc 1 95 23 view .LVU31
 102 0032 80F4DB70 		eor	r0, r0, #438
 103              	.LVL10:
  95:Lib/modules/unitreeMotor/src/unitreeA1_cmd.c **** 
 104              		.loc 1 95 23 view .LVU32
 105 0036 80F00100 		eor	r0, r0, #1
 106              	.LVL11:
  95:Lib/modules/unitreeMotor/src/unitreeA1_cmd.c **** 
 107              		.loc 1 95 23 view .LVU33
 108 003a EDE7     		b	.L6
 109              	.L10:
  81:Lib/modules/unitreeMotor/src/unitreeA1_cmd.c ****     {
 110              		.loc 1 81 26 is_stmt 1 discriminator 2 view .LVU34
  81:Lib/modules/unitreeMotor/src/unitreeA1_cmd.c ****     {
 111              		.loc 1 81 27 is_stmt 0 discriminator 2 view .LVU35
 112 003c 0CF1010C 		add	ip, ip, #1
 113              	.LVL12:
ARM GAS  /tmp/cc5xmcK2.s 			page 5


 114              	.L2:
  81:Lib/modules/unitreeMotor/src/unitreeA1_cmd.c ****     {
 115              		.loc 1 81 17 is_stmt 1 discriminator 1 view .LVU36
  81:Lib/modules/unitreeMotor/src/unitreeA1_cmd.c ****     {
 116              		.loc 1 81 5 is_stmt 0 discriminator 1 view .LVU37
 117 0040 F445     		cmp	ip, lr
 118 0042 05D2     		bcs	.L12
  83:Lib/modules/unitreeMotor/src/unitreeA1_cmd.c ****         data = ptr[i];
 119              		.loc 1 83 9 is_stmt 1 view .LVU38
 120              	.LVL13:
  84:Lib/modules/unitreeMotor/src/unitreeA1_cmd.c ****         for (bits = 0; bits < 32; bits++)
 121              		.loc 1 84 9 view .LVU39
  84:Lib/modules/unitreeMotor/src/unitreeA1_cmd.c ****         for (bits = 0; bits < 32; bits++)
 122              		.loc 1 84 14 is_stmt 0 view .LVU40
 123 0044 55F82C10 		ldr	r1, [r5, ip, lsl #2]
 124              	.LVL14:
  85:Lib/modules/unitreeMotor/src/unitreeA1_cmd.c ****         {
 125              		.loc 1 85 9 is_stmt 1 view .LVU41
  83:Lib/modules/unitreeMotor/src/unitreeA1_cmd.c ****         data = ptr[i];
 126              		.loc 1 83 14 is_stmt 0 view .LVU42
 127 0048 4FF00042 		mov	r2, #-2147483648
  85:Lib/modules/unitreeMotor/src/unitreeA1_cmd.c ****         {
 128              		.loc 1 85 19 view .LVU43
 129 004c 0023     		movs	r3, #0
  85:Lib/modules/unitreeMotor/src/unitreeA1_cmd.c ****         {
 130              		.loc 1 85 9 view .LVU44
 131 004e E5E7     		b	.L3
 132              	.LVL15:
 133              	.L12:
  98:Lib/modules/unitreeMotor/src/unitreeA1_cmd.c ****         }
  99:Lib/modules/unitreeMotor/src/unitreeA1_cmd.c ****     }
 100:Lib/modules/unitreeMotor/src/unitreeA1_cmd.c ****     return CRC32;
 134              		.loc 1 100 5 is_stmt 1 view .LVU45
 101:Lib/modules/unitreeMotor/src/unitreeA1_cmd.c **** }
 135              		.loc 1 101 1 is_stmt 0 view .LVU46
 136 0050 30BD     		pop	{r4, r5, pc}
 137              	.LVL16:
 138              	.L14:
 139              		.loc 1 101 1 view .LVU47
 140 0052 00BF     		.align	2
 141              	.L13:
 142 0054 B71DC104 		.word	79764919
 143              		.cfi_endproc
 144              	.LFE134:
 146              		.section	.text.unitreeA1_tx,"ax",%progbits
 147              		.align	1
 148              		.global	unitreeA1_tx
 149              		.syntax unified
 150              		.thumb
 151              		.thumb_func
 153              	unitreeA1_tx:
 154              	.LVL17:
 155              	.LFB133:
  33:Lib/modules/unitreeMotor/src/unitreeA1_cmd.c ****     /*———————————————————————————————
 156              		.loc 1 33 1 is_stmt 1 view -0
 157              		.cfi_startproc
 158              		@ args = 0, pretend = 0, frame = 40
ARM GAS  /tmp/cc5xmcK2.s 			page 6


 159              		@ frame_needed = 0, uses_anonymous_args = 0
  33:Lib/modules/unitreeMotor/src/unitreeA1_cmd.c ****     /*———————————————————————————————
 160              		.loc 1 33 1 is_stmt 0 view .LVU49
 161 0000 70B5     		push	{r4, r5, r6, lr}
 162              		.cfi_def_cfa_offset 16
 163              		.cfi_offset 4, -16
 164              		.cfi_offset 5, -12
 165              		.cfi_offset 6, -8
 166              		.cfi_offset 14, -4
 167 0002 8AB0     		sub	sp, sp, #40
 168              		.cfi_def_cfa_offset 56
 169 0004 0546     		mov	r5, r0
  35:Lib/modules/unitreeMotor/src/unitreeA1_cmd.c **** 
 170              		.loc 1 35 5 is_stmt 1 view .LVU50
  38:Lib/modules/unitreeMotor/src/unitreeA1_cmd.c ****     cmd_leg[leg_id].motor_send_data.head.start[1] = 0xEE;
 171              		.loc 1 38 5 view .LVU51
  38:Lib/modules/unitreeMotor/src/unitreeA1_cmd.c ****     cmd_leg[leg_id].motor_send_data.head.start[1] = 0xEE;
 172              		.loc 1 38 51 is_stmt 0 view .LVU52
 173 0006 3E4B     		ldr	r3, .L21
 174 0008 00EB4012 		add	r2, r0, r0, lsl #5
 175 000c 03EB4204 		add	r4, r3, r2, lsl #1
 176 0010 FE21     		movs	r1, #254
 177 0012 03F81210 		strb	r1, [r3, r2, lsl #1]
  39:Lib/modules/unitreeMotor/src/unitreeA1_cmd.c ****     cmd_leg[leg_id].motor_send_data.head.motorID = cmd_leg[leg_id].id;
 178              		.loc 1 39 5 is_stmt 1 view .LVU53
  39:Lib/modules/unitreeMotor/src/unitreeA1_cmd.c ****     cmd_leg[leg_id].motor_send_data.head.motorID = cmd_leg[leg_id].id;
 179              		.loc 1 39 51 is_stmt 0 view .LVU54
 180 0016 EE23     		movs	r3, #238
 181 0018 6370     		strb	r3, [r4, #1]
  40:Lib/modules/unitreeMotor/src/unitreeA1_cmd.c ****     cmd_leg[leg_id].motor_send_data.head.reserved = 0x00;
 182              		.loc 1 40 5 is_stmt 1 view .LVU55
  40:Lib/modules/unitreeMotor/src/unitreeA1_cmd.c ****     cmd_leg[leg_id].motor_send_data.head.reserved = 0x00;
 183              		.loc 1 40 67 is_stmt 0 view .LVU56
 184 001a E38C     		ldrh	r3, [r4, #38]
  40:Lib/modules/unitreeMotor/src/unitreeA1_cmd.c ****     cmd_leg[leg_id].motor_send_data.head.reserved = 0x00;
 185              		.loc 1 40 50 view .LVU57
 186 001c A370     		strb	r3, [r4, #2]
  41:Lib/modules/unitreeMotor/src/unitreeA1_cmd.c **** 
 187              		.loc 1 41 5 is_stmt 1 view .LVU58
  41:Lib/modules/unitreeMotor/src/unitreeA1_cmd.c **** 
 188              		.loc 1 41 51 is_stmt 0 view .LVU59
 189 001e 0023     		movs	r3, #0
 190 0020 E370     		strb	r3, [r4, #3]
  43:Lib/modules/unitreeMotor/src/unitreeA1_cmd.c ****     cmd_leg[leg_id].motor_send_data.Mdata.ModifyBit = 0xFF;
 191              		.loc 1 43 5 is_stmt 1 view .LVU60
  43:Lib/modules/unitreeMotor/src/unitreeA1_cmd.c ****     cmd_leg[leg_id].motor_send_data.Mdata.ModifyBit = 0xFF;
 192              		.loc 1 43 65 is_stmt 0 view .LVU61
 193 0022 228D     		ldrh	r2, [r4, #40]
  43:Lib/modules/unitreeMotor/src/unitreeA1_cmd.c ****     cmd_leg[leg_id].motor_send_data.Mdata.ModifyBit = 0xFF;
 194              		.loc 1 43 48 view .LVU62
 195 0024 2271     		strb	r2, [r4, #4]
  44:Lib/modules/unitreeMotor/src/unitreeA1_cmd.c ****     cmd_leg[leg_id].motor_send_data.Mdata.ReadBit = 0x00;
 196              		.loc 1 44 5 is_stmt 1 view .LVU63
  44:Lib/modules/unitreeMotor/src/unitreeA1_cmd.c ****     cmd_leg[leg_id].motor_send_data.Mdata.ReadBit = 0x00;
 197              		.loc 1 44 53 is_stmt 0 view .LVU64
 198 0026 FF22     		movs	r2, #255
 199 0028 6271     		strb	r2, [r4, #5]
ARM GAS  /tmp/cc5xmcK2.s 			page 7


  45:Lib/modules/unitreeMotor/src/unitreeA1_cmd.c ****     cmd_leg[leg_id].motor_send_data.Mdata.reserved = 0x00;
 200              		.loc 1 45 5 is_stmt 1 view .LVU65
  45:Lib/modules/unitreeMotor/src/unitreeA1_cmd.c ****     cmd_leg[leg_id].motor_send_data.Mdata.reserved = 0x00;
 201              		.loc 1 45 51 is_stmt 0 view .LVU66
 202 002a A371     		strb	r3, [r4, #6]
  46:Lib/modules/unitreeMotor/src/unitreeA1_cmd.c ****     cmd_leg[leg_id].motor_send_data.Mdata.Modify.F = 0;
 203              		.loc 1 46 5 is_stmt 1 view .LVU67
  46:Lib/modules/unitreeMotor/src/unitreeA1_cmd.c ****     cmd_leg[leg_id].motor_send_data.Mdata.Modify.F = 0;
 204              		.loc 1 46 52 is_stmt 0 view .LVU68
 205 002c E371     		strb	r3, [r4, #7]
  47:Lib/modules/unitreeMotor/src/unitreeA1_cmd.c ****     cmd_leg[leg_id].motor_send_data.Mdata.T = (float)cmd_leg[leg_id].T * 256;
 206              		.loc 1 47 5 is_stmt 1 view .LVU69
  47:Lib/modules/unitreeMotor/src/unitreeA1_cmd.c ****     cmd_leg[leg_id].motor_send_data.Mdata.T = (float)cmd_leg[leg_id].T * 256;
 207              		.loc 1 47 52 is_stmt 0 view .LVU70
 208 002e 0022     		movs	r2, #0
 209 0030 A260     		str	r2, [r4, #8]	@ unaligned
  48:Lib/modules/unitreeMotor/src/unitreeA1_cmd.c ****     cmd_leg[leg_id].motor_send_data.Mdata.W = (float)cmd_leg[leg_id].W * 128;
 210              		.loc 1 48 5 is_stmt 1 view .LVU71
  48:Lib/modules/unitreeMotor/src/unitreeA1_cmd.c ****     cmd_leg[leg_id].motor_send_data.Mdata.W = (float)cmd_leg[leg_id].W * 128;
 211              		.loc 1 48 69 is_stmt 0 view .LVU72
 212 0032 D4F82A20 		ldr	r2, [r4, #42]	@ unaligned
  48:Lib/modules/unitreeMotor/src/unitreeA1_cmd.c ****     cmd_leg[leg_id].motor_send_data.Mdata.W = (float)cmd_leg[leg_id].W * 128;
 213              		.loc 1 48 45 view .LVU73
 214 0036 07EE902A 		vmov	s15, r2
 215 003a FEEECC7A 		vcvt.s32.f32	s15, s15, #8
 216 003e 17EE902A 		vmov	r2, s15	@ int
 217 0042 A281     		strh	r2, [r4, #12]	@ movhi
  49:Lib/modules/unitreeMotor/src/unitreeA1_cmd.c ****     cmd_leg[leg_id].motor_send_data.Mdata.Pos = (int)(((float)cmd_leg[leg_id].Pos / 6.2832f) * 1638
 218              		.loc 1 49 5 is_stmt 1 view .LVU74
  49:Lib/modules/unitreeMotor/src/unitreeA1_cmd.c ****     cmd_leg[leg_id].motor_send_data.Mdata.Pos = (int)(((float)cmd_leg[leg_id].Pos / 6.2832f) * 1638
 219              		.loc 1 49 69 is_stmt 0 view .LVU75
 220 0044 D4F82E20 		ldr	r2, [r4, #46]	@ unaligned
  49:Lib/modules/unitreeMotor/src/unitreeA1_cmd.c ****     cmd_leg[leg_id].motor_send_data.Mdata.Pos = (int)(((float)cmd_leg[leg_id].Pos / 6.2832f) * 1638
 221              		.loc 1 49 45 view .LVU76
 222 0048 07EE902A 		vmov	s15, r2
 223 004c FEEEEC7A 		vcvt.s32.f32	s15, s15, #7
 224 0050 17EE902A 		vmov	r2, s15	@ int
 225 0054 E281     		strh	r2, [r4, #14]	@ movhi
  50:Lib/modules/unitreeMotor/src/unitreeA1_cmd.c ****     cmd_leg[leg_id].motor_send_data.Mdata.K_P = (float)cmd_leg[leg_id].K_P * 2048;
 226              		.loc 1 50 5 is_stmt 1 view .LVU77
  50:Lib/modules/unitreeMotor/src/unitreeA1_cmd.c ****     cmd_leg[leg_id].motor_send_data.Mdata.K_P = (float)cmd_leg[leg_id].K_P * 2048;
 227              		.loc 1 50 78 is_stmt 0 view .LVU78
 228 0056 D4F83220 		ldr	r2, [r4, #50]	@ unaligned
  50:Lib/modules/unitreeMotor/src/unitreeA1_cmd.c ****     cmd_leg[leg_id].motor_send_data.Mdata.K_P = (float)cmd_leg[leg_id].K_P * 2048;
 229              		.loc 1 50 83 view .LVU79
 230 005a 9FED2A7A 		vldr.32	s14, .L21+4
 231 005e 07EE902A 		vmov	s15, r2
 232 0062 C7EE877A 		vdiv.f32	s15, s15, s14
  50:Lib/modules/unitreeMotor/src/unitreeA1_cmd.c ****     cmd_leg[leg_id].motor_send_data.Mdata.K_P = (float)cmd_leg[leg_id].K_P * 2048;
 233              		.loc 1 50 49 view .LVU80
 234 0066 FEEEC97A 		vcvt.s32.f32	s15, s15, #14
  50:Lib/modules/unitreeMotor/src/unitreeA1_cmd.c ****     cmd_leg[leg_id].motor_send_data.Mdata.K_P = (float)cmd_leg[leg_id].K_P * 2048;
 235              		.loc 1 50 47 view .LVU81
 236 006a 17EE902A 		vmov	r2, s15	@ int
 237 006e 2261     		str	r2, [r4, #16]	@ unaligned
  51:Lib/modules/unitreeMotor/src/unitreeA1_cmd.c ****     cmd_leg[leg_id].motor_send_data.Mdata.K_W = (float)cmd_leg[leg_id].K_W * 1024;
 238              		.loc 1 51 5 is_stmt 1 view .LVU82
ARM GAS  /tmp/cc5xmcK2.s 			page 8


  51:Lib/modules/unitreeMotor/src/unitreeA1_cmd.c ****     cmd_leg[leg_id].motor_send_data.Mdata.K_W = (float)cmd_leg[leg_id].K_W * 1024;
 239              		.loc 1 51 71 is_stmt 0 view .LVU83
 240 0070 D4F83620 		ldr	r2, [r4, #54]	@ unaligned
  51:Lib/modules/unitreeMotor/src/unitreeA1_cmd.c ****     cmd_leg[leg_id].motor_send_data.Mdata.K_W = (float)cmd_leg[leg_id].K_W * 1024;
 241              		.loc 1 51 47 view .LVU84
 242 0074 07EE902A 		vmov	s15, r2
 243 0078 FEEEEA7A 		vcvt.s32.f32	s15, s15, #11
 244 007c 17EE902A 		vmov	r2, s15	@ int
 245 0080 A282     		strh	r2, [r4, #20]	@ movhi
  52:Lib/modules/unitreeMotor/src/unitreeA1_cmd.c ****     cmd_leg[leg_id].motor_send_data.Mdata.LowHzMotorCmdIndex = 0;
 246              		.loc 1 52 5 is_stmt 1 view .LVU85
  52:Lib/modules/unitreeMotor/src/unitreeA1_cmd.c ****     cmd_leg[leg_id].motor_send_data.Mdata.LowHzMotorCmdIndex = 0;
 247              		.loc 1 52 71 is_stmt 0 view .LVU86
 248 0082 D4F83A20 		ldr	r2, [r4, #58]	@ unaligned
  52:Lib/modules/unitreeMotor/src/unitreeA1_cmd.c ****     cmd_leg[leg_id].motor_send_data.Mdata.LowHzMotorCmdIndex = 0;
 249              		.loc 1 52 47 view .LVU87
 250 0086 07EE902A 		vmov	s15, r2
 251 008a FEEECB7A 		vcvt.s32.f32	s15, s15, #10
 252 008e 17EE902A 		vmov	r2, s15	@ int
 253 0092 E282     		strh	r2, [r4, #22]	@ movhi
  53:Lib/modules/unitreeMotor/src/unitreeA1_cmd.c ****     cmd_leg[leg_id].motor_send_data.Mdata.LowHzMotorCmdByte = 0;
 254              		.loc 1 53 5 is_stmt 1 view .LVU88
  53:Lib/modules/unitreeMotor/src/unitreeA1_cmd.c ****     cmd_leg[leg_id].motor_send_data.Mdata.LowHzMotorCmdByte = 0;
 255              		.loc 1 53 62 is_stmt 0 view .LVU89
 256 0094 2376     		strb	r3, [r4, #24]
  54:Lib/modules/unitreeMotor/src/unitreeA1_cmd.c ****     cmd_leg[leg_id].motor_send_data.Mdata.Res[0] = cmd_leg[leg_id].Res;
 257              		.loc 1 54 5 is_stmt 1 view .LVU90
  54:Lib/modules/unitreeMotor/src/unitreeA1_cmd.c ****     cmd_leg[leg_id].motor_send_data.Mdata.Res[0] = cmd_leg[leg_id].Res;
 258              		.loc 1 54 61 is_stmt 0 view .LVU91
 259 0096 6376     		strb	r3, [r4, #25]
  55:Lib/modules/unitreeMotor/src/unitreeA1_cmd.c **** 
 260              		.loc 1 55 5 is_stmt 1 view .LVU92
  55:Lib/modules/unitreeMotor/src/unitreeA1_cmd.c **** 
 261              		.loc 1 55 50 is_stmt 0 view .LVU93
 262 0098 D4F83E30 		ldr	r3, [r4, #62]	@ unaligned
 263 009c C4F81A30 		str	r3, [r4, #26]	@ unaligned
  57:Lib/modules/unitreeMotor/src/unitreeA1_cmd.c **** 
 264              		.loc 1 57 5 is_stmt 1 view .LVU94
  57:Lib/modules/unitreeMotor/src/unitreeA1_cmd.c **** 
 265              		.loc 1 57 51 is_stmt 0 view .LVU95
 266 00a0 0721     		movs	r1, #7
 267 00a2 2046     		mov	r0, r4
 268              	.LVL18:
  57:Lib/modules/unitreeMotor/src/unitreeA1_cmd.c **** 
 269              		.loc 1 57 51 view .LVU96
 270 00a4 FFF7FEFF 		bl	crc32_core
 271              	.LVL19:
  57:Lib/modules/unitreeMotor/src/unitreeA1_cmd.c **** 
 272              		.loc 1 57 49 view .LVU97
 273 00a8 C4F81E00 		str	r0, [r4, #30]	@ unaligned
  59:Lib/modules/unitreeMotor/src/unitreeA1_cmd.c **** 
 274              		.loc 1 59 5 is_stmt 1 view .LVU98
 275 00ac A446     		mov	ip, r4
 276 00ae 01AE     		add	r6, sp, #4
 277 00b0 2034     		adds	r4, r4, #32
 278              	.L16:
 279 00b2 B646     		mov	lr, r6
ARM GAS  /tmp/cc5xmcK2.s 			page 9


 280 00b4 DCF80000 		ldr	r0, [ip]	@ unaligned
 281 00b8 DCF80410 		ldr	r1, [ip, #4]	@ unaligned
 282 00bc DCF80820 		ldr	r2, [ip, #8]	@ unaligned
 283 00c0 DCF80C30 		ldr	r3, [ip, #12]	@ unaligned
 284 00c4 AEE80F00 		stmia	lr!, {r0, r1, r2, r3}
 285 00c8 0CF1100C 		add	ip, ip, #16
 286 00cc 7646     		mov	r6, lr
 287 00ce A445     		cmp	ip, r4
 288 00d0 EFD1     		bne	.L16
 289 00d2 BCF80030 		ldrh	r3, [ip]	@ unaligned
 290 00d6 AEF80030 		strh	r3, [lr]	@ unaligned
  61:Lib/modules/unitreeMotor/src/unitreeA1_cmd.c ****     {
 291              		.loc 1 61 5 view .LVU99
 292 00da 1DB1     		cbz	r5, .L17
 293 00dc 012D     		cmp	r5, #1
 294 00de 08D0     		beq	.L18
 295              	.L15:
  70:Lib/modules/unitreeMotor/src/unitreeA1_cmd.c **** 
 296              		.loc 1 70 1 is_stmt 0 view .LVU100
 297 00e0 0AB0     		add	sp, sp, #40
 298              		.cfi_remember_state
 299              		.cfi_def_cfa_offset 16
 300              		@ sp needed
 301 00e2 70BD     		pop	{r4, r5, r6, pc}
 302              	.LVL20:
 303              	.L17:
 304              		.cfi_restore_state
  64:Lib/modules/unitreeMotor/src/unitreeA1_cmd.c ****         break;
 305              		.loc 1 64 9 is_stmt 1 view .LVU101
 306 00e4 0123     		movs	r3, #1
 307 00e6 2222     		movs	r2, #34
 308 00e8 01A9     		add	r1, sp, #4
 309 00ea 0748     		ldr	r0, .L21+8
 310 00ec FFF7FEFF 		bl	HAL_UART_Transmit
 311              	.LVL21:
  65:Lib/modules/unitreeMotor/src/unitreeA1_cmd.c ****     case 1:
 312              		.loc 1 65 9 view .LVU102
 313 00f0 F6E7     		b	.L15
 314              	.L18:
  67:Lib/modules/unitreeMotor/src/unitreeA1_cmd.c ****         break;
 315              		.loc 1 67 9 view .LVU103
 316 00f2 0123     		movs	r3, #1
 317 00f4 2222     		movs	r2, #34
 318 00f6 01A9     		add	r1, sp, #4
 319 00f8 0448     		ldr	r0, .L21+12
 320 00fa FFF7FEFF 		bl	HAL_UART_Transmit
 321              	.LVL22:
  68:Lib/modules/unitreeMotor/src/unitreeA1_cmd.c ****     }
 322              		.loc 1 68 9 view .LVU104
  70:Lib/modules/unitreeMotor/src/unitreeA1_cmd.c **** 
 323              		.loc 1 70 1 is_stmt 0 view .LVU105
 324 00fe EFE7     		b	.L15
 325              	.L22:
 326              		.align	2
 327              	.L21:
 328 0100 00000000 		.word	.LANCHOR0
 329 0104 F90FC940 		.word	1086918649
ARM GAS  /tmp/cc5xmcK2.s 			page 10


 330 0108 00000000 		.word	huart1
 331 010c 00000000 		.word	huart6
 332              		.cfi_endproc
 333              	.LFE133:
 335              		.global	data_motor
 336              		.global	data_leg
 337              		.global	cmd_leg
 338              		.section	.bss.cmd_leg,"aw",%nobits
 339              		.align	2
 340              		.set	.LANCHOR0,. + 0
 343              	cmd_leg:
 344 0000 00000000 		.space	132
 344      00000000 
 344      00000000 
 344      00000000 
 344      00000000 
 345              		.section	.bss.data_leg,"aw",%nobits
 346              		.align	2
 349              	data_leg:
 350 0000 00000000 		.space	272
 350      00000000 
 350      00000000 
 350      00000000 
 350      00000000 
 351              		.section	.bss.data_motor,"aw",%nobits
 352              		.align	2
 355              	data_motor:
 356 0000 00000000 		.space	816
 356      00000000 
 356      00000000 
 356      00000000 
 356      00000000 
 357              		.text
 358              	.Letext0:
 359              		.file 2 "/usr/share/gcc-arm-none-eabi-10.3-2021.10/arm-none-eabi/include/machine/_default_types.h"
 360              		.file 3 "/usr/share/gcc-arm-none-eabi-10.3-2021.10/arm-none-eabi/include/sys/_stdint.h"
 361              		.file 4 "Drivers/CMSIS/Device/ST/STM32F4xx/Include/stm32f407xx.h"
 362              		.file 5 "Drivers/STM32F4xx_HAL_Driver/Inc/stm32f4xx_hal_def.h"
 363              		.file 6 "Drivers/STM32F4xx_HAL_Driver/Inc/stm32f4xx_hal_dma.h"
 364              		.file 7 "Drivers/STM32F4xx_HAL_Driver/Inc/stm32f4xx_hal_uart.h"
 365              		.file 8 "Lib/modules/unitreeMotor/include/motor_msg.h"
 366              		.file 9 "Core/Inc/usart.h"
 367              		.file 10 "Lib/modules/unitreeMotor/include/unitreeA1_cmd.h"
ARM GAS  /tmp/cc5xmcK2.s 			page 11

