ARM GAS  /tmp/ccJBQgIh.s 			page 1


   1              		.cpu cortex-m4
   2              		.arch armv7e-m
   3              		.fpu fpv4-sp-d16
   4              		.eabi_attribute 27, 1
   5              		.eabi_attribute 28, 1
   6              		.eabi_attribute 20, 1
   7              		.eabi_attribute 21, 1
   8              		.eabi_attribute 23, 3
   9              		.eabi_attribute 24, 1
  10              		.eabi_attribute 25, 1
  11              		.eabi_attribute 26, 1
  12              		.eabi_attribute 30, 1
  13              		.eabi_attribute 34, 1
  14              		.eabi_attribute 18, 4
  15              		.file	"ecatslv.c"
  16              		.text
  17              	.Ltext0:
  18              		.cfi_sections	.debug_frame
  19              		.section	.text.ResetALEventMask,"ax",%progbits
  20              		.align	1
  21              		.global	ResetALEventMask
  22              		.syntax unified
  23              		.thumb
  24              		.thumb_func
  26              	ResetALEventMask:
  27              	.LVL0:
  28              	.LFB123:
  29              		.file 1 "Lib/ssc/src/ecatslv.c"
   1:Lib/ssc/src/ecatslv.c **** /**
   2:Lib/ssc/src/ecatslv.c **** \addtogroup ESM EtherCAT State Machine
   3:Lib/ssc/src/ecatslv.c **** @{
   4:Lib/ssc/src/ecatslv.c **** */
   5:Lib/ssc/src/ecatslv.c **** 
   6:Lib/ssc/src/ecatslv.c **** /**
   7:Lib/ssc/src/ecatslv.c **** \file ecatslv.c
   8:Lib/ssc/src/ecatslv.c **** \author EthercatSSC@beckhoff.com
   9:Lib/ssc/src/ecatslv.c **** \brief Implementation
  10:Lib/ssc/src/ecatslv.c **** This file contains the EtherCAT State Machine.
  11:Lib/ssc/src/ecatslv.c **** 
  12:Lib/ssc/src/ecatslv.c **** \version 5.11
  13:Lib/ssc/src/ecatslv.c **** 
  14:Lib/ssc/src/ecatslv.c **** <br>Changes to version V5.10:<br>
  15:Lib/ssc/src/ecatslv.c **** V5.11 COE3: change 0x10F3.2 (Sync Error limit) from UINT32 to UINT16 (according to the ETG.1020)<br
  16:Lib/ssc/src/ecatslv.c **** V5.11 DIAG4: change parameter handling in DIAG_CreateNewMessage()<br>
  17:Lib/ssc/src/ecatslv.c **** V5.11 ECAT10: change PROTO handling to prevent compiler errors<br>
  18:Lib/ssc/src/ecatslv.c **** V5.11 ECAT4: enhance SM/Sync monitoring for input/output only slaves<br>
  19:Lib/ssc/src/ecatslv.c **** V5.11 ECAT5: "Add missing ""bEscAlEventEnbaled"" initialization if ""AL_EVENT_ENBALED"" is 0"""<br>
  20:Lib/ssc/src/ecatslv.c **** V5.11 ECAT7: add missing big endian swapping<br>
  21:Lib/ssc/src/ecatslv.c **** V5.11 ESC1: update max address calculation<br>
  22:Lib/ssc/src/ecatslv.c **** V5.11 ESM1: update calculation of subordinated cycles<br>
  23:Lib/ssc/src/ecatslv.c **** V5.11 ESM2: DC_SUPPORTED, Sync0 is not supported and Sync0 is generated according register values t
  24:Lib/ssc/src/ecatslv.c **** V5.11 ESM3: update checking of the user configured sync type<br>
  25:Lib/ssc/src/ecatslv.c **** V5.11 ESM4: prevent to go from ErrSafeOP to OP without re enabling Sync0/1<br>
  26:Lib/ssc/src/ecatslv.c **** V5.11 ESM5: DPRAM range was double checked<br>
  27:Lib/ssc/src/ecatslv.c **** V5.11 ESM6: in the SO transition wait by default until the master has send process data<br>
  28:Lib/ssc/src/ecatslv.c **** V5.11 HW1: "move hardware independent functions ""HW_DisableSyncManChannel()"", ""HW_EnableSyncManC
  29:Lib/ssc/src/ecatslv.c **** V5.11 HW2: check during ESM handling if the SM address and length is aligned according the ESC acce
ARM GAS  /tmp/ccJBQgIh.s 			page 2


  30:Lib/ssc/src/ecatslv.c **** V5.11 TEST9: "add behaviour 0x2020.7 (SDO requests on 0x3006.0 are set to pending until an FoE read
  31:Lib/ssc/src/ecatslv.c **** <br>Changes to version V5.01:<br>
  32:Lib/ssc/src/ecatslv.c **** V5.10 COE1: Define one entry description for all 0x1C3x objects and change data type of SI11,12,13 
  33:Lib/ssc/src/ecatslv.c **** V5.10 DIAG1: Define diagmessage textIDs<br>
  34:Lib/ssc/src/ecatslv.c **** V5.10 ECAT13: Update Synchronisation handling (FreeRun,SM Sync, Sync0, Sync1)<br>
  35:Lib/ssc/src/ecatslv.c ****               Compare DC UINT configuration (by ESC Config data) vs. DC activation register setting
  36:Lib/ssc/src/ecatslv.c ****               Update 0x1C3x entries<br>
  37:Lib/ssc/src/ecatslv.c **** V5.10 ESC2: Check if defined SM settings do not exceed the available DPRAM range (in error case AL 
  38:Lib/ssc/src/ecatslv.c **** V5.10 ESC3: Handle DC cControl register values in case of 32Bit ESC access (a Sync activation mask 
  39:Lib/ssc/src/ecatslv.c **** V5.10 ESC4: Mask lower 4 Bit of AL status to get Run led value<br>
  40:Lib/ssc/src/ecatslv.c ****             Invalid RunLed code was calculated if ESC set ECAT Run Led<br>
  41:Lib/ssc/src/ecatslv.c **** V5.10 ESC5: Add missing swapping<br>
  42:Lib/ssc/src/ecatslv.c **** V5.10 ESM2: Update "bApplEsmPending" flag during a transition to a lower state<br>
  43:Lib/ssc/src/ecatslv.c **** V5.10 ESM3: Add "volatile" directive for ESM dummy variables<br>
  44:Lib/ssc/src/ecatslv.c **** V5.10 HW5: Block ESC interrupts during Timer ISR<br>
  45:Lib/ssc/src/ecatslv.c **** V5.10 TEST9: Add option to prevent SM3 unlock during PS<br>
  46:Lib/ssc/src/ecatslv.c **** <br>Changes to version V5.0:<br>
  47:Lib/ssc/src/ecatslv.c **** V5.01 APPL3: Include library demo application<br>
  48:Lib/ssc/src/ecatslv.c **** V5.01 ESC2: Add missed value swapping<br>
  49:Lib/ssc/src/ecatslv.c **** V5.01 ESM1: Don't overwrite the error reason in case of an failed PS transition<br>
  50:Lib/ssc/src/ecatslv.c **** V5.01 ESM2: Don't check the "appl trigger" flag in case on an regular transition to a lower state (
  51:Lib/ssc/src/ecatslv.c **** V5.01 ESM3: Call Error acknowledge indication only if error was acknowledged by the master<br>
  52:Lib/ssc/src/ecatslv.c **** V5.01 HW3: Update blink code of an SM watchdog error<br>
  53:Lib/ssc/src/ecatslv.c **** <br>Changes to version V4.42:<br>
  54:Lib/ssc/src/ecatslv.c **** V5.0 ECAT1: Support Explicit Device ID.<br>
  55:Lib/ssc/src/ecatslv.c **** V5.0 ECAT2: Application specific functions are moved to application files.<br>
  56:Lib/ssc/src/ecatslv.c **** V5.0 ECAT3: Global dummy variables used for dummy ESC operations.<br>
  57:Lib/ssc/src/ecatslv.c **** V5.0 ESC1: ESC 32Bit Access added.<br>
  58:Lib/ssc/src/ecatslv.c **** V5.0 ESC2: Support ESC EtherCAT LED Indication.<br>
  59:Lib/ssc/src/ecatslv.c **** V5.0 ESC3: Support EEPROM Emulation.<br>
  60:Lib/ssc/src/ecatslv.c **** V5.0 ESM1: Update "LocalErrorFlag" handling.<br>
  61:Lib/ssc/src/ecatslv.c **** V5.0 ESM2: Update Error Acknowledge by ALControl INIT (without error acknowledge)<br>
  62:Lib/ssc/src/ecatslv.c **** V5.0 ESM3: Handle pending ESM transition<br>
  63:Lib/ssc/src/ecatslv.c **** V5.0 ESM4: ECAT_StateChange() will only be called form application. In case of an communication err
  64:Lib/ssc/src/ecatslv.c **** V5.0 MBX1: Support configuration without mailbox protocol support.<br>
  65:Lib/ssc/src/ecatslv.c **** V5.0 TEST1: Add test application. See Application Note ET9300 for more details.<br>
  66:Lib/ssc/src/ecatslv.c **** <br>Changes to version V4.40:<br>
  67:Lib/ssc/src/ecatslv.c **** V4.42 ESM1: Reset local error flag if master set the acknowledge bit (0x120.4)<br>
  68:Lib/ssc/src/ecatslv.c **** <br>Changes to version V4.30:<br>
  69:Lib/ssc/src/ecatslv.c **** V4.40 ESM5: Enable output SyncManager if local error acknowledged<br>
  70:Lib/ssc/src/ecatslv.c **** V4.40 HW0: Use common hardware access functions<br>
  71:Lib/ssc/src/ecatslv.c **** V4.40 PDO3: Add support if only input process data is used<br>
  72:Lib/ssc/src/ecatslv.c **** V4.40 ECAT4: Add read SM activation register to acknowledge SM Change event<br>
  73:Lib/ssc/src/ecatslv.c **** V4.40 PDO2: Check if max process data size was exceed<br>
  74:Lib/ssc/src/ecatslv.c **** V4.40 DIAG1: add diagnosis message support<br>
  75:Lib/ssc/src/ecatslv.c **** V4.40 ESM4: Change Check WD setup; add define OP_PD_REQUIRED (defines if process data required in s
  76:Lib/ssc/src/ecatslv.c **** V4.40 WD1: change WD behaviour depending if process data required in OP state<br>
  77:Lib/ssc/src/ecatslv.c **** V4.40 MBX4: Change processing order of mailbox SyncManager flags<br>
  78:Lib/ssc/src/ecatslv.c **** V4.40 ECAT1: Merge content of HW_Main (spihw.c /mcihw.c) to ECAT_Main<br>
  79:Lib/ssc/src/ecatslv.c **** V4.40 ECAT2: Added CheckIfLocalError() to check local flags and set ALStatus /Al Status code if req
  80:Lib/ssc/src/ecatslv.c **** V4.40 ESM2: Add AL_ControlRes() to complete pending state requests. Change SafeOP to OP state respo
  81:Lib/ssc/src/ecatslv.c **** V4.40 ESM1: Prevent double call of StopOutputHandler()<br>
  82:Lib/ssc/src/ecatslv.c **** V4.40 BOOT1: Enable Mailbox SyncManger on state change to BOOT state (to enable FoE)<br>
  83:Lib/ssc/src/ecatslv.c **** V4.40 ESM3: Change State machine behaviour according to ETG.1000 V1.0.2 (state change #26)<br>
  84:Lib/ssc/src/ecatslv.c **** V4.40 LED1: Set error blink code<br>
  85:Lib/ssc/src/ecatslv.c **** V4.40 TIMER1: Added DC_CheckWatchdog() triggered from ECAT_CheckTimer(). Change local Sync0 watchdo
  86:Lib/ssc/src/ecatslv.c **** V4.40 WD1: Change check process data watchdog settings<br>
ARM GAS  /tmp/ccJBQgIh.s 			page 3


  87:Lib/ssc/src/ecatslv.c **** <br>Changes to version V4.20:<br>
  88:Lib/ssc/src/ecatslv.c **** V4.30 OBJ 3: initialize the object dictionary in state change INIT->PREOP; clear object dictionary 
  89:Lib/ssc/src/ecatslv.c **** V4.30 SYNC: add 0x1C32:10; 0x1C33:10 (Sync0 cycle), change synchronisation control functionality<br
  90:Lib/ssc/src/ecatslv.c **** V4.30 CiA402: add CiA402_Init() call in state change from PREOP to SAFEOP if DC synchronisation is 
  91:Lib/ssc/src/ecatslv.c ****                    else the Init function is called when bus cycle time is calculated [CalcSMCycleT
  92:Lib/ssc/src/ecatslv.c ****                    trigger error handling if the EtherCAT state machine gets a transition from OP t
  93:Lib/ssc/src/ecatslv.c **** V4.20 ECAT 1: add LEGACY_MODE behaviour in ECAT_CheckWatchdog()<br>
  94:Lib/ssc/src/ecatslv.c **** V4.20 DC 1: Add DC pending state machine handling and Dc watchdog functionality<br>
  95:Lib/ssc/src/ecatslv.c **** V4.20 ESM 2: Add State transition from BOOT to INIT<br>
  96:Lib/ssc/src/ecatslv.c **** V4.20 ESM 1: Non LEGACY_MODE State change handling<br>
  97:Lib/ssc/src/ecatslv.c **** V4.11 Renamed the function parameter "code" of Function "SendSmFailedEmergency() to avoid<br>
  98:Lib/ssc/src/ecatslv.c **** problems with some compilers"<br>
  99:Lib/ssc/src/ecatslv.c **** V4.11 ECAT 1: Fixed a possible problem with state change Init -> SafeOP. The output syncmanager<br>
 100:Lib/ssc/src/ecatslv.c **** was enabled by the state change-flag and not by the actual state<br>
 101:Lib/ssc/src/ecatslv.c **** V4.11 LED 1: Clear the error LED during error acknowledgement<br>
 102:Lib/ssc/src/ecatslv.c **** V4.11 ESC 1: fixed size of MBXHEADER in the TFOEMBX struct <br>
 103:Lib/ssc/src/ecatslv.c **** <br>Changes to version V4.08:<br>
 104:Lib/ssc/src/ecatslv.c **** V4.10 ECAT 1: clear bEcatOutputsReceived in startMailboxhandler()<br>
 105:Lib/ssc/src/ecatslv.c **** V4.10 ECAT 2: clear bEcatOutputsReceived in stopMailboxhandler()<br>
 106:Lib/ssc/src/ecatslv.c **** V4.10 ECAT 3: when switching from INIT to BOOT the SM settings shall be checked<br>
 107:Lib/ssc/src/ecatslv.c **** V4.10 ECAT 4: APPL_StartInputHandler shall always be called and bEcatInputUpdateRunning shall alway
 108:Lib/ssc/src/ecatslv.c ****               in StartInputHandler independent of the input size<br>
 109:Lib/ssc/src/ecatslv.c **** V4.10 ECAT 5: AL_ControlInd: the error acknowledge behaviour was changed<br>
 110:Lib/ssc/src/ecatslv.c ****               according to the protocol enhancements and the conformance test<br>
 111:Lib/ssc/src/ecatslv.c **** V4.10 ECAT 6: AL_ControlInd: if a state transitions failed the corresponding stop function is<br>
 112:Lib/ssc/src/ecatslv.c ****               called to get a consistent set of variables<br>
 113:Lib/ssc/src/ecatslv.c **** V4.10 ECAT 7: the local application requested to leave the state OP so we have to disable the SM2<b
 114:Lib/ssc/src/ecatslv.c ****                    and make the state change from OP to SAFEOP by calling StopOutputHandler<br>
 115:Lib/ssc/src/ecatslv.c **** V4.10 ECAT 8: the AL Status Code has to be reset if the error was acknowledged by the master<br>
 116:Lib/ssc/src/ecatslv.c **** V4.10 ECAT 9: ECAT_StateChange: when waiting for a State Change response from the application the<b
 117:Lib/ssc/src/ecatslv.c ****               AL Status shall only be written if the final state was reached<br>
 118:Lib/ssc/src/ecatslv.c **** <br>Changes to version V4.07:<br>
 119:Lib/ssc/src/ecatslv.c **** V4.08 ECAT 1: The watchdog value was not rounded up<br>
 120:Lib/ssc/src/ecatslv.c **** V4.08 ECAT 2: The value of u16WdValue was not set 0 if the register 0x420 is 0<br>
 121:Lib/ssc/src/ecatslv.c **** V4.08 ECAT 3: The AlStatusCode is changed as parameter of the function AL_ControlInd<br>
 122:Lib/ssc/src/ecatslv.c **** V4.08 ECAT 4: In a state transition OP2PREOP, SAFEOP2INIT or OP2INIT is requested,<br>
 123:Lib/ssc/src/ecatslv.c ****               this was not working correctly if one of the application functions<br>
 124:Lib/ssc/src/ecatslv.c ****               APPL_StopInputHandler or APPL_StopOutputHandler were returning NOERROR_INWORK<br>
 125:Lib/ssc/src/ecatslv.c ****               (because only the first state transition was made in that case)<br>
 126:Lib/ssc/src/ecatslv.c **** V4.08 AOE 1:    AoE was added<br>
 127:Lib/ssc/src/ecatslv.c **** <br>Changes to version V4.06:<br>
 128:Lib/ssc/src/ecatslv.c **** V4.07 ECAT 1: The sources for SPI and MCI were merged (in ecat_def.h<br>
 129:Lib/ssc/src/ecatslv.c ****                    set the switch MCI_HW to 1 when using the MCI,<br>
 130:Lib/ssc/src/ecatslv.c ****                    set the switch SPI_HW to 1 when using the SPI<br>
 131:Lib/ssc/src/ecatslv.c **** <br>Changes to version V4.00:<br>
 132:Lib/ssc/src/ecatslv.c **** V4.01 ECAT 1: The Output sync Manager was not disabled when the state OP was left<br>
 133:Lib/ssc/src/ecatslv.c ****               by a local request (watchdog or io error)<br>
 134:Lib/ssc/src/ecatslv.c **** V4.01 ECAT 2: APPL_StopOutputHandler returns an UINT16<br>
 135:Lib/ssc/src/ecatslv.c **** V4.01 ECAT 3: TwinCAT compatibility mode: The state transition to OP is allowed when the<br>
 136:Lib/ssc/src/ecatslv.c ****                     WD-Trigger-Bit of the SM2-Control-Byte (0x814.6) is FALSE, in that case the<br>
 137:Lib/ssc/src/ecatslv.c ****                     watchdog will not be started before the outputs were received the first time<br
 138:Lib/ssc/src/ecatslv.c **** V4.01 ECAT 4: "else" was too much<br>
 139:Lib/ssc/src/ecatslv.c **** <br>Changes to version V3.20:<br>
 140:Lib/ssc/src/ecatslv.c **** V4.00 ECAT 1: The handling of the Sync Manager Parameter was included according to<br>
 141:Lib/ssc/src/ecatslv.c ****               the EtherCAT Guidelines and Protocol Enhancements Specification<br>
 142:Lib/ssc/src/ecatslv.c **** V4.00 ECAT 2: The output sync manager is initialized during the state transition<br>
 143:Lib/ssc/src/ecatslv.c ****               from PREOP to SAFEOP that the master can check if the slave could update<br>
ARM GAS  /tmp/ccJBQgIh.s 			page 4


 144:Lib/ssc/src/ecatslv.c ****               inputs and outputs before switching the slave to OP<br>
 145:Lib/ssc/src/ecatslv.c ****               behaviour according to the EtherCAT Guidelines and Protocol Enhancements Specificatio
 146:Lib/ssc/src/ecatslv.c **** V4.00 ECAT 3: The watchdog will be enabled in SAFE-OP that it can be checked if the last SM event<b
 147:Lib/ssc/src/ecatslv.c ****               was received during the watchdog time before switching to OP<br>
 148:Lib/ssc/src/ecatslv.c **** V4.00 ECAT 4: The function CheckSmChannelParameters is included in the function<br>
 149:Lib/ssc/src/ecatslv.c ****               CheckSmSettings to get a better overview<br>
 150:Lib/ssc/src/ecatslv.c **** V4.00 ECAT 5: In synchronous mode the slave should support 1- and 3-buffer mode, 3-buffer mode<br>
 151:Lib/ssc/src/ecatslv.c ****               should be the standard setting, because the controlling if the process data was updat
 152:Lib/ssc/src/ecatslv.c ****               should be done with the TxPDO Toggle, but the 1-buffer mode should be setable too,<br
 153:Lib/ssc/src/ecatslv.c ****               that the master could easily check if all slaves are synchronous by checking the<br>
 154:Lib/ssc/src/ecatslv.c ****               the working counter (if the outputs were not read or the inputs were not written<br>
 155:Lib/ssc/src/ecatslv.c ****               the ESC of the slave would not increment the working counter with expected value<br>
 156:Lib/ssc/src/ecatslv.c ****               if the 1-buffer mode is running)<br>
 157:Lib/ssc/src/ecatslv.c **** V4.00 ECAT 6: The function ECAT_StateChange was added, which the application should call if a local
 158:Lib/ssc/src/ecatslv.c ****                    is detected (with the parameters alStatus = STATE_SAFEOP, alStatusCode = error c
 159:Lib/ssc/src/ecatslv.c ****                    or gone (with the parameters alStatus = STATE_OP, alStatusCode = 0)<br>
 160:Lib/ssc/src/ecatslv.c ****                    or if one of the functions APPL_StartMailboxHandler, APPL_StopMailboxHandler, AP
 161:Lib/ssc/src/ecatslv.c ****                    APPL_StopInputHandler, APPL_StartOutputHandler, APPL_StopOutputHandler has retur
 162:Lib/ssc/src/ecatslv.c ****                    to acknowledge the last state transition (with the parameters alStatus = new AL-
 163:Lib/ssc/src/ecatslv.c ****                    new AL-Status-Code)<br>
 164:Lib/ssc/src/ecatslv.c **** V4.00 ECAT 7: The return values for the AL-StatusCode were changed to UINT16
 165:Lib/ssc/src/ecatslv.c **** */
 166:Lib/ssc/src/ecatslv.c **** 
 167:Lib/ssc/src/ecatslv.c **** /*-----------------------------------------------------------------------------------------
 168:Lib/ssc/src/ecatslv.c **** ------
 169:Lib/ssc/src/ecatslv.c **** ------    Includes
 170:Lib/ssc/src/ecatslv.c **** ------
 171:Lib/ssc/src/ecatslv.c **** -----------------------------------------------------------------------------------------*/
 172:Lib/ssc/src/ecatslv.c **** 
 173:Lib/ssc/src/ecatslv.c **** #define    _ECATSLV_    1
 174:Lib/ssc/src/ecatslv.c **** #include "ecatslv.h"
 175:Lib/ssc/src/ecatslv.c **** #undef    _ECATSLV_
 176:Lib/ssc/src/ecatslv.c **** /* ECATCHANGE_START(V5.11) ECAT10*/
 177:Lib/ssc/src/ecatslv.c **** /*remove definition of _ECATSLV_ (#ifdef is used in ecatslv.h)*/
 178:Lib/ssc/src/ecatslv.c **** /* ECATCHANGE_END(V5.11) ECAT10*/
 179:Lib/ssc/src/ecatslv.c **** 
 180:Lib/ssc/src/ecatslv.c **** #include "ecatappl.h"
 181:Lib/ssc/src/ecatslv.c **** 
 182:Lib/ssc/src/ecatslv.c **** 
 183:Lib/ssc/src/ecatslv.c **** 
 184:Lib/ssc/src/ecatslv.c **** 
 185:Lib/ssc/src/ecatslv.c **** #include "mailbox.h"
 186:Lib/ssc/src/ecatslv.c **** 
 187:Lib/ssc/src/ecatslv.c **** #include "ecatcoe.h"
 188:Lib/ssc/src/ecatslv.c **** #include "objdef.h"
 189:Lib/ssc/src/ecatslv.c **** 
 190:Lib/ssc/src/ecatslv.c **** 
 191:Lib/ssc/src/ecatslv.c **** 
 192:Lib/ssc/src/ecatslv.c **** #include "el9800appl.h"
 193:Lib/ssc/src/ecatslv.c **** 
 194:Lib/ssc/src/ecatslv.c **** /*--------------------------------------------------------------------------------------
 195:Lib/ssc/src/ecatslv.c **** ------
 196:Lib/ssc/src/ecatslv.c **** ------    local Types and Defines
 197:Lib/ssc/src/ecatslv.c **** ------
 198:Lib/ssc/src/ecatslv.c **** --------------------------------------------------------------------------------------*/
 199:Lib/ssc/src/ecatslv.c **** 
 200:Lib/ssc/src/ecatslv.c **** 
ARM GAS  /tmp/ccJBQgIh.s 			page 5


 201:Lib/ssc/src/ecatslv.c **** /*-----------------------------------------------------------------------------------------
 202:Lib/ssc/src/ecatslv.c **** ------
 203:Lib/ssc/src/ecatslv.c **** ------    local variables and constants
 204:Lib/ssc/src/ecatslv.c **** ------
 205:Lib/ssc/src/ecatslv.c **** -----------------------------------------------------------------------------------------*/
 206:Lib/ssc/src/ecatslv.c **** UINT16    u16ALEventMask;                      // Value which will be written to the 0x204 register
 207:Lib/ssc/src/ecatslv.c **** 
 208:Lib/ssc/src/ecatslv.c **** /*Dummy variable to trigger read or writes events in the ESC*/
 209:Lib/ssc/src/ecatslv.c ****     VARVOLATILE UINT16    u16dummy;
 210:Lib/ssc/src/ecatslv.c **** 
 211:Lib/ssc/src/ecatslv.c **** 
 212:Lib/ssc/src/ecatslv.c ****         VARVOLATILE UINT16 SMActivate = 0;
 213:Lib/ssc/src/ecatslv.c **** 
 214:Lib/ssc/src/ecatslv.c **** /*ECATCHANGE_START(V5.11) HW1*/
 215:Lib/ssc/src/ecatslv.c **** TSYNCMAN		SyncManInfo;
 216:Lib/ssc/src/ecatslv.c **** 
 217:Lib/ssc/src/ecatslv.c **** //indicates if the EEPORM was loaded correct
 218:Lib/ssc/src/ecatslv.c **** BOOL EepromLoaded = FALSE;
 219:Lib/ssc/src/ecatslv.c **** /*-----------------------------------------------------------------------------------------
 220:Lib/ssc/src/ecatslv.c **** ------
 221:Lib/ssc/src/ecatslv.c **** ------    local functions
 222:Lib/ssc/src/ecatslv.c **** ------
 223:Lib/ssc/src/ecatslv.c **** -----------------------------------------------------------------------------------------*/
 224:Lib/ssc/src/ecatslv.c **** /////////////////////////////////////////////////////////////////////////////////////////
 225:Lib/ssc/src/ecatslv.c **** /**
 226:Lib/ssc/src/ecatslv.c ****  \param    intMask        interrupt mask (disabled interrupt shall be zero)
 227:Lib/ssc/src/ecatslv.c **** 
 228:Lib/ssc/src/ecatslv.c ****  \brief    This function makes an logical and with the AL Event Mask register (0x204)
 229:Lib/ssc/src/ecatslv.c **** *////////////////////////////////////////////////////////////////////////////////////////
 230:Lib/ssc/src/ecatslv.c **** void ResetALEventMask(UINT16 intMask)
 231:Lib/ssc/src/ecatslv.c **** {
  30              		.loc 1 231 1 view -0
  31              		.cfi_startproc
  32              		@ args = 0, pretend = 0, frame = 8
  33              		@ frame_needed = 0, uses_anonymous_args = 0
  34              		.loc 1 231 1 is_stmt 0 view .LVU1
  35 0000 30B5     		push	{r4, r5, lr}
  36              		.cfi_def_cfa_offset 12
  37              		.cfi_offset 4, -12
  38              		.cfi_offset 5, -8
  39              		.cfi_offset 14, -4
  40 0002 83B0     		sub	sp, sp, #12
  41              		.cfi_def_cfa_offset 24
  42 0004 0446     		mov	r4, r0
 232:Lib/ssc/src/ecatslv.c ****     UINT16 mask;
  43              		.loc 1 232 5 is_stmt 1 view .LVU2
 233:Lib/ssc/src/ecatslv.c ****     HW_EscReadWord(mask, ESC_AL_EVENTMASK_OFFSET);
  44              		.loc 1 233 5 view .LVU3
  45 0006 0222     		movs	r2, #2
  46 0008 4FF40171 		mov	r1, #516
  47 000c 0DF10600 		add	r0, sp, #6
  48              	.LVL1:
  49              		.loc 1 233 5 is_stmt 0 view .LVU4
  50 0010 FFF7FEFF 		bl	HW_EscRead
  51              	.LVL2:
 234:Lib/ssc/src/ecatslv.c ****     
 235:Lib/ssc/src/ecatslv.c ****     mask &= intMask;
ARM GAS  /tmp/ccJBQgIh.s 			page 6


  52              		.loc 1 235 5 is_stmt 1 view .LVU5
  53              		.loc 1 235 10 is_stmt 0 view .LVU6
  54 0014 BDF80600 		ldrh	r0, [sp, #6]
  55 0018 0440     		ands	r4, r4, r0
  56 001a ADF80640 		strh	r4, [sp, #6]	@ movhi
 236:Lib/ssc/src/ecatslv.c **** 
 237:Lib/ssc/src/ecatslv.c ****     DISABLE_ESC_INT();
  57              		.loc 1 237 5 is_stmt 1 view .LVU7
  58              	.LVL3:
  59              	.LBB10:
  60              	.LBI10:
  61              		.file 2 "Drivers/CMSIS/Include/core_cm4.h"
   1:Drivers/CMSIS/Include/core_cm4.h **** /**************************************************************************//**
   2:Drivers/CMSIS/Include/core_cm4.h ****  * @file     core_cm4.h
   3:Drivers/CMSIS/Include/core_cm4.h ****  * @brief    CMSIS Cortex-M4 Core Peripheral Access Layer Header File
   4:Drivers/CMSIS/Include/core_cm4.h ****  * @version  V4.10
   5:Drivers/CMSIS/Include/core_cm4.h ****  * @date     18. March 2015
   6:Drivers/CMSIS/Include/core_cm4.h ****  *
   7:Drivers/CMSIS/Include/core_cm4.h ****  * @note
   8:Drivers/CMSIS/Include/core_cm4.h ****  *
   9:Drivers/CMSIS/Include/core_cm4.h ****  ******************************************************************************/
  10:Drivers/CMSIS/Include/core_cm4.h **** /* Copyright (c) 2009 - 2015 ARM LIMITED
  11:Drivers/CMSIS/Include/core_cm4.h **** 
  12:Drivers/CMSIS/Include/core_cm4.h ****    All rights reserved.
  13:Drivers/CMSIS/Include/core_cm4.h ****    Redistribution and use in source and binary forms, with or without
  14:Drivers/CMSIS/Include/core_cm4.h ****    modification, are permitted provided that the following conditions are met:
  15:Drivers/CMSIS/Include/core_cm4.h ****    - Redistributions of source code must retain the above copyright
  16:Drivers/CMSIS/Include/core_cm4.h ****      notice, this list of conditions and the following disclaimer.
  17:Drivers/CMSIS/Include/core_cm4.h ****    - Redistributions in binary form must reproduce the above copyright
  18:Drivers/CMSIS/Include/core_cm4.h ****      notice, this list of conditions and the following disclaimer in the
  19:Drivers/CMSIS/Include/core_cm4.h ****      documentation and/or other materials provided with the distribution.
  20:Drivers/CMSIS/Include/core_cm4.h ****    - Neither the name of ARM nor the names of its contributors may be used
  21:Drivers/CMSIS/Include/core_cm4.h ****      to endorse or promote products derived from this software without
  22:Drivers/CMSIS/Include/core_cm4.h ****      specific prior written permission.
  23:Drivers/CMSIS/Include/core_cm4.h ****    *
  24:Drivers/CMSIS/Include/core_cm4.h ****    THIS SOFTWARE IS PROVIDED BY THE COPYRIGHT HOLDERS AND CONTRIBUTORS "AS IS"
  25:Drivers/CMSIS/Include/core_cm4.h ****    AND ANY EXPRESS OR IMPLIED WARRANTIES, INCLUDING, BUT NOT LIMITED TO, THE
  26:Drivers/CMSIS/Include/core_cm4.h ****    IMPLIED WARRANTIES OF MERCHANTABILITY AND FITNESS FOR A PARTICULAR PURPOSE
  27:Drivers/CMSIS/Include/core_cm4.h ****    ARE DISCLAIMED. IN NO EVENT SHALL COPYRIGHT HOLDERS AND CONTRIBUTORS BE
  28:Drivers/CMSIS/Include/core_cm4.h ****    LIABLE FOR ANY DIRECT, INDIRECT, INCIDENTAL, SPECIAL, EXEMPLARY, OR
  29:Drivers/CMSIS/Include/core_cm4.h ****    CONSEQUENTIAL DAMAGES (INCLUDING, BUT NOT LIMITED TO, PROCUREMENT OF
  30:Drivers/CMSIS/Include/core_cm4.h ****    SUBSTITUTE GOODS OR SERVICES; LOSS OF USE, DATA, OR PROFITS; OR BUSINESS
  31:Drivers/CMSIS/Include/core_cm4.h ****    INTERRUPTION) HOWEVER CAUSED AND ON ANY THEORY OF LIABILITY, WHETHER IN
  32:Drivers/CMSIS/Include/core_cm4.h ****    CONTRACT, STRICT LIABILITY, OR TORT (INCLUDING NEGLIGENCE OR OTHERWISE)
  33:Drivers/CMSIS/Include/core_cm4.h ****    ARISING IN ANY WAY OUT OF THE USE OF THIS SOFTWARE, EVEN IF ADVISED OF THE
  34:Drivers/CMSIS/Include/core_cm4.h ****    POSSIBILITY OF SUCH DAMAGE.
  35:Drivers/CMSIS/Include/core_cm4.h ****    ---------------------------------------------------------------------------*/
  36:Drivers/CMSIS/Include/core_cm4.h **** 
  37:Drivers/CMSIS/Include/core_cm4.h **** 
  38:Drivers/CMSIS/Include/core_cm4.h **** #if defined ( __ICCARM__ )
  39:Drivers/CMSIS/Include/core_cm4.h ****  #pragma system_include  /* treat file as system include file for MISRA check */
  40:Drivers/CMSIS/Include/core_cm4.h **** #endif
  41:Drivers/CMSIS/Include/core_cm4.h **** 
  42:Drivers/CMSIS/Include/core_cm4.h **** #ifndef __CORE_CM4_H_GENERIC
  43:Drivers/CMSIS/Include/core_cm4.h **** #define __CORE_CM4_H_GENERIC
  44:Drivers/CMSIS/Include/core_cm4.h **** 
  45:Drivers/CMSIS/Include/core_cm4.h **** #ifdef __cplusplus
ARM GAS  /tmp/ccJBQgIh.s 			page 7


  46:Drivers/CMSIS/Include/core_cm4.h ****  extern "C" {
  47:Drivers/CMSIS/Include/core_cm4.h **** #endif
  48:Drivers/CMSIS/Include/core_cm4.h **** 
  49:Drivers/CMSIS/Include/core_cm4.h **** /** \page CMSIS_MISRA_Exceptions  MISRA-C:2004 Compliance Exceptions
  50:Drivers/CMSIS/Include/core_cm4.h ****   CMSIS violates the following MISRA-C:2004 rules:
  51:Drivers/CMSIS/Include/core_cm4.h **** 
  52:Drivers/CMSIS/Include/core_cm4.h ****    \li Required Rule 8.5, object/function definition in header file.<br>
  53:Drivers/CMSIS/Include/core_cm4.h ****      Function definitions in header files are used to allow 'inlining'.
  54:Drivers/CMSIS/Include/core_cm4.h **** 
  55:Drivers/CMSIS/Include/core_cm4.h ****    \li Required Rule 18.4, declaration of union type or object of union type: '{...}'.<br>
  56:Drivers/CMSIS/Include/core_cm4.h ****      Unions are used for effective representation of core registers.
  57:Drivers/CMSIS/Include/core_cm4.h **** 
  58:Drivers/CMSIS/Include/core_cm4.h ****    \li Advisory Rule 19.7, Function-like macro defined.<br>
  59:Drivers/CMSIS/Include/core_cm4.h ****      Function-like macros are used to allow more efficient code.
  60:Drivers/CMSIS/Include/core_cm4.h ****  */
  61:Drivers/CMSIS/Include/core_cm4.h **** 
  62:Drivers/CMSIS/Include/core_cm4.h **** 
  63:Drivers/CMSIS/Include/core_cm4.h **** /*******************************************************************************
  64:Drivers/CMSIS/Include/core_cm4.h ****  *                 CMSIS definitions
  65:Drivers/CMSIS/Include/core_cm4.h ****  ******************************************************************************/
  66:Drivers/CMSIS/Include/core_cm4.h **** /** \ingroup Cortex_M4
  67:Drivers/CMSIS/Include/core_cm4.h ****   @{
  68:Drivers/CMSIS/Include/core_cm4.h ****  */
  69:Drivers/CMSIS/Include/core_cm4.h **** 
  70:Drivers/CMSIS/Include/core_cm4.h **** /*  CMSIS CM4 definitions */
  71:Drivers/CMSIS/Include/core_cm4.h **** #define __CM4_CMSIS_VERSION_MAIN  (0x04)                                   /*!< [31:16] CMSIS HAL m
  72:Drivers/CMSIS/Include/core_cm4.h **** #define __CM4_CMSIS_VERSION_SUB   (0x00)                                   /*!< [15:0]  CMSIS HAL s
  73:Drivers/CMSIS/Include/core_cm4.h **** #define __CM4_CMSIS_VERSION       ((__CM4_CMSIS_VERSION_MAIN << 16) | \
  74:Drivers/CMSIS/Include/core_cm4.h ****                                     __CM4_CMSIS_VERSION_SUB          )     /*!< CMSIS HAL version n
  75:Drivers/CMSIS/Include/core_cm4.h **** 
  76:Drivers/CMSIS/Include/core_cm4.h **** #define __CORTEX_M                (0x04)                                   /*!< Cortex-M Core      
  77:Drivers/CMSIS/Include/core_cm4.h **** 
  78:Drivers/CMSIS/Include/core_cm4.h **** 
  79:Drivers/CMSIS/Include/core_cm4.h **** #if   defined ( __CC_ARM )
  80:Drivers/CMSIS/Include/core_cm4.h ****   #define __ASM            __asm                                      /*!< asm keyword for ARM Comp
  81:Drivers/CMSIS/Include/core_cm4.h ****   #define __INLINE         __inline                                   /*!< inline keyword for ARM C
  82:Drivers/CMSIS/Include/core_cm4.h ****   #define __STATIC_INLINE  static __inline
  83:Drivers/CMSIS/Include/core_cm4.h **** 
  84:Drivers/CMSIS/Include/core_cm4.h **** #elif defined ( __GNUC__ )
  85:Drivers/CMSIS/Include/core_cm4.h ****   #define __ASM            __asm                                      /*!< asm keyword for GNU Comp
  86:Drivers/CMSIS/Include/core_cm4.h ****   #define __INLINE         inline                                     /*!< inline keyword for GNU C
  87:Drivers/CMSIS/Include/core_cm4.h ****   #define __STATIC_INLINE  static inline
  88:Drivers/CMSIS/Include/core_cm4.h **** 
  89:Drivers/CMSIS/Include/core_cm4.h **** #elif defined ( __ICCARM__ )
  90:Drivers/CMSIS/Include/core_cm4.h ****   #define __ASM            __asm                                      /*!< asm keyword for IAR Comp
  91:Drivers/CMSIS/Include/core_cm4.h ****   #define __INLINE         inline                                     /*!< inline keyword for IAR C
  92:Drivers/CMSIS/Include/core_cm4.h ****   #define __STATIC_INLINE  static inline
  93:Drivers/CMSIS/Include/core_cm4.h **** 
  94:Drivers/CMSIS/Include/core_cm4.h **** #elif defined ( __TMS470__ )
  95:Drivers/CMSIS/Include/core_cm4.h ****   #define __ASM            __asm                                      /*!< asm keyword for TI CCS C
  96:Drivers/CMSIS/Include/core_cm4.h ****   #define __STATIC_INLINE  static inline
  97:Drivers/CMSIS/Include/core_cm4.h **** 
  98:Drivers/CMSIS/Include/core_cm4.h **** #elif defined ( __TASKING__ )
  99:Drivers/CMSIS/Include/core_cm4.h ****   #define __ASM            __asm                                      /*!< asm keyword for TASKING 
 100:Drivers/CMSIS/Include/core_cm4.h ****   #define __INLINE         inline                                     /*!< inline keyword for TASKI
 101:Drivers/CMSIS/Include/core_cm4.h ****   #define __STATIC_INLINE  static inline
 102:Drivers/CMSIS/Include/core_cm4.h **** 
ARM GAS  /tmp/ccJBQgIh.s 			page 8


 103:Drivers/CMSIS/Include/core_cm4.h **** #elif defined ( __CSMC__ )
 104:Drivers/CMSIS/Include/core_cm4.h ****   #define __packed
 105:Drivers/CMSIS/Include/core_cm4.h ****   #define __ASM            _asm                                      /*!< asm keyword for COSMIC Co
 106:Drivers/CMSIS/Include/core_cm4.h ****   #define __INLINE         inline                                    /*use -pc99 on compile line !<
 107:Drivers/CMSIS/Include/core_cm4.h ****   #define __STATIC_INLINE  static inline
 108:Drivers/CMSIS/Include/core_cm4.h **** 
 109:Drivers/CMSIS/Include/core_cm4.h **** #endif
 110:Drivers/CMSIS/Include/core_cm4.h **** 
 111:Drivers/CMSIS/Include/core_cm4.h **** /** __FPU_USED indicates whether an FPU is used or not.
 112:Drivers/CMSIS/Include/core_cm4.h ****     For this, __FPU_PRESENT has to be checked prior to making use of FPU specific registers and fun
 113:Drivers/CMSIS/Include/core_cm4.h **** */
 114:Drivers/CMSIS/Include/core_cm4.h **** #if defined ( __CC_ARM )
 115:Drivers/CMSIS/Include/core_cm4.h ****   #if defined __TARGET_FPU_VFP
 116:Drivers/CMSIS/Include/core_cm4.h ****     #if (__FPU_PRESENT == 1)
 117:Drivers/CMSIS/Include/core_cm4.h ****       #define __FPU_USED       1
 118:Drivers/CMSIS/Include/core_cm4.h ****     #else
 119:Drivers/CMSIS/Include/core_cm4.h ****       #warning "Compiler generates FPU instructions for a device without an FPU (check __FPU_PRESEN
 120:Drivers/CMSIS/Include/core_cm4.h ****       #define __FPU_USED       0
 121:Drivers/CMSIS/Include/core_cm4.h ****     #endif
 122:Drivers/CMSIS/Include/core_cm4.h ****   #else
 123:Drivers/CMSIS/Include/core_cm4.h ****     #define __FPU_USED         0
 124:Drivers/CMSIS/Include/core_cm4.h ****   #endif
 125:Drivers/CMSIS/Include/core_cm4.h **** 
 126:Drivers/CMSIS/Include/core_cm4.h **** #elif defined ( __GNUC__ )
 127:Drivers/CMSIS/Include/core_cm4.h ****   #if defined (__VFP_FP__) && !defined(__SOFTFP__)
 128:Drivers/CMSIS/Include/core_cm4.h ****     #if (__FPU_PRESENT == 1)
 129:Drivers/CMSIS/Include/core_cm4.h ****       #define __FPU_USED       1
 130:Drivers/CMSIS/Include/core_cm4.h ****     #else
 131:Drivers/CMSIS/Include/core_cm4.h ****       #warning "Compiler generates FPU instructions for a device without an FPU (check __FPU_PRESEN
 132:Drivers/CMSIS/Include/core_cm4.h ****       #define __FPU_USED       0
 133:Drivers/CMSIS/Include/core_cm4.h ****     #endif
 134:Drivers/CMSIS/Include/core_cm4.h ****   #else
 135:Drivers/CMSIS/Include/core_cm4.h ****     #define __FPU_USED         0
 136:Drivers/CMSIS/Include/core_cm4.h ****   #endif
 137:Drivers/CMSIS/Include/core_cm4.h **** 
 138:Drivers/CMSIS/Include/core_cm4.h **** #elif defined ( __ICCARM__ )
 139:Drivers/CMSIS/Include/core_cm4.h ****   #if defined __ARMVFP__
 140:Drivers/CMSIS/Include/core_cm4.h ****     #if (__FPU_PRESENT == 1)
 141:Drivers/CMSIS/Include/core_cm4.h ****       #define __FPU_USED       1
 142:Drivers/CMSIS/Include/core_cm4.h ****     #else
 143:Drivers/CMSIS/Include/core_cm4.h ****       #warning "Compiler generates FPU instructions for a device without an FPU (check __FPU_PRESEN
 144:Drivers/CMSIS/Include/core_cm4.h ****       #define __FPU_USED       0
 145:Drivers/CMSIS/Include/core_cm4.h ****     #endif
 146:Drivers/CMSIS/Include/core_cm4.h ****   #else
 147:Drivers/CMSIS/Include/core_cm4.h ****     #define __FPU_USED         0
 148:Drivers/CMSIS/Include/core_cm4.h ****   #endif
 149:Drivers/CMSIS/Include/core_cm4.h **** 
 150:Drivers/CMSIS/Include/core_cm4.h **** #elif defined ( __TMS470__ )
 151:Drivers/CMSIS/Include/core_cm4.h ****   #if defined __TI_VFP_SUPPORT__
 152:Drivers/CMSIS/Include/core_cm4.h ****     #if (__FPU_PRESENT == 1)
 153:Drivers/CMSIS/Include/core_cm4.h ****       #define __FPU_USED       1
 154:Drivers/CMSIS/Include/core_cm4.h ****     #else
 155:Drivers/CMSIS/Include/core_cm4.h ****       #warning "Compiler generates FPU instructions for a device without an FPU (check __FPU_PRESEN
 156:Drivers/CMSIS/Include/core_cm4.h ****       #define __FPU_USED       0
 157:Drivers/CMSIS/Include/core_cm4.h ****     #endif
 158:Drivers/CMSIS/Include/core_cm4.h ****   #else
 159:Drivers/CMSIS/Include/core_cm4.h ****     #define __FPU_USED         0
ARM GAS  /tmp/ccJBQgIh.s 			page 9


 160:Drivers/CMSIS/Include/core_cm4.h ****   #endif
 161:Drivers/CMSIS/Include/core_cm4.h **** 
 162:Drivers/CMSIS/Include/core_cm4.h **** #elif defined ( __TASKING__ )
 163:Drivers/CMSIS/Include/core_cm4.h ****   #if defined __FPU_VFP__
 164:Drivers/CMSIS/Include/core_cm4.h ****     #if (__FPU_PRESENT == 1)
 165:Drivers/CMSIS/Include/core_cm4.h ****       #define __FPU_USED       1
 166:Drivers/CMSIS/Include/core_cm4.h ****     #else
 167:Drivers/CMSIS/Include/core_cm4.h ****       #error "Compiler generates FPU instructions for a device without an FPU (check __FPU_PRESENT)
 168:Drivers/CMSIS/Include/core_cm4.h ****       #define __FPU_USED       0
 169:Drivers/CMSIS/Include/core_cm4.h ****     #endif
 170:Drivers/CMSIS/Include/core_cm4.h ****   #else
 171:Drivers/CMSIS/Include/core_cm4.h ****     #define __FPU_USED         0
 172:Drivers/CMSIS/Include/core_cm4.h ****   #endif
 173:Drivers/CMSIS/Include/core_cm4.h **** 
 174:Drivers/CMSIS/Include/core_cm4.h **** #elif defined ( __CSMC__ )		/* Cosmic */
 175:Drivers/CMSIS/Include/core_cm4.h ****   #if ( __CSMC__ & 0x400)		// FPU present for parser
 176:Drivers/CMSIS/Include/core_cm4.h ****     #if (__FPU_PRESENT == 1)
 177:Drivers/CMSIS/Include/core_cm4.h ****       #define __FPU_USED       1
 178:Drivers/CMSIS/Include/core_cm4.h ****     #else
 179:Drivers/CMSIS/Include/core_cm4.h ****       #error "Compiler generates FPU instructions for a device without an FPU (check __FPU_PRESENT)
 180:Drivers/CMSIS/Include/core_cm4.h ****       #define __FPU_USED       0
 181:Drivers/CMSIS/Include/core_cm4.h ****     #endif
 182:Drivers/CMSIS/Include/core_cm4.h ****   #else
 183:Drivers/CMSIS/Include/core_cm4.h ****     #define __FPU_USED         0
 184:Drivers/CMSIS/Include/core_cm4.h ****   #endif
 185:Drivers/CMSIS/Include/core_cm4.h **** #endif
 186:Drivers/CMSIS/Include/core_cm4.h **** 
 187:Drivers/CMSIS/Include/core_cm4.h **** #include <stdint.h>                      /* standard types definitions                      */
 188:Drivers/CMSIS/Include/core_cm4.h **** #include <core_cmInstr.h>                /* Core Instruction Access                         */
 189:Drivers/CMSIS/Include/core_cm4.h **** #include <core_cmFunc.h>                 /* Core Function Access                            */
 190:Drivers/CMSIS/Include/core_cm4.h **** #include <core_cmSimd.h>                 /* Compiler specific SIMD Intrinsics               */
 191:Drivers/CMSIS/Include/core_cm4.h **** 
 192:Drivers/CMSIS/Include/core_cm4.h **** #ifdef __cplusplus
 193:Drivers/CMSIS/Include/core_cm4.h **** }
 194:Drivers/CMSIS/Include/core_cm4.h **** #endif
 195:Drivers/CMSIS/Include/core_cm4.h **** 
 196:Drivers/CMSIS/Include/core_cm4.h **** #endif /* __CORE_CM4_H_GENERIC */
 197:Drivers/CMSIS/Include/core_cm4.h **** 
 198:Drivers/CMSIS/Include/core_cm4.h **** #ifndef __CMSIS_GENERIC
 199:Drivers/CMSIS/Include/core_cm4.h **** 
 200:Drivers/CMSIS/Include/core_cm4.h **** #ifndef __CORE_CM4_H_DEPENDANT
 201:Drivers/CMSIS/Include/core_cm4.h **** #define __CORE_CM4_H_DEPENDANT
 202:Drivers/CMSIS/Include/core_cm4.h **** 
 203:Drivers/CMSIS/Include/core_cm4.h **** #ifdef __cplusplus
 204:Drivers/CMSIS/Include/core_cm4.h ****  extern "C" {
 205:Drivers/CMSIS/Include/core_cm4.h **** #endif
 206:Drivers/CMSIS/Include/core_cm4.h **** 
 207:Drivers/CMSIS/Include/core_cm4.h **** /* check device defines and use defaults */
 208:Drivers/CMSIS/Include/core_cm4.h **** #if defined __CHECK_DEVICE_DEFINES
 209:Drivers/CMSIS/Include/core_cm4.h ****   #ifndef __CM4_REV
 210:Drivers/CMSIS/Include/core_cm4.h ****     #define __CM4_REV               0x0000
 211:Drivers/CMSIS/Include/core_cm4.h ****     #warning "__CM4_REV not defined in device header file; using default!"
 212:Drivers/CMSIS/Include/core_cm4.h ****   #endif
 213:Drivers/CMSIS/Include/core_cm4.h **** 
 214:Drivers/CMSIS/Include/core_cm4.h ****   #ifndef __FPU_PRESENT
 215:Drivers/CMSIS/Include/core_cm4.h ****     #define __FPU_PRESENT             0
 216:Drivers/CMSIS/Include/core_cm4.h ****     #warning "__FPU_PRESENT not defined in device header file; using default!"
ARM GAS  /tmp/ccJBQgIh.s 			page 10


 217:Drivers/CMSIS/Include/core_cm4.h ****   #endif
 218:Drivers/CMSIS/Include/core_cm4.h **** 
 219:Drivers/CMSIS/Include/core_cm4.h ****   #ifndef __MPU_PRESENT
 220:Drivers/CMSIS/Include/core_cm4.h ****     #define __MPU_PRESENT             0
 221:Drivers/CMSIS/Include/core_cm4.h ****     #warning "__MPU_PRESENT not defined in device header file; using default!"
 222:Drivers/CMSIS/Include/core_cm4.h ****   #endif
 223:Drivers/CMSIS/Include/core_cm4.h **** 
 224:Drivers/CMSIS/Include/core_cm4.h ****   #ifndef __NVIC_PRIO_BITS
 225:Drivers/CMSIS/Include/core_cm4.h ****     #define __NVIC_PRIO_BITS          4
 226:Drivers/CMSIS/Include/core_cm4.h ****     #warning "__NVIC_PRIO_BITS not defined in device header file; using default!"
 227:Drivers/CMSIS/Include/core_cm4.h ****   #endif
 228:Drivers/CMSIS/Include/core_cm4.h **** 
 229:Drivers/CMSIS/Include/core_cm4.h ****   #ifndef __Vendor_SysTickConfig
 230:Drivers/CMSIS/Include/core_cm4.h ****     #define __Vendor_SysTickConfig    0
 231:Drivers/CMSIS/Include/core_cm4.h ****     #warning "__Vendor_SysTickConfig not defined in device header file; using default!"
 232:Drivers/CMSIS/Include/core_cm4.h ****   #endif
 233:Drivers/CMSIS/Include/core_cm4.h **** #endif
 234:Drivers/CMSIS/Include/core_cm4.h **** 
 235:Drivers/CMSIS/Include/core_cm4.h **** /* IO definitions (access restrictions to peripheral registers) */
 236:Drivers/CMSIS/Include/core_cm4.h **** /**
 237:Drivers/CMSIS/Include/core_cm4.h ****     \defgroup CMSIS_glob_defs CMSIS Global Defines
 238:Drivers/CMSIS/Include/core_cm4.h **** 
 239:Drivers/CMSIS/Include/core_cm4.h ****     <strong>IO Type Qualifiers</strong> are used
 240:Drivers/CMSIS/Include/core_cm4.h ****     \li to specify the access to peripheral variables.
 241:Drivers/CMSIS/Include/core_cm4.h ****     \li for automatic generation of peripheral register debug information.
 242:Drivers/CMSIS/Include/core_cm4.h **** */
 243:Drivers/CMSIS/Include/core_cm4.h **** #ifdef __cplusplus
 244:Drivers/CMSIS/Include/core_cm4.h ****   #define   __I     volatile             /*!< Defines 'read only' permissions                 */
 245:Drivers/CMSIS/Include/core_cm4.h **** #else
 246:Drivers/CMSIS/Include/core_cm4.h ****   #define   __I     volatile const       /*!< Defines 'read only' permissions                 */
 247:Drivers/CMSIS/Include/core_cm4.h **** #endif
 248:Drivers/CMSIS/Include/core_cm4.h **** #define     __O     volatile             /*!< Defines 'write only' permissions                */
 249:Drivers/CMSIS/Include/core_cm4.h **** #define     __IO    volatile             /*!< Defines 'read / write' permissions              */
 250:Drivers/CMSIS/Include/core_cm4.h **** 
 251:Drivers/CMSIS/Include/core_cm4.h **** /*@} end of group Cortex_M4 */
 252:Drivers/CMSIS/Include/core_cm4.h **** 
 253:Drivers/CMSIS/Include/core_cm4.h **** 
 254:Drivers/CMSIS/Include/core_cm4.h **** 
 255:Drivers/CMSIS/Include/core_cm4.h **** /*******************************************************************************
 256:Drivers/CMSIS/Include/core_cm4.h ****  *                 Register Abstraction
 257:Drivers/CMSIS/Include/core_cm4.h ****   Core Register contain:
 258:Drivers/CMSIS/Include/core_cm4.h ****   - Core Register
 259:Drivers/CMSIS/Include/core_cm4.h ****   - Core NVIC Register
 260:Drivers/CMSIS/Include/core_cm4.h ****   - Core SCB Register
 261:Drivers/CMSIS/Include/core_cm4.h ****   - Core SysTick Register
 262:Drivers/CMSIS/Include/core_cm4.h ****   - Core Debug Register
 263:Drivers/CMSIS/Include/core_cm4.h ****   - Core MPU Register
 264:Drivers/CMSIS/Include/core_cm4.h ****   - Core FPU Register
 265:Drivers/CMSIS/Include/core_cm4.h ****  ******************************************************************************/
 266:Drivers/CMSIS/Include/core_cm4.h **** /** \defgroup CMSIS_core_register Defines and Type Definitions
 267:Drivers/CMSIS/Include/core_cm4.h ****     \brief Type definitions and defines for Cortex-M processor based devices.
 268:Drivers/CMSIS/Include/core_cm4.h **** */
 269:Drivers/CMSIS/Include/core_cm4.h **** 
 270:Drivers/CMSIS/Include/core_cm4.h **** /** \ingroup    CMSIS_core_register
 271:Drivers/CMSIS/Include/core_cm4.h ****     \defgroup   CMSIS_CORE  Status and Control Registers
 272:Drivers/CMSIS/Include/core_cm4.h ****     \brief  Core Register type definitions.
 273:Drivers/CMSIS/Include/core_cm4.h ****   @{
ARM GAS  /tmp/ccJBQgIh.s 			page 11


 274:Drivers/CMSIS/Include/core_cm4.h ****  */
 275:Drivers/CMSIS/Include/core_cm4.h **** 
 276:Drivers/CMSIS/Include/core_cm4.h **** /** \brief  Union type to access the Application Program Status Register (APSR).
 277:Drivers/CMSIS/Include/core_cm4.h ****  */
 278:Drivers/CMSIS/Include/core_cm4.h **** typedef union
 279:Drivers/CMSIS/Include/core_cm4.h **** {
 280:Drivers/CMSIS/Include/core_cm4.h ****   struct
 281:Drivers/CMSIS/Include/core_cm4.h ****   {
 282:Drivers/CMSIS/Include/core_cm4.h ****     uint32_t _reserved0:16;              /*!< bit:  0..15  Reserved                           */
 283:Drivers/CMSIS/Include/core_cm4.h ****     uint32_t GE:4;                       /*!< bit: 16..19  Greater than or Equal flags        */
 284:Drivers/CMSIS/Include/core_cm4.h ****     uint32_t _reserved1:7;               /*!< bit: 20..26  Reserved                           */
 285:Drivers/CMSIS/Include/core_cm4.h ****     uint32_t Q:1;                        /*!< bit:     27  Saturation condition flag          */
 286:Drivers/CMSIS/Include/core_cm4.h ****     uint32_t V:1;                        /*!< bit:     28  Overflow condition code flag       */
 287:Drivers/CMSIS/Include/core_cm4.h ****     uint32_t C:1;                        /*!< bit:     29  Carry condition code flag          */
 288:Drivers/CMSIS/Include/core_cm4.h ****     uint32_t Z:1;                        /*!< bit:     30  Zero condition code flag           */
 289:Drivers/CMSIS/Include/core_cm4.h ****     uint32_t N:1;                        /*!< bit:     31  Negative condition code flag       */
 290:Drivers/CMSIS/Include/core_cm4.h ****   } b;                                   /*!< Structure used for bit  access                  */
 291:Drivers/CMSIS/Include/core_cm4.h ****   uint32_t w;                            /*!< Type      used for word access                  */
 292:Drivers/CMSIS/Include/core_cm4.h **** } APSR_Type;
 293:Drivers/CMSIS/Include/core_cm4.h **** 
 294:Drivers/CMSIS/Include/core_cm4.h **** /* APSR Register Definitions */
 295:Drivers/CMSIS/Include/core_cm4.h **** #define APSR_N_Pos                         31                                             /*!< APSR
 296:Drivers/CMSIS/Include/core_cm4.h **** #define APSR_N_Msk                         (1UL << APSR_N_Pos)                            /*!< APSR
 297:Drivers/CMSIS/Include/core_cm4.h **** 
 298:Drivers/CMSIS/Include/core_cm4.h **** #define APSR_Z_Pos                         30                                             /*!< APSR
 299:Drivers/CMSIS/Include/core_cm4.h **** #define APSR_Z_Msk                         (1UL << APSR_Z_Pos)                            /*!< APSR
 300:Drivers/CMSIS/Include/core_cm4.h **** 
 301:Drivers/CMSIS/Include/core_cm4.h **** #define APSR_C_Pos                         29                                             /*!< APSR
 302:Drivers/CMSIS/Include/core_cm4.h **** #define APSR_C_Msk                         (1UL << APSR_C_Pos)                            /*!< APSR
 303:Drivers/CMSIS/Include/core_cm4.h **** 
 304:Drivers/CMSIS/Include/core_cm4.h **** #define APSR_V_Pos                         28                                             /*!< APSR
 305:Drivers/CMSIS/Include/core_cm4.h **** #define APSR_V_Msk                         (1UL << APSR_V_Pos)                            /*!< APSR
 306:Drivers/CMSIS/Include/core_cm4.h **** 
 307:Drivers/CMSIS/Include/core_cm4.h **** #define APSR_Q_Pos                         27                                             /*!< APSR
 308:Drivers/CMSIS/Include/core_cm4.h **** #define APSR_Q_Msk                         (1UL << APSR_Q_Pos)                            /*!< APSR
 309:Drivers/CMSIS/Include/core_cm4.h **** 
 310:Drivers/CMSIS/Include/core_cm4.h **** #define APSR_GE_Pos                        16                                             /*!< APSR
 311:Drivers/CMSIS/Include/core_cm4.h **** #define APSR_GE_Msk                        (0xFUL << APSR_GE_Pos)                         /*!< APSR
 312:Drivers/CMSIS/Include/core_cm4.h **** 
 313:Drivers/CMSIS/Include/core_cm4.h **** 
 314:Drivers/CMSIS/Include/core_cm4.h **** /** \brief  Union type to access the Interrupt Program Status Register (IPSR).
 315:Drivers/CMSIS/Include/core_cm4.h ****  */
 316:Drivers/CMSIS/Include/core_cm4.h **** typedef union
 317:Drivers/CMSIS/Include/core_cm4.h **** {
 318:Drivers/CMSIS/Include/core_cm4.h ****   struct
 319:Drivers/CMSIS/Include/core_cm4.h ****   {
 320:Drivers/CMSIS/Include/core_cm4.h ****     uint32_t ISR:9;                      /*!< bit:  0.. 8  Exception number                   */
 321:Drivers/CMSIS/Include/core_cm4.h ****     uint32_t _reserved0:23;              /*!< bit:  9..31  Reserved                           */
 322:Drivers/CMSIS/Include/core_cm4.h ****   } b;                                   /*!< Structure used for bit  access                  */
 323:Drivers/CMSIS/Include/core_cm4.h ****   uint32_t w;                            /*!< Type      used for word access                  */
 324:Drivers/CMSIS/Include/core_cm4.h **** } IPSR_Type;
 325:Drivers/CMSIS/Include/core_cm4.h **** 
 326:Drivers/CMSIS/Include/core_cm4.h **** /* IPSR Register Definitions */
 327:Drivers/CMSIS/Include/core_cm4.h **** #define IPSR_ISR_Pos                        0                                             /*!< IPSR
 328:Drivers/CMSIS/Include/core_cm4.h **** #define IPSR_ISR_Msk                       (0x1FFUL /*<< IPSR_ISR_Pos*/)                  /*!< IPSR
 329:Drivers/CMSIS/Include/core_cm4.h **** 
 330:Drivers/CMSIS/Include/core_cm4.h **** 
ARM GAS  /tmp/ccJBQgIh.s 			page 12


 331:Drivers/CMSIS/Include/core_cm4.h **** /** \brief  Union type to access the Special-Purpose Program Status Registers (xPSR).
 332:Drivers/CMSIS/Include/core_cm4.h ****  */
 333:Drivers/CMSIS/Include/core_cm4.h **** typedef union
 334:Drivers/CMSIS/Include/core_cm4.h **** {
 335:Drivers/CMSIS/Include/core_cm4.h ****   struct
 336:Drivers/CMSIS/Include/core_cm4.h ****   {
 337:Drivers/CMSIS/Include/core_cm4.h ****     uint32_t ISR:9;                      /*!< bit:  0.. 8  Exception number                   */
 338:Drivers/CMSIS/Include/core_cm4.h ****     uint32_t _reserved0:7;               /*!< bit:  9..15  Reserved                           */
 339:Drivers/CMSIS/Include/core_cm4.h ****     uint32_t GE:4;                       /*!< bit: 16..19  Greater than or Equal flags        */
 340:Drivers/CMSIS/Include/core_cm4.h ****     uint32_t _reserved1:4;               /*!< bit: 20..23  Reserved                           */
 341:Drivers/CMSIS/Include/core_cm4.h ****     uint32_t T:1;                        /*!< bit:     24  Thumb bit        (read 0)          */
 342:Drivers/CMSIS/Include/core_cm4.h ****     uint32_t IT:2;                       /*!< bit: 25..26  saved IT state   (read 0)          */
 343:Drivers/CMSIS/Include/core_cm4.h ****     uint32_t Q:1;                        /*!< bit:     27  Saturation condition flag          */
 344:Drivers/CMSIS/Include/core_cm4.h ****     uint32_t V:1;                        /*!< bit:     28  Overflow condition code flag       */
 345:Drivers/CMSIS/Include/core_cm4.h ****     uint32_t C:1;                        /*!< bit:     29  Carry condition code flag          */
 346:Drivers/CMSIS/Include/core_cm4.h ****     uint32_t Z:1;                        /*!< bit:     30  Zero condition code flag           */
 347:Drivers/CMSIS/Include/core_cm4.h ****     uint32_t N:1;                        /*!< bit:     31  Negative condition code flag       */
 348:Drivers/CMSIS/Include/core_cm4.h ****   } b;                                   /*!< Structure used for bit  access                  */
 349:Drivers/CMSIS/Include/core_cm4.h ****   uint32_t w;                            /*!< Type      used for word access                  */
 350:Drivers/CMSIS/Include/core_cm4.h **** } xPSR_Type;
 351:Drivers/CMSIS/Include/core_cm4.h **** 
 352:Drivers/CMSIS/Include/core_cm4.h **** /* xPSR Register Definitions */
 353:Drivers/CMSIS/Include/core_cm4.h **** #define xPSR_N_Pos                         31                                             /*!< xPSR
 354:Drivers/CMSIS/Include/core_cm4.h **** #define xPSR_N_Msk                         (1UL << xPSR_N_Pos)                            /*!< xPSR
 355:Drivers/CMSIS/Include/core_cm4.h **** 
 356:Drivers/CMSIS/Include/core_cm4.h **** #define xPSR_Z_Pos                         30                                             /*!< xPSR
 357:Drivers/CMSIS/Include/core_cm4.h **** #define xPSR_Z_Msk                         (1UL << xPSR_Z_Pos)                            /*!< xPSR
 358:Drivers/CMSIS/Include/core_cm4.h **** 
 359:Drivers/CMSIS/Include/core_cm4.h **** #define xPSR_C_Pos                         29                                             /*!< xPSR
 360:Drivers/CMSIS/Include/core_cm4.h **** #define xPSR_C_Msk                         (1UL << xPSR_C_Pos)                            /*!< xPSR
 361:Drivers/CMSIS/Include/core_cm4.h **** 
 362:Drivers/CMSIS/Include/core_cm4.h **** #define xPSR_V_Pos                         28                                             /*!< xPSR
 363:Drivers/CMSIS/Include/core_cm4.h **** #define xPSR_V_Msk                         (1UL << xPSR_V_Pos)                            /*!< xPSR
 364:Drivers/CMSIS/Include/core_cm4.h **** 
 365:Drivers/CMSIS/Include/core_cm4.h **** #define xPSR_Q_Pos                         27                                             /*!< xPSR
 366:Drivers/CMSIS/Include/core_cm4.h **** #define xPSR_Q_Msk                         (1UL << xPSR_Q_Pos)                            /*!< xPSR
 367:Drivers/CMSIS/Include/core_cm4.h **** 
 368:Drivers/CMSIS/Include/core_cm4.h **** #define xPSR_IT_Pos                        25                                             /*!< xPSR
 369:Drivers/CMSIS/Include/core_cm4.h **** #define xPSR_IT_Msk                        (3UL << xPSR_IT_Pos)                           /*!< xPSR
 370:Drivers/CMSIS/Include/core_cm4.h **** 
 371:Drivers/CMSIS/Include/core_cm4.h **** #define xPSR_T_Pos                         24                                             /*!< xPSR
 372:Drivers/CMSIS/Include/core_cm4.h **** #define xPSR_T_Msk                         (1UL << xPSR_T_Pos)                            /*!< xPSR
 373:Drivers/CMSIS/Include/core_cm4.h **** 
 374:Drivers/CMSIS/Include/core_cm4.h **** #define xPSR_GE_Pos                        16                                             /*!< xPSR
 375:Drivers/CMSIS/Include/core_cm4.h **** #define xPSR_GE_Msk                        (0xFUL << xPSR_GE_Pos)                         /*!< xPSR
 376:Drivers/CMSIS/Include/core_cm4.h **** 
 377:Drivers/CMSIS/Include/core_cm4.h **** #define xPSR_ISR_Pos                        0                                             /*!< xPSR
 378:Drivers/CMSIS/Include/core_cm4.h **** #define xPSR_ISR_Msk                       (0x1FFUL /*<< xPSR_ISR_Pos*/)                  /*!< xPSR
 379:Drivers/CMSIS/Include/core_cm4.h **** 
 380:Drivers/CMSIS/Include/core_cm4.h **** 
 381:Drivers/CMSIS/Include/core_cm4.h **** /** \brief  Union type to access the Control Registers (CONTROL).
 382:Drivers/CMSIS/Include/core_cm4.h ****  */
 383:Drivers/CMSIS/Include/core_cm4.h **** typedef union
 384:Drivers/CMSIS/Include/core_cm4.h **** {
 385:Drivers/CMSIS/Include/core_cm4.h ****   struct
 386:Drivers/CMSIS/Include/core_cm4.h ****   {
 387:Drivers/CMSIS/Include/core_cm4.h ****     uint32_t nPRIV:1;                    /*!< bit:      0  Execution privilege in Thread mode */
ARM GAS  /tmp/ccJBQgIh.s 			page 13


 388:Drivers/CMSIS/Include/core_cm4.h ****     uint32_t SPSEL:1;                    /*!< bit:      1  Stack to be used                   */
 389:Drivers/CMSIS/Include/core_cm4.h ****     uint32_t FPCA:1;                     /*!< bit:      2  FP extension active flag           */
 390:Drivers/CMSIS/Include/core_cm4.h ****     uint32_t _reserved0:29;              /*!< bit:  3..31  Reserved                           */
 391:Drivers/CMSIS/Include/core_cm4.h ****   } b;                                   /*!< Structure used for bit  access                  */
 392:Drivers/CMSIS/Include/core_cm4.h ****   uint32_t w;                            /*!< Type      used for word access                  */
 393:Drivers/CMSIS/Include/core_cm4.h **** } CONTROL_Type;
 394:Drivers/CMSIS/Include/core_cm4.h **** 
 395:Drivers/CMSIS/Include/core_cm4.h **** /* CONTROL Register Definitions */
 396:Drivers/CMSIS/Include/core_cm4.h **** #define CONTROL_FPCA_Pos                    2                                             /*!< CONT
 397:Drivers/CMSIS/Include/core_cm4.h **** #define CONTROL_FPCA_Msk                   (1UL << CONTROL_FPCA_Pos)                      /*!< CONT
 398:Drivers/CMSIS/Include/core_cm4.h **** 
 399:Drivers/CMSIS/Include/core_cm4.h **** #define CONTROL_SPSEL_Pos                   1                                             /*!< CONT
 400:Drivers/CMSIS/Include/core_cm4.h **** #define CONTROL_SPSEL_Msk                  (1UL << CONTROL_SPSEL_Pos)                     /*!< CONT
 401:Drivers/CMSIS/Include/core_cm4.h **** 
 402:Drivers/CMSIS/Include/core_cm4.h **** #define CONTROL_nPRIV_Pos                   0                                             /*!< CONT
 403:Drivers/CMSIS/Include/core_cm4.h **** #define CONTROL_nPRIV_Msk                  (1UL /*<< CONTROL_nPRIV_Pos*/)                 /*!< CONT
 404:Drivers/CMSIS/Include/core_cm4.h **** 
 405:Drivers/CMSIS/Include/core_cm4.h **** /*@} end of group CMSIS_CORE */
 406:Drivers/CMSIS/Include/core_cm4.h **** 
 407:Drivers/CMSIS/Include/core_cm4.h **** 
 408:Drivers/CMSIS/Include/core_cm4.h **** /** \ingroup    CMSIS_core_register
 409:Drivers/CMSIS/Include/core_cm4.h ****     \defgroup   CMSIS_NVIC  Nested Vectored Interrupt Controller (NVIC)
 410:Drivers/CMSIS/Include/core_cm4.h ****     \brief      Type definitions for the NVIC Registers
 411:Drivers/CMSIS/Include/core_cm4.h ****   @{
 412:Drivers/CMSIS/Include/core_cm4.h ****  */
 413:Drivers/CMSIS/Include/core_cm4.h **** 
 414:Drivers/CMSIS/Include/core_cm4.h **** /** \brief  Structure type to access the Nested Vectored Interrupt Controller (NVIC).
 415:Drivers/CMSIS/Include/core_cm4.h ****  */
 416:Drivers/CMSIS/Include/core_cm4.h **** typedef struct
 417:Drivers/CMSIS/Include/core_cm4.h **** {
 418:Drivers/CMSIS/Include/core_cm4.h ****   __IO uint32_t ISER[8];                 /*!< Offset: 0x000 (R/W)  Interrupt Set Enable Register   
 419:Drivers/CMSIS/Include/core_cm4.h ****        uint32_t RESERVED0[24];
 420:Drivers/CMSIS/Include/core_cm4.h ****   __IO uint32_t ICER[8];                 /*!< Offset: 0x080 (R/W)  Interrupt Clear Enable Register 
 421:Drivers/CMSIS/Include/core_cm4.h ****        uint32_t RSERVED1[24];
 422:Drivers/CMSIS/Include/core_cm4.h ****   __IO uint32_t ISPR[8];                 /*!< Offset: 0x100 (R/W)  Interrupt Set Pending Register  
 423:Drivers/CMSIS/Include/core_cm4.h ****        uint32_t RESERVED2[24];
 424:Drivers/CMSIS/Include/core_cm4.h ****   __IO uint32_t ICPR[8];                 /*!< Offset: 0x180 (R/W)  Interrupt Clear Pending Register
 425:Drivers/CMSIS/Include/core_cm4.h ****        uint32_t RESERVED3[24];
 426:Drivers/CMSIS/Include/core_cm4.h ****   __IO uint32_t IABR[8];                 /*!< Offset: 0x200 (R/W)  Interrupt Active bit Register   
 427:Drivers/CMSIS/Include/core_cm4.h ****        uint32_t RESERVED4[56];
 428:Drivers/CMSIS/Include/core_cm4.h ****   __IO uint8_t  IP[240];                 /*!< Offset: 0x300 (R/W)  Interrupt Priority Register (8Bi
 429:Drivers/CMSIS/Include/core_cm4.h ****        uint32_t RESERVED5[644];
 430:Drivers/CMSIS/Include/core_cm4.h ****   __O  uint32_t STIR;                    /*!< Offset: 0xE00 ( /W)  Software Trigger Interrupt Regis
 431:Drivers/CMSIS/Include/core_cm4.h **** }  NVIC_Type;
 432:Drivers/CMSIS/Include/core_cm4.h **** 
 433:Drivers/CMSIS/Include/core_cm4.h **** /* Software Triggered Interrupt Register Definitions */
 434:Drivers/CMSIS/Include/core_cm4.h **** #define NVIC_STIR_INTID_Pos                 0                                          /*!< STIR: I
 435:Drivers/CMSIS/Include/core_cm4.h **** #define NVIC_STIR_INTID_Msk                (0x1FFUL /*<< NVIC_STIR_INTID_Pos*/)        /*!< STIR: I
 436:Drivers/CMSIS/Include/core_cm4.h **** 
 437:Drivers/CMSIS/Include/core_cm4.h **** /*@} end of group CMSIS_NVIC */
 438:Drivers/CMSIS/Include/core_cm4.h **** 
 439:Drivers/CMSIS/Include/core_cm4.h **** 
 440:Drivers/CMSIS/Include/core_cm4.h **** /** \ingroup  CMSIS_core_register
 441:Drivers/CMSIS/Include/core_cm4.h ****     \defgroup CMSIS_SCB     System Control Block (SCB)
 442:Drivers/CMSIS/Include/core_cm4.h ****     \brief      Type definitions for the System Control Block Registers
 443:Drivers/CMSIS/Include/core_cm4.h ****   @{
 444:Drivers/CMSIS/Include/core_cm4.h ****  */
ARM GAS  /tmp/ccJBQgIh.s 			page 14


 445:Drivers/CMSIS/Include/core_cm4.h **** 
 446:Drivers/CMSIS/Include/core_cm4.h **** /** \brief  Structure type to access the System Control Block (SCB).
 447:Drivers/CMSIS/Include/core_cm4.h ****  */
 448:Drivers/CMSIS/Include/core_cm4.h **** typedef struct
 449:Drivers/CMSIS/Include/core_cm4.h **** {
 450:Drivers/CMSIS/Include/core_cm4.h ****   __I  uint32_t CPUID;                   /*!< Offset: 0x000 (R/ )  CPUID Base Register             
 451:Drivers/CMSIS/Include/core_cm4.h ****   __IO uint32_t ICSR;                    /*!< Offset: 0x004 (R/W)  Interrupt Control and State Regi
 452:Drivers/CMSIS/Include/core_cm4.h ****   __IO uint32_t VTOR;                    /*!< Offset: 0x008 (R/W)  Vector Table Offset Register    
 453:Drivers/CMSIS/Include/core_cm4.h ****   __IO uint32_t AIRCR;                   /*!< Offset: 0x00C (R/W)  Application Interrupt and Reset 
 454:Drivers/CMSIS/Include/core_cm4.h ****   __IO uint32_t SCR;                     /*!< Offset: 0x010 (R/W)  System Control Register         
 455:Drivers/CMSIS/Include/core_cm4.h ****   __IO uint32_t CCR;                     /*!< Offset: 0x014 (R/W)  Configuration Control Register  
 456:Drivers/CMSIS/Include/core_cm4.h ****   __IO uint8_t  SHP[12];                 /*!< Offset: 0x018 (R/W)  System Handlers Priority Registe
 457:Drivers/CMSIS/Include/core_cm4.h ****   __IO uint32_t SHCSR;                   /*!< Offset: 0x024 (R/W)  System Handler Control and State
 458:Drivers/CMSIS/Include/core_cm4.h ****   __IO uint32_t CFSR;                    /*!< Offset: 0x028 (R/W)  Configurable Fault Status Regist
 459:Drivers/CMSIS/Include/core_cm4.h ****   __IO uint32_t HFSR;                    /*!< Offset: 0x02C (R/W)  HardFault Status Register       
 460:Drivers/CMSIS/Include/core_cm4.h ****   __IO uint32_t DFSR;                    /*!< Offset: 0x030 (R/W)  Debug Fault Status Register     
 461:Drivers/CMSIS/Include/core_cm4.h ****   __IO uint32_t MMFAR;                   /*!< Offset: 0x034 (R/W)  MemManage Fault Address Register
 462:Drivers/CMSIS/Include/core_cm4.h ****   __IO uint32_t BFAR;                    /*!< Offset: 0x038 (R/W)  BusFault Address Register       
 463:Drivers/CMSIS/Include/core_cm4.h ****   __IO uint32_t AFSR;                    /*!< Offset: 0x03C (R/W)  Auxiliary Fault Status Register 
 464:Drivers/CMSIS/Include/core_cm4.h ****   __I  uint32_t PFR[2];                  /*!< Offset: 0x040 (R/ )  Processor Feature Register      
 465:Drivers/CMSIS/Include/core_cm4.h ****   __I  uint32_t DFR;                     /*!< Offset: 0x048 (R/ )  Debug Feature Register          
 466:Drivers/CMSIS/Include/core_cm4.h ****   __I  uint32_t ADR;                     /*!< Offset: 0x04C (R/ )  Auxiliary Feature Register      
 467:Drivers/CMSIS/Include/core_cm4.h ****   __I  uint32_t MMFR[4];                 /*!< Offset: 0x050 (R/ )  Memory Model Feature Register   
 468:Drivers/CMSIS/Include/core_cm4.h ****   __I  uint32_t ISAR[5];                 /*!< Offset: 0x060 (R/ )  Instruction Set Attributes Regis
 469:Drivers/CMSIS/Include/core_cm4.h ****        uint32_t RESERVED0[5];
 470:Drivers/CMSIS/Include/core_cm4.h ****   __IO uint32_t CPACR;                   /*!< Offset: 0x088 (R/W)  Coprocessor Access Control Regis
 471:Drivers/CMSIS/Include/core_cm4.h **** } SCB_Type;
 472:Drivers/CMSIS/Include/core_cm4.h **** 
 473:Drivers/CMSIS/Include/core_cm4.h **** /* SCB CPUID Register Definitions */
 474:Drivers/CMSIS/Include/core_cm4.h **** #define SCB_CPUID_IMPLEMENTER_Pos          24                                             /*!< SCB 
 475:Drivers/CMSIS/Include/core_cm4.h **** #define SCB_CPUID_IMPLEMENTER_Msk          (0xFFUL << SCB_CPUID_IMPLEMENTER_Pos)          /*!< SCB 
 476:Drivers/CMSIS/Include/core_cm4.h **** 
 477:Drivers/CMSIS/Include/core_cm4.h **** #define SCB_CPUID_VARIANT_Pos              20                                             /*!< SCB 
 478:Drivers/CMSIS/Include/core_cm4.h **** #define SCB_CPUID_VARIANT_Msk              (0xFUL << SCB_CPUID_VARIANT_Pos)               /*!< SCB 
 479:Drivers/CMSIS/Include/core_cm4.h **** 
 480:Drivers/CMSIS/Include/core_cm4.h **** #define SCB_CPUID_ARCHITECTURE_Pos         16                                             /*!< SCB 
 481:Drivers/CMSIS/Include/core_cm4.h **** #define SCB_CPUID_ARCHITECTURE_Msk         (0xFUL << SCB_CPUID_ARCHITECTURE_Pos)          /*!< SCB 
 482:Drivers/CMSIS/Include/core_cm4.h **** 
 483:Drivers/CMSIS/Include/core_cm4.h **** #define SCB_CPUID_PARTNO_Pos                4                                             /*!< SCB 
 484:Drivers/CMSIS/Include/core_cm4.h **** #define SCB_CPUID_PARTNO_Msk               (0xFFFUL << SCB_CPUID_PARTNO_Pos)              /*!< SCB 
 485:Drivers/CMSIS/Include/core_cm4.h **** 
 486:Drivers/CMSIS/Include/core_cm4.h **** #define SCB_CPUID_REVISION_Pos              0                                             /*!< SCB 
 487:Drivers/CMSIS/Include/core_cm4.h **** #define SCB_CPUID_REVISION_Msk             (0xFUL /*<< SCB_CPUID_REVISION_Pos*/)          /*!< SCB 
 488:Drivers/CMSIS/Include/core_cm4.h **** 
 489:Drivers/CMSIS/Include/core_cm4.h **** /* SCB Interrupt Control State Register Definitions */
 490:Drivers/CMSIS/Include/core_cm4.h **** #define SCB_ICSR_NMIPENDSET_Pos            31                                             /*!< SCB 
 491:Drivers/CMSIS/Include/core_cm4.h **** #define SCB_ICSR_NMIPENDSET_Msk            (1UL << SCB_ICSR_NMIPENDSET_Pos)               /*!< SCB 
 492:Drivers/CMSIS/Include/core_cm4.h **** 
 493:Drivers/CMSIS/Include/core_cm4.h **** #define SCB_ICSR_PENDSVSET_Pos             28                                             /*!< SCB 
 494:Drivers/CMSIS/Include/core_cm4.h **** #define SCB_ICSR_PENDSVSET_Msk             (1UL << SCB_ICSR_PENDSVSET_Pos)                /*!< SCB 
 495:Drivers/CMSIS/Include/core_cm4.h **** 
 496:Drivers/CMSIS/Include/core_cm4.h **** #define SCB_ICSR_PENDSVCLR_Pos             27                                             /*!< SCB 
 497:Drivers/CMSIS/Include/core_cm4.h **** #define SCB_ICSR_PENDSVCLR_Msk             (1UL << SCB_ICSR_PENDSVCLR_Pos)                /*!< SCB 
 498:Drivers/CMSIS/Include/core_cm4.h **** 
 499:Drivers/CMSIS/Include/core_cm4.h **** #define SCB_ICSR_PENDSTSET_Pos             26                                             /*!< SCB 
 500:Drivers/CMSIS/Include/core_cm4.h **** #define SCB_ICSR_PENDSTSET_Msk             (1UL << SCB_ICSR_PENDSTSET_Pos)                /*!< SCB 
 501:Drivers/CMSIS/Include/core_cm4.h **** 
ARM GAS  /tmp/ccJBQgIh.s 			page 15


 502:Drivers/CMSIS/Include/core_cm4.h **** #define SCB_ICSR_PENDSTCLR_Pos             25                                             /*!< SCB 
 503:Drivers/CMSIS/Include/core_cm4.h **** #define SCB_ICSR_PENDSTCLR_Msk             (1UL << SCB_ICSR_PENDSTCLR_Pos)                /*!< SCB 
 504:Drivers/CMSIS/Include/core_cm4.h **** 
 505:Drivers/CMSIS/Include/core_cm4.h **** #define SCB_ICSR_ISRPREEMPT_Pos            23                                             /*!< SCB 
 506:Drivers/CMSIS/Include/core_cm4.h **** #define SCB_ICSR_ISRPREEMPT_Msk            (1UL << SCB_ICSR_ISRPREEMPT_Pos)               /*!< SCB 
 507:Drivers/CMSIS/Include/core_cm4.h **** 
 508:Drivers/CMSIS/Include/core_cm4.h **** #define SCB_ICSR_ISRPENDING_Pos            22                                             /*!< SCB 
 509:Drivers/CMSIS/Include/core_cm4.h **** #define SCB_ICSR_ISRPENDING_Msk            (1UL << SCB_ICSR_ISRPENDING_Pos)               /*!< SCB 
 510:Drivers/CMSIS/Include/core_cm4.h **** 
 511:Drivers/CMSIS/Include/core_cm4.h **** #define SCB_ICSR_VECTPENDING_Pos           12                                             /*!< SCB 
 512:Drivers/CMSIS/Include/core_cm4.h **** #define SCB_ICSR_VECTPENDING_Msk           (0x1FFUL << SCB_ICSR_VECTPENDING_Pos)          /*!< SCB 
 513:Drivers/CMSIS/Include/core_cm4.h **** 
 514:Drivers/CMSIS/Include/core_cm4.h **** #define SCB_ICSR_RETTOBASE_Pos             11                                             /*!< SCB 
 515:Drivers/CMSIS/Include/core_cm4.h **** #define SCB_ICSR_RETTOBASE_Msk             (1UL << SCB_ICSR_RETTOBASE_Pos)                /*!< SCB 
 516:Drivers/CMSIS/Include/core_cm4.h **** 
 517:Drivers/CMSIS/Include/core_cm4.h **** #define SCB_ICSR_VECTACTIVE_Pos             0                                             /*!< SCB 
 518:Drivers/CMSIS/Include/core_cm4.h **** #define SCB_ICSR_VECTACTIVE_Msk            (0x1FFUL /*<< SCB_ICSR_VECTACTIVE_Pos*/)       /*!< SCB 
 519:Drivers/CMSIS/Include/core_cm4.h **** 
 520:Drivers/CMSIS/Include/core_cm4.h **** /* SCB Vector Table Offset Register Definitions */
 521:Drivers/CMSIS/Include/core_cm4.h **** #define SCB_VTOR_TBLOFF_Pos                 7                                             /*!< SCB 
 522:Drivers/CMSIS/Include/core_cm4.h **** #define SCB_VTOR_TBLOFF_Msk                (0x1FFFFFFUL << SCB_VTOR_TBLOFF_Pos)           /*!< SCB 
 523:Drivers/CMSIS/Include/core_cm4.h **** 
 524:Drivers/CMSIS/Include/core_cm4.h **** /* SCB Application Interrupt and Reset Control Register Definitions */
 525:Drivers/CMSIS/Include/core_cm4.h **** #define SCB_AIRCR_VECTKEY_Pos              16                                             /*!< SCB 
 526:Drivers/CMSIS/Include/core_cm4.h **** #define SCB_AIRCR_VECTKEY_Msk              (0xFFFFUL << SCB_AIRCR_VECTKEY_Pos)            /*!< SCB 
 527:Drivers/CMSIS/Include/core_cm4.h **** 
 528:Drivers/CMSIS/Include/core_cm4.h **** #define SCB_AIRCR_VECTKEYSTAT_Pos          16                                             /*!< SCB 
 529:Drivers/CMSIS/Include/core_cm4.h **** #define SCB_AIRCR_VECTKEYSTAT_Msk          (0xFFFFUL << SCB_AIRCR_VECTKEYSTAT_Pos)        /*!< SCB 
 530:Drivers/CMSIS/Include/core_cm4.h **** 
 531:Drivers/CMSIS/Include/core_cm4.h **** #define SCB_AIRCR_ENDIANESS_Pos            15                                             /*!< SCB 
 532:Drivers/CMSIS/Include/core_cm4.h **** #define SCB_AIRCR_ENDIANESS_Msk            (1UL << SCB_AIRCR_ENDIANESS_Pos)               /*!< SCB 
 533:Drivers/CMSIS/Include/core_cm4.h **** 
 534:Drivers/CMSIS/Include/core_cm4.h **** #define SCB_AIRCR_PRIGROUP_Pos              8                                             /*!< SCB 
 535:Drivers/CMSIS/Include/core_cm4.h **** #define SCB_AIRCR_PRIGROUP_Msk             (7UL << SCB_AIRCR_PRIGROUP_Pos)                /*!< SCB 
 536:Drivers/CMSIS/Include/core_cm4.h **** 
 537:Drivers/CMSIS/Include/core_cm4.h **** #define SCB_AIRCR_SYSRESETREQ_Pos           2                                             /*!< SCB 
 538:Drivers/CMSIS/Include/core_cm4.h **** #define SCB_AIRCR_SYSRESETREQ_Msk          (1UL << SCB_AIRCR_SYSRESETREQ_Pos)             /*!< SCB 
 539:Drivers/CMSIS/Include/core_cm4.h **** 
 540:Drivers/CMSIS/Include/core_cm4.h **** #define SCB_AIRCR_VECTCLRACTIVE_Pos         1                                             /*!< SCB 
 541:Drivers/CMSIS/Include/core_cm4.h **** #define SCB_AIRCR_VECTCLRACTIVE_Msk        (1UL << SCB_AIRCR_VECTCLRACTIVE_Pos)           /*!< SCB 
 542:Drivers/CMSIS/Include/core_cm4.h **** 
 543:Drivers/CMSIS/Include/core_cm4.h **** #define SCB_AIRCR_VECTRESET_Pos             0                                             /*!< SCB 
 544:Drivers/CMSIS/Include/core_cm4.h **** #define SCB_AIRCR_VECTRESET_Msk            (1UL /*<< SCB_AIRCR_VECTRESET_Pos*/)           /*!< SCB 
 545:Drivers/CMSIS/Include/core_cm4.h **** 
 546:Drivers/CMSIS/Include/core_cm4.h **** /* SCB System Control Register Definitions */
 547:Drivers/CMSIS/Include/core_cm4.h **** #define SCB_SCR_SEVONPEND_Pos               4                                             /*!< SCB 
 548:Drivers/CMSIS/Include/core_cm4.h **** #define SCB_SCR_SEVONPEND_Msk              (1UL << SCB_SCR_SEVONPEND_Pos)                 /*!< SCB 
 549:Drivers/CMSIS/Include/core_cm4.h **** 
 550:Drivers/CMSIS/Include/core_cm4.h **** #define SCB_SCR_SLEEPDEEP_Pos               2                                             /*!< SCB 
 551:Drivers/CMSIS/Include/core_cm4.h **** #define SCB_SCR_SLEEPDEEP_Msk              (1UL << SCB_SCR_SLEEPDEEP_Pos)                 /*!< SCB 
 552:Drivers/CMSIS/Include/core_cm4.h **** 
 553:Drivers/CMSIS/Include/core_cm4.h **** #define SCB_SCR_SLEEPONEXIT_Pos             1                                             /*!< SCB 
 554:Drivers/CMSIS/Include/core_cm4.h **** #define SCB_SCR_SLEEPONEXIT_Msk            (1UL << SCB_SCR_SLEEPONEXIT_Pos)               /*!< SCB 
 555:Drivers/CMSIS/Include/core_cm4.h **** 
 556:Drivers/CMSIS/Include/core_cm4.h **** /* SCB Configuration Control Register Definitions */
 557:Drivers/CMSIS/Include/core_cm4.h **** #define SCB_CCR_STKALIGN_Pos                9                                             /*!< SCB 
 558:Drivers/CMSIS/Include/core_cm4.h **** #define SCB_CCR_STKALIGN_Msk               (1UL << SCB_CCR_STKALIGN_Pos)                  /*!< SCB 
ARM GAS  /tmp/ccJBQgIh.s 			page 16


 559:Drivers/CMSIS/Include/core_cm4.h **** 
 560:Drivers/CMSIS/Include/core_cm4.h **** #define SCB_CCR_BFHFNMIGN_Pos               8                                             /*!< SCB 
 561:Drivers/CMSIS/Include/core_cm4.h **** #define SCB_CCR_BFHFNMIGN_Msk              (1UL << SCB_CCR_BFHFNMIGN_Pos)                 /*!< SCB 
 562:Drivers/CMSIS/Include/core_cm4.h **** 
 563:Drivers/CMSIS/Include/core_cm4.h **** #define SCB_CCR_DIV_0_TRP_Pos               4                                             /*!< SCB 
 564:Drivers/CMSIS/Include/core_cm4.h **** #define SCB_CCR_DIV_0_TRP_Msk              (1UL << SCB_CCR_DIV_0_TRP_Pos)                 /*!< SCB 
 565:Drivers/CMSIS/Include/core_cm4.h **** 
 566:Drivers/CMSIS/Include/core_cm4.h **** #define SCB_CCR_UNALIGN_TRP_Pos             3                                             /*!< SCB 
 567:Drivers/CMSIS/Include/core_cm4.h **** #define SCB_CCR_UNALIGN_TRP_Msk            (1UL << SCB_CCR_UNALIGN_TRP_Pos)               /*!< SCB 
 568:Drivers/CMSIS/Include/core_cm4.h **** 
 569:Drivers/CMSIS/Include/core_cm4.h **** #define SCB_CCR_USERSETMPEND_Pos            1                                             /*!< SCB 
 570:Drivers/CMSIS/Include/core_cm4.h **** #define SCB_CCR_USERSETMPEND_Msk           (1UL << SCB_CCR_USERSETMPEND_Pos)              /*!< SCB 
 571:Drivers/CMSIS/Include/core_cm4.h **** 
 572:Drivers/CMSIS/Include/core_cm4.h **** #define SCB_CCR_NONBASETHRDENA_Pos          0                                             /*!< SCB 
 573:Drivers/CMSIS/Include/core_cm4.h **** #define SCB_CCR_NONBASETHRDENA_Msk         (1UL /*<< SCB_CCR_NONBASETHRDENA_Pos*/)        /*!< SCB 
 574:Drivers/CMSIS/Include/core_cm4.h **** 
 575:Drivers/CMSIS/Include/core_cm4.h **** /* SCB System Handler Control and State Register Definitions */
 576:Drivers/CMSIS/Include/core_cm4.h **** #define SCB_SHCSR_USGFAULTENA_Pos          18                                             /*!< SCB 
 577:Drivers/CMSIS/Include/core_cm4.h **** #define SCB_SHCSR_USGFAULTENA_Msk          (1UL << SCB_SHCSR_USGFAULTENA_Pos)             /*!< SCB 
 578:Drivers/CMSIS/Include/core_cm4.h **** 
 579:Drivers/CMSIS/Include/core_cm4.h **** #define SCB_SHCSR_BUSFAULTENA_Pos          17                                             /*!< SCB 
 580:Drivers/CMSIS/Include/core_cm4.h **** #define SCB_SHCSR_BUSFAULTENA_Msk          (1UL << SCB_SHCSR_BUSFAULTENA_Pos)             /*!< SCB 
 581:Drivers/CMSIS/Include/core_cm4.h **** 
 582:Drivers/CMSIS/Include/core_cm4.h **** #define SCB_SHCSR_MEMFAULTENA_Pos          16                                             /*!< SCB 
 583:Drivers/CMSIS/Include/core_cm4.h **** #define SCB_SHCSR_MEMFAULTENA_Msk          (1UL << SCB_SHCSR_MEMFAULTENA_Pos)             /*!< SCB 
 584:Drivers/CMSIS/Include/core_cm4.h **** 
 585:Drivers/CMSIS/Include/core_cm4.h **** #define SCB_SHCSR_SVCALLPENDED_Pos         15                                             /*!< SCB 
 586:Drivers/CMSIS/Include/core_cm4.h **** #define SCB_SHCSR_SVCALLPENDED_Msk         (1UL << SCB_SHCSR_SVCALLPENDED_Pos)            /*!< SCB 
 587:Drivers/CMSIS/Include/core_cm4.h **** 
 588:Drivers/CMSIS/Include/core_cm4.h **** #define SCB_SHCSR_BUSFAULTPENDED_Pos       14                                             /*!< SCB 
 589:Drivers/CMSIS/Include/core_cm4.h **** #define SCB_SHCSR_BUSFAULTPENDED_Msk       (1UL << SCB_SHCSR_BUSFAULTPENDED_Pos)          /*!< SCB 
 590:Drivers/CMSIS/Include/core_cm4.h **** 
 591:Drivers/CMSIS/Include/core_cm4.h **** #define SCB_SHCSR_MEMFAULTPENDED_Pos       13                                             /*!< SCB 
 592:Drivers/CMSIS/Include/core_cm4.h **** #define SCB_SHCSR_MEMFAULTPENDED_Msk       (1UL << SCB_SHCSR_MEMFAULTPENDED_Pos)          /*!< SCB 
 593:Drivers/CMSIS/Include/core_cm4.h **** 
 594:Drivers/CMSIS/Include/core_cm4.h **** #define SCB_SHCSR_USGFAULTPENDED_Pos       12                                             /*!< SCB 
 595:Drivers/CMSIS/Include/core_cm4.h **** #define SCB_SHCSR_USGFAULTPENDED_Msk       (1UL << SCB_SHCSR_USGFAULTPENDED_Pos)          /*!< SCB 
 596:Drivers/CMSIS/Include/core_cm4.h **** 
 597:Drivers/CMSIS/Include/core_cm4.h **** #define SCB_SHCSR_SYSTICKACT_Pos           11                                             /*!< SCB 
 598:Drivers/CMSIS/Include/core_cm4.h **** #define SCB_SHCSR_SYSTICKACT_Msk           (1UL << SCB_SHCSR_SYSTICKACT_Pos)              /*!< SCB 
 599:Drivers/CMSIS/Include/core_cm4.h **** 
 600:Drivers/CMSIS/Include/core_cm4.h **** #define SCB_SHCSR_PENDSVACT_Pos            10                                             /*!< SCB 
 601:Drivers/CMSIS/Include/core_cm4.h **** #define SCB_SHCSR_PENDSVACT_Msk            (1UL << SCB_SHCSR_PENDSVACT_Pos)               /*!< SCB 
 602:Drivers/CMSIS/Include/core_cm4.h **** 
 603:Drivers/CMSIS/Include/core_cm4.h **** #define SCB_SHCSR_MONITORACT_Pos            8                                             /*!< SCB 
 604:Drivers/CMSIS/Include/core_cm4.h **** #define SCB_SHCSR_MONITORACT_Msk           (1UL << SCB_SHCSR_MONITORACT_Pos)              /*!< SCB 
 605:Drivers/CMSIS/Include/core_cm4.h **** 
 606:Drivers/CMSIS/Include/core_cm4.h **** #define SCB_SHCSR_SVCALLACT_Pos             7                                             /*!< SCB 
 607:Drivers/CMSIS/Include/core_cm4.h **** #define SCB_SHCSR_SVCALLACT_Msk            (1UL << SCB_SHCSR_SVCALLACT_Pos)               /*!< SCB 
 608:Drivers/CMSIS/Include/core_cm4.h **** 
 609:Drivers/CMSIS/Include/core_cm4.h **** #define SCB_SHCSR_USGFAULTACT_Pos           3                                             /*!< SCB 
 610:Drivers/CMSIS/Include/core_cm4.h **** #define SCB_SHCSR_USGFAULTACT_Msk          (1UL << SCB_SHCSR_USGFAULTACT_Pos)             /*!< SCB 
 611:Drivers/CMSIS/Include/core_cm4.h **** 
 612:Drivers/CMSIS/Include/core_cm4.h **** #define SCB_SHCSR_BUSFAULTACT_Pos           1                                             /*!< SCB 
 613:Drivers/CMSIS/Include/core_cm4.h **** #define SCB_SHCSR_BUSFAULTACT_Msk          (1UL << SCB_SHCSR_BUSFAULTACT_Pos)             /*!< SCB 
 614:Drivers/CMSIS/Include/core_cm4.h **** 
 615:Drivers/CMSIS/Include/core_cm4.h **** #define SCB_SHCSR_MEMFAULTACT_Pos           0                                             /*!< SCB 
ARM GAS  /tmp/ccJBQgIh.s 			page 17


 616:Drivers/CMSIS/Include/core_cm4.h **** #define SCB_SHCSR_MEMFAULTACT_Msk          (1UL /*<< SCB_SHCSR_MEMFAULTACT_Pos*/)         /*!< SCB 
 617:Drivers/CMSIS/Include/core_cm4.h **** 
 618:Drivers/CMSIS/Include/core_cm4.h **** /* SCB Configurable Fault Status Registers Definitions */
 619:Drivers/CMSIS/Include/core_cm4.h **** #define SCB_CFSR_USGFAULTSR_Pos            16                                             /*!< SCB 
 620:Drivers/CMSIS/Include/core_cm4.h **** #define SCB_CFSR_USGFAULTSR_Msk            (0xFFFFUL << SCB_CFSR_USGFAULTSR_Pos)          /*!< SCB 
 621:Drivers/CMSIS/Include/core_cm4.h **** 
 622:Drivers/CMSIS/Include/core_cm4.h **** #define SCB_CFSR_BUSFAULTSR_Pos             8                                             /*!< SCB 
 623:Drivers/CMSIS/Include/core_cm4.h **** #define SCB_CFSR_BUSFAULTSR_Msk            (0xFFUL << SCB_CFSR_BUSFAULTSR_Pos)            /*!< SCB 
 624:Drivers/CMSIS/Include/core_cm4.h **** 
 625:Drivers/CMSIS/Include/core_cm4.h **** #define SCB_CFSR_MEMFAULTSR_Pos             0                                             /*!< SCB 
 626:Drivers/CMSIS/Include/core_cm4.h **** #define SCB_CFSR_MEMFAULTSR_Msk            (0xFFUL /*<< SCB_CFSR_MEMFAULTSR_Pos*/)        /*!< SCB 
 627:Drivers/CMSIS/Include/core_cm4.h **** 
 628:Drivers/CMSIS/Include/core_cm4.h **** /* SCB Hard Fault Status Registers Definitions */
 629:Drivers/CMSIS/Include/core_cm4.h **** #define SCB_HFSR_DEBUGEVT_Pos              31                                             /*!< SCB 
 630:Drivers/CMSIS/Include/core_cm4.h **** #define SCB_HFSR_DEBUGEVT_Msk              (1UL << SCB_HFSR_DEBUGEVT_Pos)                 /*!< SCB 
 631:Drivers/CMSIS/Include/core_cm4.h **** 
 632:Drivers/CMSIS/Include/core_cm4.h **** #define SCB_HFSR_FORCED_Pos                30                                             /*!< SCB 
 633:Drivers/CMSIS/Include/core_cm4.h **** #define SCB_HFSR_FORCED_Msk                (1UL << SCB_HFSR_FORCED_Pos)                   /*!< SCB 
 634:Drivers/CMSIS/Include/core_cm4.h **** 
 635:Drivers/CMSIS/Include/core_cm4.h **** #define SCB_HFSR_VECTTBL_Pos                1                                             /*!< SCB 
 636:Drivers/CMSIS/Include/core_cm4.h **** #define SCB_HFSR_VECTTBL_Msk               (1UL << SCB_HFSR_VECTTBL_Pos)                  /*!< SCB 
 637:Drivers/CMSIS/Include/core_cm4.h **** 
 638:Drivers/CMSIS/Include/core_cm4.h **** /* SCB Debug Fault Status Register Definitions */
 639:Drivers/CMSIS/Include/core_cm4.h **** #define SCB_DFSR_EXTERNAL_Pos               4                                             /*!< SCB 
 640:Drivers/CMSIS/Include/core_cm4.h **** #define SCB_DFSR_EXTERNAL_Msk              (1UL << SCB_DFSR_EXTERNAL_Pos)                 /*!< SCB 
 641:Drivers/CMSIS/Include/core_cm4.h **** 
 642:Drivers/CMSIS/Include/core_cm4.h **** #define SCB_DFSR_VCATCH_Pos                 3                                             /*!< SCB 
 643:Drivers/CMSIS/Include/core_cm4.h **** #define SCB_DFSR_VCATCH_Msk                (1UL << SCB_DFSR_VCATCH_Pos)                   /*!< SCB 
 644:Drivers/CMSIS/Include/core_cm4.h **** 
 645:Drivers/CMSIS/Include/core_cm4.h **** #define SCB_DFSR_DWTTRAP_Pos                2                                             /*!< SCB 
 646:Drivers/CMSIS/Include/core_cm4.h **** #define SCB_DFSR_DWTTRAP_Msk               (1UL << SCB_DFSR_DWTTRAP_Pos)                  /*!< SCB 
 647:Drivers/CMSIS/Include/core_cm4.h **** 
 648:Drivers/CMSIS/Include/core_cm4.h **** #define SCB_DFSR_BKPT_Pos                   1                                             /*!< SCB 
 649:Drivers/CMSIS/Include/core_cm4.h **** #define SCB_DFSR_BKPT_Msk                  (1UL << SCB_DFSR_BKPT_Pos)                     /*!< SCB 
 650:Drivers/CMSIS/Include/core_cm4.h **** 
 651:Drivers/CMSIS/Include/core_cm4.h **** #define SCB_DFSR_HALTED_Pos                 0                                             /*!< SCB 
 652:Drivers/CMSIS/Include/core_cm4.h **** #define SCB_DFSR_HALTED_Msk                (1UL /*<< SCB_DFSR_HALTED_Pos*/)               /*!< SCB 
 653:Drivers/CMSIS/Include/core_cm4.h **** 
 654:Drivers/CMSIS/Include/core_cm4.h **** /*@} end of group CMSIS_SCB */
 655:Drivers/CMSIS/Include/core_cm4.h **** 
 656:Drivers/CMSIS/Include/core_cm4.h **** 
 657:Drivers/CMSIS/Include/core_cm4.h **** /** \ingroup  CMSIS_core_register
 658:Drivers/CMSIS/Include/core_cm4.h ****     \defgroup CMSIS_SCnSCB System Controls not in SCB (SCnSCB)
 659:Drivers/CMSIS/Include/core_cm4.h ****     \brief      Type definitions for the System Control and ID Register not in the SCB
 660:Drivers/CMSIS/Include/core_cm4.h ****   @{
 661:Drivers/CMSIS/Include/core_cm4.h ****  */
 662:Drivers/CMSIS/Include/core_cm4.h **** 
 663:Drivers/CMSIS/Include/core_cm4.h **** /** \brief  Structure type to access the System Control and ID Register not in the SCB.
 664:Drivers/CMSIS/Include/core_cm4.h ****  */
 665:Drivers/CMSIS/Include/core_cm4.h **** typedef struct
 666:Drivers/CMSIS/Include/core_cm4.h **** {
 667:Drivers/CMSIS/Include/core_cm4.h ****        uint32_t RESERVED0[1];
 668:Drivers/CMSIS/Include/core_cm4.h ****   __I  uint32_t ICTR;                    /*!< Offset: 0x004 (R/ )  Interrupt Controller Type Regist
 669:Drivers/CMSIS/Include/core_cm4.h ****   __IO uint32_t ACTLR;                   /*!< Offset: 0x008 (R/W)  Auxiliary Control Register      
 670:Drivers/CMSIS/Include/core_cm4.h **** } SCnSCB_Type;
 671:Drivers/CMSIS/Include/core_cm4.h **** 
 672:Drivers/CMSIS/Include/core_cm4.h **** /* Interrupt Controller Type Register Definitions */
ARM GAS  /tmp/ccJBQgIh.s 			page 18


 673:Drivers/CMSIS/Include/core_cm4.h **** #define SCnSCB_ICTR_INTLINESNUM_Pos         0                                          /*!< ICTR: I
 674:Drivers/CMSIS/Include/core_cm4.h **** #define SCnSCB_ICTR_INTLINESNUM_Msk        (0xFUL /*<< SCnSCB_ICTR_INTLINESNUM_Pos*/)  /*!< ICTR: I
 675:Drivers/CMSIS/Include/core_cm4.h **** 
 676:Drivers/CMSIS/Include/core_cm4.h **** /* Auxiliary Control Register Definitions */
 677:Drivers/CMSIS/Include/core_cm4.h **** #define SCnSCB_ACTLR_DISOOFP_Pos            9                                          /*!< ACTLR: 
 678:Drivers/CMSIS/Include/core_cm4.h **** #define SCnSCB_ACTLR_DISOOFP_Msk           (1UL << SCnSCB_ACTLR_DISOOFP_Pos)           /*!< ACTLR: 
 679:Drivers/CMSIS/Include/core_cm4.h **** 
 680:Drivers/CMSIS/Include/core_cm4.h **** #define SCnSCB_ACTLR_DISFPCA_Pos            8                                          /*!< ACTLR: 
 681:Drivers/CMSIS/Include/core_cm4.h **** #define SCnSCB_ACTLR_DISFPCA_Msk           (1UL << SCnSCB_ACTLR_DISFPCA_Pos)           /*!< ACTLR: 
 682:Drivers/CMSIS/Include/core_cm4.h **** 
 683:Drivers/CMSIS/Include/core_cm4.h **** #define SCnSCB_ACTLR_DISFOLD_Pos            2                                          /*!< ACTLR: 
 684:Drivers/CMSIS/Include/core_cm4.h **** #define SCnSCB_ACTLR_DISFOLD_Msk           (1UL << SCnSCB_ACTLR_DISFOLD_Pos)           /*!< ACTLR: 
 685:Drivers/CMSIS/Include/core_cm4.h **** 
 686:Drivers/CMSIS/Include/core_cm4.h **** #define SCnSCB_ACTLR_DISDEFWBUF_Pos         1                                          /*!< ACTLR: 
 687:Drivers/CMSIS/Include/core_cm4.h **** #define SCnSCB_ACTLR_DISDEFWBUF_Msk        (1UL << SCnSCB_ACTLR_DISDEFWBUF_Pos)        /*!< ACTLR: 
 688:Drivers/CMSIS/Include/core_cm4.h **** 
 689:Drivers/CMSIS/Include/core_cm4.h **** #define SCnSCB_ACTLR_DISMCYCINT_Pos         0                                          /*!< ACTLR: 
 690:Drivers/CMSIS/Include/core_cm4.h **** #define SCnSCB_ACTLR_DISMCYCINT_Msk        (1UL /*<< SCnSCB_ACTLR_DISMCYCINT_Pos*/)    /*!< ACTLR: 
 691:Drivers/CMSIS/Include/core_cm4.h **** 
 692:Drivers/CMSIS/Include/core_cm4.h **** /*@} end of group CMSIS_SCnotSCB */
 693:Drivers/CMSIS/Include/core_cm4.h **** 
 694:Drivers/CMSIS/Include/core_cm4.h **** 
 695:Drivers/CMSIS/Include/core_cm4.h **** /** \ingroup  CMSIS_core_register
 696:Drivers/CMSIS/Include/core_cm4.h ****     \defgroup CMSIS_SysTick     System Tick Timer (SysTick)
 697:Drivers/CMSIS/Include/core_cm4.h ****     \brief      Type definitions for the System Timer Registers.
 698:Drivers/CMSIS/Include/core_cm4.h ****   @{
 699:Drivers/CMSIS/Include/core_cm4.h ****  */
 700:Drivers/CMSIS/Include/core_cm4.h **** 
 701:Drivers/CMSIS/Include/core_cm4.h **** /** \brief  Structure type to access the System Timer (SysTick).
 702:Drivers/CMSIS/Include/core_cm4.h ****  */
 703:Drivers/CMSIS/Include/core_cm4.h **** typedef struct
 704:Drivers/CMSIS/Include/core_cm4.h **** {
 705:Drivers/CMSIS/Include/core_cm4.h ****   __IO uint32_t CTRL;                    /*!< Offset: 0x000 (R/W)  SysTick Control and Status Regis
 706:Drivers/CMSIS/Include/core_cm4.h ****   __IO uint32_t LOAD;                    /*!< Offset: 0x004 (R/W)  SysTick Reload Value Register   
 707:Drivers/CMSIS/Include/core_cm4.h ****   __IO uint32_t VAL;                     /*!< Offset: 0x008 (R/W)  SysTick Current Value Register  
 708:Drivers/CMSIS/Include/core_cm4.h ****   __I  uint32_t CALIB;                   /*!< Offset: 0x00C (R/ )  SysTick Calibration Register    
 709:Drivers/CMSIS/Include/core_cm4.h **** } SysTick_Type;
 710:Drivers/CMSIS/Include/core_cm4.h **** 
 711:Drivers/CMSIS/Include/core_cm4.h **** /* SysTick Control / Status Register Definitions */
 712:Drivers/CMSIS/Include/core_cm4.h **** #define SysTick_CTRL_COUNTFLAG_Pos         16                                             /*!< SysT
 713:Drivers/CMSIS/Include/core_cm4.h **** #define SysTick_CTRL_COUNTFLAG_Msk         (1UL << SysTick_CTRL_COUNTFLAG_Pos)            /*!< SysT
 714:Drivers/CMSIS/Include/core_cm4.h **** 
 715:Drivers/CMSIS/Include/core_cm4.h **** #define SysTick_CTRL_CLKSOURCE_Pos          2                                             /*!< SysT
 716:Drivers/CMSIS/Include/core_cm4.h **** #define SysTick_CTRL_CLKSOURCE_Msk         (1UL << SysTick_CTRL_CLKSOURCE_Pos)            /*!< SysT
 717:Drivers/CMSIS/Include/core_cm4.h **** 
 718:Drivers/CMSIS/Include/core_cm4.h **** #define SysTick_CTRL_TICKINT_Pos            1                                             /*!< SysT
 719:Drivers/CMSIS/Include/core_cm4.h **** #define SysTick_CTRL_TICKINT_Msk           (1UL << SysTick_CTRL_TICKINT_Pos)              /*!< SysT
 720:Drivers/CMSIS/Include/core_cm4.h **** 
 721:Drivers/CMSIS/Include/core_cm4.h **** #define SysTick_CTRL_ENABLE_Pos             0                                             /*!< SysT
 722:Drivers/CMSIS/Include/core_cm4.h **** #define SysTick_CTRL_ENABLE_Msk            (1UL /*<< SysTick_CTRL_ENABLE_Pos*/)           /*!< SysT
 723:Drivers/CMSIS/Include/core_cm4.h **** 
 724:Drivers/CMSIS/Include/core_cm4.h **** /* SysTick Reload Register Definitions */
 725:Drivers/CMSIS/Include/core_cm4.h **** #define SysTick_LOAD_RELOAD_Pos             0                                             /*!< SysT
 726:Drivers/CMSIS/Include/core_cm4.h **** #define SysTick_LOAD_RELOAD_Msk            (0xFFFFFFUL /*<< SysTick_LOAD_RELOAD_Pos*/)    /*!< SysT
 727:Drivers/CMSIS/Include/core_cm4.h **** 
 728:Drivers/CMSIS/Include/core_cm4.h **** /* SysTick Current Register Definitions */
 729:Drivers/CMSIS/Include/core_cm4.h **** #define SysTick_VAL_CURRENT_Pos             0                                             /*!< SysT
ARM GAS  /tmp/ccJBQgIh.s 			page 19


 730:Drivers/CMSIS/Include/core_cm4.h **** #define SysTick_VAL_CURRENT_Msk            (0xFFFFFFUL /*<< SysTick_VAL_CURRENT_Pos*/)    /*!< SysT
 731:Drivers/CMSIS/Include/core_cm4.h **** 
 732:Drivers/CMSIS/Include/core_cm4.h **** /* SysTick Calibration Register Definitions */
 733:Drivers/CMSIS/Include/core_cm4.h **** #define SysTick_CALIB_NOREF_Pos            31                                             /*!< SysT
 734:Drivers/CMSIS/Include/core_cm4.h **** #define SysTick_CALIB_NOREF_Msk            (1UL << SysTick_CALIB_NOREF_Pos)               /*!< SysT
 735:Drivers/CMSIS/Include/core_cm4.h **** 
 736:Drivers/CMSIS/Include/core_cm4.h **** #define SysTick_CALIB_SKEW_Pos             30                                             /*!< SysT
 737:Drivers/CMSIS/Include/core_cm4.h **** #define SysTick_CALIB_SKEW_Msk             (1UL << SysTick_CALIB_SKEW_Pos)                /*!< SysT
 738:Drivers/CMSIS/Include/core_cm4.h **** 
 739:Drivers/CMSIS/Include/core_cm4.h **** #define SysTick_CALIB_TENMS_Pos             0                                             /*!< SysT
 740:Drivers/CMSIS/Include/core_cm4.h **** #define SysTick_CALIB_TENMS_Msk            (0xFFFFFFUL /*<< SysTick_CALIB_TENMS_Pos*/)    /*!< SysT
 741:Drivers/CMSIS/Include/core_cm4.h **** 
 742:Drivers/CMSIS/Include/core_cm4.h **** /*@} end of group CMSIS_SysTick */
 743:Drivers/CMSIS/Include/core_cm4.h **** 
 744:Drivers/CMSIS/Include/core_cm4.h **** 
 745:Drivers/CMSIS/Include/core_cm4.h **** /** \ingroup  CMSIS_core_register
 746:Drivers/CMSIS/Include/core_cm4.h ****     \defgroup CMSIS_ITM     Instrumentation Trace Macrocell (ITM)
 747:Drivers/CMSIS/Include/core_cm4.h ****     \brief      Type definitions for the Instrumentation Trace Macrocell (ITM)
 748:Drivers/CMSIS/Include/core_cm4.h ****   @{
 749:Drivers/CMSIS/Include/core_cm4.h ****  */
 750:Drivers/CMSIS/Include/core_cm4.h **** 
 751:Drivers/CMSIS/Include/core_cm4.h **** /** \brief  Structure type to access the Instrumentation Trace Macrocell Register (ITM).
 752:Drivers/CMSIS/Include/core_cm4.h ****  */
 753:Drivers/CMSIS/Include/core_cm4.h **** typedef struct
 754:Drivers/CMSIS/Include/core_cm4.h **** {
 755:Drivers/CMSIS/Include/core_cm4.h ****   __O  union
 756:Drivers/CMSIS/Include/core_cm4.h ****   {
 757:Drivers/CMSIS/Include/core_cm4.h ****     __O  uint8_t    u8;                  /*!< Offset: 0x000 ( /W)  ITM Stimulus Port 8-bit         
 758:Drivers/CMSIS/Include/core_cm4.h ****     __O  uint16_t   u16;                 /*!< Offset: 0x000 ( /W)  ITM Stimulus Port 16-bit        
 759:Drivers/CMSIS/Include/core_cm4.h ****     __O  uint32_t   u32;                 /*!< Offset: 0x000 ( /W)  ITM Stimulus Port 32-bit        
 760:Drivers/CMSIS/Include/core_cm4.h ****   }  PORT [32];                          /*!< Offset: 0x000 ( /W)  ITM Stimulus Port Registers     
 761:Drivers/CMSIS/Include/core_cm4.h ****        uint32_t RESERVED0[864];
 762:Drivers/CMSIS/Include/core_cm4.h ****   __IO uint32_t TER;                     /*!< Offset: 0xE00 (R/W)  ITM Trace Enable Register       
 763:Drivers/CMSIS/Include/core_cm4.h ****        uint32_t RESERVED1[15];
 764:Drivers/CMSIS/Include/core_cm4.h ****   __IO uint32_t TPR;                     /*!< Offset: 0xE40 (R/W)  ITM Trace Privilege Register    
 765:Drivers/CMSIS/Include/core_cm4.h ****        uint32_t RESERVED2[15];
 766:Drivers/CMSIS/Include/core_cm4.h ****   __IO uint32_t TCR;                     /*!< Offset: 0xE80 (R/W)  ITM Trace Control Register      
 767:Drivers/CMSIS/Include/core_cm4.h ****        uint32_t RESERVED3[29];
 768:Drivers/CMSIS/Include/core_cm4.h ****   __O  uint32_t IWR;                     /*!< Offset: 0xEF8 ( /W)  ITM Integration Write Register  
 769:Drivers/CMSIS/Include/core_cm4.h ****   __I  uint32_t IRR;                     /*!< Offset: 0xEFC (R/ )  ITM Integration Read Register   
 770:Drivers/CMSIS/Include/core_cm4.h ****   __IO uint32_t IMCR;                    /*!< Offset: 0xF00 (R/W)  ITM Integration Mode Control Reg
 771:Drivers/CMSIS/Include/core_cm4.h ****        uint32_t RESERVED4[43];
 772:Drivers/CMSIS/Include/core_cm4.h ****   __O  uint32_t LAR;                     /*!< Offset: 0xFB0 ( /W)  ITM Lock Access Register        
 773:Drivers/CMSIS/Include/core_cm4.h ****   __I  uint32_t LSR;                     /*!< Offset: 0xFB4 (R/ )  ITM Lock Status Register        
 774:Drivers/CMSIS/Include/core_cm4.h ****        uint32_t RESERVED5[6];
 775:Drivers/CMSIS/Include/core_cm4.h ****   __I  uint32_t PID4;                    /*!< Offset: 0xFD0 (R/ )  ITM Peripheral Identification Re
 776:Drivers/CMSIS/Include/core_cm4.h ****   __I  uint32_t PID5;                    /*!< Offset: 0xFD4 (R/ )  ITM Peripheral Identification Re
 777:Drivers/CMSIS/Include/core_cm4.h ****   __I  uint32_t PID6;                    /*!< Offset: 0xFD8 (R/ )  ITM Peripheral Identification Re
 778:Drivers/CMSIS/Include/core_cm4.h ****   __I  uint32_t PID7;                    /*!< Offset: 0xFDC (R/ )  ITM Peripheral Identification Re
 779:Drivers/CMSIS/Include/core_cm4.h ****   __I  uint32_t PID0;                    /*!< Offset: 0xFE0 (R/ )  ITM Peripheral Identification Re
 780:Drivers/CMSIS/Include/core_cm4.h ****   __I  uint32_t PID1;                    /*!< Offset: 0xFE4 (R/ )  ITM Peripheral Identification Re
 781:Drivers/CMSIS/Include/core_cm4.h ****   __I  uint32_t PID2;                    /*!< Offset: 0xFE8 (R/ )  ITM Peripheral Identification Re
 782:Drivers/CMSIS/Include/core_cm4.h ****   __I  uint32_t PID3;                    /*!< Offset: 0xFEC (R/ )  ITM Peripheral Identification Re
 783:Drivers/CMSIS/Include/core_cm4.h ****   __I  uint32_t CID0;                    /*!< Offset: 0xFF0 (R/ )  ITM Component  Identification Re
 784:Drivers/CMSIS/Include/core_cm4.h ****   __I  uint32_t CID1;                    /*!< Offset: 0xFF4 (R/ )  ITM Component  Identification Re
 785:Drivers/CMSIS/Include/core_cm4.h ****   __I  uint32_t CID2;                    /*!< Offset: 0xFF8 (R/ )  ITM Component  Identification Re
 786:Drivers/CMSIS/Include/core_cm4.h ****   __I  uint32_t CID3;                    /*!< Offset: 0xFFC (R/ )  ITM Component  Identification Re
ARM GAS  /tmp/ccJBQgIh.s 			page 20


 787:Drivers/CMSIS/Include/core_cm4.h **** } ITM_Type;
 788:Drivers/CMSIS/Include/core_cm4.h **** 
 789:Drivers/CMSIS/Include/core_cm4.h **** /* ITM Trace Privilege Register Definitions */
 790:Drivers/CMSIS/Include/core_cm4.h **** #define ITM_TPR_PRIVMASK_Pos                0                                             /*!< ITM 
 791:Drivers/CMSIS/Include/core_cm4.h **** #define ITM_TPR_PRIVMASK_Msk               (0xFUL /*<< ITM_TPR_PRIVMASK_Pos*/)            /*!< ITM 
 792:Drivers/CMSIS/Include/core_cm4.h **** 
 793:Drivers/CMSIS/Include/core_cm4.h **** /* ITM Trace Control Register Definitions */
 794:Drivers/CMSIS/Include/core_cm4.h **** #define ITM_TCR_BUSY_Pos                   23                                             /*!< ITM 
 795:Drivers/CMSIS/Include/core_cm4.h **** #define ITM_TCR_BUSY_Msk                   (1UL << ITM_TCR_BUSY_Pos)                      /*!< ITM 
 796:Drivers/CMSIS/Include/core_cm4.h **** 
 797:Drivers/CMSIS/Include/core_cm4.h **** #define ITM_TCR_TraceBusID_Pos             16                                             /*!< ITM 
 798:Drivers/CMSIS/Include/core_cm4.h **** #define ITM_TCR_TraceBusID_Msk             (0x7FUL << ITM_TCR_TraceBusID_Pos)             /*!< ITM 
 799:Drivers/CMSIS/Include/core_cm4.h **** 
 800:Drivers/CMSIS/Include/core_cm4.h **** #define ITM_TCR_GTSFREQ_Pos                10                                             /*!< ITM 
 801:Drivers/CMSIS/Include/core_cm4.h **** #define ITM_TCR_GTSFREQ_Msk                (3UL << ITM_TCR_GTSFREQ_Pos)                   /*!< ITM 
 802:Drivers/CMSIS/Include/core_cm4.h **** 
 803:Drivers/CMSIS/Include/core_cm4.h **** #define ITM_TCR_TSPrescale_Pos              8                                             /*!< ITM 
 804:Drivers/CMSIS/Include/core_cm4.h **** #define ITM_TCR_TSPrescale_Msk             (3UL << ITM_TCR_TSPrescale_Pos)                /*!< ITM 
 805:Drivers/CMSIS/Include/core_cm4.h **** 
 806:Drivers/CMSIS/Include/core_cm4.h **** #define ITM_TCR_SWOENA_Pos                  4                                             /*!< ITM 
 807:Drivers/CMSIS/Include/core_cm4.h **** #define ITM_TCR_SWOENA_Msk                 (1UL << ITM_TCR_SWOENA_Pos)                    /*!< ITM 
 808:Drivers/CMSIS/Include/core_cm4.h **** 
 809:Drivers/CMSIS/Include/core_cm4.h **** #define ITM_TCR_DWTENA_Pos                  3                                             /*!< ITM 
 810:Drivers/CMSIS/Include/core_cm4.h **** #define ITM_TCR_DWTENA_Msk                 (1UL << ITM_TCR_DWTENA_Pos)                    /*!< ITM 
 811:Drivers/CMSIS/Include/core_cm4.h **** 
 812:Drivers/CMSIS/Include/core_cm4.h **** #define ITM_TCR_SYNCENA_Pos                 2                                             /*!< ITM 
 813:Drivers/CMSIS/Include/core_cm4.h **** #define ITM_TCR_SYNCENA_Msk                (1UL << ITM_TCR_SYNCENA_Pos)                   /*!< ITM 
 814:Drivers/CMSIS/Include/core_cm4.h **** 
 815:Drivers/CMSIS/Include/core_cm4.h **** #define ITM_TCR_TSENA_Pos                   1                                             /*!< ITM 
 816:Drivers/CMSIS/Include/core_cm4.h **** #define ITM_TCR_TSENA_Msk                  (1UL << ITM_TCR_TSENA_Pos)                     /*!< ITM 
 817:Drivers/CMSIS/Include/core_cm4.h **** 
 818:Drivers/CMSIS/Include/core_cm4.h **** #define ITM_TCR_ITMENA_Pos                  0                                             /*!< ITM 
 819:Drivers/CMSIS/Include/core_cm4.h **** #define ITM_TCR_ITMENA_Msk                 (1UL /*<< ITM_TCR_ITMENA_Pos*/)                /*!< ITM 
 820:Drivers/CMSIS/Include/core_cm4.h **** 
 821:Drivers/CMSIS/Include/core_cm4.h **** /* ITM Integration Write Register Definitions */
 822:Drivers/CMSIS/Include/core_cm4.h **** #define ITM_IWR_ATVALIDM_Pos                0                                             /*!< ITM 
 823:Drivers/CMSIS/Include/core_cm4.h **** #define ITM_IWR_ATVALIDM_Msk               (1UL /*<< ITM_IWR_ATVALIDM_Pos*/)              /*!< ITM 
 824:Drivers/CMSIS/Include/core_cm4.h **** 
 825:Drivers/CMSIS/Include/core_cm4.h **** /* ITM Integration Read Register Definitions */
 826:Drivers/CMSIS/Include/core_cm4.h **** #define ITM_IRR_ATREADYM_Pos                0                                             /*!< ITM 
 827:Drivers/CMSIS/Include/core_cm4.h **** #define ITM_IRR_ATREADYM_Msk               (1UL /*<< ITM_IRR_ATREADYM_Pos*/)              /*!< ITM 
 828:Drivers/CMSIS/Include/core_cm4.h **** 
 829:Drivers/CMSIS/Include/core_cm4.h **** /* ITM Integration Mode Control Register Definitions */
 830:Drivers/CMSIS/Include/core_cm4.h **** #define ITM_IMCR_INTEGRATION_Pos            0                                             /*!< ITM 
 831:Drivers/CMSIS/Include/core_cm4.h **** #define ITM_IMCR_INTEGRATION_Msk           (1UL /*<< ITM_IMCR_INTEGRATION_Pos*/)          /*!< ITM 
 832:Drivers/CMSIS/Include/core_cm4.h **** 
 833:Drivers/CMSIS/Include/core_cm4.h **** /* ITM Lock Status Register Definitions */
 834:Drivers/CMSIS/Include/core_cm4.h **** #define ITM_LSR_ByteAcc_Pos                 2                                             /*!< ITM 
 835:Drivers/CMSIS/Include/core_cm4.h **** #define ITM_LSR_ByteAcc_Msk                (1UL << ITM_LSR_ByteAcc_Pos)                   /*!< ITM 
 836:Drivers/CMSIS/Include/core_cm4.h **** 
 837:Drivers/CMSIS/Include/core_cm4.h **** #define ITM_LSR_Access_Pos                  1                                             /*!< ITM 
 838:Drivers/CMSIS/Include/core_cm4.h **** #define ITM_LSR_Access_Msk                 (1UL << ITM_LSR_Access_Pos)                    /*!< ITM 
 839:Drivers/CMSIS/Include/core_cm4.h **** 
 840:Drivers/CMSIS/Include/core_cm4.h **** #define ITM_LSR_Present_Pos                 0                                             /*!< ITM 
 841:Drivers/CMSIS/Include/core_cm4.h **** #define ITM_LSR_Present_Msk                (1UL /*<< ITM_LSR_Present_Pos*/)               /*!< ITM 
 842:Drivers/CMSIS/Include/core_cm4.h **** 
 843:Drivers/CMSIS/Include/core_cm4.h **** /*@}*/ /* end of group CMSIS_ITM */
ARM GAS  /tmp/ccJBQgIh.s 			page 21


 844:Drivers/CMSIS/Include/core_cm4.h **** 
 845:Drivers/CMSIS/Include/core_cm4.h **** 
 846:Drivers/CMSIS/Include/core_cm4.h **** /** \ingroup  CMSIS_core_register
 847:Drivers/CMSIS/Include/core_cm4.h ****     \defgroup CMSIS_DWT     Data Watchpoint and Trace (DWT)
 848:Drivers/CMSIS/Include/core_cm4.h ****     \brief      Type definitions for the Data Watchpoint and Trace (DWT)
 849:Drivers/CMSIS/Include/core_cm4.h ****   @{
 850:Drivers/CMSIS/Include/core_cm4.h ****  */
 851:Drivers/CMSIS/Include/core_cm4.h **** 
 852:Drivers/CMSIS/Include/core_cm4.h **** /** \brief  Structure type to access the Data Watchpoint and Trace Register (DWT).
 853:Drivers/CMSIS/Include/core_cm4.h ****  */
 854:Drivers/CMSIS/Include/core_cm4.h **** typedef struct
 855:Drivers/CMSIS/Include/core_cm4.h **** {
 856:Drivers/CMSIS/Include/core_cm4.h ****   __IO uint32_t CTRL;                    /*!< Offset: 0x000 (R/W)  Control Register                
 857:Drivers/CMSIS/Include/core_cm4.h ****   __IO uint32_t CYCCNT;                  /*!< Offset: 0x004 (R/W)  Cycle Count Register            
 858:Drivers/CMSIS/Include/core_cm4.h ****   __IO uint32_t CPICNT;                  /*!< Offset: 0x008 (R/W)  CPI Count Register              
 859:Drivers/CMSIS/Include/core_cm4.h ****   __IO uint32_t EXCCNT;                  /*!< Offset: 0x00C (R/W)  Exception Overhead Count Registe
 860:Drivers/CMSIS/Include/core_cm4.h ****   __IO uint32_t SLEEPCNT;                /*!< Offset: 0x010 (R/W)  Sleep Count Register            
 861:Drivers/CMSIS/Include/core_cm4.h ****   __IO uint32_t LSUCNT;                  /*!< Offset: 0x014 (R/W)  LSU Count Register              
 862:Drivers/CMSIS/Include/core_cm4.h ****   __IO uint32_t FOLDCNT;                 /*!< Offset: 0x018 (R/W)  Folded-instruction Count Registe
 863:Drivers/CMSIS/Include/core_cm4.h ****   __I  uint32_t PCSR;                    /*!< Offset: 0x01C (R/ )  Program Counter Sample Register 
 864:Drivers/CMSIS/Include/core_cm4.h ****   __IO uint32_t COMP0;                   /*!< Offset: 0x020 (R/W)  Comparator Register 0           
 865:Drivers/CMSIS/Include/core_cm4.h ****   __IO uint32_t MASK0;                   /*!< Offset: 0x024 (R/W)  Mask Register 0                 
 866:Drivers/CMSIS/Include/core_cm4.h ****   __IO uint32_t FUNCTION0;               /*!< Offset: 0x028 (R/W)  Function Register 0             
 867:Drivers/CMSIS/Include/core_cm4.h ****        uint32_t RESERVED0[1];
 868:Drivers/CMSIS/Include/core_cm4.h ****   __IO uint32_t COMP1;                   /*!< Offset: 0x030 (R/W)  Comparator Register 1           
 869:Drivers/CMSIS/Include/core_cm4.h ****   __IO uint32_t MASK1;                   /*!< Offset: 0x034 (R/W)  Mask Register 1                 
 870:Drivers/CMSIS/Include/core_cm4.h ****   __IO uint32_t FUNCTION1;               /*!< Offset: 0x038 (R/W)  Function Register 1             
 871:Drivers/CMSIS/Include/core_cm4.h ****        uint32_t RESERVED1[1];
 872:Drivers/CMSIS/Include/core_cm4.h ****   __IO uint32_t COMP2;                   /*!< Offset: 0x040 (R/W)  Comparator Register 2           
 873:Drivers/CMSIS/Include/core_cm4.h ****   __IO uint32_t MASK2;                   /*!< Offset: 0x044 (R/W)  Mask Register 2                 
 874:Drivers/CMSIS/Include/core_cm4.h ****   __IO uint32_t FUNCTION2;               /*!< Offset: 0x048 (R/W)  Function Register 2             
 875:Drivers/CMSIS/Include/core_cm4.h ****        uint32_t RESERVED2[1];
 876:Drivers/CMSIS/Include/core_cm4.h ****   __IO uint32_t COMP3;                   /*!< Offset: 0x050 (R/W)  Comparator Register 3           
 877:Drivers/CMSIS/Include/core_cm4.h ****   __IO uint32_t MASK3;                   /*!< Offset: 0x054 (R/W)  Mask Register 3                 
 878:Drivers/CMSIS/Include/core_cm4.h ****   __IO uint32_t FUNCTION3;               /*!< Offset: 0x058 (R/W)  Function Register 3             
 879:Drivers/CMSIS/Include/core_cm4.h **** } DWT_Type;
 880:Drivers/CMSIS/Include/core_cm4.h **** 
 881:Drivers/CMSIS/Include/core_cm4.h **** /* DWT Control Register Definitions */
 882:Drivers/CMSIS/Include/core_cm4.h **** #define DWT_CTRL_NUMCOMP_Pos               28                                          /*!< DWT CTR
 883:Drivers/CMSIS/Include/core_cm4.h **** #define DWT_CTRL_NUMCOMP_Msk               (0xFUL << DWT_CTRL_NUMCOMP_Pos)             /*!< DWT CTR
 884:Drivers/CMSIS/Include/core_cm4.h **** 
 885:Drivers/CMSIS/Include/core_cm4.h **** #define DWT_CTRL_NOTRCPKT_Pos              27                                          /*!< DWT CTR
 886:Drivers/CMSIS/Include/core_cm4.h **** #define DWT_CTRL_NOTRCPKT_Msk              (0x1UL << DWT_CTRL_NOTRCPKT_Pos)            /*!< DWT CTR
 887:Drivers/CMSIS/Include/core_cm4.h **** 
 888:Drivers/CMSIS/Include/core_cm4.h **** #define DWT_CTRL_NOEXTTRIG_Pos             26                                          /*!< DWT CTR
 889:Drivers/CMSIS/Include/core_cm4.h **** #define DWT_CTRL_NOEXTTRIG_Msk             (0x1UL << DWT_CTRL_NOEXTTRIG_Pos)           /*!< DWT CTR
 890:Drivers/CMSIS/Include/core_cm4.h **** 
 891:Drivers/CMSIS/Include/core_cm4.h **** #define DWT_CTRL_NOCYCCNT_Pos              25                                          /*!< DWT CTR
 892:Drivers/CMSIS/Include/core_cm4.h **** #define DWT_CTRL_NOCYCCNT_Msk              (0x1UL << DWT_CTRL_NOCYCCNT_Pos)            /*!< DWT CTR
 893:Drivers/CMSIS/Include/core_cm4.h **** 
 894:Drivers/CMSIS/Include/core_cm4.h **** #define DWT_CTRL_NOPRFCNT_Pos              24                                          /*!< DWT CTR
 895:Drivers/CMSIS/Include/core_cm4.h **** #define DWT_CTRL_NOPRFCNT_Msk              (0x1UL << DWT_CTRL_NOPRFCNT_Pos)            /*!< DWT CTR
 896:Drivers/CMSIS/Include/core_cm4.h **** 
 897:Drivers/CMSIS/Include/core_cm4.h **** #define DWT_CTRL_CYCEVTENA_Pos             22                                          /*!< DWT CTR
 898:Drivers/CMSIS/Include/core_cm4.h **** #define DWT_CTRL_CYCEVTENA_Msk             (0x1UL << DWT_CTRL_CYCEVTENA_Pos)           /*!< DWT CTR
 899:Drivers/CMSIS/Include/core_cm4.h **** 
 900:Drivers/CMSIS/Include/core_cm4.h **** #define DWT_CTRL_FOLDEVTENA_Pos            21                                          /*!< DWT CTR
ARM GAS  /tmp/ccJBQgIh.s 			page 22


 901:Drivers/CMSIS/Include/core_cm4.h **** #define DWT_CTRL_FOLDEVTENA_Msk            (0x1UL << DWT_CTRL_FOLDEVTENA_Pos)          /*!< DWT CTR
 902:Drivers/CMSIS/Include/core_cm4.h **** 
 903:Drivers/CMSIS/Include/core_cm4.h **** #define DWT_CTRL_LSUEVTENA_Pos             20                                          /*!< DWT CTR
 904:Drivers/CMSIS/Include/core_cm4.h **** #define DWT_CTRL_LSUEVTENA_Msk             (0x1UL << DWT_CTRL_LSUEVTENA_Pos)           /*!< DWT CTR
 905:Drivers/CMSIS/Include/core_cm4.h **** 
 906:Drivers/CMSIS/Include/core_cm4.h **** #define DWT_CTRL_SLEEPEVTENA_Pos           19                                          /*!< DWT CTR
 907:Drivers/CMSIS/Include/core_cm4.h **** #define DWT_CTRL_SLEEPEVTENA_Msk           (0x1UL << DWT_CTRL_SLEEPEVTENA_Pos)         /*!< DWT CTR
 908:Drivers/CMSIS/Include/core_cm4.h **** 
 909:Drivers/CMSIS/Include/core_cm4.h **** #define DWT_CTRL_EXCEVTENA_Pos             18                                          /*!< DWT CTR
 910:Drivers/CMSIS/Include/core_cm4.h **** #define DWT_CTRL_EXCEVTENA_Msk             (0x1UL << DWT_CTRL_EXCEVTENA_Pos)           /*!< DWT CTR
 911:Drivers/CMSIS/Include/core_cm4.h **** 
 912:Drivers/CMSIS/Include/core_cm4.h **** #define DWT_CTRL_CPIEVTENA_Pos             17                                          /*!< DWT CTR
 913:Drivers/CMSIS/Include/core_cm4.h **** #define DWT_CTRL_CPIEVTENA_Msk             (0x1UL << DWT_CTRL_CPIEVTENA_Pos)           /*!< DWT CTR
 914:Drivers/CMSIS/Include/core_cm4.h **** 
 915:Drivers/CMSIS/Include/core_cm4.h **** #define DWT_CTRL_EXCTRCENA_Pos             16                                          /*!< DWT CTR
 916:Drivers/CMSIS/Include/core_cm4.h **** #define DWT_CTRL_EXCTRCENA_Msk             (0x1UL << DWT_CTRL_EXCTRCENA_Pos)           /*!< DWT CTR
 917:Drivers/CMSIS/Include/core_cm4.h **** 
 918:Drivers/CMSIS/Include/core_cm4.h **** #define DWT_CTRL_PCSAMPLENA_Pos            12                                          /*!< DWT CTR
 919:Drivers/CMSIS/Include/core_cm4.h **** #define DWT_CTRL_PCSAMPLENA_Msk            (0x1UL << DWT_CTRL_PCSAMPLENA_Pos)          /*!< DWT CTR
 920:Drivers/CMSIS/Include/core_cm4.h **** 
 921:Drivers/CMSIS/Include/core_cm4.h **** #define DWT_CTRL_SYNCTAP_Pos               10                                          /*!< DWT CTR
 922:Drivers/CMSIS/Include/core_cm4.h **** #define DWT_CTRL_SYNCTAP_Msk               (0x3UL << DWT_CTRL_SYNCTAP_Pos)             /*!< DWT CTR
 923:Drivers/CMSIS/Include/core_cm4.h **** 
 924:Drivers/CMSIS/Include/core_cm4.h **** #define DWT_CTRL_CYCTAP_Pos                 9                                          /*!< DWT CTR
 925:Drivers/CMSIS/Include/core_cm4.h **** #define DWT_CTRL_CYCTAP_Msk                (0x1UL << DWT_CTRL_CYCTAP_Pos)              /*!< DWT CTR
 926:Drivers/CMSIS/Include/core_cm4.h **** 
 927:Drivers/CMSIS/Include/core_cm4.h **** #define DWT_CTRL_POSTINIT_Pos               5                                          /*!< DWT CTR
 928:Drivers/CMSIS/Include/core_cm4.h **** #define DWT_CTRL_POSTINIT_Msk              (0xFUL << DWT_CTRL_POSTINIT_Pos)            /*!< DWT CTR
 929:Drivers/CMSIS/Include/core_cm4.h **** 
 930:Drivers/CMSIS/Include/core_cm4.h **** #define DWT_CTRL_POSTPRESET_Pos             1                                          /*!< DWT CTR
 931:Drivers/CMSIS/Include/core_cm4.h **** #define DWT_CTRL_POSTPRESET_Msk            (0xFUL << DWT_CTRL_POSTPRESET_Pos)          /*!< DWT CTR
 932:Drivers/CMSIS/Include/core_cm4.h **** 
 933:Drivers/CMSIS/Include/core_cm4.h **** #define DWT_CTRL_CYCCNTENA_Pos              0                                          /*!< DWT CTR
 934:Drivers/CMSIS/Include/core_cm4.h **** #define DWT_CTRL_CYCCNTENA_Msk             (0x1UL /*<< DWT_CTRL_CYCCNTENA_Pos*/)       /*!< DWT CTR
 935:Drivers/CMSIS/Include/core_cm4.h **** 
 936:Drivers/CMSIS/Include/core_cm4.h **** /* DWT CPI Count Register Definitions */
 937:Drivers/CMSIS/Include/core_cm4.h **** #define DWT_CPICNT_CPICNT_Pos               0                                          /*!< DWT CPI
 938:Drivers/CMSIS/Include/core_cm4.h **** #define DWT_CPICNT_CPICNT_Msk              (0xFFUL /*<< DWT_CPICNT_CPICNT_Pos*/)       /*!< DWT CPI
 939:Drivers/CMSIS/Include/core_cm4.h **** 
 940:Drivers/CMSIS/Include/core_cm4.h **** /* DWT Exception Overhead Count Register Definitions */
 941:Drivers/CMSIS/Include/core_cm4.h **** #define DWT_EXCCNT_EXCCNT_Pos               0                                          /*!< DWT EXC
 942:Drivers/CMSIS/Include/core_cm4.h **** #define DWT_EXCCNT_EXCCNT_Msk              (0xFFUL /*<< DWT_EXCCNT_EXCCNT_Pos*/)       /*!< DWT EXC
 943:Drivers/CMSIS/Include/core_cm4.h **** 
 944:Drivers/CMSIS/Include/core_cm4.h **** /* DWT Sleep Count Register Definitions */
 945:Drivers/CMSIS/Include/core_cm4.h **** #define DWT_SLEEPCNT_SLEEPCNT_Pos           0                                          /*!< DWT SLE
 946:Drivers/CMSIS/Include/core_cm4.h **** #define DWT_SLEEPCNT_SLEEPCNT_Msk          (0xFFUL /*<< DWT_SLEEPCNT_SLEEPCNT_Pos*/)   /*!< DWT SLE
 947:Drivers/CMSIS/Include/core_cm4.h **** 
 948:Drivers/CMSIS/Include/core_cm4.h **** /* DWT LSU Count Register Definitions */
 949:Drivers/CMSIS/Include/core_cm4.h **** #define DWT_LSUCNT_LSUCNT_Pos               0                                          /*!< DWT LSU
 950:Drivers/CMSIS/Include/core_cm4.h **** #define DWT_LSUCNT_LSUCNT_Msk              (0xFFUL /*<< DWT_LSUCNT_LSUCNT_Pos*/)       /*!< DWT LSU
 951:Drivers/CMSIS/Include/core_cm4.h **** 
 952:Drivers/CMSIS/Include/core_cm4.h **** /* DWT Folded-instruction Count Register Definitions */
 953:Drivers/CMSIS/Include/core_cm4.h **** #define DWT_FOLDCNT_FOLDCNT_Pos             0                                          /*!< DWT FOL
 954:Drivers/CMSIS/Include/core_cm4.h **** #define DWT_FOLDCNT_FOLDCNT_Msk            (0xFFUL /*<< DWT_FOLDCNT_FOLDCNT_Pos*/)     /*!< DWT FOL
 955:Drivers/CMSIS/Include/core_cm4.h **** 
 956:Drivers/CMSIS/Include/core_cm4.h **** /* DWT Comparator Mask Register Definitions */
 957:Drivers/CMSIS/Include/core_cm4.h **** #define DWT_MASK_MASK_Pos                   0                                          /*!< DWT MAS
ARM GAS  /tmp/ccJBQgIh.s 			page 23


 958:Drivers/CMSIS/Include/core_cm4.h **** #define DWT_MASK_MASK_Msk                  (0x1FUL /*<< DWT_MASK_MASK_Pos*/)           /*!< DWT MAS
 959:Drivers/CMSIS/Include/core_cm4.h **** 
 960:Drivers/CMSIS/Include/core_cm4.h **** /* DWT Comparator Function Register Definitions */
 961:Drivers/CMSIS/Include/core_cm4.h **** #define DWT_FUNCTION_MATCHED_Pos           24                                          /*!< DWT FUN
 962:Drivers/CMSIS/Include/core_cm4.h **** #define DWT_FUNCTION_MATCHED_Msk           (0x1UL << DWT_FUNCTION_MATCHED_Pos)         /*!< DWT FUN
 963:Drivers/CMSIS/Include/core_cm4.h **** 
 964:Drivers/CMSIS/Include/core_cm4.h **** #define DWT_FUNCTION_DATAVADDR1_Pos        16                                          /*!< DWT FUN
 965:Drivers/CMSIS/Include/core_cm4.h **** #define DWT_FUNCTION_DATAVADDR1_Msk        (0xFUL << DWT_FUNCTION_DATAVADDR1_Pos)      /*!< DWT FUN
 966:Drivers/CMSIS/Include/core_cm4.h **** 
 967:Drivers/CMSIS/Include/core_cm4.h **** #define DWT_FUNCTION_DATAVADDR0_Pos        12                                          /*!< DWT FUN
 968:Drivers/CMSIS/Include/core_cm4.h **** #define DWT_FUNCTION_DATAVADDR0_Msk        (0xFUL << DWT_FUNCTION_DATAVADDR0_Pos)      /*!< DWT FUN
 969:Drivers/CMSIS/Include/core_cm4.h **** 
 970:Drivers/CMSIS/Include/core_cm4.h **** #define DWT_FUNCTION_DATAVSIZE_Pos         10                                          /*!< DWT FUN
 971:Drivers/CMSIS/Include/core_cm4.h **** #define DWT_FUNCTION_DATAVSIZE_Msk         (0x3UL << DWT_FUNCTION_DATAVSIZE_Pos)       /*!< DWT FUN
 972:Drivers/CMSIS/Include/core_cm4.h **** 
 973:Drivers/CMSIS/Include/core_cm4.h **** #define DWT_FUNCTION_LNK1ENA_Pos            9                                          /*!< DWT FUN
 974:Drivers/CMSIS/Include/core_cm4.h **** #define DWT_FUNCTION_LNK1ENA_Msk           (0x1UL << DWT_FUNCTION_LNK1ENA_Pos)         /*!< DWT FUN
 975:Drivers/CMSIS/Include/core_cm4.h **** 
 976:Drivers/CMSIS/Include/core_cm4.h **** #define DWT_FUNCTION_DATAVMATCH_Pos         8                                          /*!< DWT FUN
 977:Drivers/CMSIS/Include/core_cm4.h **** #define DWT_FUNCTION_DATAVMATCH_Msk        (0x1UL << DWT_FUNCTION_DATAVMATCH_Pos)      /*!< DWT FUN
 978:Drivers/CMSIS/Include/core_cm4.h **** 
 979:Drivers/CMSIS/Include/core_cm4.h **** #define DWT_FUNCTION_CYCMATCH_Pos           7                                          /*!< DWT FUN
 980:Drivers/CMSIS/Include/core_cm4.h **** #define DWT_FUNCTION_CYCMATCH_Msk          (0x1UL << DWT_FUNCTION_CYCMATCH_Pos)        /*!< DWT FUN
 981:Drivers/CMSIS/Include/core_cm4.h **** 
 982:Drivers/CMSIS/Include/core_cm4.h **** #define DWT_FUNCTION_EMITRANGE_Pos          5                                          /*!< DWT FUN
 983:Drivers/CMSIS/Include/core_cm4.h **** #define DWT_FUNCTION_EMITRANGE_Msk         (0x1UL << DWT_FUNCTION_EMITRANGE_Pos)       /*!< DWT FUN
 984:Drivers/CMSIS/Include/core_cm4.h **** 
 985:Drivers/CMSIS/Include/core_cm4.h **** #define DWT_FUNCTION_FUNCTION_Pos           0                                          /*!< DWT FUN
 986:Drivers/CMSIS/Include/core_cm4.h **** #define DWT_FUNCTION_FUNCTION_Msk          (0xFUL /*<< DWT_FUNCTION_FUNCTION_Pos*/)    /*!< DWT FUN
 987:Drivers/CMSIS/Include/core_cm4.h **** 
 988:Drivers/CMSIS/Include/core_cm4.h **** /*@}*/ /* end of group CMSIS_DWT */
 989:Drivers/CMSIS/Include/core_cm4.h **** 
 990:Drivers/CMSIS/Include/core_cm4.h **** 
 991:Drivers/CMSIS/Include/core_cm4.h **** /** \ingroup  CMSIS_core_register
 992:Drivers/CMSIS/Include/core_cm4.h ****     \defgroup CMSIS_TPI     Trace Port Interface (TPI)
 993:Drivers/CMSIS/Include/core_cm4.h ****     \brief      Type definitions for the Trace Port Interface (TPI)
 994:Drivers/CMSIS/Include/core_cm4.h ****   @{
 995:Drivers/CMSIS/Include/core_cm4.h ****  */
 996:Drivers/CMSIS/Include/core_cm4.h **** 
 997:Drivers/CMSIS/Include/core_cm4.h **** /** \brief  Structure type to access the Trace Port Interface Register (TPI).
 998:Drivers/CMSIS/Include/core_cm4.h ****  */
 999:Drivers/CMSIS/Include/core_cm4.h **** typedef struct
1000:Drivers/CMSIS/Include/core_cm4.h **** {
1001:Drivers/CMSIS/Include/core_cm4.h ****   __IO uint32_t SSPSR;                   /*!< Offset: 0x000 (R/ )  Supported Parallel Port Size Reg
1002:Drivers/CMSIS/Include/core_cm4.h ****   __IO uint32_t CSPSR;                   /*!< Offset: 0x004 (R/W)  Current Parallel Port Size Regis
1003:Drivers/CMSIS/Include/core_cm4.h ****        uint32_t RESERVED0[2];
1004:Drivers/CMSIS/Include/core_cm4.h ****   __IO uint32_t ACPR;                    /*!< Offset: 0x010 (R/W)  Asynchronous Clock Prescaler Reg
1005:Drivers/CMSIS/Include/core_cm4.h ****        uint32_t RESERVED1[55];
1006:Drivers/CMSIS/Include/core_cm4.h ****   __IO uint32_t SPPR;                    /*!< Offset: 0x0F0 (R/W)  Selected Pin Protocol Register *
1007:Drivers/CMSIS/Include/core_cm4.h ****        uint32_t RESERVED2[131];
1008:Drivers/CMSIS/Include/core_cm4.h ****   __I  uint32_t FFSR;                    /*!< Offset: 0x300 (R/ )  Formatter and Flush Status Regis
1009:Drivers/CMSIS/Include/core_cm4.h ****   __IO uint32_t FFCR;                    /*!< Offset: 0x304 (R/W)  Formatter and Flush Control Regi
1010:Drivers/CMSIS/Include/core_cm4.h ****   __I  uint32_t FSCR;                    /*!< Offset: 0x308 (R/ )  Formatter Synchronization Counte
1011:Drivers/CMSIS/Include/core_cm4.h ****        uint32_t RESERVED3[759];
1012:Drivers/CMSIS/Include/core_cm4.h ****   __I  uint32_t TRIGGER;                 /*!< Offset: 0xEE8 (R/ )  TRIGGER */
1013:Drivers/CMSIS/Include/core_cm4.h ****   __I  uint32_t FIFO0;                   /*!< Offset: 0xEEC (R/ )  Integration ETM Data */
1014:Drivers/CMSIS/Include/core_cm4.h ****   __I  uint32_t ITATBCTR2;               /*!< Offset: 0xEF0 (R/ )  ITATBCTR2 */
ARM GAS  /tmp/ccJBQgIh.s 			page 24


1015:Drivers/CMSIS/Include/core_cm4.h ****        uint32_t RESERVED4[1];
1016:Drivers/CMSIS/Include/core_cm4.h ****   __I  uint32_t ITATBCTR0;               /*!< Offset: 0xEF8 (R/ )  ITATBCTR0 */
1017:Drivers/CMSIS/Include/core_cm4.h ****   __I  uint32_t FIFO1;                   /*!< Offset: 0xEFC (R/ )  Integration ITM Data */
1018:Drivers/CMSIS/Include/core_cm4.h ****   __IO uint32_t ITCTRL;                  /*!< Offset: 0xF00 (R/W)  Integration Mode Control */
1019:Drivers/CMSIS/Include/core_cm4.h ****        uint32_t RESERVED5[39];
1020:Drivers/CMSIS/Include/core_cm4.h ****   __IO uint32_t CLAIMSET;                /*!< Offset: 0xFA0 (R/W)  Claim tag set */
1021:Drivers/CMSIS/Include/core_cm4.h ****   __IO uint32_t CLAIMCLR;                /*!< Offset: 0xFA4 (R/W)  Claim tag clear */
1022:Drivers/CMSIS/Include/core_cm4.h ****        uint32_t RESERVED7[8];
1023:Drivers/CMSIS/Include/core_cm4.h ****   __I  uint32_t DEVID;                   /*!< Offset: 0xFC8 (R/ )  TPIU_DEVID */
1024:Drivers/CMSIS/Include/core_cm4.h ****   __I  uint32_t DEVTYPE;                 /*!< Offset: 0xFCC (R/ )  TPIU_DEVTYPE */
1025:Drivers/CMSIS/Include/core_cm4.h **** } TPI_Type;
1026:Drivers/CMSIS/Include/core_cm4.h **** 
1027:Drivers/CMSIS/Include/core_cm4.h **** /* TPI Asynchronous Clock Prescaler Register Definitions */
1028:Drivers/CMSIS/Include/core_cm4.h **** #define TPI_ACPR_PRESCALER_Pos              0                                          /*!< TPI ACP
1029:Drivers/CMSIS/Include/core_cm4.h **** #define TPI_ACPR_PRESCALER_Msk             (0x1FFFUL /*<< TPI_ACPR_PRESCALER_Pos*/)    /*!< TPI ACP
1030:Drivers/CMSIS/Include/core_cm4.h **** 
1031:Drivers/CMSIS/Include/core_cm4.h **** /* TPI Selected Pin Protocol Register Definitions */
1032:Drivers/CMSIS/Include/core_cm4.h **** #define TPI_SPPR_TXMODE_Pos                 0                                          /*!< TPI SPP
1033:Drivers/CMSIS/Include/core_cm4.h **** #define TPI_SPPR_TXMODE_Msk                (0x3UL /*<< TPI_SPPR_TXMODE_Pos*/)          /*!< TPI SPP
1034:Drivers/CMSIS/Include/core_cm4.h **** 
1035:Drivers/CMSIS/Include/core_cm4.h **** /* TPI Formatter and Flush Status Register Definitions */
1036:Drivers/CMSIS/Include/core_cm4.h **** #define TPI_FFSR_FtNonStop_Pos              3                                          /*!< TPI FFS
1037:Drivers/CMSIS/Include/core_cm4.h **** #define TPI_FFSR_FtNonStop_Msk             (0x1UL << TPI_FFSR_FtNonStop_Pos)           /*!< TPI FFS
1038:Drivers/CMSIS/Include/core_cm4.h **** 
1039:Drivers/CMSIS/Include/core_cm4.h **** #define TPI_FFSR_TCPresent_Pos              2                                          /*!< TPI FFS
1040:Drivers/CMSIS/Include/core_cm4.h **** #define TPI_FFSR_TCPresent_Msk             (0x1UL << TPI_FFSR_TCPresent_Pos)           /*!< TPI FFS
1041:Drivers/CMSIS/Include/core_cm4.h **** 
1042:Drivers/CMSIS/Include/core_cm4.h **** #define TPI_FFSR_FtStopped_Pos              1                                          /*!< TPI FFS
1043:Drivers/CMSIS/Include/core_cm4.h **** #define TPI_FFSR_FtStopped_Msk             (0x1UL << TPI_FFSR_FtStopped_Pos)           /*!< TPI FFS
1044:Drivers/CMSIS/Include/core_cm4.h **** 
1045:Drivers/CMSIS/Include/core_cm4.h **** #define TPI_FFSR_FlInProg_Pos               0                                          /*!< TPI FFS
1046:Drivers/CMSIS/Include/core_cm4.h **** #define TPI_FFSR_FlInProg_Msk              (0x1UL /*<< TPI_FFSR_FlInProg_Pos*/)        /*!< TPI FFS
1047:Drivers/CMSIS/Include/core_cm4.h **** 
1048:Drivers/CMSIS/Include/core_cm4.h **** /* TPI Formatter and Flush Control Register Definitions */
1049:Drivers/CMSIS/Include/core_cm4.h **** #define TPI_FFCR_TrigIn_Pos                 8                                          /*!< TPI FFC
1050:Drivers/CMSIS/Include/core_cm4.h **** #define TPI_FFCR_TrigIn_Msk                (0x1UL << TPI_FFCR_TrigIn_Pos)              /*!< TPI FFC
1051:Drivers/CMSIS/Include/core_cm4.h **** 
1052:Drivers/CMSIS/Include/core_cm4.h **** #define TPI_FFCR_EnFCont_Pos                1                                          /*!< TPI FFC
1053:Drivers/CMSIS/Include/core_cm4.h **** #define TPI_FFCR_EnFCont_Msk               (0x1UL << TPI_FFCR_EnFCont_Pos)             /*!< TPI FFC
1054:Drivers/CMSIS/Include/core_cm4.h **** 
1055:Drivers/CMSIS/Include/core_cm4.h **** /* TPI TRIGGER Register Definitions */
1056:Drivers/CMSIS/Include/core_cm4.h **** #define TPI_TRIGGER_TRIGGER_Pos             0                                          /*!< TPI TRI
1057:Drivers/CMSIS/Include/core_cm4.h **** #define TPI_TRIGGER_TRIGGER_Msk            (0x1UL /*<< TPI_TRIGGER_TRIGGER_Pos*/)      /*!< TPI TRI
1058:Drivers/CMSIS/Include/core_cm4.h **** 
1059:Drivers/CMSIS/Include/core_cm4.h **** /* TPI Integration ETM Data Register Definitions (FIFO0) */
1060:Drivers/CMSIS/Include/core_cm4.h **** #define TPI_FIFO0_ITM_ATVALID_Pos          29                                          /*!< TPI FIF
1061:Drivers/CMSIS/Include/core_cm4.h **** #define TPI_FIFO0_ITM_ATVALID_Msk          (0x3UL << TPI_FIFO0_ITM_ATVALID_Pos)        /*!< TPI FIF
1062:Drivers/CMSIS/Include/core_cm4.h **** 
1063:Drivers/CMSIS/Include/core_cm4.h **** #define TPI_FIFO0_ITM_bytecount_Pos        27                                          /*!< TPI FIF
1064:Drivers/CMSIS/Include/core_cm4.h **** #define TPI_FIFO0_ITM_bytecount_Msk        (0x3UL << TPI_FIFO0_ITM_bytecount_Pos)      /*!< TPI FIF
1065:Drivers/CMSIS/Include/core_cm4.h **** 
1066:Drivers/CMSIS/Include/core_cm4.h **** #define TPI_FIFO0_ETM_ATVALID_Pos          26                                          /*!< TPI FIF
1067:Drivers/CMSIS/Include/core_cm4.h **** #define TPI_FIFO0_ETM_ATVALID_Msk          (0x3UL << TPI_FIFO0_ETM_ATVALID_Pos)        /*!< TPI FIF
1068:Drivers/CMSIS/Include/core_cm4.h **** 
1069:Drivers/CMSIS/Include/core_cm4.h **** #define TPI_FIFO0_ETM_bytecount_Pos        24                                          /*!< TPI FIF
1070:Drivers/CMSIS/Include/core_cm4.h **** #define TPI_FIFO0_ETM_bytecount_Msk        (0x3UL << TPI_FIFO0_ETM_bytecount_Pos)      /*!< TPI FIF
1071:Drivers/CMSIS/Include/core_cm4.h **** 
ARM GAS  /tmp/ccJBQgIh.s 			page 25


1072:Drivers/CMSIS/Include/core_cm4.h **** #define TPI_FIFO0_ETM2_Pos                 16                                          /*!< TPI FIF
1073:Drivers/CMSIS/Include/core_cm4.h **** #define TPI_FIFO0_ETM2_Msk                 (0xFFUL << TPI_FIFO0_ETM2_Pos)              /*!< TPI FIF
1074:Drivers/CMSIS/Include/core_cm4.h **** 
1075:Drivers/CMSIS/Include/core_cm4.h **** #define TPI_FIFO0_ETM1_Pos                  8                                          /*!< TPI FIF
1076:Drivers/CMSIS/Include/core_cm4.h **** #define TPI_FIFO0_ETM1_Msk                 (0xFFUL << TPI_FIFO0_ETM1_Pos)              /*!< TPI FIF
1077:Drivers/CMSIS/Include/core_cm4.h **** 
1078:Drivers/CMSIS/Include/core_cm4.h **** #define TPI_FIFO0_ETM0_Pos                  0                                          /*!< TPI FIF
1079:Drivers/CMSIS/Include/core_cm4.h **** #define TPI_FIFO0_ETM0_Msk                 (0xFFUL /*<< TPI_FIFO0_ETM0_Pos*/)          /*!< TPI FIF
1080:Drivers/CMSIS/Include/core_cm4.h **** 
1081:Drivers/CMSIS/Include/core_cm4.h **** /* TPI ITATBCTR2 Register Definitions */
1082:Drivers/CMSIS/Include/core_cm4.h **** #define TPI_ITATBCTR2_ATREADY_Pos           0                                          /*!< TPI ITA
1083:Drivers/CMSIS/Include/core_cm4.h **** #define TPI_ITATBCTR2_ATREADY_Msk          (0x1UL /*<< TPI_ITATBCTR2_ATREADY_Pos*/)    /*!< TPI ITA
1084:Drivers/CMSIS/Include/core_cm4.h **** 
1085:Drivers/CMSIS/Include/core_cm4.h **** /* TPI Integration ITM Data Register Definitions (FIFO1) */
1086:Drivers/CMSIS/Include/core_cm4.h **** #define TPI_FIFO1_ITM_ATVALID_Pos          29                                          /*!< TPI FIF
1087:Drivers/CMSIS/Include/core_cm4.h **** #define TPI_FIFO1_ITM_ATVALID_Msk          (0x3UL << TPI_FIFO1_ITM_ATVALID_Pos)        /*!< TPI FIF
1088:Drivers/CMSIS/Include/core_cm4.h **** 
1089:Drivers/CMSIS/Include/core_cm4.h **** #define TPI_FIFO1_ITM_bytecount_Pos        27                                          /*!< TPI FIF
1090:Drivers/CMSIS/Include/core_cm4.h **** #define TPI_FIFO1_ITM_bytecount_Msk        (0x3UL << TPI_FIFO1_ITM_bytecount_Pos)      /*!< TPI FIF
1091:Drivers/CMSIS/Include/core_cm4.h **** 
1092:Drivers/CMSIS/Include/core_cm4.h **** #define TPI_FIFO1_ETM_ATVALID_Pos          26                                          /*!< TPI FIF
1093:Drivers/CMSIS/Include/core_cm4.h **** #define TPI_FIFO1_ETM_ATVALID_Msk          (0x3UL << TPI_FIFO1_ETM_ATVALID_Pos)        /*!< TPI FIF
1094:Drivers/CMSIS/Include/core_cm4.h **** 
1095:Drivers/CMSIS/Include/core_cm4.h **** #define TPI_FIFO1_ETM_bytecount_Pos        24                                          /*!< TPI FIF
1096:Drivers/CMSIS/Include/core_cm4.h **** #define TPI_FIFO1_ETM_bytecount_Msk        (0x3UL << TPI_FIFO1_ETM_bytecount_Pos)      /*!< TPI FIF
1097:Drivers/CMSIS/Include/core_cm4.h **** 
1098:Drivers/CMSIS/Include/core_cm4.h **** #define TPI_FIFO1_ITM2_Pos                 16                                          /*!< TPI FIF
1099:Drivers/CMSIS/Include/core_cm4.h **** #define TPI_FIFO1_ITM2_Msk                 (0xFFUL << TPI_FIFO1_ITM2_Pos)              /*!< TPI FIF
1100:Drivers/CMSIS/Include/core_cm4.h **** 
1101:Drivers/CMSIS/Include/core_cm4.h **** #define TPI_FIFO1_ITM1_Pos                  8                                          /*!< TPI FIF
1102:Drivers/CMSIS/Include/core_cm4.h **** #define TPI_FIFO1_ITM1_Msk                 (0xFFUL << TPI_FIFO1_ITM1_Pos)              /*!< TPI FIF
1103:Drivers/CMSIS/Include/core_cm4.h **** 
1104:Drivers/CMSIS/Include/core_cm4.h **** #define TPI_FIFO1_ITM0_Pos                  0                                          /*!< TPI FIF
1105:Drivers/CMSIS/Include/core_cm4.h **** #define TPI_FIFO1_ITM0_Msk                 (0xFFUL /*<< TPI_FIFO1_ITM0_Pos*/)          /*!< TPI FIF
1106:Drivers/CMSIS/Include/core_cm4.h **** 
1107:Drivers/CMSIS/Include/core_cm4.h **** /* TPI ITATBCTR0 Register Definitions */
1108:Drivers/CMSIS/Include/core_cm4.h **** #define TPI_ITATBCTR0_ATREADY_Pos           0                                          /*!< TPI ITA
1109:Drivers/CMSIS/Include/core_cm4.h **** #define TPI_ITATBCTR0_ATREADY_Msk          (0x1UL /*<< TPI_ITATBCTR0_ATREADY_Pos*/)    /*!< TPI ITA
1110:Drivers/CMSIS/Include/core_cm4.h **** 
1111:Drivers/CMSIS/Include/core_cm4.h **** /* TPI Integration Mode Control Register Definitions */
1112:Drivers/CMSIS/Include/core_cm4.h **** #define TPI_ITCTRL_Mode_Pos                 0                                          /*!< TPI ITC
1113:Drivers/CMSIS/Include/core_cm4.h **** #define TPI_ITCTRL_Mode_Msk                (0x1UL /*<< TPI_ITCTRL_Mode_Pos*/)          /*!< TPI ITC
1114:Drivers/CMSIS/Include/core_cm4.h **** 
1115:Drivers/CMSIS/Include/core_cm4.h **** /* TPI DEVID Register Definitions */
1116:Drivers/CMSIS/Include/core_cm4.h **** #define TPI_DEVID_NRZVALID_Pos             11                                          /*!< TPI DEV
1117:Drivers/CMSIS/Include/core_cm4.h **** #define TPI_DEVID_NRZVALID_Msk             (0x1UL << TPI_DEVID_NRZVALID_Pos)           /*!< TPI DEV
1118:Drivers/CMSIS/Include/core_cm4.h **** 
1119:Drivers/CMSIS/Include/core_cm4.h **** #define TPI_DEVID_MANCVALID_Pos            10                                          /*!< TPI DEV
1120:Drivers/CMSIS/Include/core_cm4.h **** #define TPI_DEVID_MANCVALID_Msk            (0x1UL << TPI_DEVID_MANCVALID_Pos)          /*!< TPI DEV
1121:Drivers/CMSIS/Include/core_cm4.h **** 
1122:Drivers/CMSIS/Include/core_cm4.h **** #define TPI_DEVID_PTINVALID_Pos             9                                          /*!< TPI DEV
1123:Drivers/CMSIS/Include/core_cm4.h **** #define TPI_DEVID_PTINVALID_Msk            (0x1UL << TPI_DEVID_PTINVALID_Pos)          /*!< TPI DEV
1124:Drivers/CMSIS/Include/core_cm4.h **** 
1125:Drivers/CMSIS/Include/core_cm4.h **** #define TPI_DEVID_MinBufSz_Pos              6                                          /*!< TPI DEV
1126:Drivers/CMSIS/Include/core_cm4.h **** #define TPI_DEVID_MinBufSz_Msk             (0x7UL << TPI_DEVID_MinBufSz_Pos)           /*!< TPI DEV
1127:Drivers/CMSIS/Include/core_cm4.h **** 
1128:Drivers/CMSIS/Include/core_cm4.h **** #define TPI_DEVID_AsynClkIn_Pos             5                                          /*!< TPI DEV
ARM GAS  /tmp/ccJBQgIh.s 			page 26


1129:Drivers/CMSIS/Include/core_cm4.h **** #define TPI_DEVID_AsynClkIn_Msk            (0x1UL << TPI_DEVID_AsynClkIn_Pos)          /*!< TPI DEV
1130:Drivers/CMSIS/Include/core_cm4.h **** 
1131:Drivers/CMSIS/Include/core_cm4.h **** #define TPI_DEVID_NrTraceInput_Pos          0                                          /*!< TPI DEV
1132:Drivers/CMSIS/Include/core_cm4.h **** #define TPI_DEVID_NrTraceInput_Msk         (0x1FUL /*<< TPI_DEVID_NrTraceInput_Pos*/)  /*!< TPI DEV
1133:Drivers/CMSIS/Include/core_cm4.h **** 
1134:Drivers/CMSIS/Include/core_cm4.h **** /* TPI DEVTYPE Register Definitions */
1135:Drivers/CMSIS/Include/core_cm4.h **** #define TPI_DEVTYPE_MajorType_Pos           4                                          /*!< TPI DEV
1136:Drivers/CMSIS/Include/core_cm4.h **** #define TPI_DEVTYPE_MajorType_Msk          (0xFUL << TPI_DEVTYPE_MajorType_Pos)        /*!< TPI DEV
1137:Drivers/CMSIS/Include/core_cm4.h **** 
1138:Drivers/CMSIS/Include/core_cm4.h **** #define TPI_DEVTYPE_SubType_Pos             0                                          /*!< TPI DEV
1139:Drivers/CMSIS/Include/core_cm4.h **** #define TPI_DEVTYPE_SubType_Msk            (0xFUL /*<< TPI_DEVTYPE_SubType_Pos*/)      /*!< TPI DEV
1140:Drivers/CMSIS/Include/core_cm4.h **** 
1141:Drivers/CMSIS/Include/core_cm4.h **** /*@}*/ /* end of group CMSIS_TPI */
1142:Drivers/CMSIS/Include/core_cm4.h **** 
1143:Drivers/CMSIS/Include/core_cm4.h **** 
1144:Drivers/CMSIS/Include/core_cm4.h **** #if (__MPU_PRESENT == 1)
1145:Drivers/CMSIS/Include/core_cm4.h **** /** \ingroup  CMSIS_core_register
1146:Drivers/CMSIS/Include/core_cm4.h ****     \defgroup CMSIS_MPU     Memory Protection Unit (MPU)
1147:Drivers/CMSIS/Include/core_cm4.h ****     \brief      Type definitions for the Memory Protection Unit (MPU)
1148:Drivers/CMSIS/Include/core_cm4.h ****   @{
1149:Drivers/CMSIS/Include/core_cm4.h ****  */
1150:Drivers/CMSIS/Include/core_cm4.h **** 
1151:Drivers/CMSIS/Include/core_cm4.h **** /** \brief  Structure type to access the Memory Protection Unit (MPU).
1152:Drivers/CMSIS/Include/core_cm4.h ****  */
1153:Drivers/CMSIS/Include/core_cm4.h **** typedef struct
1154:Drivers/CMSIS/Include/core_cm4.h **** {
1155:Drivers/CMSIS/Include/core_cm4.h ****   __I  uint32_t TYPE;                    /*!< Offset: 0x000 (R/ )  MPU Type Register               
1156:Drivers/CMSIS/Include/core_cm4.h ****   __IO uint32_t CTRL;                    /*!< Offset: 0x004 (R/W)  MPU Control Register            
1157:Drivers/CMSIS/Include/core_cm4.h ****   __IO uint32_t RNR;                     /*!< Offset: 0x008 (R/W)  MPU Region RNRber Register      
1158:Drivers/CMSIS/Include/core_cm4.h ****   __IO uint32_t RBAR;                    /*!< Offset: 0x00C (R/W)  MPU Region Base Address Register
1159:Drivers/CMSIS/Include/core_cm4.h ****   __IO uint32_t RASR;                    /*!< Offset: 0x010 (R/W)  MPU Region Attribute and Size Re
1160:Drivers/CMSIS/Include/core_cm4.h ****   __IO uint32_t RBAR_A1;                 /*!< Offset: 0x014 (R/W)  MPU Alias 1 Region Base Address 
1161:Drivers/CMSIS/Include/core_cm4.h ****   __IO uint32_t RASR_A1;                 /*!< Offset: 0x018 (R/W)  MPU Alias 1 Region Attribute and
1162:Drivers/CMSIS/Include/core_cm4.h ****   __IO uint32_t RBAR_A2;                 /*!< Offset: 0x01C (R/W)  MPU Alias 2 Region Base Address 
1163:Drivers/CMSIS/Include/core_cm4.h ****   __IO uint32_t RASR_A2;                 /*!< Offset: 0x020 (R/W)  MPU Alias 2 Region Attribute and
1164:Drivers/CMSIS/Include/core_cm4.h ****   __IO uint32_t RBAR_A3;                 /*!< Offset: 0x024 (R/W)  MPU Alias 3 Region Base Address 
1165:Drivers/CMSIS/Include/core_cm4.h ****   __IO uint32_t RASR_A3;                 /*!< Offset: 0x028 (R/W)  MPU Alias 3 Region Attribute and
1166:Drivers/CMSIS/Include/core_cm4.h **** } MPU_Type;
1167:Drivers/CMSIS/Include/core_cm4.h **** 
1168:Drivers/CMSIS/Include/core_cm4.h **** /* MPU Type Register */
1169:Drivers/CMSIS/Include/core_cm4.h **** #define MPU_TYPE_IREGION_Pos               16                                             /*!< MPU 
1170:Drivers/CMSIS/Include/core_cm4.h **** #define MPU_TYPE_IREGION_Msk               (0xFFUL << MPU_TYPE_IREGION_Pos)               /*!< MPU 
1171:Drivers/CMSIS/Include/core_cm4.h **** 
1172:Drivers/CMSIS/Include/core_cm4.h **** #define MPU_TYPE_DREGION_Pos                8                                             /*!< MPU 
1173:Drivers/CMSIS/Include/core_cm4.h **** #define MPU_TYPE_DREGION_Msk               (0xFFUL << MPU_TYPE_DREGION_Pos)               /*!< MPU 
1174:Drivers/CMSIS/Include/core_cm4.h **** 
1175:Drivers/CMSIS/Include/core_cm4.h **** #define MPU_TYPE_SEPARATE_Pos               0                                             /*!< MPU 
1176:Drivers/CMSIS/Include/core_cm4.h **** #define MPU_TYPE_SEPARATE_Msk              (1UL /*<< MPU_TYPE_SEPARATE_Pos*/)             /*!< MPU 
1177:Drivers/CMSIS/Include/core_cm4.h **** 
1178:Drivers/CMSIS/Include/core_cm4.h **** /* MPU Control Register */
1179:Drivers/CMSIS/Include/core_cm4.h **** #define MPU_CTRL_PRIVDEFENA_Pos             2                                             /*!< MPU 
1180:Drivers/CMSIS/Include/core_cm4.h **** #define MPU_CTRL_PRIVDEFENA_Msk            (1UL << MPU_CTRL_PRIVDEFENA_Pos)               /*!< MPU 
1181:Drivers/CMSIS/Include/core_cm4.h **** 
1182:Drivers/CMSIS/Include/core_cm4.h **** #define MPU_CTRL_HFNMIENA_Pos               1                                             /*!< MPU 
1183:Drivers/CMSIS/Include/core_cm4.h **** #define MPU_CTRL_HFNMIENA_Msk              (1UL << MPU_CTRL_HFNMIENA_Pos)                 /*!< MPU 
1184:Drivers/CMSIS/Include/core_cm4.h **** 
1185:Drivers/CMSIS/Include/core_cm4.h **** #define MPU_CTRL_ENABLE_Pos                 0                                             /*!< MPU 
ARM GAS  /tmp/ccJBQgIh.s 			page 27


1186:Drivers/CMSIS/Include/core_cm4.h **** #define MPU_CTRL_ENABLE_Msk                (1UL /*<< MPU_CTRL_ENABLE_Pos*/)               /*!< MPU 
1187:Drivers/CMSIS/Include/core_cm4.h **** 
1188:Drivers/CMSIS/Include/core_cm4.h **** /* MPU Region Number Register */
1189:Drivers/CMSIS/Include/core_cm4.h **** #define MPU_RNR_REGION_Pos                  0                                             /*!< MPU 
1190:Drivers/CMSIS/Include/core_cm4.h **** #define MPU_RNR_REGION_Msk                 (0xFFUL /*<< MPU_RNR_REGION_Pos*/)             /*!< MPU 
1191:Drivers/CMSIS/Include/core_cm4.h **** 
1192:Drivers/CMSIS/Include/core_cm4.h **** /* MPU Region Base Address Register */
1193:Drivers/CMSIS/Include/core_cm4.h **** #define MPU_RBAR_ADDR_Pos                   5                                             /*!< MPU 
1194:Drivers/CMSIS/Include/core_cm4.h **** #define MPU_RBAR_ADDR_Msk                  (0x7FFFFFFUL << MPU_RBAR_ADDR_Pos)             /*!< MPU 
1195:Drivers/CMSIS/Include/core_cm4.h **** 
1196:Drivers/CMSIS/Include/core_cm4.h **** #define MPU_RBAR_VALID_Pos                  4                                             /*!< MPU 
1197:Drivers/CMSIS/Include/core_cm4.h **** #define MPU_RBAR_VALID_Msk                 (1UL << MPU_RBAR_VALID_Pos)                    /*!< MPU 
1198:Drivers/CMSIS/Include/core_cm4.h **** 
1199:Drivers/CMSIS/Include/core_cm4.h **** #define MPU_RBAR_REGION_Pos                 0                                             /*!< MPU 
1200:Drivers/CMSIS/Include/core_cm4.h **** #define MPU_RBAR_REGION_Msk                (0xFUL /*<< MPU_RBAR_REGION_Pos*/)             /*!< MPU 
1201:Drivers/CMSIS/Include/core_cm4.h **** 
1202:Drivers/CMSIS/Include/core_cm4.h **** /* MPU Region Attribute and Size Register */
1203:Drivers/CMSIS/Include/core_cm4.h **** #define MPU_RASR_ATTRS_Pos                 16                                             /*!< MPU 
1204:Drivers/CMSIS/Include/core_cm4.h **** #define MPU_RASR_ATTRS_Msk                 (0xFFFFUL << MPU_RASR_ATTRS_Pos)               /*!< MPU 
1205:Drivers/CMSIS/Include/core_cm4.h **** 
1206:Drivers/CMSIS/Include/core_cm4.h **** #define MPU_RASR_XN_Pos                    28                                             /*!< MPU 
1207:Drivers/CMSIS/Include/core_cm4.h **** #define MPU_RASR_XN_Msk                    (1UL << MPU_RASR_XN_Pos)                       /*!< MPU 
1208:Drivers/CMSIS/Include/core_cm4.h **** 
1209:Drivers/CMSIS/Include/core_cm4.h **** #define MPU_RASR_AP_Pos                    24                                             /*!< MPU 
1210:Drivers/CMSIS/Include/core_cm4.h **** #define MPU_RASR_AP_Msk                    (0x7UL << MPU_RASR_AP_Pos)                     /*!< MPU 
1211:Drivers/CMSIS/Include/core_cm4.h **** 
1212:Drivers/CMSIS/Include/core_cm4.h **** #define MPU_RASR_TEX_Pos                   19                                             /*!< MPU 
1213:Drivers/CMSIS/Include/core_cm4.h **** #define MPU_RASR_TEX_Msk                   (0x7UL << MPU_RASR_TEX_Pos)                    /*!< MPU 
1214:Drivers/CMSIS/Include/core_cm4.h **** 
1215:Drivers/CMSIS/Include/core_cm4.h **** #define MPU_RASR_S_Pos                     18                                             /*!< MPU 
1216:Drivers/CMSIS/Include/core_cm4.h **** #define MPU_RASR_S_Msk                     (1UL << MPU_RASR_S_Pos)                        /*!< MPU 
1217:Drivers/CMSIS/Include/core_cm4.h **** 
1218:Drivers/CMSIS/Include/core_cm4.h **** #define MPU_RASR_C_Pos                     17                                             /*!< MPU 
1219:Drivers/CMSIS/Include/core_cm4.h **** #define MPU_RASR_C_Msk                     (1UL << MPU_RASR_C_Pos)                        /*!< MPU 
1220:Drivers/CMSIS/Include/core_cm4.h **** 
1221:Drivers/CMSIS/Include/core_cm4.h **** #define MPU_RASR_B_Pos                     16                                             /*!< MPU 
1222:Drivers/CMSIS/Include/core_cm4.h **** #define MPU_RASR_B_Msk                     (1UL << MPU_RASR_B_Pos)                        /*!< MPU 
1223:Drivers/CMSIS/Include/core_cm4.h **** 
1224:Drivers/CMSIS/Include/core_cm4.h **** #define MPU_RASR_SRD_Pos                    8                                             /*!< MPU 
1225:Drivers/CMSIS/Include/core_cm4.h **** #define MPU_RASR_SRD_Msk                   (0xFFUL << MPU_RASR_SRD_Pos)                   /*!< MPU 
1226:Drivers/CMSIS/Include/core_cm4.h **** 
1227:Drivers/CMSIS/Include/core_cm4.h **** #define MPU_RASR_SIZE_Pos                   1                                             /*!< MPU 
1228:Drivers/CMSIS/Include/core_cm4.h **** #define MPU_RASR_SIZE_Msk                  (0x1FUL << MPU_RASR_SIZE_Pos)                  /*!< MPU 
1229:Drivers/CMSIS/Include/core_cm4.h **** 
1230:Drivers/CMSIS/Include/core_cm4.h **** #define MPU_RASR_ENABLE_Pos                 0                                             /*!< MPU 
1231:Drivers/CMSIS/Include/core_cm4.h **** #define MPU_RASR_ENABLE_Msk                (1UL /*<< MPU_RASR_ENABLE_Pos*/)               /*!< MPU 
1232:Drivers/CMSIS/Include/core_cm4.h **** 
1233:Drivers/CMSIS/Include/core_cm4.h **** /*@} end of group CMSIS_MPU */
1234:Drivers/CMSIS/Include/core_cm4.h **** #endif
1235:Drivers/CMSIS/Include/core_cm4.h **** 
1236:Drivers/CMSIS/Include/core_cm4.h **** 
1237:Drivers/CMSIS/Include/core_cm4.h **** #if (__FPU_PRESENT == 1)
1238:Drivers/CMSIS/Include/core_cm4.h **** /** \ingroup  CMSIS_core_register
1239:Drivers/CMSIS/Include/core_cm4.h ****     \defgroup CMSIS_FPU     Floating Point Unit (FPU)
1240:Drivers/CMSIS/Include/core_cm4.h ****     \brief      Type definitions for the Floating Point Unit (FPU)
1241:Drivers/CMSIS/Include/core_cm4.h ****   @{
1242:Drivers/CMSIS/Include/core_cm4.h ****  */
ARM GAS  /tmp/ccJBQgIh.s 			page 28


1243:Drivers/CMSIS/Include/core_cm4.h **** 
1244:Drivers/CMSIS/Include/core_cm4.h **** /** \brief  Structure type to access the Floating Point Unit (FPU).
1245:Drivers/CMSIS/Include/core_cm4.h ****  */
1246:Drivers/CMSIS/Include/core_cm4.h **** typedef struct
1247:Drivers/CMSIS/Include/core_cm4.h **** {
1248:Drivers/CMSIS/Include/core_cm4.h ****        uint32_t RESERVED0[1];
1249:Drivers/CMSIS/Include/core_cm4.h ****   __IO uint32_t FPCCR;                   /*!< Offset: 0x004 (R/W)  Floating-Point Context Control R
1250:Drivers/CMSIS/Include/core_cm4.h ****   __IO uint32_t FPCAR;                   /*!< Offset: 0x008 (R/W)  Floating-Point Context Address R
1251:Drivers/CMSIS/Include/core_cm4.h ****   __IO uint32_t FPDSCR;                  /*!< Offset: 0x00C (R/W)  Floating-Point Default Status Co
1252:Drivers/CMSIS/Include/core_cm4.h ****   __I  uint32_t MVFR0;                   /*!< Offset: 0x010 (R/ )  Media and FP Feature Register 0 
1253:Drivers/CMSIS/Include/core_cm4.h ****   __I  uint32_t MVFR1;                   /*!< Offset: 0x014 (R/ )  Media and FP Feature Register 1 
1254:Drivers/CMSIS/Include/core_cm4.h **** } FPU_Type;
1255:Drivers/CMSIS/Include/core_cm4.h **** 
1256:Drivers/CMSIS/Include/core_cm4.h **** /* Floating-Point Context Control Register */
1257:Drivers/CMSIS/Include/core_cm4.h **** #define FPU_FPCCR_ASPEN_Pos                31                                             /*!< FPCC
1258:Drivers/CMSIS/Include/core_cm4.h **** #define FPU_FPCCR_ASPEN_Msk                (1UL << FPU_FPCCR_ASPEN_Pos)                   /*!< FPCC
1259:Drivers/CMSIS/Include/core_cm4.h **** 
1260:Drivers/CMSIS/Include/core_cm4.h **** #define FPU_FPCCR_LSPEN_Pos                30                                             /*!< FPCC
1261:Drivers/CMSIS/Include/core_cm4.h **** #define FPU_FPCCR_LSPEN_Msk                (1UL << FPU_FPCCR_LSPEN_Pos)                   /*!< FPCC
1262:Drivers/CMSIS/Include/core_cm4.h **** 
1263:Drivers/CMSIS/Include/core_cm4.h **** #define FPU_FPCCR_MONRDY_Pos                8                                             /*!< FPCC
1264:Drivers/CMSIS/Include/core_cm4.h **** #define FPU_FPCCR_MONRDY_Msk               (1UL << FPU_FPCCR_MONRDY_Pos)                  /*!< FPCC
1265:Drivers/CMSIS/Include/core_cm4.h **** 
1266:Drivers/CMSIS/Include/core_cm4.h **** #define FPU_FPCCR_BFRDY_Pos                 6                                             /*!< FPCC
1267:Drivers/CMSIS/Include/core_cm4.h **** #define FPU_FPCCR_BFRDY_Msk                (1UL << FPU_FPCCR_BFRDY_Pos)                   /*!< FPCC
1268:Drivers/CMSIS/Include/core_cm4.h **** 
1269:Drivers/CMSIS/Include/core_cm4.h **** #define FPU_FPCCR_MMRDY_Pos                 5                                             /*!< FPCC
1270:Drivers/CMSIS/Include/core_cm4.h **** #define FPU_FPCCR_MMRDY_Msk                (1UL << FPU_FPCCR_MMRDY_Pos)                   /*!< FPCC
1271:Drivers/CMSIS/Include/core_cm4.h **** 
1272:Drivers/CMSIS/Include/core_cm4.h **** #define FPU_FPCCR_HFRDY_Pos                 4                                             /*!< FPCC
1273:Drivers/CMSIS/Include/core_cm4.h **** #define FPU_FPCCR_HFRDY_Msk                (1UL << FPU_FPCCR_HFRDY_Pos)                   /*!< FPCC
1274:Drivers/CMSIS/Include/core_cm4.h **** 
1275:Drivers/CMSIS/Include/core_cm4.h **** #define FPU_FPCCR_THREAD_Pos                3                                             /*!< FPCC
1276:Drivers/CMSIS/Include/core_cm4.h **** #define FPU_FPCCR_THREAD_Msk               (1UL << FPU_FPCCR_THREAD_Pos)                  /*!< FPCC
1277:Drivers/CMSIS/Include/core_cm4.h **** 
1278:Drivers/CMSIS/Include/core_cm4.h **** #define FPU_FPCCR_USER_Pos                  1                                             /*!< FPCC
1279:Drivers/CMSIS/Include/core_cm4.h **** #define FPU_FPCCR_USER_Msk                 (1UL << FPU_FPCCR_USER_Pos)                    /*!< FPCC
1280:Drivers/CMSIS/Include/core_cm4.h **** 
1281:Drivers/CMSIS/Include/core_cm4.h **** #define FPU_FPCCR_LSPACT_Pos                0                                             /*!< FPCC
1282:Drivers/CMSIS/Include/core_cm4.h **** #define FPU_FPCCR_LSPACT_Msk               (1UL /*<< FPU_FPCCR_LSPACT_Pos*/)              /*!< FPCC
1283:Drivers/CMSIS/Include/core_cm4.h **** 
1284:Drivers/CMSIS/Include/core_cm4.h **** /* Floating-Point Context Address Register */
1285:Drivers/CMSIS/Include/core_cm4.h **** #define FPU_FPCAR_ADDRESS_Pos               3                                             /*!< FPCA
1286:Drivers/CMSIS/Include/core_cm4.h **** #define FPU_FPCAR_ADDRESS_Msk              (0x1FFFFFFFUL << FPU_FPCAR_ADDRESS_Pos)        /*!< FPCA
1287:Drivers/CMSIS/Include/core_cm4.h **** 
1288:Drivers/CMSIS/Include/core_cm4.h **** /* Floating-Point Default Status Control Register */
1289:Drivers/CMSIS/Include/core_cm4.h **** #define FPU_FPDSCR_AHP_Pos                 26                                             /*!< FPDS
1290:Drivers/CMSIS/Include/core_cm4.h **** #define FPU_FPDSCR_AHP_Msk                 (1UL << FPU_FPDSCR_AHP_Pos)                    /*!< FPDS
1291:Drivers/CMSIS/Include/core_cm4.h **** 
1292:Drivers/CMSIS/Include/core_cm4.h **** #define FPU_FPDSCR_DN_Pos                  25                                             /*!< FPDS
1293:Drivers/CMSIS/Include/core_cm4.h **** #define FPU_FPDSCR_DN_Msk                  (1UL << FPU_FPDSCR_DN_Pos)                     /*!< FPDS
1294:Drivers/CMSIS/Include/core_cm4.h **** 
1295:Drivers/CMSIS/Include/core_cm4.h **** #define FPU_FPDSCR_FZ_Pos                  24                                             /*!< FPDS
1296:Drivers/CMSIS/Include/core_cm4.h **** #define FPU_FPDSCR_FZ_Msk                  (1UL << FPU_FPDSCR_FZ_Pos)                     /*!< FPDS
1297:Drivers/CMSIS/Include/core_cm4.h **** 
1298:Drivers/CMSIS/Include/core_cm4.h **** #define FPU_FPDSCR_RMode_Pos               22                                             /*!< FPDS
1299:Drivers/CMSIS/Include/core_cm4.h **** #define FPU_FPDSCR_RMode_Msk               (3UL << FPU_FPDSCR_RMode_Pos)                  /*!< FPDS
ARM GAS  /tmp/ccJBQgIh.s 			page 29


1300:Drivers/CMSIS/Include/core_cm4.h **** 
1301:Drivers/CMSIS/Include/core_cm4.h **** /* Media and FP Feature Register 0 */
1302:Drivers/CMSIS/Include/core_cm4.h **** #define FPU_MVFR0_FP_rounding_modes_Pos    28                                             /*!< MVFR
1303:Drivers/CMSIS/Include/core_cm4.h **** #define FPU_MVFR0_FP_rounding_modes_Msk    (0xFUL << FPU_MVFR0_FP_rounding_modes_Pos)     /*!< MVFR
1304:Drivers/CMSIS/Include/core_cm4.h **** 
1305:Drivers/CMSIS/Include/core_cm4.h **** #define FPU_MVFR0_Short_vectors_Pos        24                                             /*!< MVFR
1306:Drivers/CMSIS/Include/core_cm4.h **** #define FPU_MVFR0_Short_vectors_Msk        (0xFUL << FPU_MVFR0_Short_vectors_Pos)         /*!< MVFR
1307:Drivers/CMSIS/Include/core_cm4.h **** 
1308:Drivers/CMSIS/Include/core_cm4.h **** #define FPU_MVFR0_Square_root_Pos          20                                             /*!< MVFR
1309:Drivers/CMSIS/Include/core_cm4.h **** #define FPU_MVFR0_Square_root_Msk          (0xFUL << FPU_MVFR0_Square_root_Pos)           /*!< MVFR
1310:Drivers/CMSIS/Include/core_cm4.h **** 
1311:Drivers/CMSIS/Include/core_cm4.h **** #define FPU_MVFR0_Divide_Pos               16                                             /*!< MVFR
1312:Drivers/CMSIS/Include/core_cm4.h **** #define FPU_MVFR0_Divide_Msk               (0xFUL << FPU_MVFR0_Divide_Pos)                /*!< MVFR
1313:Drivers/CMSIS/Include/core_cm4.h **** 
1314:Drivers/CMSIS/Include/core_cm4.h **** #define FPU_MVFR0_FP_excep_trapping_Pos    12                                             /*!< MVFR
1315:Drivers/CMSIS/Include/core_cm4.h **** #define FPU_MVFR0_FP_excep_trapping_Msk    (0xFUL << FPU_MVFR0_FP_excep_trapping_Pos)     /*!< MVFR
1316:Drivers/CMSIS/Include/core_cm4.h **** 
1317:Drivers/CMSIS/Include/core_cm4.h **** #define FPU_MVFR0_Double_precision_Pos      8                                             /*!< MVFR
1318:Drivers/CMSIS/Include/core_cm4.h **** #define FPU_MVFR0_Double_precision_Msk     (0xFUL << FPU_MVFR0_Double_precision_Pos)      /*!< MVFR
1319:Drivers/CMSIS/Include/core_cm4.h **** 
1320:Drivers/CMSIS/Include/core_cm4.h **** #define FPU_MVFR0_Single_precision_Pos      4                                             /*!< MVFR
1321:Drivers/CMSIS/Include/core_cm4.h **** #define FPU_MVFR0_Single_precision_Msk     (0xFUL << FPU_MVFR0_Single_precision_Pos)      /*!< MVFR
1322:Drivers/CMSIS/Include/core_cm4.h **** 
1323:Drivers/CMSIS/Include/core_cm4.h **** #define FPU_MVFR0_A_SIMD_registers_Pos      0                                             /*!< MVFR
1324:Drivers/CMSIS/Include/core_cm4.h **** #define FPU_MVFR0_A_SIMD_registers_Msk     (0xFUL /*<< FPU_MVFR0_A_SIMD_registers_Pos*/)  /*!< MVFR
1325:Drivers/CMSIS/Include/core_cm4.h **** 
1326:Drivers/CMSIS/Include/core_cm4.h **** /* Media and FP Feature Register 1 */
1327:Drivers/CMSIS/Include/core_cm4.h **** #define FPU_MVFR1_FP_fused_MAC_Pos         28                                             /*!< MVFR
1328:Drivers/CMSIS/Include/core_cm4.h **** #define FPU_MVFR1_FP_fused_MAC_Msk         (0xFUL << FPU_MVFR1_FP_fused_MAC_Pos)          /*!< MVFR
1329:Drivers/CMSIS/Include/core_cm4.h **** 
1330:Drivers/CMSIS/Include/core_cm4.h **** #define FPU_MVFR1_FP_HPFP_Pos              24                                             /*!< MVFR
1331:Drivers/CMSIS/Include/core_cm4.h **** #define FPU_MVFR1_FP_HPFP_Msk              (0xFUL << FPU_MVFR1_FP_HPFP_Pos)               /*!< MVFR
1332:Drivers/CMSIS/Include/core_cm4.h **** 
1333:Drivers/CMSIS/Include/core_cm4.h **** #define FPU_MVFR1_D_NaN_mode_Pos            4                                             /*!< MVFR
1334:Drivers/CMSIS/Include/core_cm4.h **** #define FPU_MVFR1_D_NaN_mode_Msk           (0xFUL << FPU_MVFR1_D_NaN_mode_Pos)            /*!< MVFR
1335:Drivers/CMSIS/Include/core_cm4.h **** 
1336:Drivers/CMSIS/Include/core_cm4.h **** #define FPU_MVFR1_FtZ_mode_Pos              0                                             /*!< MVFR
1337:Drivers/CMSIS/Include/core_cm4.h **** #define FPU_MVFR1_FtZ_mode_Msk             (0xFUL /*<< FPU_MVFR1_FtZ_mode_Pos*/)          /*!< MVFR
1338:Drivers/CMSIS/Include/core_cm4.h **** 
1339:Drivers/CMSIS/Include/core_cm4.h **** /*@} end of group CMSIS_FPU */
1340:Drivers/CMSIS/Include/core_cm4.h **** #endif
1341:Drivers/CMSIS/Include/core_cm4.h **** 
1342:Drivers/CMSIS/Include/core_cm4.h **** 
1343:Drivers/CMSIS/Include/core_cm4.h **** /** \ingroup  CMSIS_core_register
1344:Drivers/CMSIS/Include/core_cm4.h ****     \defgroup CMSIS_CoreDebug       Core Debug Registers (CoreDebug)
1345:Drivers/CMSIS/Include/core_cm4.h ****     \brief      Type definitions for the Core Debug Registers
1346:Drivers/CMSIS/Include/core_cm4.h ****   @{
1347:Drivers/CMSIS/Include/core_cm4.h ****  */
1348:Drivers/CMSIS/Include/core_cm4.h **** 
1349:Drivers/CMSIS/Include/core_cm4.h **** /** \brief  Structure type to access the Core Debug Register (CoreDebug).
1350:Drivers/CMSIS/Include/core_cm4.h ****  */
1351:Drivers/CMSIS/Include/core_cm4.h **** typedef struct
1352:Drivers/CMSIS/Include/core_cm4.h **** {
1353:Drivers/CMSIS/Include/core_cm4.h ****   __IO uint32_t DHCSR;                   /*!< Offset: 0x000 (R/W)  Debug Halting Control and Status
1354:Drivers/CMSIS/Include/core_cm4.h ****   __O  uint32_t DCRSR;                   /*!< Offset: 0x004 ( /W)  Debug Core Register Selector Reg
1355:Drivers/CMSIS/Include/core_cm4.h ****   __IO uint32_t DCRDR;                   /*!< Offset: 0x008 (R/W)  Debug Core Register Data Registe
1356:Drivers/CMSIS/Include/core_cm4.h ****   __IO uint32_t DEMCR;                   /*!< Offset: 0x00C (R/W)  Debug Exception and Monitor Cont
ARM GAS  /tmp/ccJBQgIh.s 			page 30


1357:Drivers/CMSIS/Include/core_cm4.h **** } CoreDebug_Type;
1358:Drivers/CMSIS/Include/core_cm4.h **** 
1359:Drivers/CMSIS/Include/core_cm4.h **** /* Debug Halting Control and Status Register */
1360:Drivers/CMSIS/Include/core_cm4.h **** #define CoreDebug_DHCSR_DBGKEY_Pos         16                                             /*!< Core
1361:Drivers/CMSIS/Include/core_cm4.h **** #define CoreDebug_DHCSR_DBGKEY_Msk         (0xFFFFUL << CoreDebug_DHCSR_DBGKEY_Pos)       /*!< Core
1362:Drivers/CMSIS/Include/core_cm4.h **** 
1363:Drivers/CMSIS/Include/core_cm4.h **** #define CoreDebug_DHCSR_S_RESET_ST_Pos     25                                             /*!< Core
1364:Drivers/CMSIS/Include/core_cm4.h **** #define CoreDebug_DHCSR_S_RESET_ST_Msk     (1UL << CoreDebug_DHCSR_S_RESET_ST_Pos)        /*!< Core
1365:Drivers/CMSIS/Include/core_cm4.h **** 
1366:Drivers/CMSIS/Include/core_cm4.h **** #define CoreDebug_DHCSR_S_RETIRE_ST_Pos    24                                             /*!< Core
1367:Drivers/CMSIS/Include/core_cm4.h **** #define CoreDebug_DHCSR_S_RETIRE_ST_Msk    (1UL << CoreDebug_DHCSR_S_RETIRE_ST_Pos)       /*!< Core
1368:Drivers/CMSIS/Include/core_cm4.h **** 
1369:Drivers/CMSIS/Include/core_cm4.h **** #define CoreDebug_DHCSR_S_LOCKUP_Pos       19                                             /*!< Core
1370:Drivers/CMSIS/Include/core_cm4.h **** #define CoreDebug_DHCSR_S_LOCKUP_Msk       (1UL << CoreDebug_DHCSR_S_LOCKUP_Pos)          /*!< Core
1371:Drivers/CMSIS/Include/core_cm4.h **** 
1372:Drivers/CMSIS/Include/core_cm4.h **** #define CoreDebug_DHCSR_S_SLEEP_Pos        18                                             /*!< Core
1373:Drivers/CMSIS/Include/core_cm4.h **** #define CoreDebug_DHCSR_S_SLEEP_Msk        (1UL << CoreDebug_DHCSR_S_SLEEP_Pos)           /*!< Core
1374:Drivers/CMSIS/Include/core_cm4.h **** 
1375:Drivers/CMSIS/Include/core_cm4.h **** #define CoreDebug_DHCSR_S_HALT_Pos         17                                             /*!< Core
1376:Drivers/CMSIS/Include/core_cm4.h **** #define CoreDebug_DHCSR_S_HALT_Msk         (1UL << CoreDebug_DHCSR_S_HALT_Pos)            /*!< Core
1377:Drivers/CMSIS/Include/core_cm4.h **** 
1378:Drivers/CMSIS/Include/core_cm4.h **** #define CoreDebug_DHCSR_S_REGRDY_Pos       16                                             /*!< Core
1379:Drivers/CMSIS/Include/core_cm4.h **** #define CoreDebug_DHCSR_S_REGRDY_Msk       (1UL << CoreDebug_DHCSR_S_REGRDY_Pos)          /*!< Core
1380:Drivers/CMSIS/Include/core_cm4.h **** 
1381:Drivers/CMSIS/Include/core_cm4.h **** #define CoreDebug_DHCSR_C_SNAPSTALL_Pos     5                                             /*!< Core
1382:Drivers/CMSIS/Include/core_cm4.h **** #define CoreDebug_DHCSR_C_SNAPSTALL_Msk    (1UL << CoreDebug_DHCSR_C_SNAPSTALL_Pos)       /*!< Core
1383:Drivers/CMSIS/Include/core_cm4.h **** 
1384:Drivers/CMSIS/Include/core_cm4.h **** #define CoreDebug_DHCSR_C_MASKINTS_Pos      3                                             /*!< Core
1385:Drivers/CMSIS/Include/core_cm4.h **** #define CoreDebug_DHCSR_C_MASKINTS_Msk     (1UL << CoreDebug_DHCSR_C_MASKINTS_Pos)        /*!< Core
1386:Drivers/CMSIS/Include/core_cm4.h **** 
1387:Drivers/CMSIS/Include/core_cm4.h **** #define CoreDebug_DHCSR_C_STEP_Pos          2                                             /*!< Core
1388:Drivers/CMSIS/Include/core_cm4.h **** #define CoreDebug_DHCSR_C_STEP_Msk         (1UL << CoreDebug_DHCSR_C_STEP_Pos)            /*!< Core
1389:Drivers/CMSIS/Include/core_cm4.h **** 
1390:Drivers/CMSIS/Include/core_cm4.h **** #define CoreDebug_DHCSR_C_HALT_Pos          1                                             /*!< Core
1391:Drivers/CMSIS/Include/core_cm4.h **** #define CoreDebug_DHCSR_C_HALT_Msk         (1UL << CoreDebug_DHCSR_C_HALT_Pos)            /*!< Core
1392:Drivers/CMSIS/Include/core_cm4.h **** 
1393:Drivers/CMSIS/Include/core_cm4.h **** #define CoreDebug_DHCSR_C_DEBUGEN_Pos       0                                             /*!< Core
1394:Drivers/CMSIS/Include/core_cm4.h **** #define CoreDebug_DHCSR_C_DEBUGEN_Msk      (1UL /*<< CoreDebug_DHCSR_C_DEBUGEN_Pos*/)     /*!< Core
1395:Drivers/CMSIS/Include/core_cm4.h **** 
1396:Drivers/CMSIS/Include/core_cm4.h **** /* Debug Core Register Selector Register */
1397:Drivers/CMSIS/Include/core_cm4.h **** #define CoreDebug_DCRSR_REGWnR_Pos         16                                             /*!< Core
1398:Drivers/CMSIS/Include/core_cm4.h **** #define CoreDebug_DCRSR_REGWnR_Msk         (1UL << CoreDebug_DCRSR_REGWnR_Pos)            /*!< Core
1399:Drivers/CMSIS/Include/core_cm4.h **** 
1400:Drivers/CMSIS/Include/core_cm4.h **** #define CoreDebug_DCRSR_REGSEL_Pos          0                                             /*!< Core
1401:Drivers/CMSIS/Include/core_cm4.h **** #define CoreDebug_DCRSR_REGSEL_Msk         (0x1FUL /*<< CoreDebug_DCRSR_REGSEL_Pos*/)     /*!< Core
1402:Drivers/CMSIS/Include/core_cm4.h **** 
1403:Drivers/CMSIS/Include/core_cm4.h **** /* Debug Exception and Monitor Control Register */
1404:Drivers/CMSIS/Include/core_cm4.h **** #define CoreDebug_DEMCR_TRCENA_Pos         24                                             /*!< Core
1405:Drivers/CMSIS/Include/core_cm4.h **** #define CoreDebug_DEMCR_TRCENA_Msk         (1UL << CoreDebug_DEMCR_TRCENA_Pos)            /*!< Core
1406:Drivers/CMSIS/Include/core_cm4.h **** 
1407:Drivers/CMSIS/Include/core_cm4.h **** #define CoreDebug_DEMCR_MON_REQ_Pos        19                                             /*!< Core
1408:Drivers/CMSIS/Include/core_cm4.h **** #define CoreDebug_DEMCR_MON_REQ_Msk        (1UL << CoreDebug_DEMCR_MON_REQ_Pos)           /*!< Core
1409:Drivers/CMSIS/Include/core_cm4.h **** 
1410:Drivers/CMSIS/Include/core_cm4.h **** #define CoreDebug_DEMCR_MON_STEP_Pos       18                                             /*!< Core
1411:Drivers/CMSIS/Include/core_cm4.h **** #define CoreDebug_DEMCR_MON_STEP_Msk       (1UL << CoreDebug_DEMCR_MON_STEP_Pos)          /*!< Core
1412:Drivers/CMSIS/Include/core_cm4.h **** 
1413:Drivers/CMSIS/Include/core_cm4.h **** #define CoreDebug_DEMCR_MON_PEND_Pos       17                                             /*!< Core
ARM GAS  /tmp/ccJBQgIh.s 			page 31


1414:Drivers/CMSIS/Include/core_cm4.h **** #define CoreDebug_DEMCR_MON_PEND_Msk       (1UL << CoreDebug_DEMCR_MON_PEND_Pos)          /*!< Core
1415:Drivers/CMSIS/Include/core_cm4.h **** 
1416:Drivers/CMSIS/Include/core_cm4.h **** #define CoreDebug_DEMCR_MON_EN_Pos         16                                             /*!< Core
1417:Drivers/CMSIS/Include/core_cm4.h **** #define CoreDebug_DEMCR_MON_EN_Msk         (1UL << CoreDebug_DEMCR_MON_EN_Pos)            /*!< Core
1418:Drivers/CMSIS/Include/core_cm4.h **** 
1419:Drivers/CMSIS/Include/core_cm4.h **** #define CoreDebug_DEMCR_VC_HARDERR_Pos     10                                             /*!< Core
1420:Drivers/CMSIS/Include/core_cm4.h **** #define CoreDebug_DEMCR_VC_HARDERR_Msk     (1UL << CoreDebug_DEMCR_VC_HARDERR_Pos)        /*!< Core
1421:Drivers/CMSIS/Include/core_cm4.h **** 
1422:Drivers/CMSIS/Include/core_cm4.h **** #define CoreDebug_DEMCR_VC_INTERR_Pos       9                                             /*!< Core
1423:Drivers/CMSIS/Include/core_cm4.h **** #define CoreDebug_DEMCR_VC_INTERR_Msk      (1UL << CoreDebug_DEMCR_VC_INTERR_Pos)         /*!< Core
1424:Drivers/CMSIS/Include/core_cm4.h **** 
1425:Drivers/CMSIS/Include/core_cm4.h **** #define CoreDebug_DEMCR_VC_BUSERR_Pos       8                                             /*!< Core
1426:Drivers/CMSIS/Include/core_cm4.h **** #define CoreDebug_DEMCR_VC_BUSERR_Msk      (1UL << CoreDebug_DEMCR_VC_BUSERR_Pos)         /*!< Core
1427:Drivers/CMSIS/Include/core_cm4.h **** 
1428:Drivers/CMSIS/Include/core_cm4.h **** #define CoreDebug_DEMCR_VC_STATERR_Pos      7                                             /*!< Core
1429:Drivers/CMSIS/Include/core_cm4.h **** #define CoreDebug_DEMCR_VC_STATERR_Msk     (1UL << CoreDebug_DEMCR_VC_STATERR_Pos)        /*!< Core
1430:Drivers/CMSIS/Include/core_cm4.h **** 
1431:Drivers/CMSIS/Include/core_cm4.h **** #define CoreDebug_DEMCR_VC_CHKERR_Pos       6                                             /*!< Core
1432:Drivers/CMSIS/Include/core_cm4.h **** #define CoreDebug_DEMCR_VC_CHKERR_Msk      (1UL << CoreDebug_DEMCR_VC_CHKERR_Pos)         /*!< Core
1433:Drivers/CMSIS/Include/core_cm4.h **** 
1434:Drivers/CMSIS/Include/core_cm4.h **** #define CoreDebug_DEMCR_VC_NOCPERR_Pos      5                                             /*!< Core
1435:Drivers/CMSIS/Include/core_cm4.h **** #define CoreDebug_DEMCR_VC_NOCPERR_Msk     (1UL << CoreDebug_DEMCR_VC_NOCPERR_Pos)        /*!< Core
1436:Drivers/CMSIS/Include/core_cm4.h **** 
1437:Drivers/CMSIS/Include/core_cm4.h **** #define CoreDebug_DEMCR_VC_MMERR_Pos        4                                             /*!< Core
1438:Drivers/CMSIS/Include/core_cm4.h **** #define CoreDebug_DEMCR_VC_MMERR_Msk       (1UL << CoreDebug_DEMCR_VC_MMERR_Pos)          /*!< Core
1439:Drivers/CMSIS/Include/core_cm4.h **** 
1440:Drivers/CMSIS/Include/core_cm4.h **** #define CoreDebug_DEMCR_VC_CORERESET_Pos    0                                             /*!< Core
1441:Drivers/CMSIS/Include/core_cm4.h **** #define CoreDebug_DEMCR_VC_CORERESET_Msk   (1UL /*<< CoreDebug_DEMCR_VC_CORERESET_Pos*/)  /*!< Core
1442:Drivers/CMSIS/Include/core_cm4.h **** 
1443:Drivers/CMSIS/Include/core_cm4.h **** /*@} end of group CMSIS_CoreDebug */
1444:Drivers/CMSIS/Include/core_cm4.h **** 
1445:Drivers/CMSIS/Include/core_cm4.h **** 
1446:Drivers/CMSIS/Include/core_cm4.h **** /** \ingroup    CMSIS_core_register
1447:Drivers/CMSIS/Include/core_cm4.h ****     \defgroup   CMSIS_core_base     Core Definitions
1448:Drivers/CMSIS/Include/core_cm4.h ****     \brief      Definitions for base addresses, unions, and structures.
1449:Drivers/CMSIS/Include/core_cm4.h ****   @{
1450:Drivers/CMSIS/Include/core_cm4.h ****  */
1451:Drivers/CMSIS/Include/core_cm4.h **** 
1452:Drivers/CMSIS/Include/core_cm4.h **** /* Memory mapping of Cortex-M4 Hardware */
1453:Drivers/CMSIS/Include/core_cm4.h **** #define SCS_BASE            (0xE000E000UL)                            /*!< System Control Space Bas
1454:Drivers/CMSIS/Include/core_cm4.h **** #define ITM_BASE            (0xE0000000UL)                            /*!< ITM Base Address        
1455:Drivers/CMSIS/Include/core_cm4.h **** #define DWT_BASE            (0xE0001000UL)                            /*!< DWT Base Address        
1456:Drivers/CMSIS/Include/core_cm4.h **** #define TPI_BASE            (0xE0040000UL)                            /*!< TPI Base Address        
1457:Drivers/CMSIS/Include/core_cm4.h **** #define CoreDebug_BASE      (0xE000EDF0UL)                            /*!< Core Debug Base Address 
1458:Drivers/CMSIS/Include/core_cm4.h **** #define SysTick_BASE        (SCS_BASE +  0x0010UL)                    /*!< SysTick Base Address    
1459:Drivers/CMSIS/Include/core_cm4.h **** #define NVIC_BASE           (SCS_BASE +  0x0100UL)                    /*!< NVIC Base Address       
1460:Drivers/CMSIS/Include/core_cm4.h **** #define SCB_BASE            (SCS_BASE +  0x0D00UL)                    /*!< System Control Block Bas
1461:Drivers/CMSIS/Include/core_cm4.h **** 
1462:Drivers/CMSIS/Include/core_cm4.h **** #define SCnSCB              ((SCnSCB_Type    *)     SCS_BASE      )   /*!< System control Register 
1463:Drivers/CMSIS/Include/core_cm4.h **** #define SCB                 ((SCB_Type       *)     SCB_BASE      )   /*!< SCB configuration struct
1464:Drivers/CMSIS/Include/core_cm4.h **** #define SysTick             ((SysTick_Type   *)     SysTick_BASE  )   /*!< SysTick configuration st
1465:Drivers/CMSIS/Include/core_cm4.h **** #define NVIC                ((NVIC_Type      *)     NVIC_BASE     )   /*!< NVIC configuration struc
1466:Drivers/CMSIS/Include/core_cm4.h **** #define ITM                 ((ITM_Type       *)     ITM_BASE      )   /*!< ITM configuration struct
1467:Drivers/CMSIS/Include/core_cm4.h **** #define DWT                 ((DWT_Type       *)     DWT_BASE      )   /*!< DWT configuration struct
1468:Drivers/CMSIS/Include/core_cm4.h **** #define TPI                 ((TPI_Type       *)     TPI_BASE      )   /*!< TPI configuration struct
1469:Drivers/CMSIS/Include/core_cm4.h **** #define CoreDebug           ((CoreDebug_Type *)     CoreDebug_BASE)   /*!< Core Debug configuration
1470:Drivers/CMSIS/Include/core_cm4.h **** 
ARM GAS  /tmp/ccJBQgIh.s 			page 32


1471:Drivers/CMSIS/Include/core_cm4.h **** #if (__MPU_PRESENT == 1)
1472:Drivers/CMSIS/Include/core_cm4.h ****   #define MPU_BASE          (SCS_BASE +  0x0D90UL)                    /*!< Memory Protection Unit  
1473:Drivers/CMSIS/Include/core_cm4.h ****   #define MPU               ((MPU_Type       *)     MPU_BASE      )   /*!< Memory Protection Unit  
1474:Drivers/CMSIS/Include/core_cm4.h **** #endif
1475:Drivers/CMSIS/Include/core_cm4.h **** 
1476:Drivers/CMSIS/Include/core_cm4.h **** #if (__FPU_PRESENT == 1)
1477:Drivers/CMSIS/Include/core_cm4.h ****   #define FPU_BASE          (SCS_BASE +  0x0F30UL)                    /*!< Floating Point Unit     
1478:Drivers/CMSIS/Include/core_cm4.h ****   #define FPU               ((FPU_Type       *)     FPU_BASE      )   /*!< Floating Point Unit     
1479:Drivers/CMSIS/Include/core_cm4.h **** #endif
1480:Drivers/CMSIS/Include/core_cm4.h **** 
1481:Drivers/CMSIS/Include/core_cm4.h **** /*@} */
1482:Drivers/CMSIS/Include/core_cm4.h **** 
1483:Drivers/CMSIS/Include/core_cm4.h **** 
1484:Drivers/CMSIS/Include/core_cm4.h **** 
1485:Drivers/CMSIS/Include/core_cm4.h **** /*******************************************************************************
1486:Drivers/CMSIS/Include/core_cm4.h ****  *                Hardware Abstraction Layer
1487:Drivers/CMSIS/Include/core_cm4.h ****   Core Function Interface contains:
1488:Drivers/CMSIS/Include/core_cm4.h ****   - Core NVIC Functions
1489:Drivers/CMSIS/Include/core_cm4.h ****   - Core SysTick Functions
1490:Drivers/CMSIS/Include/core_cm4.h ****   - Core Debug Functions
1491:Drivers/CMSIS/Include/core_cm4.h ****   - Core Register Access Functions
1492:Drivers/CMSIS/Include/core_cm4.h ****  ******************************************************************************/
1493:Drivers/CMSIS/Include/core_cm4.h **** /** \defgroup CMSIS_Core_FunctionInterface Functions and Instructions Reference
1494:Drivers/CMSIS/Include/core_cm4.h **** */
1495:Drivers/CMSIS/Include/core_cm4.h **** 
1496:Drivers/CMSIS/Include/core_cm4.h **** 
1497:Drivers/CMSIS/Include/core_cm4.h **** 
1498:Drivers/CMSIS/Include/core_cm4.h **** /* ##########################   NVIC functions  #################################### */
1499:Drivers/CMSIS/Include/core_cm4.h **** /** \ingroup  CMSIS_Core_FunctionInterface
1500:Drivers/CMSIS/Include/core_cm4.h ****     \defgroup CMSIS_Core_NVICFunctions NVIC Functions
1501:Drivers/CMSIS/Include/core_cm4.h ****     \brief      Functions that manage interrupts and exceptions via the NVIC.
1502:Drivers/CMSIS/Include/core_cm4.h ****     @{
1503:Drivers/CMSIS/Include/core_cm4.h ****  */
1504:Drivers/CMSIS/Include/core_cm4.h **** 
1505:Drivers/CMSIS/Include/core_cm4.h **** /** \brief  Set Priority Grouping
1506:Drivers/CMSIS/Include/core_cm4.h **** 
1507:Drivers/CMSIS/Include/core_cm4.h ****   The function sets the priority grouping field using the required unlock sequence.
1508:Drivers/CMSIS/Include/core_cm4.h ****   The parameter PriorityGroup is assigned to the field SCB->AIRCR [10:8] PRIGROUP field.
1509:Drivers/CMSIS/Include/core_cm4.h ****   Only values from 0..7 are used.
1510:Drivers/CMSIS/Include/core_cm4.h ****   In case of a conflict between priority grouping and available
1511:Drivers/CMSIS/Include/core_cm4.h ****   priority bits (__NVIC_PRIO_BITS), the smallest possible priority group is set.
1512:Drivers/CMSIS/Include/core_cm4.h **** 
1513:Drivers/CMSIS/Include/core_cm4.h ****     \param [in]      PriorityGroup  Priority grouping field.
1514:Drivers/CMSIS/Include/core_cm4.h ****  */
1515:Drivers/CMSIS/Include/core_cm4.h **** __STATIC_INLINE void NVIC_SetPriorityGrouping(uint32_t PriorityGroup)
1516:Drivers/CMSIS/Include/core_cm4.h **** {
1517:Drivers/CMSIS/Include/core_cm4.h ****   uint32_t reg_value;
1518:Drivers/CMSIS/Include/core_cm4.h ****   uint32_t PriorityGroupTmp = (PriorityGroup & (uint32_t)0x07UL);             /* only values 0..7 a
1519:Drivers/CMSIS/Include/core_cm4.h **** 
1520:Drivers/CMSIS/Include/core_cm4.h ****   reg_value  =  SCB->AIRCR;                                                   /* read old register 
1521:Drivers/CMSIS/Include/core_cm4.h ****   reg_value &= ~((uint32_t)(SCB_AIRCR_VECTKEY_Msk | SCB_AIRCR_PRIGROUP_Msk));             /* clear 
1522:Drivers/CMSIS/Include/core_cm4.h ****   reg_value  =  (reg_value                                   |
1523:Drivers/CMSIS/Include/core_cm4.h ****                 ((uint32_t)0x5FAUL << SCB_AIRCR_VECTKEY_Pos) |
1524:Drivers/CMSIS/Include/core_cm4.h ****                 (PriorityGroupTmp << 8)                       );              /* Insert write key a
1525:Drivers/CMSIS/Include/core_cm4.h ****   SCB->AIRCR =  reg_value;
1526:Drivers/CMSIS/Include/core_cm4.h **** }
1527:Drivers/CMSIS/Include/core_cm4.h **** 
ARM GAS  /tmp/ccJBQgIh.s 			page 33


1528:Drivers/CMSIS/Include/core_cm4.h **** 
1529:Drivers/CMSIS/Include/core_cm4.h **** /** \brief  Get Priority Grouping
1530:Drivers/CMSIS/Include/core_cm4.h **** 
1531:Drivers/CMSIS/Include/core_cm4.h ****   The function reads the priority grouping field from the NVIC Interrupt Controller.
1532:Drivers/CMSIS/Include/core_cm4.h **** 
1533:Drivers/CMSIS/Include/core_cm4.h ****     \return                Priority grouping field (SCB->AIRCR [10:8] PRIGROUP field).
1534:Drivers/CMSIS/Include/core_cm4.h ****  */
1535:Drivers/CMSIS/Include/core_cm4.h **** __STATIC_INLINE uint32_t NVIC_GetPriorityGrouping(void)
1536:Drivers/CMSIS/Include/core_cm4.h **** {
1537:Drivers/CMSIS/Include/core_cm4.h ****   return ((uint32_t)((SCB->AIRCR & SCB_AIRCR_PRIGROUP_Msk) >> SCB_AIRCR_PRIGROUP_Pos));
1538:Drivers/CMSIS/Include/core_cm4.h **** }
1539:Drivers/CMSIS/Include/core_cm4.h **** 
1540:Drivers/CMSIS/Include/core_cm4.h **** 
1541:Drivers/CMSIS/Include/core_cm4.h **** /** \brief  Enable External Interrupt
1542:Drivers/CMSIS/Include/core_cm4.h **** 
1543:Drivers/CMSIS/Include/core_cm4.h ****     The function enables a device-specific interrupt in the NVIC interrupt controller.
1544:Drivers/CMSIS/Include/core_cm4.h **** 
1545:Drivers/CMSIS/Include/core_cm4.h ****     \param [in]      IRQn  External interrupt number. Value cannot be negative.
1546:Drivers/CMSIS/Include/core_cm4.h ****  */
1547:Drivers/CMSIS/Include/core_cm4.h **** __STATIC_INLINE void NVIC_EnableIRQ(IRQn_Type IRQn)
1548:Drivers/CMSIS/Include/core_cm4.h **** {
1549:Drivers/CMSIS/Include/core_cm4.h ****   NVIC->ISER[(((uint32_t)(int32_t)IRQn) >> 5UL)] = (uint32_t)(1UL << (((uint32_t)(int32_t)IRQn) & 0
1550:Drivers/CMSIS/Include/core_cm4.h **** }
1551:Drivers/CMSIS/Include/core_cm4.h **** 
1552:Drivers/CMSIS/Include/core_cm4.h **** 
1553:Drivers/CMSIS/Include/core_cm4.h **** /** \brief  Disable External Interrupt
1554:Drivers/CMSIS/Include/core_cm4.h **** 
1555:Drivers/CMSIS/Include/core_cm4.h ****     The function disables a device-specific interrupt in the NVIC interrupt controller.
1556:Drivers/CMSIS/Include/core_cm4.h **** 
1557:Drivers/CMSIS/Include/core_cm4.h ****     \param [in]      IRQn  External interrupt number. Value cannot be negative.
1558:Drivers/CMSIS/Include/core_cm4.h ****  */
1559:Drivers/CMSIS/Include/core_cm4.h **** __STATIC_INLINE void NVIC_DisableIRQ(IRQn_Type IRQn)
  62              		.loc 2 1559 22 view .LVU8
  63              	.LBB11:
1560:Drivers/CMSIS/Include/core_cm4.h **** {
1561:Drivers/CMSIS/Include/core_cm4.h ****   NVIC->ICER[(((uint32_t)(int32_t)IRQn) >> 5UL)] = (uint32_t)(1UL << (((uint32_t)(int32_t)IRQn) & 0
  64              		.loc 2 1561 3 view .LVU9
  65              		.loc 2 1561 50 is_stmt 0 view .LVU10
  66 001e 074C     		ldr	r4, .L3
  67 0020 4FF40005 		mov	r5, #8388608
  68 0024 C4F88050 		str	r5, [r4, #128]
  69              	.LVL4:
  70              		.loc 2 1561 50 view .LVU11
  71              	.LBE11:
  72              	.LBE10:
 238:Lib/ssc/src/ecatslv.c **** 
 239:Lib/ssc/src/ecatslv.c **** 
 240:Lib/ssc/src/ecatslv.c ****     HW_EscWriteWord(mask, ESC_AL_EVENTMASK_OFFSET);
  73              		.loc 1 240 5 is_stmt 1 view .LVU12
  74 0028 0222     		movs	r2, #2
  75 002a 4FF40171 		mov	r1, #516
  76 002e 0DF10600 		add	r0, sp, #6
  77 0032 FFF7FEFF 		bl	HW_EscWrite
  78              	.LVL5:
 241:Lib/ssc/src/ecatslv.c ****     ENABLE_ESC_INT();
  79              		.loc 1 241 5 view .LVU13
  80              	.LBB12:
ARM GAS  /tmp/ccJBQgIh.s 			page 34


  81              	.LBI12:
1547:Drivers/CMSIS/Include/core_cm4.h **** {
  82              		.loc 2 1547 22 view .LVU14
  83              	.LBB13:
1549:Drivers/CMSIS/Include/core_cm4.h **** }
  84              		.loc 2 1549 3 view .LVU15
1549:Drivers/CMSIS/Include/core_cm4.h **** }
  85              		.loc 2 1549 50 is_stmt 0 view .LVU16
  86 0036 2560     		str	r5, [r4]
  87              	.LVL6:
1549:Drivers/CMSIS/Include/core_cm4.h **** }
  88              		.loc 2 1549 50 view .LVU17
  89              	.LBE13:
  90              	.LBE12:
 242:Lib/ssc/src/ecatslv.c **** }
  91              		.loc 1 242 1 view .LVU18
  92 0038 03B0     		add	sp, sp, #12
  93              		.cfi_def_cfa_offset 12
  94              		@ sp needed
  95 003a 30BD     		pop	{r4, r5, pc}
  96              	.L4:
  97              		.align	2
  98              	.L3:
  99 003c 00E100E0 		.word	-536813312
 100              		.cfi_endproc
 101              	.LFE123:
 103              		.section	.text.SetALEventMask,"ax",%progbits
 104              		.align	1
 105              		.global	SetALEventMask
 106              		.syntax unified
 107              		.thumb
 108              		.thumb_func
 110              	SetALEventMask:
 111              	.LVL7:
 112              	.LFB124:
 243:Lib/ssc/src/ecatslv.c **** 
 244:Lib/ssc/src/ecatslv.c **** /////////////////////////////////////////////////////////////////////////////////////////
 245:Lib/ssc/src/ecatslv.c **** /**
 246:Lib/ssc/src/ecatslv.c ****  \param    intMask        interrupt mask (enabled interrupt shall be one)
 247:Lib/ssc/src/ecatslv.c **** 
 248:Lib/ssc/src/ecatslv.c ****   \brief    This function makes an logical or with the AL Event Mask register (0x204)
 249:Lib/ssc/src/ecatslv.c **** *////////////////////////////////////////////////////////////////////////////////////////
 250:Lib/ssc/src/ecatslv.c **** void SetALEventMask(UINT16 intMask)
 251:Lib/ssc/src/ecatslv.c **** {
 113              		.loc 1 251 1 is_stmt 1 view -0
 114              		.cfi_startproc
 115              		@ args = 0, pretend = 0, frame = 8
 116              		@ frame_needed = 0, uses_anonymous_args = 0
 117              		.loc 1 251 1 is_stmt 0 view .LVU20
 118 0000 30B5     		push	{r4, r5, lr}
 119              		.cfi_def_cfa_offset 12
 120              		.cfi_offset 4, -12
 121              		.cfi_offset 5, -8
 122              		.cfi_offset 14, -4
 123 0002 83B0     		sub	sp, sp, #12
 124              		.cfi_def_cfa_offset 24
 125 0004 0446     		mov	r4, r0
ARM GAS  /tmp/ccJBQgIh.s 			page 35


 252:Lib/ssc/src/ecatslv.c ****     UINT16 mask;
 126              		.loc 1 252 5 is_stmt 1 view .LVU21
 253:Lib/ssc/src/ecatslv.c ****     HW_EscReadWord(mask, ESC_AL_EVENTMASK_OFFSET);
 127              		.loc 1 253 5 view .LVU22
 128 0006 0222     		movs	r2, #2
 129 0008 4FF40171 		mov	r1, #516
 130 000c 0DF10600 		add	r0, sp, #6
 131              	.LVL8:
 132              		.loc 1 253 5 is_stmt 0 view .LVU23
 133 0010 FFF7FEFF 		bl	HW_EscRead
 134              	.LVL9:
 254:Lib/ssc/src/ecatslv.c ****     
 255:Lib/ssc/src/ecatslv.c ****     mask |= intMask;
 135              		.loc 1 255 5 is_stmt 1 view .LVU24
 136              		.loc 1 255 10 is_stmt 0 view .LVU25
 137 0014 BDF80600 		ldrh	r0, [sp, #6]
 138 0018 0443     		orrs	r4, r4, r0
 139 001a ADF80640 		strh	r4, [sp, #6]	@ movhi
 256:Lib/ssc/src/ecatslv.c **** 
 257:Lib/ssc/src/ecatslv.c ****     DISABLE_ESC_INT();
 140              		.loc 1 257 5 is_stmt 1 view .LVU26
 141              	.LVL10:
 142              	.LBB14:
 143              	.LBI14:
1559:Drivers/CMSIS/Include/core_cm4.h **** {
 144              		.loc 2 1559 22 view .LVU27
 145              	.LBB15:
 146              		.loc 2 1561 3 view .LVU28
 147              		.loc 2 1561 50 is_stmt 0 view .LVU29
 148 001e 074C     		ldr	r4, .L7
 149 0020 4FF40005 		mov	r5, #8388608
 150 0024 C4F88050 		str	r5, [r4, #128]
 151              	.LVL11:
 152              		.loc 2 1561 50 view .LVU30
 153              	.LBE15:
 154              	.LBE14:
 258:Lib/ssc/src/ecatslv.c **** 
 259:Lib/ssc/src/ecatslv.c **** 
 260:Lib/ssc/src/ecatslv.c ****     HW_EscWriteWord(mask, ESC_AL_EVENTMASK_OFFSET);
 155              		.loc 1 260 5 is_stmt 1 view .LVU31
 156 0028 0222     		movs	r2, #2
 157 002a 4FF40171 		mov	r1, #516
 158 002e 0DF10600 		add	r0, sp, #6
 159 0032 FFF7FEFF 		bl	HW_EscWrite
 160              	.LVL12:
 261:Lib/ssc/src/ecatslv.c ****     ENABLE_ESC_INT();
 161              		.loc 1 261 5 view .LVU32
 162              	.LBB16:
 163              	.LBI16:
1547:Drivers/CMSIS/Include/core_cm4.h **** {
 164              		.loc 2 1547 22 view .LVU33
 165              	.LBB17:
1549:Drivers/CMSIS/Include/core_cm4.h **** }
 166              		.loc 2 1549 3 view .LVU34
1549:Drivers/CMSIS/Include/core_cm4.h **** }
 167              		.loc 2 1549 50 is_stmt 0 view .LVU35
 168 0036 2560     		str	r5, [r4]
ARM GAS  /tmp/ccJBQgIh.s 			page 36


 169              	.LVL13:
1549:Drivers/CMSIS/Include/core_cm4.h **** }
 170              		.loc 2 1549 50 view .LVU36
 171              	.LBE17:
 172              	.LBE16:
 262:Lib/ssc/src/ecatslv.c **** }
 173              		.loc 1 262 1 view .LVU37
 174 0038 03B0     		add	sp, sp, #12
 175              		.cfi_def_cfa_offset 12
 176              		@ sp needed
 177 003a 30BD     		pop	{r4, r5, pc}
 178              	.L8:
 179              		.align	2
 180              	.L7:
 181 003c 00E100E0 		.word	-536813312
 182              		.cfi_endproc
 183              	.LFE124:
 185              		.section	.text.UpdateEEPROMLoadedState,"ax",%progbits
 186              		.align	1
 187              		.global	UpdateEEPROMLoadedState
 188              		.syntax unified
 189              		.thumb
 190              		.thumb_func
 192              	UpdateEEPROMLoadedState:
 193              	.LFB125:
 263:Lib/ssc/src/ecatslv.c **** 
 264:Lib/ssc/src/ecatslv.c **** 
 265:Lib/ssc/src/ecatslv.c **** /////////////////////////////////////////////////////////////////////////////////////////
 266:Lib/ssc/src/ecatslv.c **** /**
 267:Lib/ssc/src/ecatslv.c **** 
 268:Lib/ssc/src/ecatslv.c **** \brief    This function reads the EEPROM loaded state
 269:Lib/ssc/src/ecatslv.c **** *////////////////////////////////////////////////////////////////////////////////////////
 270:Lib/ssc/src/ecatslv.c **** void UpdateEEPROMLoadedState(void)
 271:Lib/ssc/src/ecatslv.c **** {
 194              		.loc 1 271 1 is_stmt 1 view -0
 195              		.cfi_startproc
 196              		@ args = 0, pretend = 0, frame = 8
 197              		@ frame_needed = 0, uses_anonymous_args = 0
 198 0000 00B5     		push	{lr}
 199              		.cfi_def_cfa_offset 4
 200              		.cfi_offset 14, -4
 201 0002 83B0     		sub	sp, sp, #12
 202              		.cfi_def_cfa_offset 16
 203              	.LBB18:
 272:Lib/ssc/src/ecatslv.c ****     {
 273:Lib/ssc/src/ecatslv.c ****        UINT16 TmpVar = 0;
 204              		.loc 1 273 8 view .LVU39
 205              		.loc 1 273 15 is_stmt 0 view .LVU40
 206 0004 0023     		movs	r3, #0
 207 0006 ADF80630 		strh	r3, [sp, #6]	@ movhi
 274:Lib/ssc/src/ecatslv.c ****        //read EEPROM loaded information
 275:Lib/ssc/src/ecatslv.c ****        HW_EscReadWord(TmpVar, ESC_EEPROM_CONTROL_OFFSET);
 208              		.loc 1 275 8 is_stmt 1 view .LVU41
 209 000a 0222     		movs	r2, #2
 210 000c 40F20251 		movw	r1, #1282
 211 0010 0DF10600 		add	r0, sp, #6
 212 0014 FFF7FEFF 		bl	HW_EscRead
ARM GAS  /tmp/ccJBQgIh.s 			page 37


 213              	.LVL14:
 276:Lib/ssc/src/ecatslv.c ****        TmpVar = SWAPWORD(TmpVar);
 214              		.loc 1 276 8 view .LVU42
 215              		.loc 1 276 15 is_stmt 0 view .LVU43
 216 0018 BDF80630 		ldrh	r3, [sp, #6]
 277:Lib/ssc/src/ecatslv.c **** 
 278:Lib/ssc/src/ecatslv.c ****        if (((TmpVar & ESC_EEPROM_ERROR_CRC) > 0)
 217              		.loc 1 278 8 is_stmt 1 view .LVU44
 218              		.loc 1 278 11 is_stmt 0 view .LVU45
 219 001c 13F4006F 		tst	r3, #2048
 220 0020 02D1     		bne	.L10
 279:Lib/ssc/src/ecatslv.c ****           || ((TmpVar & ESC_EEPROM_ERROR_LOAD) > 0))
 221              		.loc 1 279 11 view .LVU46
 222 0022 13F4805F 		tst	r3, #4096
 223 0026 05D0     		beq	.L11
 224              	.L10:
 280:Lib/ssc/src/ecatslv.c ****        {
 281:Lib/ssc/src/ecatslv.c ****           EepromLoaded = FALSE;
 225              		.loc 1 281 11 is_stmt 1 view .LVU47
 226              		.loc 1 281 24 is_stmt 0 view .LVU48
 227 0028 044B     		ldr	r3, .L14
 228 002a 0022     		movs	r2, #0
 229 002c 1A70     		strb	r2, [r3]
 230              	.L9:
 231              	.LBE18:
 282:Lib/ssc/src/ecatslv.c ****        }
 283:Lib/ssc/src/ecatslv.c ****        else
 284:Lib/ssc/src/ecatslv.c ****        {
 285:Lib/ssc/src/ecatslv.c ****           EepromLoaded = TRUE;
 286:Lib/ssc/src/ecatslv.c ****        }
 287:Lib/ssc/src/ecatslv.c ****     }
 288:Lib/ssc/src/ecatslv.c **** }
 232              		.loc 1 288 1 view .LVU49
 233 002e 03B0     		add	sp, sp, #12
 234              		.cfi_remember_state
 235              		.cfi_def_cfa_offset 4
 236              		@ sp needed
 237 0030 5DF804FB 		ldr	pc, [sp], #4
 238              	.L11:
 239              		.cfi_restore_state
 240              	.LBB19:
 285:Lib/ssc/src/ecatslv.c ****        }
 241              		.loc 1 285 11 is_stmt 1 view .LVU50
 285:Lib/ssc/src/ecatslv.c ****        }
 242              		.loc 1 285 24 is_stmt 0 view .LVU51
 243 0034 014B     		ldr	r3, .L14
 244 0036 0122     		movs	r2, #1
 245 0038 1A70     		strb	r2, [r3]
 246              	.LBE19:
 247              		.loc 1 288 1 view .LVU52
 248 003a F8E7     		b	.L9
 249              	.L15:
 250              		.align	2
 251              	.L14:
 252 003c 00000000 		.word	.LANCHOR0
 253              		.cfi_endproc
 254              	.LFE125:
ARM GAS  /tmp/ccJBQgIh.s 			page 38


 256              		.section	.text.GetSyncMan,"ax",%progbits
 257              		.align	1
 258              		.global	GetSyncMan
 259              		.syntax unified
 260              		.thumb
 261              		.thumb_func
 263              	GetSyncMan:
 264              	.LVL15:
 265              	.LFB126:
 289:Lib/ssc/src/ecatslv.c **** 
 290:Lib/ssc/src/ecatslv.c **** 
 291:Lib/ssc/src/ecatslv.c **** /*-----------------------------------------------------------------------------------------
 292:Lib/ssc/src/ecatslv.c **** ------
 293:Lib/ssc/src/ecatslv.c **** ------    functions
 294:Lib/ssc/src/ecatslv.c **** ------
 295:Lib/ssc/src/ecatslv.c **** -----------------------------------------------------------------------------------------*/
 296:Lib/ssc/src/ecatslv.c **** 
 297:Lib/ssc/src/ecatslv.c **** 
 298:Lib/ssc/src/ecatslv.c **** /////////////////////////////////////////////////////////////////////////////////////////
 299:Lib/ssc/src/ecatslv.c **** /**
 300:Lib/ssc/src/ecatslv.c ****  \param     channel        Sync Manager channel
 301:Lib/ssc/src/ecatslv.c **** 
 302:Lib/ssc/src/ecatslv.c ****  \return     pPdSyncMan        Pointer to the settings of requested SYNC Manager channel
 303:Lib/ssc/src/ecatslv.c **** 
 304:Lib/ssc/src/ecatslv.c ****  \brief    This function is called to read the SYNC Manager channel descriptions of the
 305:Lib/ssc/src/ecatslv.c ****              process data SYNC Managers.
 306:Lib/ssc/src/ecatslv.c **** *////////////////////////////////////////////////////////////////////////////////////////
 307:Lib/ssc/src/ecatslv.c **** 
 308:Lib/ssc/src/ecatslv.c **** TSYNCMAN ESCMEM * GetSyncMan( UINT8 channel )
 309:Lib/ssc/src/ecatslv.c **** {
 266              		.loc 1 309 1 is_stmt 1 view -0
 267              		.cfi_startproc
 268              		@ args = 0, pretend = 0, frame = 0
 269              		@ frame_needed = 0, uses_anonymous_args = 0
 270              		.loc 1 309 1 is_stmt 0 view .LVU54
 271 0000 10B5     		push	{r4, lr}
 272              		.cfi_def_cfa_offset 8
 273              		.cfi_offset 4, -8
 274              		.cfi_offset 14, -4
 310:Lib/ssc/src/ecatslv.c ****     HW_EscRead((MEM_ADDR *)&SyncManInfo, ESC_SYNCMAN_REG_OFFSET + (channel * SIZEOF_SM_REGISTER), S
 275              		.loc 1 310 5 is_stmt 1 view .LVU55
 276              		.loc 1 310 65 is_stmt 0 view .LVU56
 277 0002 00F58071 		add	r1, r0, #256
 278              		.loc 1 310 5 view .LVU57
 279 0006 044C     		ldr	r4, .L18
 280 0008 0822     		movs	r2, #8
 281 000a C900     		lsls	r1, r1, #3
 282 000c 2046     		mov	r0, r4
 283              	.LVL16:
 284              		.loc 1 310 5 view .LVU58
 285 000e FFF7FEFF 		bl	HW_EscRead
 286              	.LVL17:
 311:Lib/ssc/src/ecatslv.c **** 
 312:Lib/ssc/src/ecatslv.c **** 
 313:Lib/ssc/src/ecatslv.c ****     return &SyncManInfo;
 287              		.loc 1 313 5 is_stmt 1 view .LVU59
 314:Lib/ssc/src/ecatslv.c **** }
ARM GAS  /tmp/ccJBQgIh.s 			page 39


 288              		.loc 1 314 1 is_stmt 0 view .LVU60
 289 0012 2046     		mov	r0, r4
 290 0014 10BD     		pop	{r4, pc}
 291              	.L19:
 292 0016 00BF     		.align	2
 293              	.L18:
 294 0018 00000000 		.word	.LANCHOR1
 295              		.cfi_endproc
 296              	.LFE126:
 298              		.section	.text.DisableSyncManChannel,"ax",%progbits
 299              		.align	1
 300              		.global	DisableSyncManChannel
 301              		.syntax unified
 302              		.thumb
 303              		.thumb_func
 305              	DisableSyncManChannel:
 306              	.LVL18:
 307              	.LFB127:
 315:Lib/ssc/src/ecatslv.c **** 
 316:Lib/ssc/src/ecatslv.c **** /////////////////////////////////////////////////////////////////////////////////////////
 317:Lib/ssc/src/ecatslv.c **** /**
 318:Lib/ssc/src/ecatslv.c ****  \param     channel        Sync Manager channel
 319:Lib/ssc/src/ecatslv.c **** 
 320:Lib/ssc/src/ecatslv.c ****  \brief    This function disables a Sync Manager channel
 321:Lib/ssc/src/ecatslv.c **** *////////////////////////////////////////////////////////////////////////////////////////
 322:Lib/ssc/src/ecatslv.c **** void DisableSyncManChannel(UINT8 channel)
 323:Lib/ssc/src/ecatslv.c **** {
 308              		.loc 1 323 1 is_stmt 1 view -0
 309              		.cfi_startproc
 310              		@ args = 0, pretend = 0, frame = 8
 311              		@ frame_needed = 0, uses_anonymous_args = 0
 312              		.loc 1 323 1 is_stmt 0 view .LVU62
 313 0000 10B5     		push	{r4, lr}
 314              		.cfi_def_cfa_offset 8
 315              		.cfi_offset 4, -8
 316              		.cfi_offset 14, -4
 317 0002 82B0     		sub	sp, sp, #8
 318              		.cfi_def_cfa_offset 16
 324:Lib/ssc/src/ecatslv.c ****     UINT16 Offset;
 319              		.loc 1 324 5 is_stmt 1 view .LVU63
 325:Lib/ssc/src/ecatslv.c ****     //The register 0x806 is only readable from PDI => writing 0 is valid
 326:Lib/ssc/src/ecatslv.c ****     VARVOLATILE UINT16 smStatus = SM_SETTING_PDI_DISABLE;
 320              		.loc 1 326 5 view .LVU64
 321              		.loc 1 326 24 is_stmt 0 view .LVU65
 322 0004 4FF48073 		mov	r3, #256
 323 0008 ADF80630 		strh	r3, [sp, #6]	@ movhi
 327:Lib/ssc/src/ecatslv.c ****     Offset = (ESC_SYNCMAN_ACTIVE_OFFSET + (SIZEOF_SM_REGISTER*channel));
 324              		.loc 1 327 5 is_stmt 1 view .LVU66
 325              		.loc 1 327 41 is_stmt 0 view .LVU67
 326 000c C400     		lsls	r4, r0, #3
 327              		.loc 1 327 12 view .LVU68
 328 000e 04F60604 		addw	r4, r4, #2054
 329              	.LVL19:
 328:Lib/ssc/src/ecatslv.c **** 
 329:Lib/ssc/src/ecatslv.c **** 
 330:Lib/ssc/src/ecatslv.c ****     HW_EscWriteWord(smStatus,Offset);
 330              		.loc 1 330 5 is_stmt 1 view .LVU69
ARM GAS  /tmp/ccJBQgIh.s 			page 40


 331 0012 0222     		movs	r2, #2
 332 0014 2146     		mov	r1, r4
 333 0016 0DF10600 		add	r0, sp, #6
 334              	.LVL20:
 335              		.loc 1 330 5 is_stmt 0 view .LVU70
 336 001a FFF7FEFF 		bl	HW_EscWrite
 337              	.LVL21:
 338              	.L21:
 331:Lib/ssc/src/ecatslv.c ****     
 332:Lib/ssc/src/ecatslv.c ****     /*wait until SyncManager is disabled*/
 333:Lib/ssc/src/ecatslv.c ****     do
 339              		.loc 1 333 5 is_stmt 1 discriminator 1 view .LVU71
 334:Lib/ssc/src/ecatslv.c ****     {
 335:Lib/ssc/src/ecatslv.c ****         HW_EscReadWord(smStatus, Offset);
 340              		.loc 1 335 9 discriminator 1 view .LVU72
 341 001e 0222     		movs	r2, #2
 342 0020 2146     		mov	r1, r4
 343 0022 0DF10600 		add	r0, sp, #6
 344 0026 FFF7FEFF 		bl	HW_EscRead
 345              	.LVL22:
 336:Lib/ssc/src/ecatslv.c ****     }while(!(smStatus & SM_SETTING_PDI_DISABLE));
 346              		.loc 1 336 11 discriminator 1 view .LVU73
 347              		.loc 1 336 23 is_stmt 0 discriminator 1 view .LVU74
 348 002a BDF80630 		ldrh	r3, [sp, #6]
 349              		.loc 1 336 5 discriminator 1 view .LVU75
 350 002e 13F4807F 		tst	r3, #256
 351 0032 F4D0     		beq	.L21
 337:Lib/ssc/src/ecatslv.c **** }
 352              		.loc 1 337 1 view .LVU76
 353 0034 02B0     		add	sp, sp, #8
 354              		.cfi_def_cfa_offset 8
 355              		@ sp needed
 356 0036 10BD     		pop	{r4, pc}
 357              		.loc 1 337 1 view .LVU77
 358              		.cfi_endproc
 359              	.LFE127:
 361              		.section	.text.EnableSyncManChannel,"ax",%progbits
 362              		.align	1
 363              		.global	EnableSyncManChannel
 364              		.syntax unified
 365              		.thumb
 366              		.thumb_func
 368              	EnableSyncManChannel:
 369              	.LVL23:
 370              	.LFB128:
 338:Lib/ssc/src/ecatslv.c **** 
 339:Lib/ssc/src/ecatslv.c **** /////////////////////////////////////////////////////////////////////////////////////////
 340:Lib/ssc/src/ecatslv.c **** /**
 341:Lib/ssc/src/ecatslv.c ****  \param     channel        Sync Manager channel
 342:Lib/ssc/src/ecatslv.c **** 
 343:Lib/ssc/src/ecatslv.c ****  \brief    This function enables a Sync Manager channel
 344:Lib/ssc/src/ecatslv.c **** *////////////////////////////////////////////////////////////////////////////////////////
 345:Lib/ssc/src/ecatslv.c **** void EnableSyncManChannel(UINT8 channel)
 346:Lib/ssc/src/ecatslv.c **** {
 371              		.loc 1 346 1 is_stmt 1 view -0
 372              		.cfi_startproc
 373              		@ args = 0, pretend = 0, frame = 8
ARM GAS  /tmp/ccJBQgIh.s 			page 41


 374              		@ frame_needed = 0, uses_anonymous_args = 0
 375              		.loc 1 346 1 is_stmt 0 view .LVU79
 376 0000 10B5     		push	{r4, lr}
 377              		.cfi_def_cfa_offset 8
 378              		.cfi_offset 4, -8
 379              		.cfi_offset 14, -4
 380 0002 82B0     		sub	sp, sp, #8
 381              		.cfi_def_cfa_offset 16
 347:Lib/ssc/src/ecatslv.c ****     UINT16 Offset;
 382              		.loc 1 347 5 is_stmt 1 view .LVU80
 348:Lib/ssc/src/ecatslv.c ****     //The register 0x806 is only readable from PDI => writing 0 is valid
 349:Lib/ssc/src/ecatslv.c ****     VARVOLATILE UINT16 smStatus = 0x0000;
 383              		.loc 1 349 5 view .LVU81
 384              		.loc 1 349 24 is_stmt 0 view .LVU82
 385 0004 0023     		movs	r3, #0
 386 0006 ADF80630 		strh	r3, [sp, #6]	@ movhi
 350:Lib/ssc/src/ecatslv.c ****     Offset = (ESC_SYNCMAN_ACTIVE_OFFSET + (SIZEOF_SM_REGISTER*channel));
 387              		.loc 1 350 5 is_stmt 1 view .LVU83
 388              		.loc 1 350 41 is_stmt 0 view .LVU84
 389 000a C400     		lsls	r4, r0, #3
 390              		.loc 1 350 12 view .LVU85
 391 000c 04F60604 		addw	r4, r4, #2054
 392              	.LVL24:
 351:Lib/ssc/src/ecatslv.c **** 
 352:Lib/ssc/src/ecatslv.c **** 
 353:Lib/ssc/src/ecatslv.c ****     HW_EscWriteWord(smStatus,Offset);
 393              		.loc 1 353 5 is_stmt 1 view .LVU86
 394 0010 0222     		movs	r2, #2
 395 0012 2146     		mov	r1, r4
 396 0014 0DF10600 		add	r0, sp, #6
 397              	.LVL25:
 398              		.loc 1 353 5 is_stmt 0 view .LVU87
 399 0018 FFF7FEFF 		bl	HW_EscWrite
 400              	.LVL26:
 401              	.L24:
 354:Lib/ssc/src/ecatslv.c ****     
 355:Lib/ssc/src/ecatslv.c ****     /*wait until SyncManager is enabled*/
 356:Lib/ssc/src/ecatslv.c ****     do
 402              		.loc 1 356 5 is_stmt 1 discriminator 1 view .LVU88
 357:Lib/ssc/src/ecatslv.c ****     {
 358:Lib/ssc/src/ecatslv.c ****         HW_EscReadWord(smStatus,Offset);
 403              		.loc 1 358 9 discriminator 1 view .LVU89
 404 001c 0222     		movs	r2, #2
 405 001e 2146     		mov	r1, r4
 406 0020 0DF10600 		add	r0, sp, #6
 407 0024 FFF7FEFF 		bl	HW_EscRead
 408              	.LVL27:
 359:Lib/ssc/src/ecatslv.c **** 
 360:Lib/ssc/src/ecatslv.c ****     }while((smStatus & SM_SETTING_PDI_DISABLE));
 409              		.loc 1 360 11 discriminator 1 view .LVU90
 410              		.loc 1 360 22 is_stmt 0 discriminator 1 view .LVU91
 411 0028 BDF80630 		ldrh	r3, [sp, #6]
 412              		.loc 1 360 5 discriminator 1 view .LVU92
 413 002c 13F4807F 		tst	r3, #256
 414 0030 F4D1     		bne	.L24
 361:Lib/ssc/src/ecatslv.c **** }
 415              		.loc 1 361 1 view .LVU93
ARM GAS  /tmp/ccJBQgIh.s 			page 42


 416 0032 02B0     		add	sp, sp, #8
 417              		.cfi_def_cfa_offset 8
 418              		@ sp needed
 419 0034 10BD     		pop	{r4, pc}
 420              		.loc 1 361 1 view .LVU94
 421              		.cfi_endproc
 422              	.LFE128:
 424              		.section	.text.CheckSmSettings,"ax",%progbits
 425              		.align	1
 426              		.global	CheckSmSettings
 427              		.syntax unified
 428              		.thumb
 429              		.thumb_func
 431              	CheckSmSettings:
 432              	.LVL28:
 433              	.LFB129:
 362:Lib/ssc/src/ecatslv.c **** /*ECATCHANGE_END(V5.11) HW1*/
 363:Lib/ssc/src/ecatslv.c **** 
 364:Lib/ssc/src/ecatslv.c **** 
 365:Lib/ssc/src/ecatslv.c **** 
 366:Lib/ssc/src/ecatslv.c **** /////////////////////////////////////////////////////////////////////////////////////////
 367:Lib/ssc/src/ecatslv.c **** /**
 368:Lib/ssc/src/ecatslv.c ****  \param  maxChannel    last SM channel which should be checked
 369:Lib/ssc/src/ecatslv.c **** 
 370:Lib/ssc/src/ecatslv.c ****  \return                 0: okay else AL Status Code
 371:Lib/ssc/src/ecatslv.c **** 
 372:Lib/ssc/src/ecatslv.c ****  \brief    This function checks all SM channels
 373:Lib/ssc/src/ecatslv.c **** 
 374:Lib/ssc/src/ecatslv.c **** *////////////////////////////////////////////////////////////////////////////////////////
 375:Lib/ssc/src/ecatslv.c **** 
 376:Lib/ssc/src/ecatslv.c **** UINT8    CheckSmSettings(UINT8 maxChannel)
 377:Lib/ssc/src/ecatslv.c **** {
 434              		.loc 1 377 1 is_stmt 1 view -0
 435              		.cfi_startproc
 436              		@ args = 0, pretend = 0, frame = 0
 437              		@ frame_needed = 0, uses_anonymous_args = 0
 438              		.loc 1 377 1 is_stmt 0 view .LVU96
 439 0000 38B5     		push	{r3, r4, r5, lr}
 440              		.cfi_def_cfa_offset 16
 441              		.cfi_offset 3, -16
 442              		.cfi_offset 4, -12
 443              		.cfi_offset 5, -8
 444              		.cfi_offset 14, -4
 378:Lib/ssc/src/ecatslv.c ****     UINT8 i;
 445              		.loc 1 378 5 is_stmt 1 view .LVU97
 379:Lib/ssc/src/ecatslv.c ****     UINT8 result = 0;
 446              		.loc 1 379 5 view .LVU98
 447              	.LVL29:
 380:Lib/ssc/src/ecatslv.c ****     TSYNCMAN ESCMEM *pSyncMan;
 448              		.loc 1 380 5 view .LVU99
 381:Lib/ssc/src/ecatslv.c ****     UINT16 SMLength = 0;
 449              		.loc 1 381 5 view .LVU100
 382:Lib/ssc/src/ecatslv.c ****     UINT16 SMAddress = 0;
 450              		.loc 1 382 5 view .LVU101
 383:Lib/ssc/src/ecatslv.c **** 
 384:Lib/ssc/src/ecatslv.c ****     //Check if max address defines are within the available ESC address range
 385:Lib/ssc/src/ecatslv.c ****     if((nMaxEscAddress < MAX_PD_WRITE_ADDRESS)
ARM GAS  /tmp/ccJBQgIh.s 			page 43


 451              		.loc 1 385 5 view .LVU102
 386:Lib/ssc/src/ecatslv.c ****         ||(nMaxEscAddress < MAX_PD_READ_ADDRESS)
 387:Lib/ssc/src/ecatslv.c **** /*ECATCHANGE_START(V5.11) ESM5*/
 388:Lib/ssc/src/ecatslv.c ****         ||(nMaxEscAddress < MAX_MBX_WRITE_ADDRESS)
 389:Lib/ssc/src/ecatslv.c **** /*ECATCHANGE_END(V5.11) ESM5*/
 390:Lib/ssc/src/ecatslv.c ****         ||(nMaxEscAddress < MAX_MBX_READ_ADDRESS))
 452              		.loc 1 390 9 is_stmt 0 view .LVU103
 453 0002 9E4B     		ldr	r3, .L94
 454 0004 1A88     		ldrh	r2, [r3]
 385:Lib/ssc/src/ecatslv.c ****         ||(nMaxEscAddress < MAX_PD_READ_ADDRESS)
 455              		.loc 1 385 7 view .LVU104
 456 0006 42F6FE73 		movw	r3, #12286
 457 000a 9A42     		cmp	r2, r3
 458 000c 40F22781 		bls	.L43
 459 0010 0446     		mov	r4, r0
 391:Lib/ssc/src/ecatslv.c ****     {
 392:Lib/ssc/src/ecatslv.c ****         /*The defines for maximum SM addresses are invalid for the used ESC (change the defines in 
 393:Lib/ssc/src/ecatslv.c ****         It may be also required to adapt the SM settings in the ESI file*/
 394:Lib/ssc/src/ecatslv.c **** 
 395:Lib/ssc/src/ecatslv.c ****         return ALSTATUSCODE_NOVALIDFIRMWARE;
 396:Lib/ssc/src/ecatslv.c ****     }
 397:Lib/ssc/src/ecatslv.c **** 
 398:Lib/ssc/src/ecatslv.c ****     /* check the Sync Manager Parameter for the Receive Mailbox (Sync Manager Channel 0) */
 399:Lib/ssc/src/ecatslv.c **** /*ECATCHANGE_START(V5.11) HW1*/
 400:Lib/ssc/src/ecatslv.c ****     pSyncMan = GetSyncMan(MAILBOX_WRITE);
 460              		.loc 1 400 5 is_stmt 1 view .LVU105
 461              		.loc 1 400 16 is_stmt 0 view .LVU106
 462 0012 0020     		movs	r0, #0
 463              	.LVL30:
 464              		.loc 1 400 16 view .LVU107
 465 0014 FFF7FEFF 		bl	GetSyncMan
 466              	.LVL31:
 401:Lib/ssc/src/ecatslv.c **** /*ECATCHANGE_END(V5.11) HW1*/
 402:Lib/ssc/src/ecatslv.c **** 
 403:Lib/ssc/src/ecatslv.c ****     SMLength = pSyncMan->Length;
 467              		.loc 1 403 5 is_stmt 1 view .LVU108
 468              		.loc 1 403 14 is_stmt 0 view .LVU109
 469 0018 4388     		ldrh	r3, [r0, #2]
 470              	.LVL32:
 404:Lib/ssc/src/ecatslv.c ****     SMAddress = pSyncMan->PhysicalStartAddress;
 471              		.loc 1 404 5 is_stmt 1 view .LVU110
 472              		.loc 1 404 15 is_stmt 0 view .LVU111
 473 001a 0288     		ldrh	r2, [r0]
 474              	.LVL33:
 405:Lib/ssc/src/ecatslv.c **** 
 406:Lib/ssc/src/ecatslv.c **** /* ECATCHANGE_START(V5.11) HW2*/
 407:Lib/ssc/src/ecatslv.c ****     //Check if the start address and length are even 16Bit addresses
 408:Lib/ssc/src/ecatslv.c ****     if ((SMLength & 0x1) > 0)
 475              		.loc 1 408 5 is_stmt 1 view .LVU112
 476              		.loc 1 408 8 is_stmt 0 view .LVU113
 477 001c 13F0010F 		tst	r3, #1
 478 0020 40F02081 		bne	.L44
 409:Lib/ssc/src/ecatslv.c ****         return ALSTATUSCODE_INVALIDSMCFG;
 410:Lib/ssc/src/ecatslv.c **** 
 411:Lib/ssc/src/ecatslv.c ****     if ((SMAddress & 0x1) > 0)
 479              		.loc 1 411 5 is_stmt 1 view .LVU114
 480              		.loc 1 411 8 is_stmt 0 view .LVU115
ARM GAS  /tmp/ccJBQgIh.s 			page 44


 481 0024 12F0010F 		tst	r2, #1
 482 0028 40F01E81 		bne	.L45
 412:Lib/ssc/src/ecatslv.c ****         return ALSTATUSCODE_INVALIDSMCFG;
 413:Lib/ssc/src/ecatslv.c **** /* ECATCHANGE_END(V5.11) HW2*/
 414:Lib/ssc/src/ecatslv.c **** 
 415:Lib/ssc/src/ecatslv.c ****     if (!(pSyncMan->Settings[SM_SETTING_ACTIVATE_OFFSET] & SM_SETTING_ENABLE_VALUE))
 483              		.loc 1 415 5 is_stmt 1 view .LVU116
 484              		.loc 1 415 29 is_stmt 0 view .LVU117
 485 002c C188     		ldrh	r1, [r0, #6]
 486              		.loc 1 415 8 view .LVU118
 487 002e 11F0010F 		tst	r1, #1
 488 0032 3CD0     		beq	.L46
 416:Lib/ssc/src/ecatslv.c ****         /* receive mailbox is not enabled */
 417:Lib/ssc/src/ecatslv.c ****         result = ALSTATUSCODE_INVALIDMBXCFGINPREOP;
 418:Lib/ssc/src/ecatslv.c ****     else if ( (pSyncMan->Settings[SM_SETTING_CONTROL_OFFSET] & SM_SETTING_DIRECTION_MASK) != SM_SET
 489              		.loc 1 418 10 is_stmt 1 view .LVU119
 490              		.loc 1 418 34 is_stmt 0 view .LVU120
 491 0034 8188     		ldrh	r1, [r0, #4]
 492              		.loc 1 418 13 view .LVU121
 493 0036 01F00C00 		and	r0, r1, #12
 494              	.LVL34:
 495              		.loc 1 418 13 view .LVU122
 496 003a 0428     		cmp	r0, #4
 497 003c 01D0     		beq	.L85
 419:Lib/ssc/src/ecatslv.c ****        /* receive mailbox is not writable by the master*/
 420:Lib/ssc/src/ecatslv.c ****         result = ALSTATUSCODE_INVALIDMBXCFGINPREOP;
 498              		.loc 1 420 16 view .LVU123
 499 003e 1625     		movs	r5, #22
 500 0040 36E0     		b	.L28
 501              	.L85:
 421:Lib/ssc/src/ecatslv.c ****     else if ( (pSyncMan->Settings[SM_SETTING_CONTROL_OFFSET] & SM_SETTING_MODE_MASK) != SM_SETTING_
 502              		.loc 1 421 10 is_stmt 1 view .LVU124
 503              		.loc 1 421 13 is_stmt 0 view .LVU125
 504 0042 11F0020F 		tst	r1, #2
 505 0046 3DD0     		beq	.L48
 422:Lib/ssc/src/ecatslv.c ****         /* receive mailbox is not in one buffer mode */
 423:Lib/ssc/src/ecatslv.c ****         result = ALSTATUSCODE_INVALIDMBXCFGINPREOP;
 424:Lib/ssc/src/ecatslv.c ****     else if ( SMLength < MIN_MBX_SIZE )
 506              		.loc 1 424 10 is_stmt 1 view .LVU126
 507              		.loc 1 424 13 is_stmt 0 view .LVU127
 508 0048 212B     		cmp	r3, #33
 509 004a 3DD9     		bls	.L49
 425:Lib/ssc/src/ecatslv.c ****         /* receive mailbox size is too small */
 426:Lib/ssc/src/ecatslv.c ****         result = ALSTATUSCODE_INVALIDMBXCFGINPREOP;
 427:Lib/ssc/src/ecatslv.c ****     else if ( SMLength > MAX_MBX_SIZE )
 510              		.loc 1 427 10 is_stmt 1 view .LVU128
 511              		.loc 1 427 13 is_stmt 0 view .LVU129
 512 004c B3F5807F 		cmp	r3, #256
 513 0050 3CD8     		bhi	.L50
 428:Lib/ssc/src/ecatslv.c ****         /* receive mailbox size is too great */
 429:Lib/ssc/src/ecatslv.c ****         result = ALSTATUSCODE_INVALIDMBXCFGINPREOP;
 430:Lib/ssc/src/ecatslv.c ****      else if ( SMAddress < MIN_MBX_WRITE_ADDRESS )
 514              		.loc 1 430 11 is_stmt 1 view .LVU130
 515              		.loc 1 430 14 is_stmt 0 view .LVU131
 516 0052 B2F5805F 		cmp	r2, #4096
 517 0056 3BD3     		bcc	.L51
 431:Lib/ssc/src/ecatslv.c ****         /* receive mailbox address is too small */
ARM GAS  /tmp/ccJBQgIh.s 			page 45


 432:Lib/ssc/src/ecatslv.c ****         result = ALSTATUSCODE_INVALIDMBXCFGINPREOP;
 433:Lib/ssc/src/ecatslv.c ****     else if ( SMAddress > MAX_MBX_WRITE_ADDRESS)
 518              		.loc 1 433 10 is_stmt 1 view .LVU132
 519              		.loc 1 433 13 is_stmt 0 view .LVU133
 520 0058 B2F5405F 		cmp	r2, #12288
 521 005c 01D3     		bcc	.L86
 434:Lib/ssc/src/ecatslv.c ****         /* receive mailbox address is too great */
 435:Lib/ssc/src/ecatslv.c ****         result = ALSTATUSCODE_INVALIDMBXCFGINPREOP;
 522              		.loc 1 435 16 view .LVU134
 523 005e 1625     		movs	r5, #22
 524 0060 26E0     		b	.L28
 525              	.L86:
 436:Lib/ssc/src/ecatslv.c **** 
 437:Lib/ssc/src/ecatslv.c **** 
 438:Lib/ssc/src/ecatslv.c ****     if ( result == 0 )
 526              		.loc 1 438 5 is_stmt 1 view .LVU135
 439:Lib/ssc/src/ecatslv.c ****     {
 440:Lib/ssc/src/ecatslv.c ****         /* check the Sync Manager Parameter for the Send Mailbox (Sync Manager Channel 1) */
 441:Lib/ssc/src/ecatslv.c **** /*ECATCHANGE_START(V5.11) HW1*/
 442:Lib/ssc/src/ecatslv.c ****         pSyncMan = GetSyncMan(MAILBOX_READ);
 527              		.loc 1 442 9 view .LVU136
 528              		.loc 1 442 20 is_stmt 0 view .LVU137
 529 0062 0120     		movs	r0, #1
 530 0064 FFF7FEFF 		bl	GetSyncMan
 531              	.LVL35:
 532              		.loc 1 442 20 view .LVU138
 533 0068 0346     		mov	r3, r0
 534              	.LVL36:
 443:Lib/ssc/src/ecatslv.c **** /*ECATCHANGE_END(V5.11) HW1*/
 444:Lib/ssc/src/ecatslv.c **** 
 445:Lib/ssc/src/ecatslv.c ****     SMLength = pSyncMan->Length;
 535              		.loc 1 445 5 is_stmt 1 view .LVU139
 536              		.loc 1 445 14 is_stmt 0 view .LVU140
 537 006a 4188     		ldrh	r1, [r0, #2]
 538              	.LVL37:
 446:Lib/ssc/src/ecatslv.c ****     SMAddress = pSyncMan->PhysicalStartAddress;
 539              		.loc 1 446 5 is_stmt 1 view .LVU141
 540              		.loc 1 446 15 is_stmt 0 view .LVU142
 541 006c 0288     		ldrh	r2, [r0]
 542              	.LVL38:
 447:Lib/ssc/src/ecatslv.c **** 
 448:Lib/ssc/src/ecatslv.c **** /* ECATCHANGE_START(V5.11) HW2*/
 449:Lib/ssc/src/ecatslv.c ****     //Check if the start address and length are even 16Bit addresses
 450:Lib/ssc/src/ecatslv.c ****     if ((SMLength & 0x1) > 0)
 543              		.loc 1 450 5 is_stmt 1 view .LVU143
 544              		.loc 1 450 8 is_stmt 0 view .LVU144
 545 006e 11F0010F 		tst	r1, #1
 546 0072 40F0FB80 		bne	.L53
 451:Lib/ssc/src/ecatslv.c ****         return ALSTATUSCODE_INVALIDSMCFG;
 452:Lib/ssc/src/ecatslv.c **** 
 453:Lib/ssc/src/ecatslv.c ****     if ((SMAddress & 0x1) > 0)
 547              		.loc 1 453 5 is_stmt 1 view .LVU145
 548              		.loc 1 453 8 is_stmt 0 view .LVU146
 549 0076 12F0010F 		tst	r2, #1
 550 007a 40F0F980 		bne	.L54
 454:Lib/ssc/src/ecatslv.c ****         return ALSTATUSCODE_INVALIDSMCFG;
 455:Lib/ssc/src/ecatslv.c **** /* ECATCHANGE_END(V5.11) HW2*/
ARM GAS  /tmp/ccJBQgIh.s 			page 46


 456:Lib/ssc/src/ecatslv.c **** 
 457:Lib/ssc/src/ecatslv.c ****       if (!(pSyncMan->Settings[SM_SETTING_ACTIVATE_OFFSET] & SM_SETTING_ENABLE_VALUE))
 551              		.loc 1 457 7 is_stmt 1 view .LVU147
 552              		.loc 1 457 31 is_stmt 0 view .LVU148
 553 007e C088     		ldrh	r0, [r0, #6]
 554              	.LVL39:
 555              		.loc 1 457 10 view .LVU149
 556 0080 10F0010F 		tst	r0, #1
 557 0084 71D0     		beq	.L55
 458:Lib/ssc/src/ecatslv.c ****             /* send mailbox is not enabled */
 459:Lib/ssc/src/ecatslv.c ****             result = ALSTATUSCODE_INVALIDMBXCFGINPREOP;
 460:Lib/ssc/src/ecatslv.c ****         else if ( (pSyncMan->Settings[SM_SETTING_CONTROL_OFFSET] & SM_SETTING_DIRECTION_MASK) != SM
 558              		.loc 1 460 14 is_stmt 1 view .LVU150
 559              		.loc 1 460 38 is_stmt 0 view .LVU151
 560 0086 9B88     		ldrh	r3, [r3, #4]
 561              	.LVL40:
 562              		.loc 1 460 17 view .LVU152
 563 0088 13F00C0F 		tst	r3, #12
 564 008c 6FD1     		bne	.L56
 461:Lib/ssc/src/ecatslv.c ****            /* receive mailbox is not readable by the master*/
 462:Lib/ssc/src/ecatslv.c ****             result = ALSTATUSCODE_INVALIDMBXCFGINPREOP;
 463:Lib/ssc/src/ecatslv.c ****         else if ( (pSyncMan->Settings[SM_SETTING_CONTROL_OFFSET] & SM_SETTING_MODE_MASK) != SM_SETT
 565              		.loc 1 463 14 is_stmt 1 view .LVU153
 566              		.loc 1 463 17 is_stmt 0 view .LVU154
 567 008e 13F0020F 		tst	r3, #2
 568 0092 6ED0     		beq	.L57
 464:Lib/ssc/src/ecatslv.c ****             /* receive mailbox is not in one buffer mode */
 465:Lib/ssc/src/ecatslv.c ****             result = ALSTATUSCODE_INVALIDMBXCFGINPREOP;
 466:Lib/ssc/src/ecatslv.c ****         else if ( SMLength < MIN_MBX_SIZE )
 569              		.loc 1 466 14 is_stmt 1 view .LVU155
 570              		.loc 1 466 17 is_stmt 0 view .LVU156
 571 0094 2129     		cmp	r1, #33
 572 0096 6ED9     		bls	.L58
 467:Lib/ssc/src/ecatslv.c ****             /* send mailbox size is too small */
 468:Lib/ssc/src/ecatslv.c ****             result = ALSTATUSCODE_INVALIDMBXCFGINPREOP;
 469:Lib/ssc/src/ecatslv.c ****         else if ( SMLength > MAX_MBX_SIZE )
 573              		.loc 1 469 14 is_stmt 1 view .LVU157
 574              		.loc 1 469 17 is_stmt 0 view .LVU158
 575 0098 B1F5807F 		cmp	r1, #256
 576 009c 6DD8     		bhi	.L59
 470:Lib/ssc/src/ecatslv.c ****             /* send mailbox size is too great */
 471:Lib/ssc/src/ecatslv.c ****             result = ALSTATUSCODE_INVALIDMBXCFGINPREOP;
 472:Lib/ssc/src/ecatslv.c ****          else if ( SMAddress < MIN_MBX_READ_ADDRESS )
 577              		.loc 1 472 15 is_stmt 1 view .LVU159
 578              		.loc 1 472 18 is_stmt 0 view .LVU160
 579 009e B2F5805F 		cmp	r2, #4096
 580 00a2 6CD3     		bcc	.L60
 473:Lib/ssc/src/ecatslv.c ****             /* send mailbox address is too small */
 474:Lib/ssc/src/ecatslv.c ****             result = ALSTATUSCODE_INVALIDMBXCFGINPREOP;
 475:Lib/ssc/src/ecatslv.c ****         else if ( SMAddress > MAX_MBX_READ_ADDRESS )
 581              		.loc 1 475 14 is_stmt 1 view .LVU161
 582              		.loc 1 475 17 is_stmt 0 view .LVU162
 583 00a4 B2F5405F 		cmp	r2, #12288
 584 00a8 6BD2     		bcs	.L61
 379:Lib/ssc/src/ecatslv.c ****     TSYNCMAN ESCMEM *pSyncMan;
 585              		.loc 1 379 11 view .LVU163
 586 00aa 0025     		movs	r5, #0
ARM GAS  /tmp/ccJBQgIh.s 			page 47


 587 00ac 00E0     		b	.L28
 588              	.LVL41:
 589              	.L46:
 417:Lib/ssc/src/ecatslv.c ****     else if ( (pSyncMan->Settings[SM_SETTING_CONTROL_OFFSET] & SM_SETTING_DIRECTION_MASK) != SM_SET
 590              		.loc 1 417 16 view .LVU164
 591 00ae 1625     		movs	r5, #22
 592              	.LVL42:
 593              	.L28:
 476:Lib/ssc/src/ecatslv.c ****             /* send mailbox address is too great */
 477:Lib/ssc/src/ecatslv.c ****             result = ALSTATUSCODE_INVALIDMBXCFGINPREOP;
 478:Lib/ssc/src/ecatslv.c **** 
 479:Lib/ssc/src/ecatslv.c ****     }
 480:Lib/ssc/src/ecatslv.c **** 
 481:Lib/ssc/src/ecatslv.c ****     if ( result == 0 && maxChannel > PROCESS_DATA_IN )
 594              		.loc 1 481 5 is_stmt 1 view .LVU165
 595              		.loc 1 481 8 is_stmt 0 view .LVU166
 596 00b0 0DB9     		cbnz	r5, .L29
 597              		.loc 1 481 22 discriminator 1 view .LVU167
 598 00b2 032C     		cmp	r4, #3
 599 00b4 0ED8     		bhi	.L87
 600              	.LVL43:
 601              	.L29:
 482:Lib/ssc/src/ecatslv.c ****     {
 483:Lib/ssc/src/ecatslv.c ****         /* b3BufferMode is only set, if inputs and outputs are running in 3-Buffer-Mode when leavin
 484:Lib/ssc/src/ecatslv.c ****         b3BufferMode = TRUE;
 485:Lib/ssc/src/ecatslv.c ****         /* check the Sync Manager Parameter for the Inputs (Sync Manager Channel 2) */
 486:Lib/ssc/src/ecatslv.c **** /*ECATCHANGE_START(V5.11) HW1*/
 487:Lib/ssc/src/ecatslv.c ****         pSyncMan = GetSyncMan(PROCESS_DATA_IN);
 488:Lib/ssc/src/ecatslv.c **** /*ECATCHANGE_END(V5.11) HW1*/
 489:Lib/ssc/src/ecatslv.c **** 
 490:Lib/ssc/src/ecatslv.c ****     SMLength = pSyncMan->Length;
 491:Lib/ssc/src/ecatslv.c ****     SMAddress = pSyncMan->PhysicalStartAddress;
 492:Lib/ssc/src/ecatslv.c **** 
 493:Lib/ssc/src/ecatslv.c **** /* ECATCHANGE_START(V5.11) HW2*/
 494:Lib/ssc/src/ecatslv.c ****     //Check if the start address and length are even 16Bit addresses
 495:Lib/ssc/src/ecatslv.c ****     if ((SMLength & 0x1) > 0)
 496:Lib/ssc/src/ecatslv.c ****         return ALSTATUSCODE_INVALIDSMCFG;
 497:Lib/ssc/src/ecatslv.c **** 
 498:Lib/ssc/src/ecatslv.c ****     if ((SMAddress & 0x1) > 0)
 499:Lib/ssc/src/ecatslv.c ****         return ALSTATUSCODE_INVALIDSMCFG;
 500:Lib/ssc/src/ecatslv.c **** /* ECATCHANGE_END(V5.11) HW2*/
 501:Lib/ssc/src/ecatslv.c **** 
 502:Lib/ssc/src/ecatslv.c ****         if ((pSyncMan->Settings[SM_SETTING_ACTIVATE_OFFSET] & SM_SETTING_ENABLE_VALUE) != 0 && SMLe
 503:Lib/ssc/src/ecatslv.c ****             /* the SM3 size is 0 and the SM3 is active */
 504:Lib/ssc/src/ecatslv.c ****             result = SYNCMANCHSETTINGS+1;
 505:Lib/ssc/src/ecatslv.c ****         else if (pSyncMan->Settings[SM_SETTING_ACTIVATE_OFFSET] & SM_SETTING_ENABLE_VALUE)
 506:Lib/ssc/src/ecatslv.c ****         {
 507:Lib/ssc/src/ecatslv.c ****             /* Sync Manager Channel 3 is active, input size has to greater 0 */
 508:Lib/ssc/src/ecatslv.c ****             if ( SMLength != nPdInputSize || nPdInputSize == 0 || SMLength > MAX_PD_INPUT_SIZE)
 509:Lib/ssc/src/ecatslv.c ****                 /* sizes don't match */
 510:Lib/ssc/src/ecatslv.c ****                 result = SYNCMANCHSIZE+1;
 511:Lib/ssc/src/ecatslv.c ****             else
 512:Lib/ssc/src/ecatslv.c ****                 /* sizes matches */
 513:Lib/ssc/src/ecatslv.c ****             if ( (pSyncMan->Settings[SM_SETTING_CONTROL_OFFSET] & SM_SETTING_DIRECTION_MASK) == SM_
 514:Lib/ssc/src/ecatslv.c ****             {
 515:Lib/ssc/src/ecatslv.c ****                 /* settings match */
 516:Lib/ssc/src/ecatslv.c ****                 if ( ( ( nAlStatus == STATE_PREOP )&&( SMAddress >= MIN_PD_READ_ADDRESS )&&( SMAddr
ARM GAS  /tmp/ccJBQgIh.s 			page 48


 517:Lib/ssc/src/ecatslv.c ****                    ||( ( nAlStatus != STATE_PREOP )&&( SMAddress == nEscAddrInputData ) )
 518:Lib/ssc/src/ecatslv.c ****                     )
 519:Lib/ssc/src/ecatslv.c ****                 {
 520:Lib/ssc/src/ecatslv.c ****                     /* addresses match */
 521:Lib/ssc/src/ecatslv.c **** 
 522:Lib/ssc/src/ecatslv.c ****                     if ( (pSyncMan->Settings[SM_SETTING_CONTROL_OFFSET] & SM_SETTING_MODE_MASK) == 
 523:Lib/ssc/src/ecatslv.c ****                         /* inputs are running in 1-Buffer-Mode, reset flag b3BufferMode */
 524:Lib/ssc/src/ecatslv.c ****                         b3BufferMode = FALSE;
 525:Lib/ssc/src/ecatslv.c ****                 }
 526:Lib/ssc/src/ecatslv.c ****                 else
 527:Lib/ssc/src/ecatslv.c ****                     /* input address is out of the allowed area or has changed in SAFEOP or OP */
 528:Lib/ssc/src/ecatslv.c ****                     result = SYNCMANCHADDRESS+1;
 529:Lib/ssc/src/ecatslv.c ****             }
 530:Lib/ssc/src/ecatslv.c ****             else
 531:Lib/ssc/src/ecatslv.c ****                 /* input settings do not match */
 532:Lib/ssc/src/ecatslv.c ****                 result = SYNCMANCHSETTINGS+1;
 533:Lib/ssc/src/ecatslv.c ****         }
 534:Lib/ssc/src/ecatslv.c ****         else if ( SMLength != 0 || nPdInputSize != 0 )
 535:Lib/ssc/src/ecatslv.c ****             /* input size is not zero although the SM3 channel is not enabled */
 536:Lib/ssc/src/ecatslv.c ****             result = SYNCMANCHSIZE+1;
 537:Lib/ssc/src/ecatslv.c **** 
 538:Lib/ssc/src/ecatslv.c **** 
 539:Lib/ssc/src/ecatslv.c **** 
 540:Lib/ssc/src/ecatslv.c ****         if ( result != 0 )
 541:Lib/ssc/src/ecatslv.c ****         {
 542:Lib/ssc/src/ecatslv.c ****             result = ALSTATUSCODE_INVALIDSMINCFG;
 543:Lib/ssc/src/ecatslv.c ****         }
 544:Lib/ssc/src/ecatslv.c ****     }
 545:Lib/ssc/src/ecatslv.c **** 
 546:Lib/ssc/src/ecatslv.c **** 
 547:Lib/ssc/src/ecatslv.c **** //    else
 548:Lib/ssc/src/ecatslv.c ****     if ( result == 0 && maxChannel > PROCESS_DATA_OUT )
 602              		.loc 1 548 5 is_stmt 1 view .LVU168
 603              		.loc 1 548 8 is_stmt 0 view .LVU169
 604 00b6 0DB9     		cbnz	r5, .L31
 605              		.loc 1 548 22 discriminator 1 view .LVU170
 606 00b8 022C     		cmp	r4, #2
 607 00ba 64D8     		bhi	.L88
 608              	.LVL44:
 609              	.L31:
 549:Lib/ssc/src/ecatslv.c ****     {
 550:Lib/ssc/src/ecatslv.c ****         /* check the Sync Manager Parameter for the Outputs (Sync Manager Channel 2) */
 551:Lib/ssc/src/ecatslv.c **** /*ECATCHANGE_START(V5.11) HW1*/
 552:Lib/ssc/src/ecatslv.c ****         pSyncMan = GetSyncMan(PROCESS_DATA_OUT);
 553:Lib/ssc/src/ecatslv.c **** /*ECATCHANGE_END(V5.11) HW1*/
 554:Lib/ssc/src/ecatslv.c **** 
 555:Lib/ssc/src/ecatslv.c ****     SMLength = pSyncMan->Length;
 556:Lib/ssc/src/ecatslv.c ****     SMAddress = pSyncMan->PhysicalStartAddress;
 557:Lib/ssc/src/ecatslv.c **** 
 558:Lib/ssc/src/ecatslv.c **** /* ECATCHANGE_START(V5.11) HW2*/
 559:Lib/ssc/src/ecatslv.c ****     //Check if the start address and length are even 16Bit addresses
 560:Lib/ssc/src/ecatslv.c ****     if ((SMLength & 0x1) > 0)
 561:Lib/ssc/src/ecatslv.c ****         return ALSTATUSCODE_INVALIDSMCFG;
 562:Lib/ssc/src/ecatslv.c **** 
 563:Lib/ssc/src/ecatslv.c ****     if ((SMAddress & 0x1) > 0)
 564:Lib/ssc/src/ecatslv.c ****         return ALSTATUSCODE_INVALIDSMCFG;
 565:Lib/ssc/src/ecatslv.c **** /* ECATCHANGE_END(V5.11) HW2*/
ARM GAS  /tmp/ccJBQgIh.s 			page 49


 566:Lib/ssc/src/ecatslv.c **** 
 567:Lib/ssc/src/ecatslv.c ****     if ( (pSyncMan->Settings[SM_SETTING_ACTIVATE_OFFSET] & SM_SETTING_ENABLE_VALUE) != 0 && SMLengt
 568:Lib/ssc/src/ecatslv.c ****             /* the SM2 size is 0 and the SM2 is active */
 569:Lib/ssc/src/ecatslv.c ****             result = SYNCMANCHSETTINGS+1;
 570:Lib/ssc/src/ecatslv.c ****         else if (pSyncMan->Settings[SM_SETTING_ACTIVATE_OFFSET] & SM_SETTING_ENABLE_VALUE)
 571:Lib/ssc/src/ecatslv.c ****         {
 572:Lib/ssc/src/ecatslv.c ****             /* Sync Manager Channel 2 is active, output size has to greater 0 */
 573:Lib/ssc/src/ecatslv.c ****             if ( SMLength == nPdOutputSize && nPdOutputSize != 0 && SMLength <= ((UINT16)MAX_PD_OUT
 574:Lib/ssc/src/ecatslv.c **** 
 575:Lib/ssc/src/ecatslv.c ****             {
 576:Lib/ssc/src/ecatslv.c ****                 /* sizes match */
 577:Lib/ssc/src/ecatslv.c ****                 if ( (pSyncMan->Settings[SM_SETTING_CONTROL_OFFSET] & SM_SETTING_DIRECTION_MASK) ==
 578:Lib/ssc/src/ecatslv.c ****                 {
 579:Lib/ssc/src/ecatslv.c ****                     /* settings match */
 580:Lib/ssc/src/ecatslv.c ****                     if ( ( ( nAlStatus == STATE_PREOP )&&( SMAddress >= MIN_PD_WRITE_ADDRESS )&&( S
 581:Lib/ssc/src/ecatslv.c ****                        ||( ( nAlStatus != STATE_PREOP )&&( SMAddress == nEscAddrOutputData ) )
 582:Lib/ssc/src/ecatslv.c ****                         )
 583:Lib/ssc/src/ecatslv.c ****                     {
 584:Lib/ssc/src/ecatslv.c ****                         /* addresses match */
 585:Lib/ssc/src/ecatslv.c ****                         {
 586:Lib/ssc/src/ecatslv.c ****                             /* check, if watchdog trigger is enabled */
 587:Lib/ssc/src/ecatslv.c ****                             if (pSyncMan->Settings[SM_SETTING_CONTROL_OFFSET] & SM_SETTING_WATCHDOG
 588:Lib/ssc/src/ecatslv.c ****                             {
 589:Lib/ssc/src/ecatslv.c ****                                 bWdTrigger = TRUE;
 590:Lib/ssc/src/ecatslv.c ****                             }
 591:Lib/ssc/src/ecatslv.c ****                             else
 592:Lib/ssc/src/ecatslv.c ****                             {
 593:Lib/ssc/src/ecatslv.c ****                                 bWdTrigger = FALSE;
 594:Lib/ssc/src/ecatslv.c ****                             }
 595:Lib/ssc/src/ecatslv.c **** 
 596:Lib/ssc/src/ecatslv.c ****                             if ( (pSyncMan->Settings[SM_SETTING_CONTROL_OFFSET] & SM_SETTING_MODE_M
 597:Lib/ssc/src/ecatslv.c ****                                 /* outputs are running in 1-Buffer-Mode, reset flag b3BufferMode */
 598:Lib/ssc/src/ecatslv.c ****                                 b3BufferMode = FALSE;
 599:Lib/ssc/src/ecatslv.c ****                         }
 600:Lib/ssc/src/ecatslv.c ****                     }
 601:Lib/ssc/src/ecatslv.c ****                     else
 602:Lib/ssc/src/ecatslv.c ****                         /* output address is out of the allowed area or has changed in SAFEOP or OP
 603:Lib/ssc/src/ecatslv.c ****                         result = SYNCMANCHADDRESS+1;
 604:Lib/ssc/src/ecatslv.c ****                 }
 605:Lib/ssc/src/ecatslv.c ****                 else
 606:Lib/ssc/src/ecatslv.c ****                     /* output settings do not match */
 607:Lib/ssc/src/ecatslv.c ****                     result = SYNCMANCHSETTINGS+1;
 608:Lib/ssc/src/ecatslv.c ****             }
 609:Lib/ssc/src/ecatslv.c ****             else
 610:Lib/ssc/src/ecatslv.c ****                 /* output sizes don't match */
 611:Lib/ssc/src/ecatslv.c ****                 result = SYNCMANCHSIZE+1;
 612:Lib/ssc/src/ecatslv.c ****         }
 613:Lib/ssc/src/ecatslv.c ****         else if ( SMLength != 0 || nPdOutputSize != 0 )
 614:Lib/ssc/src/ecatslv.c ****             /* output size is not zero although the SM2 channel is not enabled */
 615:Lib/ssc/src/ecatslv.c ****             result = SYNCMANCHSIZE+1;
 616:Lib/ssc/src/ecatslv.c **** 
 617:Lib/ssc/src/ecatslv.c ****         if ( result != 0 )
 618:Lib/ssc/src/ecatslv.c ****         {
 619:Lib/ssc/src/ecatslv.c ****             result = ALSTATUSCODE_INVALIDSMOUTCFG;
 620:Lib/ssc/src/ecatslv.c ****         }
 621:Lib/ssc/src/ecatslv.c ****     }
 622:Lib/ssc/src/ecatslv.c **** 
ARM GAS  /tmp/ccJBQgIh.s 			page 50


 623:Lib/ssc/src/ecatslv.c **** 
 624:Lib/ssc/src/ecatslv.c ****     if ( result == 0 )
 610              		.loc 1 624 5 is_stmt 1 view .LVU171
 611              		.loc 1 624 8 is_stmt 0 view .LVU172
 612 00bc 002D     		cmp	r5, #0
 613 00be 00F0C980 		beq	.L41
 614 00c2 CDE0     		b	.L27
 615              	.LVL45:
 616              	.L48:
 423:Lib/ssc/src/ecatslv.c ****     else if ( SMLength < MIN_MBX_SIZE )
 617              		.loc 1 423 16 view .LVU173
 618 00c4 1625     		movs	r5, #22
 619 00c6 F3E7     		b	.L28
 620              	.L49:
 426:Lib/ssc/src/ecatslv.c ****     else if ( SMLength > MAX_MBX_SIZE )
 621              		.loc 1 426 16 view .LVU174
 622 00c8 1625     		movs	r5, #22
 623 00ca F1E7     		b	.L28
 624              	.L50:
 429:Lib/ssc/src/ecatslv.c ****      else if ( SMAddress < MIN_MBX_WRITE_ADDRESS )
 625              		.loc 1 429 16 view .LVU175
 626 00cc 1625     		movs	r5, #22
 627 00ce EFE7     		b	.L28
 628              	.L51:
 432:Lib/ssc/src/ecatslv.c ****     else if ( SMAddress > MAX_MBX_WRITE_ADDRESS)
 629              		.loc 1 432 16 view .LVU176
 630 00d0 1625     		movs	r5, #22
 631 00d2 EDE7     		b	.L28
 632              	.LVL46:
 633              	.L87:
 484:Lib/ssc/src/ecatslv.c ****         /* check the Sync Manager Parameter for the Inputs (Sync Manager Channel 2) */
 634              		.loc 1 484 9 is_stmt 1 view .LVU177
 484:Lib/ssc/src/ecatslv.c ****         /* check the Sync Manager Parameter for the Inputs (Sync Manager Channel 2) */
 635              		.loc 1 484 22 is_stmt 0 view .LVU178
 636 00d4 6A4B     		ldr	r3, .L94+4
 637 00d6 0122     		movs	r2, #1
 638              	.LVL47:
 484:Lib/ssc/src/ecatslv.c ****         /* check the Sync Manager Parameter for the Inputs (Sync Manager Channel 2) */
 639              		.loc 1 484 22 view .LVU179
 640 00d8 1A70     		strb	r2, [r3]
 487:Lib/ssc/src/ecatslv.c **** /*ECATCHANGE_END(V5.11) HW1*/
 641              		.loc 1 487 9 is_stmt 1 view .LVU180
 487:Lib/ssc/src/ecatslv.c **** /*ECATCHANGE_END(V5.11) HW1*/
 642              		.loc 1 487 20 is_stmt 0 view .LVU181
 643 00da 0320     		movs	r0, #3
 644 00dc FFF7FEFF 		bl	GetSyncMan
 645              	.LVL48:
 490:Lib/ssc/src/ecatslv.c ****     SMAddress = pSyncMan->PhysicalStartAddress;
 646              		.loc 1 490 5 is_stmt 1 view .LVU182
 490:Lib/ssc/src/ecatslv.c ****     SMAddress = pSyncMan->PhysicalStartAddress;
 647              		.loc 1 490 14 is_stmt 0 view .LVU183
 648 00e0 4288     		ldrh	r2, [r0, #2]
 649              	.LVL49:
 491:Lib/ssc/src/ecatslv.c **** 
 650              		.loc 1 491 5 is_stmt 1 view .LVU184
 491:Lib/ssc/src/ecatslv.c **** 
 651              		.loc 1 491 15 is_stmt 0 view .LVU185
ARM GAS  /tmp/ccJBQgIh.s 			page 51


 652 00e2 0188     		ldrh	r1, [r0]
 653              	.LVL50:
 495:Lib/ssc/src/ecatslv.c ****         return ALSTATUSCODE_INVALIDSMCFG;
 654              		.loc 1 495 5 is_stmt 1 view .LVU186
 495:Lib/ssc/src/ecatslv.c ****         return ALSTATUSCODE_INVALIDSMCFG;
 655              		.loc 1 495 8 is_stmt 0 view .LVU187
 656 00e4 12F0010F 		tst	r2, #1
 657 00e8 40F0C480 		bne	.L62
 498:Lib/ssc/src/ecatslv.c ****         return ALSTATUSCODE_INVALIDSMCFG;
 658              		.loc 1 498 5 is_stmt 1 view .LVU188
 498:Lib/ssc/src/ecatslv.c ****         return ALSTATUSCODE_INVALIDSMCFG;
 659              		.loc 1 498 8 is_stmt 0 view .LVU189
 660 00ec 11F0010F 		tst	r1, #1
 661 00f0 40F0C280 		bne	.L63
 502:Lib/ssc/src/ecatslv.c ****             /* the SM3 size is 0 and the SM3 is active */
 662              		.loc 1 502 9 is_stmt 1 view .LVU190
 502:Lib/ssc/src/ecatslv.c ****             /* the SM3 size is 0 and the SM3 is active */
 663              		.loc 1 502 32 is_stmt 0 view .LVU191
 664 00f4 C388     		ldrh	r3, [r0, #6]
 502:Lib/ssc/src/ecatslv.c ****             /* the SM3 size is 0 and the SM3 is active */
 665              		.loc 1 502 12 view .LVU192
 666 00f6 13F00103 		ands	r3, r3, #1
 667 00fa 02D0     		beq	.L30
 502:Lib/ssc/src/ecatslv.c ****             /* the SM3 size is 0 and the SM3 is active */
 668              		.loc 1 502 93 discriminator 1 view .LVU193
 669 00fc 002A     		cmp	r2, #0
 670 00fe 00F09580 		beq	.L64
 671              	.L30:
 505:Lib/ssc/src/ecatslv.c ****         {
 672              		.loc 1 505 14 is_stmt 1 view .LVU194
 505:Lib/ssc/src/ecatslv.c ****         {
 673              		.loc 1 505 17 is_stmt 0 view .LVU195
 674 0102 53B3     		cbz	r3, .L32
 508:Lib/ssc/src/ecatslv.c ****                 /* sizes don't match */
 675              		.loc 1 508 13 is_stmt 1 view .LVU196
 508:Lib/ssc/src/ecatslv.c ****                 /* sizes don't match */
 676              		.loc 1 508 27 is_stmt 0 view .LVU197
 677 0104 5F4B     		ldr	r3, .L94+8
 678 0106 1B88     		ldrh	r3, [r3]
 508:Lib/ssc/src/ecatslv.c ****                 /* sizes don't match */
 679              		.loc 1 508 16 view .LVU198
 680 0108 9342     		cmp	r3, r2
 681 010a 01D0     		beq	.L89
 542:Lib/ssc/src/ecatslv.c ****         }
 682              		.loc 1 542 20 view .LVU199
 683 010c 1E25     		movs	r5, #30
 684              	.LVL51:
 542:Lib/ssc/src/ecatslv.c ****         }
 685              		.loc 1 542 20 view .LVU200
 686 010e D5E7     		b	.L31
 687              	.LVL52:
 688              	.L89:
 508:Lib/ssc/src/ecatslv.c ****                 /* sizes don't match */
 689              		.loc 1 508 43 discriminator 1 view .LVU201
 690 0110 002B     		cmp	r3, #0
 691 0112 00F08D80 		beq	.L66
 508:Lib/ssc/src/ecatslv.c ****                 /* sizes don't match */
ARM GAS  /tmp/ccJBQgIh.s 			page 52


 692              		.loc 1 508 64 discriminator 2 view .LVU202
 693 0116 442A     		cmp	r2, #68
 694 0118 00F28C80 		bhi	.L67
 513:Lib/ssc/src/ecatslv.c ****             {
 695              		.loc 1 513 13 is_stmt 1 view .LVU203
 513:Lib/ssc/src/ecatslv.c ****             {
 696              		.loc 1 513 37 is_stmt 0 view .LVU204
 697 011c 8388     		ldrh	r3, [r0, #4]
 513:Lib/ssc/src/ecatslv.c ****             {
 698              		.loc 1 513 16 view .LVU205
 699 011e 13F00C0F 		tst	r3, #12
 700 0122 40F08980 		bne	.L68
 516:Lib/ssc/src/ecatslv.c ****                    ||( ( nAlStatus != STATE_PREOP )&&( SMAddress == nEscAddrInputData ) )
 701              		.loc 1 516 17 is_stmt 1 view .LVU206
 516:Lib/ssc/src/ecatslv.c ****                    ||( ( nAlStatus != STATE_PREOP )&&( SMAddress == nEscAddrInputData ) )
 702              		.loc 1 516 36 is_stmt 0 view .LVU207
 703 0126 584A     		ldr	r2, .L94+12
 704              	.LVL53:
 516:Lib/ssc/src/ecatslv.c ****                    ||( ( nAlStatus != STATE_PREOP )&&( SMAddress == nEscAddrInputData ) )
 705              		.loc 1 516 36 view .LVU208
 706 0128 1278     		ldrb	r2, [r2]	@ zero_extendqisi2
 516:Lib/ssc/src/ecatslv.c ****                    ||( ( nAlStatus != STATE_PREOP )&&( SMAddress == nEscAddrInputData ) )
 707              		.loc 1 516 20 view .LVU209
 708 012a 022A     		cmp	r2, #2
 709 012c 08D0     		beq	.L90
 710              	.L33:
 517:Lib/ssc/src/ecatslv.c ****                     )
 711              		.loc 1 517 20 view .LVU210
 712 012e 022A     		cmp	r2, #2
 713 0130 00F08480 		beq	.L69
 517:Lib/ssc/src/ecatslv.c ****                     )
 714              		.loc 1 517 66 discriminator 1 view .LVU211
 715 0134 554A     		ldr	r2, .L94+16
 716 0136 1288     		ldrh	r2, [r2]
 517:Lib/ssc/src/ecatslv.c ****                     )
 717              		.loc 1 517 52 discriminator 1 view .LVU212
 718 0138 8A42     		cmp	r2, r1
 719 013a 07D0     		beq	.L34
 542:Lib/ssc/src/ecatslv.c ****         }
 720              		.loc 1 542 20 view .LVU213
 721 013c 1E25     		movs	r5, #30
 722              	.LVL54:
 542:Lib/ssc/src/ecatslv.c ****         }
 723              		.loc 1 542 20 view .LVU214
 724 013e BDE7     		b	.L31
 725              	.LVL55:
 726              	.L90:
 516:Lib/ssc/src/ecatslv.c ****                    ||( ( nAlStatus != STATE_PREOP )&&( SMAddress == nEscAddrInputData ) )
 727              		.loc 1 516 52 discriminator 1 view .LVU215
 728 0140 B1F5805F 		cmp	r1, #4096
 729 0144 F3D3     		bcc	.L33
 516:Lib/ssc/src/ecatslv.c ****                    ||( ( nAlStatus != STATE_PREOP )&&( SMAddress == nEscAddrInputData ) )
 730              		.loc 1 516 90 discriminator 2 view .LVU216
 731 0146 B1F5405F 		cmp	r1, #12288
 732 014a F0D2     		bcs	.L33
 733              	.L34:
 522:Lib/ssc/src/ecatslv.c ****                         /* inputs are running in 1-Buffer-Mode, reset flag b3BufferMode */
ARM GAS  /tmp/ccJBQgIh.s 			page 53


 734              		.loc 1 522 21 is_stmt 1 view .LVU217
 522:Lib/ssc/src/ecatslv.c ****                         /* inputs are running in 1-Buffer-Mode, reset flag b3BufferMode */
 735              		.loc 1 522 24 is_stmt 0 view .LVU218
 736 014c 13F0020F 		tst	r3, #2
 737 0150 B1D0     		beq	.L29
 524:Lib/ssc/src/ecatslv.c ****                 }
 738              		.loc 1 524 25 is_stmt 1 view .LVU219
 524:Lib/ssc/src/ecatslv.c ****                 }
 739              		.loc 1 524 38 is_stmt 0 view .LVU220
 740 0152 4B4B     		ldr	r3, .L94+4
 741 0154 0022     		movs	r2, #0
 742 0156 1A70     		strb	r2, [r3]
 743 0158 ADE7     		b	.L29
 744              	.LVL56:
 745              	.L32:
 534:Lib/ssc/src/ecatslv.c ****             /* input size is not zero although the SM3 channel is not enabled */
 746              		.loc 1 534 14 is_stmt 1 view .LVU221
 534:Lib/ssc/src/ecatslv.c ****             /* input size is not zero although the SM3 channel is not enabled */
 747              		.loc 1 534 17 is_stmt 0 view .LVU222
 748 015a 002A     		cmp	r2, #0
 749 015c 70D1     		bne	.L71
 534:Lib/ssc/src/ecatslv.c ****             /* input size is not zero although the SM3 channel is not enabled */
 750              		.loc 1 534 49 discriminator 1 view .LVU223
 751 015e 494B     		ldr	r3, .L94+8
 752 0160 1B88     		ldrh	r3, [r3]
 534:Lib/ssc/src/ecatslv.c ****             /* input size is not zero although the SM3 channel is not enabled */
 753              		.loc 1 534 33 discriminator 1 view .LVU224
 754 0162 002B     		cmp	r3, #0
 755 0164 A7D0     		beq	.L29
 542:Lib/ssc/src/ecatslv.c ****         }
 756              		.loc 1 542 20 view .LVU225
 757 0166 1E25     		movs	r5, #30
 758              	.LVL57:
 542:Lib/ssc/src/ecatslv.c ****         }
 759              		.loc 1 542 20 view .LVU226
 760 0168 A8E7     		b	.L31
 761              	.LVL58:
 762              	.L55:
 459:Lib/ssc/src/ecatslv.c ****         else if ( (pSyncMan->Settings[SM_SETTING_CONTROL_OFFSET] & SM_SETTING_DIRECTION_MASK) != SM
 763              		.loc 1 459 20 view .LVU227
 764 016a 1625     		movs	r5, #22
 765 016c A3E7     		b	.L29
 766              	.LVL59:
 767              	.L56:
 462:Lib/ssc/src/ecatslv.c ****         else if ( (pSyncMan->Settings[SM_SETTING_CONTROL_OFFSET] & SM_SETTING_MODE_MASK) != SM_SETT
 768              		.loc 1 462 20 view .LVU228
 769 016e 1625     		movs	r5, #22
 770 0170 A1E7     		b	.L29
 771              	.L57:
 465:Lib/ssc/src/ecatslv.c ****         else if ( SMLength < MIN_MBX_SIZE )
 772              		.loc 1 465 20 view .LVU229
 773 0172 1625     		movs	r5, #22
 774 0174 9FE7     		b	.L29
 775              	.L58:
 468:Lib/ssc/src/ecatslv.c ****         else if ( SMLength > MAX_MBX_SIZE )
 776              		.loc 1 468 20 view .LVU230
 777 0176 1625     		movs	r5, #22
ARM GAS  /tmp/ccJBQgIh.s 			page 54


 778 0178 9DE7     		b	.L29
 779              	.L59:
 471:Lib/ssc/src/ecatslv.c ****          else if ( SMAddress < MIN_MBX_READ_ADDRESS )
 780              		.loc 1 471 20 view .LVU231
 781 017a 1625     		movs	r5, #22
 782 017c 9BE7     		b	.L29
 783              	.L60:
 474:Lib/ssc/src/ecatslv.c ****         else if ( SMAddress > MAX_MBX_READ_ADDRESS )
 784              		.loc 1 474 20 view .LVU232
 785 017e 1625     		movs	r5, #22
 786 0180 99E7     		b	.L29
 787              	.L61:
 477:Lib/ssc/src/ecatslv.c **** 
 788              		.loc 1 477 20 view .LVU233
 789 0182 1625     		movs	r5, #22
 790 0184 97E7     		b	.L29
 791              	.LVL60:
 792              	.L88:
 552:Lib/ssc/src/ecatslv.c **** /*ECATCHANGE_END(V5.11) HW1*/
 793              		.loc 1 552 9 is_stmt 1 view .LVU234
 552:Lib/ssc/src/ecatslv.c **** /*ECATCHANGE_END(V5.11) HW1*/
 794              		.loc 1 552 20 is_stmt 0 view .LVU235
 795 0186 0220     		movs	r0, #2
 796 0188 FFF7FEFF 		bl	GetSyncMan
 797              	.LVL61:
 555:Lib/ssc/src/ecatslv.c ****     SMAddress = pSyncMan->PhysicalStartAddress;
 798              		.loc 1 555 5 is_stmt 1 view .LVU236
 555:Lib/ssc/src/ecatslv.c ****     SMAddress = pSyncMan->PhysicalStartAddress;
 799              		.loc 1 555 14 is_stmt 0 view .LVU237
 800 018c 4288     		ldrh	r2, [r0, #2]
 801              	.LVL62:
 556:Lib/ssc/src/ecatslv.c **** 
 802              		.loc 1 556 5 is_stmt 1 view .LVU238
 556:Lib/ssc/src/ecatslv.c **** 
 803              		.loc 1 556 15 is_stmt 0 view .LVU239
 804 018e 0188     		ldrh	r1, [r0]
 805              	.LVL63:
 560:Lib/ssc/src/ecatslv.c ****         return ALSTATUSCODE_INVALIDSMCFG;
 806              		.loc 1 560 5 is_stmt 1 view .LVU240
 560:Lib/ssc/src/ecatslv.c ****         return ALSTATUSCODE_INVALIDSMCFG;
 807              		.loc 1 560 8 is_stmt 0 view .LVU241
 808 0190 12F0010F 		tst	r2, #1
 809 0194 40F08680 		bne	.L73
 563:Lib/ssc/src/ecatslv.c ****         return ALSTATUSCODE_INVALIDSMCFG;
 810              		.loc 1 563 5 is_stmt 1 view .LVU242
 563:Lib/ssc/src/ecatslv.c ****         return ALSTATUSCODE_INVALIDSMCFG;
 811              		.loc 1 563 8 is_stmt 0 view .LVU243
 812 0198 11F0010F 		tst	r1, #1
 813 019c 40F08480 		bne	.L74
 567:Lib/ssc/src/ecatslv.c ****             /* the SM2 size is 0 and the SM2 is active */
 814              		.loc 1 567 5 is_stmt 1 view .LVU244
 567:Lib/ssc/src/ecatslv.c ****             /* the SM2 size is 0 and the SM2 is active */
 815              		.loc 1 567 29 is_stmt 0 view .LVU245
 816 01a0 C388     		ldrh	r3, [r0, #6]
 567:Lib/ssc/src/ecatslv.c ****             /* the SM2 size is 0 and the SM2 is active */
 817              		.loc 1 567 8 view .LVU246
 818 01a2 13F00103 		ands	r3, r3, #1
ARM GAS  /tmp/ccJBQgIh.s 			page 55


 819 01a6 01D0     		beq	.L35
 567:Lib/ssc/src/ecatslv.c ****             /* the SM2 size is 0 and the SM2 is active */
 820              		.loc 1 567 90 discriminator 1 view .LVU247
 821 01a8 002A     		cmp	r2, #0
 822 01aa 7FD0     		beq	.L75
 823              	.L35:
 570:Lib/ssc/src/ecatslv.c ****         {
 824              		.loc 1 570 14 is_stmt 1 view .LVU248
 570:Lib/ssc/src/ecatslv.c ****         {
 825              		.loc 1 570 17 is_stmt 0 view .LVU249
 826 01ac 002B     		cmp	r3, #0
 827 01ae 34D0     		beq	.L36
 573:Lib/ssc/src/ecatslv.c **** 
 828              		.loc 1 573 13 is_stmt 1 view .LVU250
 573:Lib/ssc/src/ecatslv.c **** 
 829              		.loc 1 573 27 is_stmt 0 view .LVU251
 830 01b0 374B     		ldr	r3, .L94+20
 831 01b2 1B88     		ldrh	r3, [r3]
 573:Lib/ssc/src/ecatslv.c **** 
 832              		.loc 1 573 16 view .LVU252
 833 01b4 9342     		cmp	r3, r2
 834 01b6 01D0     		beq	.L91
 619:Lib/ssc/src/ecatslv.c ****         }
 835              		.loc 1 619 20 view .LVU253
 836 01b8 1D25     		movs	r5, #29
 837              	.LVL64:
 619:Lib/ssc/src/ecatslv.c ****         }
 838              		.loc 1 619 20 view .LVU254
 839 01ba 51E0     		b	.L27
 840              	.LVL65:
 841              	.L91:
 573:Lib/ssc/src/ecatslv.c **** 
 842              		.loc 1 573 44 discriminator 1 view .LVU255
 843 01bc 002B     		cmp	r3, #0
 844 01be 77D0     		beq	.L77
 573:Lib/ssc/src/ecatslv.c **** 
 845              		.loc 1 573 66 discriminator 2 view .LVU256
 846 01c0 442A     		cmp	r2, #68
 847 01c2 77D8     		bhi	.L78
 577:Lib/ssc/src/ecatslv.c ****                 {
 848              		.loc 1 577 17 is_stmt 1 view .LVU257
 577:Lib/ssc/src/ecatslv.c ****                 {
 849              		.loc 1 577 41 is_stmt 0 view .LVU258
 850 01c4 8388     		ldrh	r3, [r0, #4]
 577:Lib/ssc/src/ecatslv.c ****                 {
 851              		.loc 1 577 20 view .LVU259
 852 01c6 03F00C02 		and	r2, r3, #12
 853              	.LVL66:
 577:Lib/ssc/src/ecatslv.c ****                 {
 854              		.loc 1 577 20 view .LVU260
 855 01ca 042A     		cmp	r2, #4
 856 01cc 01D0     		beq	.L92
 619:Lib/ssc/src/ecatslv.c ****         }
 857              		.loc 1 619 20 view .LVU261
 858 01ce 1D25     		movs	r5, #29
 859              	.LVL67:
 619:Lib/ssc/src/ecatslv.c ****         }
ARM GAS  /tmp/ccJBQgIh.s 			page 56


 860              		.loc 1 619 20 view .LVU262
 861 01d0 46E0     		b	.L27
 862              	.LVL68:
 863              	.L92:
 580:Lib/ssc/src/ecatslv.c ****                        ||( ( nAlStatus != STATE_PREOP )&&( SMAddress == nEscAddrOutputData ) )
 864              		.loc 1 580 21 is_stmt 1 view .LVU263
 580:Lib/ssc/src/ecatslv.c ****                        ||( ( nAlStatus != STATE_PREOP )&&( SMAddress == nEscAddrOutputData ) )
 865              		.loc 1 580 40 is_stmt 0 view .LVU264
 866 01d2 2D4A     		ldr	r2, .L94+12
 867 01d4 1278     		ldrb	r2, [r2]	@ zero_extendqisi2
 580:Lib/ssc/src/ecatslv.c ****                        ||( ( nAlStatus != STATE_PREOP )&&( SMAddress == nEscAddrOutputData ) )
 868              		.loc 1 580 24 view .LVU265
 869 01d6 022A     		cmp	r2, #2
 870 01d8 07D0     		beq	.L93
 871              	.L37:
 581:Lib/ssc/src/ecatslv.c ****                         )
 872              		.loc 1 581 24 view .LVU266
 873 01da 022A     		cmp	r2, #2
 874 01dc 6CD0     		beq	.L80
 581:Lib/ssc/src/ecatslv.c ****                         )
 875              		.loc 1 581 70 discriminator 1 view .LVU267
 876 01de 2D4A     		ldr	r2, .L94+24
 877 01e0 1288     		ldrh	r2, [r2]
 581:Lib/ssc/src/ecatslv.c ****                         )
 878              		.loc 1 581 56 discriminator 1 view .LVU268
 879 01e2 8A42     		cmp	r2, r1
 880 01e4 07D0     		beq	.L38
 619:Lib/ssc/src/ecatslv.c ****         }
 881              		.loc 1 619 20 view .LVU269
 882 01e6 1D25     		movs	r5, #29
 883              	.LVL69:
 619:Lib/ssc/src/ecatslv.c ****         }
 884              		.loc 1 619 20 view .LVU270
 885 01e8 3AE0     		b	.L27
 886              	.LVL70:
 887              	.L93:
 580:Lib/ssc/src/ecatslv.c ****                        ||( ( nAlStatus != STATE_PREOP )&&( SMAddress == nEscAddrOutputData ) )
 888              		.loc 1 580 56 discriminator 1 view .LVU271
 889 01ea B1F5805F 		cmp	r1, #4096
 890 01ee F4D3     		bcc	.L37
 580:Lib/ssc/src/ecatslv.c ****                        ||( ( nAlStatus != STATE_PREOP )&&( SMAddress == nEscAddrOutputData ) )
 891              		.loc 1 580 95 discriminator 2 view .LVU272
 892 01f0 B1F5405F 		cmp	r1, #12288
 893 01f4 F1D2     		bcs	.L37
 894              	.L38:
 587:Lib/ssc/src/ecatslv.c ****                             {
 895              		.loc 1 587 29 is_stmt 1 view .LVU273
 587:Lib/ssc/src/ecatslv.c ****                             {
 896              		.loc 1 587 32 is_stmt 0 view .LVU274
 897 01f6 13F0400F 		tst	r3, #64
 898 01fa 0AD0     		beq	.L39
 589:Lib/ssc/src/ecatslv.c ****                             }
 899              		.loc 1 589 33 is_stmt 1 view .LVU275
 589:Lib/ssc/src/ecatslv.c ****                             }
 900              		.loc 1 589 44 is_stmt 0 view .LVU276
 901 01fc 264A     		ldr	r2, .L94+28
 902 01fe 0121     		movs	r1, #1
ARM GAS  /tmp/ccJBQgIh.s 			page 57


 903              	.LVL71:
 589:Lib/ssc/src/ecatslv.c ****                             }
 904              		.loc 1 589 44 view .LVU277
 905 0200 1170     		strb	r1, [r2]
 906              	.LVL72:
 907              	.L40:
 596:Lib/ssc/src/ecatslv.c ****                                 /* outputs are running in 1-Buffer-Mode, reset flag b3BufferMode */
 908              		.loc 1 596 29 is_stmt 1 view .LVU278
 596:Lib/ssc/src/ecatslv.c ****                                 /* outputs are running in 1-Buffer-Mode, reset flag b3BufferMode */
 909              		.loc 1 596 32 is_stmt 0 view .LVU279
 910 0202 13F0020F 		tst	r3, #2
 911 0206 3FF459AF 		beq	.L31
 598:Lib/ssc/src/ecatslv.c ****                         }
 912              		.loc 1 598 33 is_stmt 1 view .LVU280
 598:Lib/ssc/src/ecatslv.c ****                         }
 913              		.loc 1 598 46 is_stmt 0 view .LVU281
 914 020a 1D4B     		ldr	r3, .L94+4
 915 020c 0022     		movs	r2, #0
 916 020e 1A70     		strb	r2, [r3]
 917 0210 54E7     		b	.L31
 918              	.LVL73:
 919              	.L39:
 593:Lib/ssc/src/ecatslv.c ****                             }
 920              		.loc 1 593 33 is_stmt 1 view .LVU282
 593:Lib/ssc/src/ecatslv.c ****                             }
 921              		.loc 1 593 44 is_stmt 0 view .LVU283
 922 0212 214A     		ldr	r2, .L94+28
 923 0214 0021     		movs	r1, #0
 924              	.LVL74:
 593:Lib/ssc/src/ecatslv.c ****                             }
 925              		.loc 1 593 44 view .LVU284
 926 0216 1170     		strb	r1, [r2]
 927              	.LVL75:
 593:Lib/ssc/src/ecatslv.c ****                             }
 928              		.loc 1 593 44 view .LVU285
 929 0218 F3E7     		b	.L40
 930              	.LVL76:
 931              	.L36:
 613:Lib/ssc/src/ecatslv.c ****             /* output size is not zero although the SM2 channel is not enabled */
 932              		.loc 1 613 14 is_stmt 1 view .LVU286
 613:Lib/ssc/src/ecatslv.c ****             /* output size is not zero although the SM2 channel is not enabled */
 933              		.loc 1 613 17 is_stmt 0 view .LVU287
 934 021a 002A     		cmp	r2, #0
 935 021c 4ED1     		bne	.L82
