ARM GAS  /tmp/ccOuxVYw.s 			page 1


   1              		.cpu cortex-m4
   2              		.arch armv7e-m
   3              		.fpu fpv4-sp-d16
   4              		.eabi_attribute 27, 1
   5              		.eabi_attribute 28, 1
   6              		.eabi_attribute 20, 1
   7              		.eabi_attribute 21, 1
   8              		.eabi_attribute 23, 3
   9              		.eabi_attribute 24, 1
  10              		.eabi_attribute 25, 1
  11              		.eabi_attribute 26, 1
  12              		.eabi_attribute 30, 1
  13              		.eabi_attribute 34, 1
  14              		.eabi_attribute 18, 4
  15              		.file	"el9800appl.c"
  16              		.text
  17              	.Ltext0:
  18              		.cfi_sections	.debug_frame
  19              		.section	.text.APPL_AckErrorInd,"ax",%progbits
  20              		.align	1
  21              		.global	APPL_AckErrorInd
  22              		.syntax unified
  23              		.thumb
  24              		.thumb_func
  26              	APPL_AckErrorInd:
  27              	.LVL0:
  28              	.LFB123:
  29              		.file 1 "Lib/ssc_app/src/el9800appl.c"
   1:Lib/ssc_app/src/el9800appl.c **** // ############################################################
   2:Lib/ssc_app/src/el9800appl.c **** // ÔøΩÔøΩÔøΩÔøΩÔøΩÔøΩ÷ªÔøΩÔøΩ—ßœ∞ πÔøΩ√£ÔøΩŒ¥ÔøΩÔøΩÔøΩÔøΩÔøΩÔøΩÔøΩÔøΩÔøΩ…£ÔøΩÔøΩÔøΩÔøΩÔøΩÔøΩÔøΩÔøΩÔ
   3:Lib/ssc_app/src/el9800appl.c **** // ÔøΩÔøΩ»®ÔøΩÔøΩÔøΩ–£ÔøΩÔøΩÔøΩÔøΩÔøΩÿæÔøΩ
   4:Lib/ssc_app/src/el9800appl.c **** // EtherCATÔøΩÔøΩ’æ—ßœ∞ÔøΩÔøΩ
   5:Lib/ssc_app/src/el9800appl.c **** // AuthorÔøΩÔøΩÕ¢ÔøΩÔøΩÔøΩÔøΩÔøΩÔøΩÔøΩÔøΩÔøΩ
   6:Lib/ssc_app/src/el9800appl.c **** // ÔøΩ‘±ÔøΩÔøΩÔøΩÔøΩÔøΩ: https://shop461235811.taobao.com/
   7:Lib/ssc_app/src/el9800appl.c **** // ÔøΩ“µƒ≤ÔøΩÔøΩÕ£ÔøΩhttps://blog.csdn.net/zhandouhu/article/category/9455918
   8:Lib/ssc_app/src/el9800appl.c **** // ############################################################
   9:Lib/ssc_app/src/el9800appl.c **** /**
  10:Lib/ssc_app/src/el9800appl.c **** \addtogroup EL9800Appl EL9800 application
  11:Lib/ssc_app/src/el9800appl.c **** @{
  12:Lib/ssc_app/src/el9800appl.c **** */
  13:Lib/ssc_app/src/el9800appl.c **** 
  14:Lib/ssc_app/src/el9800appl.c **** /**
  15:Lib/ssc_app/src/el9800appl.c **** \file el9800appl.c
  16:Lib/ssc_app/src/el9800appl.c **** \author EthercatSSC@beckhoff.com
  17:Lib/ssc_app/src/el9800appl.c **** \brief Implementation
  18:Lib/ssc_app/src/el9800appl.c **** 
  19:Lib/ssc_app/src/el9800appl.c **** \version 5.11
  20:Lib/ssc_app/src/el9800appl.c **** 
  21:Lib/ssc_app/src/el9800appl.c **** <br>Changes to version V5.10:<br>
  22:Lib/ssc_app/src/el9800appl.c **** V5.11 ECAT11: create application interface function pointer, add eeprom emulation interface functio
  23:Lib/ssc_app/src/el9800appl.c **** V5.11 EL9800 1: reset outputs on fallback from OP state<br>
  24:Lib/ssc_app/src/el9800appl.c **** <br>Changes to version V5.01:<br>
  25:Lib/ssc_app/src/el9800appl.c **** V5.10 ECAT6: Add "USE_DEFAULT_MAIN" to enable or disable the main function<br>
  26:Lib/ssc_app/src/el9800appl.c **** <br>Changes to version V5.0:<br>
  27:Lib/ssc_app/src/el9800appl.c **** V5.01 EL9800 2: Add TxPdo Parameter object 0x1802<br>
  28:Lib/ssc_app/src/el9800appl.c **** <br>Changes to version V4.30:<br>
  29:Lib/ssc_app/src/el9800appl.c **** V4.50 ECAT2: Create generic application interface functions. Documentation in Application Note ET93
ARM GAS  /tmp/ccOuxVYw.s 			page 2


  30:Lib/ssc_app/src/el9800appl.c **** V4.50 COE2: Handle invalid PDO assign values.<br>
  31:Lib/ssc_app/src/el9800appl.c **** V4.30 : create file
  32:Lib/ssc_app/src/el9800appl.c **** */
  33:Lib/ssc_app/src/el9800appl.c **** 
  34:Lib/ssc_app/src/el9800appl.c **** /*-----------------------------------------------------------------------------------------
  35:Lib/ssc_app/src/el9800appl.c **** ------
  36:Lib/ssc_app/src/el9800appl.c **** ------    Includes
  37:Lib/ssc_app/src/el9800appl.c **** ------
  38:Lib/ssc_app/src/el9800appl.c **** -----------------------------------------------------------------------------------------*/
  39:Lib/ssc_app/src/el9800appl.c **** #include "ecat_def.h"
  40:Lib/ssc_app/src/el9800appl.c **** 
  41:Lib/ssc_app/src/el9800appl.c **** #if EL9800_APPLICATION
  42:Lib/ssc_app/src/el9800appl.c **** 
  43:Lib/ssc_app/src/el9800appl.c **** /* ECATCHANGE_START(V5.11) ECAT11*/
  44:Lib/ssc_app/src/el9800appl.c **** #include "applInterface.h"
  45:Lib/ssc_app/src/el9800appl.c **** /* ECATCHANGE_END(V5.11) ECAT11*/
  46:Lib/ssc_app/src/el9800appl.c **** 
  47:Lib/ssc_app/src/el9800appl.c **** // #include "el9800hw.h"
  48:Lib/ssc_app/src/el9800appl.c **** 
  49:Lib/ssc_app/src/el9800appl.c **** #define _EVALBOARD_
  50:Lib/ssc_app/src/el9800appl.c **** #include "el9800appl.h"
  51:Lib/ssc_app/src/el9800appl.c **** #undef _EVALBOARD_
  52:Lib/ssc_app/src/el9800appl.c **** 
  53:Lib/ssc_app/src/el9800appl.c **** #if MCI_HW
  54:Lib/ssc_app/src/el9800appl.c **** #include "mcihw.h"
  55:Lib/ssc_app/src/el9800appl.c **** #endif
  56:Lib/ssc_app/src/el9800appl.c **** #if EL9800_HW
  57:Lib/ssc_app/src/el9800appl.c **** #include "el9800hw.h"
  58:Lib/ssc_app/src/el9800appl.c **** #endif
  59:Lib/ssc_app/src/el9800appl.c **** /*--------------------------------------------------------------------------------------
  60:Lib/ssc_app/src/el9800appl.c **** ------
  61:Lib/ssc_app/src/el9800appl.c **** ------    local types and defines
  62:Lib/ssc_app/src/el9800appl.c **** ------
  63:Lib/ssc_app/src/el9800appl.c **** --------------------------------------------------------------------------------------*/
  64:Lib/ssc_app/src/el9800appl.c **** 
  65:Lib/ssc_app/src/el9800appl.c **** /*-----------------------------------------------------------------------------------------
  66:Lib/ssc_app/src/el9800appl.c **** ------
  67:Lib/ssc_app/src/el9800appl.c **** ------    local variables and constants
  68:Lib/ssc_app/src/el9800appl.c **** ------
  69:Lib/ssc_app/src/el9800appl.c **** -----------------------------------------------------------------------------------------*/
  70:Lib/ssc_app/src/el9800appl.c **** 
  71:Lib/ssc_app/src/el9800appl.c **** /*-----------------------------------------------------------------------------------------
  72:Lib/ssc_app/src/el9800appl.c **** ------
  73:Lib/ssc_app/src/el9800appl.c **** ------    application specific functions
  74:Lib/ssc_app/src/el9800appl.c **** ------
  75:Lib/ssc_app/src/el9800appl.c **** -----------------------------------------------------------------------------------------*/
  76:Lib/ssc_app/src/el9800appl.c **** 
  77:Lib/ssc_app/src/el9800appl.c **** /*-----------------------------------------------------------------------------------------
  78:Lib/ssc_app/src/el9800appl.c **** ------
  79:Lib/ssc_app/src/el9800appl.c **** ------    generic functions
  80:Lib/ssc_app/src/el9800appl.c **** ------
  81:Lib/ssc_app/src/el9800appl.c **** -----------------------------------------------------------------------------------------*/
  82:Lib/ssc_app/src/el9800appl.c **** 
  83:Lib/ssc_app/src/el9800appl.c **** /////////////////////////////////////////////////////////////////////////////////////////
  84:Lib/ssc_app/src/el9800appl.c **** /**
  85:Lib/ssc_app/src/el9800appl.c ****  \brief    The function is called when an error state was acknowledged by the master
  86:Lib/ssc_app/src/el9800appl.c **** 
ARM GAS  /tmp/ccOuxVYw.s 			page 3


  87:Lib/ssc_app/src/el9800appl.c **** */
  88:Lib/ssc_app/src/el9800appl.c **** ///////////////////////////////////////////////////////////////////////////////////////
  89:Lib/ssc_app/src/el9800appl.c **** 
  90:Lib/ssc_app/src/el9800appl.c **** void APPL_AckErrorInd(UINT16 stateTrans)
  91:Lib/ssc_app/src/el9800appl.c **** {
  30              		.loc 1 91 1 view -0
  31              		.cfi_startproc
  32              		@ args = 0, pretend = 0, frame = 0
  33              		@ frame_needed = 0, uses_anonymous_args = 0
  34              		@ link register save eliminated.
  92:Lib/ssc_app/src/el9800appl.c **** }
  35              		.loc 1 92 1 view .LVU1
  36 0000 7047     		bx	lr
  37              		.cfi_endproc
  38              	.LFE123:
  40              		.section	.text.APPL_StartMailboxHandler,"ax",%progbits
  41              		.align	1
  42              		.global	APPL_StartMailboxHandler
  43              		.syntax unified
  44              		.thumb
  45              		.thumb_func
  47              	APPL_StartMailboxHandler:
  48              	.LFB124:
  93:Lib/ssc_app/src/el9800appl.c **** 
  94:Lib/ssc_app/src/el9800appl.c **** /////////////////////////////////////////////////////////////////////////////////////////
  95:Lib/ssc_app/src/el9800appl.c **** /**
  96:Lib/ssc_app/src/el9800appl.c ****  \return    AL Status Code (see ecatslv.h ALSTATUSCODE_....)
  97:Lib/ssc_app/src/el9800appl.c **** 
  98:Lib/ssc_app/src/el9800appl.c ****  \brief    The function is called in the state transition from INIT to PREOP when
  99:Lib/ssc_app/src/el9800appl.c ****            all general settings were checked to start the mailbox handler. This function
 100:Lib/ssc_app/src/el9800appl.c ****            informs the application about the state transition, the application can refuse
 101:Lib/ssc_app/src/el9800appl.c ****            the state transition when returning an AL Status error code.
 102:Lib/ssc_app/src/el9800appl.c ****            The return code NOERROR_INWORK can be used, if the application cannot confirm
 103:Lib/ssc_app/src/el9800appl.c ****            the state transition immediately, in that case the application need to be complete
 104:Lib/ssc_app/src/el9800appl.c ****            the transition by calling ECAT_StateChange.
 105:Lib/ssc_app/src/el9800appl.c **** 
 106:Lib/ssc_app/src/el9800appl.c **** */
 107:Lib/ssc_app/src/el9800appl.c **** ///////////////////////////////////////////////////////////////////////////////////////
 108:Lib/ssc_app/src/el9800appl.c **** 
 109:Lib/ssc_app/src/el9800appl.c **** UINT16 APPL_StartMailboxHandler(void)
 110:Lib/ssc_app/src/el9800appl.c **** {
  49              		.loc 1 110 1 view -0
  50              		.cfi_startproc
  51              		@ args = 0, pretend = 0, frame = 0
  52              		@ frame_needed = 0, uses_anonymous_args = 0
  53              		@ link register save eliminated.
 111:Lib/ssc_app/src/el9800appl.c ****     return ALSTATUSCODE_NOERROR;
  54              		.loc 1 111 5 view .LVU3
 112:Lib/ssc_app/src/el9800appl.c **** }
  55              		.loc 1 112 1 is_stmt 0 view .LVU4
  56 0000 0020     		movs	r0, #0
  57 0002 7047     		bx	lr
  58              		.cfi_endproc
  59              	.LFE124:
  61              		.section	.text.APPL_StopMailboxHandler,"ax",%progbits
  62              		.align	1
  63              		.global	APPL_StopMailboxHandler
ARM GAS  /tmp/ccOuxVYw.s 			page 4


  64              		.syntax unified
  65              		.thumb
  66              		.thumb_func
  68              	APPL_StopMailboxHandler:
  69              	.LFB125:
 113:Lib/ssc_app/src/el9800appl.c **** 
 114:Lib/ssc_app/src/el9800appl.c **** /////////////////////////////////////////////////////////////////////////////////////////
 115:Lib/ssc_app/src/el9800appl.c **** /**
 116:Lib/ssc_app/src/el9800appl.c ****  \return     0, NOERROR_INWORK
 117:Lib/ssc_app/src/el9800appl.c **** 
 118:Lib/ssc_app/src/el9800appl.c ****  \brief    The function is called in the state transition from PREEOP to INIT
 119:Lib/ssc_app/src/el9800appl.c ****              to stop the mailbox handler. This functions informs the application
 120:Lib/ssc_app/src/el9800appl.c ****              about the state transition, the application cannot refuse
 121:Lib/ssc_app/src/el9800appl.c ****              the state transition.
 122:Lib/ssc_app/src/el9800appl.c **** 
 123:Lib/ssc_app/src/el9800appl.c **** */
 124:Lib/ssc_app/src/el9800appl.c **** ///////////////////////////////////////////////////////////////////////////////////////
 125:Lib/ssc_app/src/el9800appl.c **** 
 126:Lib/ssc_app/src/el9800appl.c **** UINT16 APPL_StopMailboxHandler(void)
 127:Lib/ssc_app/src/el9800appl.c **** {
  70              		.loc 1 127 1 is_stmt 1 view -0
  71              		.cfi_startproc
  72              		@ args = 0, pretend = 0, frame = 0
  73              		@ frame_needed = 0, uses_anonymous_args = 0
  74              		@ link register save eliminated.
 128:Lib/ssc_app/src/el9800appl.c ****     return ALSTATUSCODE_NOERROR;
  75              		.loc 1 128 5 view .LVU6
 129:Lib/ssc_app/src/el9800appl.c **** }
  76              		.loc 1 129 1 is_stmt 0 view .LVU7
  77 0000 0020     		movs	r0, #0
  78 0002 7047     		bx	lr
  79              		.cfi_endproc
  80              	.LFE125:
  82              		.section	.text.APPL_StartInputHandler,"ax",%progbits
  83              		.align	1
  84              		.global	APPL_StartInputHandler
  85              		.syntax unified
  86              		.thumb
  87              		.thumb_func
  89              	APPL_StartInputHandler:
  90              	.LVL1:
  91              	.LFB126:
 130:Lib/ssc_app/src/el9800appl.c **** 
 131:Lib/ssc_app/src/el9800appl.c **** /////////////////////////////////////////////////////////////////////////////////////////
 132:Lib/ssc_app/src/el9800appl.c **** /**
 133:Lib/ssc_app/src/el9800appl.c ****  \param    pIntMask    pointer to the AL Event Mask which will be written to the AL event Mask
 134:Lib/ssc_app/src/el9800appl.c ****                         register (0x204) when this function is succeeded. The event mask can be ada
 135:Lib/ssc_app/src/el9800appl.c ****                         in this function
 136:Lib/ssc_app/src/el9800appl.c ****  \return    AL Status Code (see ecatslv.h ALSTATUSCODE_....)
 137:Lib/ssc_app/src/el9800appl.c **** 
 138:Lib/ssc_app/src/el9800appl.c ****  \brief    The function is called in the state transition from PREOP to SAFEOP when
 139:Lib/ssc_app/src/el9800appl.c ****              all general settings were checked to start the input handler. This function
 140:Lib/ssc_app/src/el9800appl.c ****              informs the application about the state transition, the application can refuse
 141:Lib/ssc_app/src/el9800appl.c ****              the state transition when returning an AL Status error code.
 142:Lib/ssc_app/src/el9800appl.c ****             The return code NOERROR_INWORK can be used, if the application cannot confirm
 143:Lib/ssc_app/src/el9800appl.c ****             the state transition immediately, in that case the application need to be complete
 144:Lib/ssc_app/src/el9800appl.c ****             the transition by calling ECAT_StateChange.
ARM GAS  /tmp/ccOuxVYw.s 			page 5


 145:Lib/ssc_app/src/el9800appl.c **** */
 146:Lib/ssc_app/src/el9800appl.c **** ///////////////////////////////////////////////////////////////////////////////////////
 147:Lib/ssc_app/src/el9800appl.c **** 
 148:Lib/ssc_app/src/el9800appl.c **** UINT16 APPL_StartInputHandler(UINT16 *pIntMask)
 149:Lib/ssc_app/src/el9800appl.c **** {
  92              		.loc 1 149 1 is_stmt 1 view -0
  93              		.cfi_startproc
  94              		@ args = 0, pretend = 0, frame = 0
  95              		@ frame_needed = 0, uses_anonymous_args = 0
  96              		@ link register save eliminated.
 150:Lib/ssc_app/src/el9800appl.c ****     return ALSTATUSCODE_NOERROR;
  97              		.loc 1 150 5 view .LVU9
 151:Lib/ssc_app/src/el9800appl.c **** }
  98              		.loc 1 151 1 is_stmt 0 view .LVU10
  99 0000 0020     		movs	r0, #0
 100              	.LVL2:
 101              		.loc 1 151 1 view .LVU11
 102 0002 7047     		bx	lr
 103              		.cfi_endproc
 104              	.LFE126:
 106              		.section	.text.APPL_StopInputHandler,"ax",%progbits
 107              		.align	1
 108              		.global	APPL_StopInputHandler
 109              		.syntax unified
 110              		.thumb
 111              		.thumb_func
 113              	APPL_StopInputHandler:
 114              	.LFB127:
 152:Lib/ssc_app/src/el9800appl.c **** 
 153:Lib/ssc_app/src/el9800appl.c **** /////////////////////////////////////////////////////////////////////////////////////////
 154:Lib/ssc_app/src/el9800appl.c **** /**
 155:Lib/ssc_app/src/el9800appl.c ****  \return     0, NOERROR_INWORK
 156:Lib/ssc_app/src/el9800appl.c **** 
 157:Lib/ssc_app/src/el9800appl.c ****  \brief    The function is called in the state transition from SAFEOP to PREEOP
 158:Lib/ssc_app/src/el9800appl.c ****              to stop the input handler. This functions informs the application
 159:Lib/ssc_app/src/el9800appl.c ****              about the state transition, the application cannot refuse
 160:Lib/ssc_app/src/el9800appl.c ****              the state transition.
 161:Lib/ssc_app/src/el9800appl.c **** 
 162:Lib/ssc_app/src/el9800appl.c **** */
 163:Lib/ssc_app/src/el9800appl.c **** ///////////////////////////////////////////////////////////////////////////////////////
 164:Lib/ssc_app/src/el9800appl.c **** 
 165:Lib/ssc_app/src/el9800appl.c **** UINT16 APPL_StopInputHandler(void)
 166:Lib/ssc_app/src/el9800appl.c **** {
 115              		.loc 1 166 1 is_stmt 1 view -0
 116              		.cfi_startproc
 117              		@ args = 0, pretend = 0, frame = 0
 118              		@ frame_needed = 0, uses_anonymous_args = 0
 119              		@ link register save eliminated.
 167:Lib/ssc_app/src/el9800appl.c ****     return ALSTATUSCODE_NOERROR;
 120              		.loc 1 167 5 view .LVU13
 168:Lib/ssc_app/src/el9800appl.c **** }
 121              		.loc 1 168 1 is_stmt 0 view .LVU14
 122 0000 0020     		movs	r0, #0
 123 0002 7047     		bx	lr
 124              		.cfi_endproc
 125              	.LFE127:
 127              		.section	.text.APPL_StartOutputHandler,"ax",%progbits
ARM GAS  /tmp/ccOuxVYw.s 			page 6


 128              		.align	1
 129              		.global	APPL_StartOutputHandler
 130              		.syntax unified
 131              		.thumb
 132              		.thumb_func
 134              	APPL_StartOutputHandler:
 135              	.LFB128:
 169:Lib/ssc_app/src/el9800appl.c **** 
 170:Lib/ssc_app/src/el9800appl.c **** /////////////////////////////////////////////////////////////////////////////////////////
 171:Lib/ssc_app/src/el9800appl.c **** /**
 172:Lib/ssc_app/src/el9800appl.c ****  \return    AL Status Code (see ecatslv.h ALSTATUSCODE_....)
 173:Lib/ssc_app/src/el9800appl.c **** 
 174:Lib/ssc_app/src/el9800appl.c ****  \brief    The function is called in the state transition from SAFEOP to OP when
 175:Lib/ssc_app/src/el9800appl.c ****              all general settings were checked to start the output handler. This function
 176:Lib/ssc_app/src/el9800appl.c ****              informs the application about the state transition, the application can refuse
 177:Lib/ssc_app/src/el9800appl.c ****              the state transition when returning an AL Status error code.
 178:Lib/ssc_app/src/el9800appl.c ****            The return code NOERROR_INWORK can be used, if the application cannot confirm
 179:Lib/ssc_app/src/el9800appl.c ****            the state transition immediately, in that case the application need to be complete
 180:Lib/ssc_app/src/el9800appl.c ****            the transition by calling ECAT_StateChange.
 181:Lib/ssc_app/src/el9800appl.c **** */
 182:Lib/ssc_app/src/el9800appl.c **** ///////////////////////////////////////////////////////////////////////////////////////
 183:Lib/ssc_app/src/el9800appl.c **** 
 184:Lib/ssc_app/src/el9800appl.c **** UINT16 APPL_StartOutputHandler(void)
 185:Lib/ssc_app/src/el9800appl.c **** {
 136              		.loc 1 185 1 is_stmt 1 view -0
 137              		.cfi_startproc
 138              		@ args = 0, pretend = 0, frame = 0
 139              		@ frame_needed = 0, uses_anonymous_args = 0
 140              		@ link register save eliminated.
 186:Lib/ssc_app/src/el9800appl.c ****     return ALSTATUSCODE_NOERROR;
 141              		.loc 1 186 5 view .LVU16
 187:Lib/ssc_app/src/el9800appl.c **** }
 142              		.loc 1 187 1 is_stmt 0 view .LVU17
 143 0000 0020     		movs	r0, #0
 144 0002 7047     		bx	lr
 145              		.cfi_endproc
 146              	.LFE128:
 148              		.section	.text.APPL_StopOutputHandler,"ax",%progbits
 149              		.align	1
 150              		.global	APPL_StopOutputHandler
 151              		.syntax unified
 152              		.thumb
 153              		.thumb_func
 155              	APPL_StopOutputHandler:
 156              	.LFB129:
 188:Lib/ssc_app/src/el9800appl.c **** 
 189:Lib/ssc_app/src/el9800appl.c **** /////////////////////////////////////////////////////////////////////////////////////////
 190:Lib/ssc_app/src/el9800appl.c **** /**
 191:Lib/ssc_app/src/el9800appl.c ****  \return     0, NOERROR_INWORK
 192:Lib/ssc_app/src/el9800appl.c **** 
 193:Lib/ssc_app/src/el9800appl.c ****  \brief    The function is called in the state transition from OP to SAFEOP
 194:Lib/ssc_app/src/el9800appl.c ****              to stop the output handler. This functions informs the application
 195:Lib/ssc_app/src/el9800appl.c ****              about the state transition, the application cannot refuse
 196:Lib/ssc_app/src/el9800appl.c ****              the state transition.
 197:Lib/ssc_app/src/el9800appl.c **** 
 198:Lib/ssc_app/src/el9800appl.c **** */
 199:Lib/ssc_app/src/el9800appl.c **** ///////////////////////////////////////////////////////////////////////////////////////
ARM GAS  /tmp/ccOuxVYw.s 			page 7


 200:Lib/ssc_app/src/el9800appl.c **** 
 201:Lib/ssc_app/src/el9800appl.c **** #include "bsp_led.h"
 202:Lib/ssc_app/src/el9800appl.c **** 
 203:Lib/ssc_app/src/el9800appl.c **** extern CanTxMsg Can1_TxMessage; // ÂèëÈÄÅÁºìÂÜ≤Âå∫
 204:Lib/ssc_app/src/el9800appl.c **** extern CanRxMsg Can1_RxMessage; // Êé•Êî∂ÁºìÂÜ≤Âå∫
 205:Lib/ssc_app/src/el9800appl.c **** 
 206:Lib/ssc_app/src/el9800appl.c **** extern CanTxMsg Can2_TxMessage; // ÂèëÈÄÅÁºìÂÜ≤Âå∫
 207:Lib/ssc_app/src/el9800appl.c **** extern CanRxMsg Can2_RxMessage; // Êé•Êî∂ÁºìÂÜ≤Âå∫
 208:Lib/ssc_app/src/el9800appl.c **** 
 209:Lib/ssc_app/src/el9800appl.c **** UINT16 APPL_StopOutputHandler(void)
 210:Lib/ssc_app/src/el9800appl.c **** {
 157              		.loc 1 210 1 is_stmt 1 view -0
 158              		.cfi_startproc
 159              		@ args = 0, pretend = 0, frame = 0
 160              		@ frame_needed = 0, uses_anonymous_args = 0
 161              		@ link register save eliminated.
 211:Lib/ssc_app/src/el9800appl.c ****     /*ECATCHANGE_START(V5.11) EL9800 1*/
 212:Lib/ssc_app/src/el9800appl.c ****     sDOOutputs.bLED1 = 0;
 162              		.loc 1 212 5 view .LVU19
 163              		.loc 1 212 22 is_stmt 0 view .LVU20
 164 0000 1F4B     		ldr	r3, .L8
 165 0002 9A78     		ldrb	r2, [r3, #2]	@ zero_extendqisi2
 166 0004 6FF30002 		bfc	r2, #0, #1
 167 0008 9A70     		strb	r2, [r3, #2]
 213:Lib/ssc_app/src/el9800appl.c ****     sDOOutputs.bLED2 = 0;
 168              		.loc 1 213 5 is_stmt 1 view .LVU21
 169              		.loc 1 213 22 is_stmt 0 view .LVU22
 170 000a D2B2     		uxtb	r2, r2
 171 000c 6FF34102 		bfc	r2, #1, #1
 172 0010 9A70     		strb	r2, [r3, #2]
 214:Lib/ssc_app/src/el9800appl.c ****     sDOOutputs.bLED3 = 0;
 173              		.loc 1 214 5 is_stmt 1 view .LVU23
 174              		.loc 1 214 22 is_stmt 0 view .LVU24
 175 0012 D2B2     		uxtb	r2, r2
 176 0014 6FF38202 		bfc	r2, #2, #1
 177 0018 9A70     		strb	r2, [r3, #2]
 215:Lib/ssc_app/src/el9800appl.c ****     sDOOutputs.bLED4 = 0;
 178              		.loc 1 215 5 is_stmt 1 view .LVU25
 179              		.loc 1 215 22 is_stmt 0 view .LVU26
 180 001a D2B2     		uxtb	r2, r2
 181 001c 6FF3C302 		bfc	r2, #3, #1
 182 0020 9A70     		strb	r2, [r3, #2]
 216:Lib/ssc_app/src/el9800appl.c ****     sDOOutputs.bLED5 = 0;
 183              		.loc 1 216 5 is_stmt 1 view .LVU27
 184              		.loc 1 216 22 is_stmt 0 view .LVU28
 185 0022 D2B2     		uxtb	r2, r2
 186 0024 6FF30412 		bfc	r2, #4, #1
 187 0028 9A70     		strb	r2, [r3, #2]
 217:Lib/ssc_app/src/el9800appl.c ****     sDOOutputs.bLED7 = 0;
 188              		.loc 1 217 5 is_stmt 1 view .LVU29
 189              		.loc 1 217 22 is_stmt 0 view .LVU30
 190 002a D2B2     		uxtb	r2, r2
 191 002c 6FF38612 		bfc	r2, #6, #1
 192 0030 9A70     		strb	r2, [r3, #2]
 218:Lib/ssc_app/src/el9800appl.c ****     sDOOutputs.bLED6 = 0;
 193              		.loc 1 218 5 is_stmt 1 view .LVU31
 194              		.loc 1 218 22 is_stmt 0 view .LVU32
ARM GAS  /tmp/ccOuxVYw.s 			page 8


 195 0032 D2B2     		uxtb	r2, r2
 196 0034 6FF34512 		bfc	r2, #5, #1
 197 0038 9A70     		strb	r2, [r3, #2]
 219:Lib/ssc_app/src/el9800appl.c ****     sDOOutputs.bLED8 = 0;
 198              		.loc 1 219 5 is_stmt 1 view .LVU33
 199              		.loc 1 219 22 is_stmt 0 view .LVU34
 200 003a D2B2     		uxtb	r2, r2
 201 003c 6FF3C712 		bfc	r2, #7, #1
 202 0040 9A70     		strb	r2, [r3, #2]
 220:Lib/ssc_app/src/el9800appl.c **** 
 221:Lib/ssc_app/src/el9800appl.c ****     Can1_TxMessage.StdId = 0;
 203              		.loc 1 221 5 is_stmt 1 view .LVU35
 204              		.loc 1 221 26 is_stmt 0 view .LVU36
 205 0042 104B     		ldr	r3, .L8+4
 206 0044 0020     		movs	r0, #0
 207 0046 1860     		str	r0, [r3]
 222:Lib/ssc_app/src/el9800appl.c ****     Can1_TxMessage.ExtId = 0;
 208              		.loc 1 222 5 is_stmt 1 view .LVU37
 209              		.loc 1 222 26 is_stmt 0 view .LVU38
 210 0048 5860     		str	r0, [r3, #4]
 223:Lib/ssc_app/src/el9800appl.c ****     Can1_TxMessage.IDE = 0;
 211              		.loc 1 223 5 is_stmt 1 view .LVU39
 212              		.loc 1 223 24 is_stmt 0 view .LVU40
 213 004a 1872     		strb	r0, [r3, #8]
 224:Lib/ssc_app/src/el9800appl.c ****     Can1_TxMessage.RTR = 0;
 214              		.loc 1 224 5 is_stmt 1 view .LVU41
 215              		.loc 1 224 24 is_stmt 0 view .LVU42
 216 004c 5872     		strb	r0, [r3, #9]
 225:Lib/ssc_app/src/el9800appl.c ****     Can1_TxMessage.DLC = 0;
 217              		.loc 1 225 5 is_stmt 1 view .LVU43
 218              		.loc 1 225 24 is_stmt 0 view .LVU44
 219 004e 9872     		strb	r0, [r3, #10]
 226:Lib/ssc_app/src/el9800appl.c **** 
 227:Lib/ssc_app/src/el9800appl.c ****     Can1_TxMessage.Data[0] = 0;
 220              		.loc 1 227 5 is_stmt 1 view .LVU45
 221              		.loc 1 227 28 is_stmt 0 view .LVU46
 222 0050 D872     		strb	r0, [r3, #11]
 228:Lib/ssc_app/src/el9800appl.c ****     Can1_TxMessage.Data[1] = 0;
 223              		.loc 1 228 5 is_stmt 1 view .LVU47
 224              		.loc 1 228 28 is_stmt 0 view .LVU48
 225 0052 1873     		strb	r0, [r3, #12]
 229:Lib/ssc_app/src/el9800appl.c ****     Can1_TxMessage.Data[2] = 0;
 226              		.loc 1 229 5 is_stmt 1 view .LVU49
 227              		.loc 1 229 28 is_stmt 0 view .LVU50
 228 0054 5873     		strb	r0, [r3, #13]
 230:Lib/ssc_app/src/el9800appl.c ****     Can1_TxMessage.Data[3] = 0;
 229              		.loc 1 230 5 is_stmt 1 view .LVU51
 230              		.loc 1 230 28 is_stmt 0 view .LVU52
 231 0056 9873     		strb	r0, [r3, #14]
 231:Lib/ssc_app/src/el9800appl.c ****     Can1_TxMessage.Data[4] = 0;
 232              		.loc 1 231 5 is_stmt 1 view .LVU53
 233              		.loc 1 231 28 is_stmt 0 view .LVU54
 234 0058 D873     		strb	r0, [r3, #15]
 232:Lib/ssc_app/src/el9800appl.c ****     Can1_TxMessage.Data[5] = 0;
 235              		.loc 1 232 5 is_stmt 1 view .LVU55
 236              		.loc 1 232 28 is_stmt 0 view .LVU56
 237 005a 1874     		strb	r0, [r3, #16]
ARM GAS  /tmp/ccOuxVYw.s 			page 9


 233:Lib/ssc_app/src/el9800appl.c ****     Can1_TxMessage.Data[6] = 0;
 238              		.loc 1 233 5 is_stmt 1 view .LVU57
 239              		.loc 1 233 28 is_stmt 0 view .LVU58
 240 005c 5874     		strb	r0, [r3, #17]
 234:Lib/ssc_app/src/el9800appl.c ****     Can1_TxMessage.Data[7] = 0;
 241              		.loc 1 234 5 is_stmt 1 view .LVU59
 242              		.loc 1 234 28 is_stmt 0 view .LVU60
 243 005e 9874     		strb	r0, [r3, #18]
 235:Lib/ssc_app/src/el9800appl.c **** 
 236:Lib/ssc_app/src/el9800appl.c ****     Can2_TxMessage.StdId = 0;
 244              		.loc 1 236 5 is_stmt 1 view .LVU61
 245              		.loc 1 236 26 is_stmt 0 view .LVU62
 246 0060 094B     		ldr	r3, .L8+8
 247 0062 1860     		str	r0, [r3]
 237:Lib/ssc_app/src/el9800appl.c ****     Can2_TxMessage.ExtId = 0;
 248              		.loc 1 237 5 is_stmt 1 view .LVU63
 249              		.loc 1 237 26 is_stmt 0 view .LVU64
 250 0064 5860     		str	r0, [r3, #4]
 238:Lib/ssc_app/src/el9800appl.c ****     Can2_TxMessage.IDE = 0;
 251              		.loc 1 238 5 is_stmt 1 view .LVU65
 252              		.loc 1 238 24 is_stmt 0 view .LVU66
 253 0066 1872     		strb	r0, [r3, #8]
 239:Lib/ssc_app/src/el9800appl.c ****     Can2_TxMessage.RTR = 0;
 254              		.loc 1 239 5 is_stmt 1 view .LVU67
 255              		.loc 1 239 24 is_stmt 0 view .LVU68
 256 0068 5872     		strb	r0, [r3, #9]
 240:Lib/ssc_app/src/el9800appl.c ****     Can2_TxMessage.DLC = 0;
 257              		.loc 1 240 5 is_stmt 1 view .LVU69
 258              		.loc 1 240 24 is_stmt 0 view .LVU70
 259 006a 9872     		strb	r0, [r3, #10]
 241:Lib/ssc_app/src/el9800appl.c **** 
 242:Lib/ssc_app/src/el9800appl.c ****     Can2_TxMessage.Data[0] = 0;
 260              		.loc 1 242 5 is_stmt 1 view .LVU71
 261              		.loc 1 242 28 is_stmt 0 view .LVU72
 262 006c D872     		strb	r0, [r3, #11]
 243:Lib/ssc_app/src/el9800appl.c ****     Can2_TxMessage.Data[1] = 0;
 263              		.loc 1 243 5 is_stmt 1 view .LVU73
 264              		.loc 1 243 28 is_stmt 0 view .LVU74
 265 006e 1873     		strb	r0, [r3, #12]
 244:Lib/ssc_app/src/el9800appl.c ****     Can2_TxMessage.Data[2] = 0;
 266              		.loc 1 244 5 is_stmt 1 view .LVU75
 267              		.loc 1 244 28 is_stmt 0 view .LVU76
 268 0070 5873     		strb	r0, [r3, #13]
 245:Lib/ssc_app/src/el9800appl.c ****     Can2_TxMessage.Data[3] = 0;
 269              		.loc 1 245 5 is_stmt 1 view .LVU77
 270              		.loc 1 245 28 is_stmt 0 view .LVU78
 271 0072 9873     		strb	r0, [r3, #14]
 246:Lib/ssc_app/src/el9800appl.c ****     Can2_TxMessage.Data[4] = 0;
 272              		.loc 1 246 5 is_stmt 1 view .LVU79
 273              		.loc 1 246 28 is_stmt 0 view .LVU80
 274 0074 D873     		strb	r0, [r3, #15]
 247:Lib/ssc_app/src/el9800appl.c ****     Can2_TxMessage.Data[5] = 0;
 275              		.loc 1 247 5 is_stmt 1 view .LVU81
 276              		.loc 1 247 28 is_stmt 0 view .LVU82
 277 0076 1874     		strb	r0, [r3, #16]
 248:Lib/ssc_app/src/el9800appl.c ****     Can2_TxMessage.Data[6] = 0;
 278              		.loc 1 248 5 is_stmt 1 view .LVU83
ARM GAS  /tmp/ccOuxVYw.s 			page 10


 279              		.loc 1 248 28 is_stmt 0 view .LVU84
 280 0078 5874     		strb	r0, [r3, #17]
 249:Lib/ssc_app/src/el9800appl.c ****     Can2_TxMessage.Data[7] = 0;
 281              		.loc 1 249 5 is_stmt 1 view .LVU85
 282              		.loc 1 249 28 is_stmt 0 view .LVU86
 283 007a 9874     		strb	r0, [r3, #18]
 250:Lib/ssc_app/src/el9800appl.c **** 
 251:Lib/ssc_app/src/el9800appl.c ****     /*ECATCHANGE_END(V5.11) EL9800 1*/
 252:Lib/ssc_app/src/el9800appl.c ****     return ALSTATUSCODE_NOERROR;
 284              		.loc 1 252 5 is_stmt 1 view .LVU87
 253:Lib/ssc_app/src/el9800appl.c **** }
 285              		.loc 1 253 1 is_stmt 0 view .LVU88
 286 007c 7047     		bx	lr
 287              	.L9:
 288 007e 00BF     		.align	2
 289              	.L8:
 290 0080 00000000 		.word	.LANCHOR0
 291 0084 00000000 		.word	Can1_TxMessage
 292 0088 00000000 		.word	Can2_TxMessage
 293              		.cfi_endproc
 294              	.LFE129:
 296              		.section	.text.APPL_GenerateMapping,"ax",%progbits
 297              		.align	1
 298              		.global	APPL_GenerateMapping
 299              		.syntax unified
 300              		.thumb
 301              		.thumb_func
 303              	APPL_GenerateMapping:
 304              	.LVL3:
 305              	.LFB130:
 254:Lib/ssc_app/src/el9800appl.c **** 
 255:Lib/ssc_app/src/el9800appl.c **** /////////////////////////////////////////////////////////////////////////////////////////
 256:Lib/ssc_app/src/el9800appl.c **** /**
 257:Lib/ssc_app/src/el9800appl.c **** \return     0(ALSTATUSCODE_NOERROR), NOERROR_INWORK
 258:Lib/ssc_app/src/el9800appl.c **** \param      pInputSize  pointer to save the input process data length
 259:Lib/ssc_app/src/el9800appl.c **** \param      pOutputSize  pointer to save the output process data length
 260:Lib/ssc_app/src/el9800appl.c **** 
 261:Lib/ssc_app/src/el9800appl.c **** \brief    This function calculates the process data sizes from the actual SM-PDO-Assign
 262:Lib/ssc_app/src/el9800appl.c ****             and PDO mapping
 263:Lib/ssc_app/src/el9800appl.c **** */
 264:Lib/ssc_app/src/el9800appl.c **** ///////////////////////////////////////////////////////////////////////////////////////
 265:Lib/ssc_app/src/el9800appl.c **** UINT16 APPL_GenerateMapping(UINT16 *pInputSize, UINT16 *pOutputSize)
 266:Lib/ssc_app/src/el9800appl.c **** {
 306              		.loc 1 266 1 is_stmt 1 view -0
 307              		.cfi_startproc
 308              		@ args = 0, pretend = 0, frame = 8
 309              		@ frame_needed = 0, uses_anonymous_args = 0
 310              		.loc 1 266 1 is_stmt 0 view .LVU90
 311 0000 2DE9F04F 		push	{r4, r5, r6, r7, r8, r9, r10, fp, lr}
 312              		.cfi_def_cfa_offset 36
 313              		.cfi_offset 4, -36
 314              		.cfi_offset 5, -32
 315              		.cfi_offset 6, -28
 316              		.cfi_offset 7, -24
 317              		.cfi_offset 8, -20
 318              		.cfi_offset 9, -16
 319              		.cfi_offset 10, -12
ARM GAS  /tmp/ccOuxVYw.s 			page 11


 320              		.cfi_offset 11, -8
 321              		.cfi_offset 14, -4
 322 0004 83B0     		sub	sp, sp, #12
 323              		.cfi_def_cfa_offset 48
 324 0006 0090     		str	r0, [sp]
 325 0008 0191     		str	r1, [sp, #4]
 267:Lib/ssc_app/src/el9800appl.c **** #if COE_SUPPORTED
 268:Lib/ssc_app/src/el9800appl.c ****     UINT16 result = ALSTATUSCODE_NOERROR;
 326              		.loc 1 268 5 is_stmt 1 view .LVU91
 327              	.LVL4:
 269:Lib/ssc_app/src/el9800appl.c ****     UINT16 PDOAssignEntryCnt = 0;
 328              		.loc 1 269 5 view .LVU92
 270:Lib/ssc_app/src/el9800appl.c ****     OBJCONST TOBJECT OBJMEM *pPDO = NULL;
 329              		.loc 1 270 5 view .LVU93
 271:Lib/ssc_app/src/el9800appl.c ****     UINT16 PDOSubindex0 = 0;
 330              		.loc 1 271 5 view .LVU94
 272:Lib/ssc_app/src/el9800appl.c ****     UINT32 *pPDOEntry = NULL;
 331              		.loc 1 272 5 view .LVU95
 273:Lib/ssc_app/src/el9800appl.c ****     UINT16 PDOEntryCnt = 0;
 332              		.loc 1 273 5 view .LVU96
 274:Lib/ssc_app/src/el9800appl.c ****     UINT16 InputSize = 0;
 333              		.loc 1 274 5 view .LVU97
 275:Lib/ssc_app/src/el9800appl.c ****     UINT16 OutputSize = 0;
 334              		.loc 1 275 5 view .LVU98
 276:Lib/ssc_app/src/el9800appl.c **** 
 277:Lib/ssc_app/src/el9800appl.c ****     /*Scan object 0x1C12 RXPDO assign*/
 278:Lib/ssc_app/src/el9800appl.c ****     for (PDOAssignEntryCnt = 0; PDOAssignEntryCnt < sRxPDOassign.u16SubIndex0; PDOAssignEntryCnt++)
 335              		.loc 1 278 5 view .LVU99
 275:Lib/ssc_app/src/el9800appl.c ****     UINT16 OutputSize = 0;
 336              		.loc 1 275 12 is_stmt 0 view .LVU100
 337 000a 0026     		movs	r6, #0
 338              		.loc 1 278 28 view .LVU101
 339 000c B046     		mov	r8, r6
 340              		.loc 1 278 5 view .LVU102
 341 000e 14E0     		b	.L11
 342              	.LVL5:
 343              	.L14:
 279:Lib/ssc_app/src/el9800appl.c ****     {
 280:Lib/ssc_app/src/el9800appl.c ****         pPDO = OBJ_GetObjectHandle(sRxPDOassign.aEntries[PDOAssignEntryCnt]);
 281:Lib/ssc_app/src/el9800appl.c ****         if (pPDO != NULL)
 282:Lib/ssc_app/src/el9800appl.c ****         {
 283:Lib/ssc_app/src/el9800appl.c ****             PDOSubindex0 = *((UINT16 *)pPDO->pVarPtr);
 284:Lib/ssc_app/src/el9800appl.c ****             for (PDOEntryCnt = 0; PDOEntryCnt < PDOSubindex0; PDOEntryCnt++)
 285:Lib/ssc_app/src/el9800appl.c ****             {
 286:Lib/ssc_app/src/el9800appl.c ****                 //				result = *(UINT8 *)pPDO->pVarPtr;
 287:Lib/ssc_app/src/el9800appl.c ****                 //				result=(OBJ_GetEntryOffset((PDOEntryCnt+1),pPDO)>>3);
 288:Lib/ssc_app/src/el9800appl.c ****                 pPDOEntry = (UINT32 *)((UINT8 *)pPDO->pVarPtr + (OBJ_GetEntryOffset((PDOEntryCnt + 
 344              		.loc 1 288 17 is_stmt 1 discriminator 3 view .LVU103
 345              		.loc 1 288 53 is_stmt 0 discriminator 3 view .LVU104
 346 0010 D5F81890 		ldr	r9, [r5, #24]
 347              		.loc 1 288 66 discriminator 3 view .LVU105
 348 0014 601C     		adds	r0, r4, #1
 349 0016 2946     		mov	r1, r5
 350 0018 C0B2     		uxtb	r0, r0
 351 001a FFF7FEFF 		bl	OBJ_GetEntryOffset
 352              	.LVL6:
 353              		.loc 1 288 110 discriminator 3 view .LVU106
ARM GAS  /tmp/ccOuxVYw.s 			page 12


 354 001e C0F3CF00 		ubfx	r0, r0, #3, #16
 355              	.LVL7:
 289:Lib/ssc_app/src/el9800appl.c ****                 // we increment the expected output size depending on the mapped Entry
 290:Lib/ssc_app/src/el9800appl.c ****                 OutputSize += (UINT16)((*pPDOEntry) & 0xFF);
 356              		.loc 1 290 17 is_stmt 1 discriminator 3 view .LVU107
 357              		.loc 1 290 31 is_stmt 0 discriminator 3 view .LVU108
 358 0022 19F80030 		ldrb	r3, [r9, r0]	@ zero_extendqisi2
 359              		.loc 1 290 28 discriminator 3 view .LVU109
 360 0026 3344     		add	r3, r3, r6
 361 0028 9EB2     		uxth	r6, r3
 362              	.LVL8:
 284:Lib/ssc_app/src/el9800appl.c ****             {
 363              		.loc 1 284 63 is_stmt 1 discriminator 3 view .LVU110
 284:Lib/ssc_app/src/el9800appl.c ****             {
 364              		.loc 1 284 74 is_stmt 0 discriminator 3 view .LVU111
 365 002a 0134     		adds	r4, r4, #1
 366              	.LVL9:
 284:Lib/ssc_app/src/el9800appl.c ****             {
 367              		.loc 1 284 74 discriminator 3 view .LVU112
 368 002c A4B2     		uxth	r4, r4
 369              	.LVL10:
 370              	.L13:
 284:Lib/ssc_app/src/el9800appl.c ****             {
 371              		.loc 1 284 35 is_stmt 1 discriminator 1 view .LVU113
 284:Lib/ssc_app/src/el9800appl.c ****             {
 372              		.loc 1 284 13 is_stmt 0 discriminator 1 view .LVU114
 373 002e BC42     		cmp	r4, r7
 374 0030 EED3     		bcc	.L14
 278:Lib/ssc_app/src/el9800appl.c ****     {
 375              		.loc 1 278 80 is_stmt 1 discriminator 2 view .LVU115
 278:Lib/ssc_app/src/el9800appl.c ****     {
 376              		.loc 1 278 97 is_stmt 0 discriminator 2 view .LVU116
 377 0032 08F10108 		add	r8, r8, #1
 378              	.LVL11:
 278:Lib/ssc_app/src/el9800appl.c ****     {
 379              		.loc 1 278 97 discriminator 2 view .LVU117
 380 0036 1FFA88F8 		uxth	r8, r8
 381              	.LVL12:
 382              	.L11:
 278:Lib/ssc_app/src/el9800appl.c ****     {
 383              		.loc 1 278 33 is_stmt 1 discriminator 1 view .LVU118
 278:Lib/ssc_app/src/el9800appl.c ****     {
 384              		.loc 1 278 65 is_stmt 0 discriminator 1 view .LVU119
 385 003a 2A4B     		ldr	r3, .L26
 386 003c 1B88     		ldrh	r3, [r3]
 278:Lib/ssc_app/src/el9800appl.c ****     {
 387              		.loc 1 278 5 discriminator 1 view .LVU120
 388 003e 4345     		cmp	r3, r8
 389 0040 0BD9     		bls	.L25
 280:Lib/ssc_app/src/el9800appl.c ****         if (pPDO != NULL)
 390              		.loc 1 280 9 is_stmt 1 view .LVU121
 280:Lib/ssc_app/src/el9800appl.c ****         if (pPDO != NULL)
 391              		.loc 1 280 16 is_stmt 0 view .LVU122
 392 0042 284B     		ldr	r3, .L26
 393 0044 03EB4803 		add	r3, r3, r8, lsl #1
 394 0048 5888     		ldrh	r0, [r3, #2]
 395 004a FFF7FEFF 		bl	OBJ_GetObjectHandle
ARM GAS  /tmp/ccOuxVYw.s 			page 13


 396              	.LVL13:
 281:Lib/ssc_app/src/el9800appl.c ****         {
 397              		.loc 1 281 9 is_stmt 1 view .LVU123
 281:Lib/ssc_app/src/el9800appl.c ****         {
 398              		.loc 1 281 12 is_stmt 0 view .LVU124
 399 004e 0546     		mov	r5, r0
 400 0050 C0B1     		cbz	r0, .L21
 283:Lib/ssc_app/src/el9800appl.c ****             for (PDOEntryCnt = 0; PDOEntryCnt < PDOSubindex0; PDOEntryCnt++)
 401              		.loc 1 283 13 is_stmt 1 view .LVU125
 283:Lib/ssc_app/src/el9800appl.c ****             for (PDOEntryCnt = 0; PDOEntryCnt < PDOSubindex0; PDOEntryCnt++)
 402              		.loc 1 283 44 is_stmt 0 view .LVU126
 403 0052 8369     		ldr	r3, [r0, #24]
 283:Lib/ssc_app/src/el9800appl.c ****             for (PDOEntryCnt = 0; PDOEntryCnt < PDOSubindex0; PDOEntryCnt++)
 404              		.loc 1 283 26 view .LVU127
 405 0054 1F88     		ldrh	r7, [r3]
 406              	.LVL14:
 284:Lib/ssc_app/src/el9800appl.c ****             {
 407              		.loc 1 284 13 is_stmt 1 view .LVU128
 284:Lib/ssc_app/src/el9800appl.c ****             {
 408              		.loc 1 284 30 is_stmt 0 view .LVU129
 409 0056 0024     		movs	r4, #0
 284:Lib/ssc_app/src/el9800appl.c ****             {
 410              		.loc 1 284 13 view .LVU130
 411 0058 E9E7     		b	.L13
 412              	.LVL15:
 413              	.L25:
 268:Lib/ssc_app/src/el9800appl.c ****     UINT16 PDOAssignEntryCnt = 0;
 414              		.loc 1 268 12 view .LVU131
 415 005a 4FF0000B 		mov	fp, #0
 416              	.LVL16:
 417              	.L12:
 291:Lib/ssc_app/src/el9800appl.c ****             }
 292:Lib/ssc_app/src/el9800appl.c ****         }
 293:Lib/ssc_app/src/el9800appl.c ****         else
 294:Lib/ssc_app/src/el9800appl.c ****         {
 295:Lib/ssc_app/src/el9800appl.c ****             /*assigned PDO was not found in object dictionary. return invalid mapping*/
 296:Lib/ssc_app/src/el9800appl.c ****             OutputSize = 0;
 297:Lib/ssc_app/src/el9800appl.c ****             result = ALSTATUSCODE_INVALIDOUTPUTMAPPING;
 298:Lib/ssc_app/src/el9800appl.c ****             break;
 299:Lib/ssc_app/src/el9800appl.c ****         }
 300:Lib/ssc_app/src/el9800appl.c ****     }
 301:Lib/ssc_app/src/el9800appl.c **** 
 302:Lib/ssc_app/src/el9800appl.c ****     OutputSize = (OutputSize + 7) >> 3;
 418              		.loc 1 302 5 is_stmt 1 view .LVU132
 419              		.loc 1 302 30 is_stmt 0 view .LVU133
 420 005e F31D     		adds	r3, r6, #7
 421              		.loc 1 302 16 view .LVU134
 422 0060 C3F3CF08 		ubfx	r8, r3, #3, #16
 423              	.LVL17:
 303:Lib/ssc_app/src/el9800appl.c **** 
 304:Lib/ssc_app/src/el9800appl.c ****     if (result == 0)
 424              		.loc 1 304 5 is_stmt 1 view .LVU135
 425              		.loc 1 304 8 is_stmt 0 view .LVU136
 426 0064 BBF1000F 		cmp	fp, #0
 427 0068 34D0     		beq	.L22
 274:Lib/ssc_app/src/el9800appl.c ****     UINT16 OutputSize = 0;
 428              		.loc 1 274 12 view .LVU137
ARM GAS  /tmp/ccOuxVYw.s 			page 14


 429 006a 0027     		movs	r7, #0
 430              	.LVL18:
 431              	.L17:
 305:Lib/ssc_app/src/el9800appl.c ****     {
 306:Lib/ssc_app/src/el9800appl.c ****         /*Scan Object 0x1C13 TXPDO assign*/
 307:Lib/ssc_app/src/el9800appl.c ****         for (PDOAssignEntryCnt = 0; PDOAssignEntryCnt < sTxPDOassign.u16SubIndex0; PDOAssignEntryCn
 308:Lib/ssc_app/src/el9800appl.c ****         {
 309:Lib/ssc_app/src/el9800appl.c ****             pPDO = OBJ_GetObjectHandle(sTxPDOassign.aEntries[PDOAssignEntryCnt]);
 310:Lib/ssc_app/src/el9800appl.c ****             if (pPDO != NULL)
 311:Lib/ssc_app/src/el9800appl.c ****             {
 312:Lib/ssc_app/src/el9800appl.c ****                 PDOSubindex0 = *((UINT16 *)pPDO->pVarPtr);
 313:Lib/ssc_app/src/el9800appl.c ****                 for (PDOEntryCnt = 0; PDOEntryCnt < PDOSubindex0; PDOEntryCnt++)
 314:Lib/ssc_app/src/el9800appl.c ****                 {
 315:Lib/ssc_app/src/el9800appl.c ****                     pPDOEntry = (UINT32 *)((UINT8 *)pPDO->pVarPtr + (OBJ_GetEntryOffset((PDOEntryCn
 316:Lib/ssc_app/src/el9800appl.c ****                     // we increment the expected output size depending on the mapped Entry
 317:Lib/ssc_app/src/el9800appl.c ****                     InputSize += (UINT16)((*pPDOEntry) & 0xFF);
 318:Lib/ssc_app/src/el9800appl.c ****                 }
 319:Lib/ssc_app/src/el9800appl.c ****             }
 320:Lib/ssc_app/src/el9800appl.c ****             else
 321:Lib/ssc_app/src/el9800appl.c ****             {
 322:Lib/ssc_app/src/el9800appl.c ****                 /*assigned PDO was not found in object dictionary. return invalid mapping*/
 323:Lib/ssc_app/src/el9800appl.c ****                 InputSize = 0;
 324:Lib/ssc_app/src/el9800appl.c ****                 result = ALSTATUSCODE_INVALIDINPUTMAPPING;
 325:Lib/ssc_app/src/el9800appl.c ****                 break;
 326:Lib/ssc_app/src/el9800appl.c ****             }
 327:Lib/ssc_app/src/el9800appl.c ****         }
 328:Lib/ssc_app/src/el9800appl.c ****     }
 329:Lib/ssc_app/src/el9800appl.c ****     InputSize = (InputSize + 7) >> 3;
 432              		.loc 1 329 5 is_stmt 1 view .LVU138
 433              		.loc 1 329 28 is_stmt 0 view .LVU139
 434 006c FB1D     		adds	r3, r7, #7
 435              		.loc 1 329 15 view .LVU140
 436 006e C3F3CF03 		ubfx	r3, r3, #3, #16
 437              	.LVL19:
 330:Lib/ssc_app/src/el9800appl.c **** 
 331:Lib/ssc_app/src/el9800appl.c ****     *pInputSize = InputSize;
 438              		.loc 1 331 5 is_stmt 1 view .LVU141
 439              		.loc 1 331 17 is_stmt 0 view .LVU142
 440 0072 009A     		ldr	r2, [sp]
 441 0074 1380     		strh	r3, [r2]	@ movhi
 332:Lib/ssc_app/src/el9800appl.c ****     *pOutputSize = OutputSize;
 442              		.loc 1 332 5 is_stmt 1 view .LVU143
 443              		.loc 1 332 18 is_stmt 0 view .LVU144
 444 0076 019B     		ldr	r3, [sp, #4]
 445              	.LVL20:
 446              		.loc 1 332 18 view .LVU145
 447 0078 A3F80080 		strh	r8, [r3]	@ movhi
 448              	.LVL21:
 333:Lib/ssc_app/src/el9800appl.c ****     return result;
 449              		.loc 1 333 5 is_stmt 1 view .LVU146
 334:Lib/ssc_app/src/el9800appl.c **** #else
 335:Lib/ssc_app/src/el9800appl.c ****     *pInputSize = 6;
 336:Lib/ssc_app/src/el9800appl.c ****     *pOutputSize = 2;
 337:Lib/ssc_app/src/el9800appl.c ****     return ALSTATUSCODE_NOERROR;
 338:Lib/ssc_app/src/el9800appl.c **** #endif
 339:Lib/ssc_app/src/el9800appl.c **** }
 450              		.loc 1 339 1 is_stmt 0 view .LVU147
ARM GAS  /tmp/ccOuxVYw.s 			page 15


 451 007c 5846     		mov	r0, fp
 452 007e 03B0     		add	sp, sp, #12
 453              		.cfi_remember_state
 454              		.cfi_def_cfa_offset 36
 455              	.LVL22:
 456              		.loc 1 339 1 view .LVU148
 457              		@ sp needed
 458 0080 BDE8F08F 		pop	{r4, r5, r6, r7, r8, r9, r10, fp, pc}
 459              	.LVL23:
 460              	.L21:
 461              		.cfi_restore_state
 296:Lib/ssc_app/src/el9800appl.c ****             result = ALSTATUSCODE_INVALIDOUTPUTMAPPING;
 462              		.loc 1 296 24 view .LVU149
 463 0084 0026     		movs	r6, #0
 464              	.LVL24:
 297:Lib/ssc_app/src/el9800appl.c ****             break;
 465              		.loc 1 297 20 view .LVU150
 466 0086 4FF0250B 		mov	fp, #37
 467 008a E8E7     		b	.L12
 468              	.LVL25:
 469              	.L19:
 315:Lib/ssc_app/src/el9800appl.c ****                     // we increment the expected output size depending on the mapped Entry
 470              		.loc 1 315 21 is_stmt 1 discriminator 3 view .LVU151
 315:Lib/ssc_app/src/el9800appl.c ****                     // we increment the expected output size depending on the mapped Entry
 471              		.loc 1 315 57 is_stmt 0 discriminator 3 view .LVU152
 472 008c B569     		ldr	r5, [r6, #24]
 315:Lib/ssc_app/src/el9800appl.c ****                     // we increment the expected output size depending on the mapped Entry
 473              		.loc 1 315 70 discriminator 3 view .LVU153
 474 008e 601C     		adds	r0, r4, #1
 475 0090 3146     		mov	r1, r6
 476 0092 C0B2     		uxtb	r0, r0
 477 0094 FFF7FEFF 		bl	OBJ_GetEntryOffset
 478              	.LVL26:
 315:Lib/ssc_app/src/el9800appl.c ****                     // we increment the expected output size depending on the mapped Entry
 479              		.loc 1 315 114 discriminator 3 view .LVU154
 480 0098 C0F3CF00 		ubfx	r0, r0, #3, #16
 481              	.LVL27:
 317:Lib/ssc_app/src/el9800appl.c ****                 }
 482              		.loc 1 317 21 is_stmt 1 discriminator 3 view .LVU155
 317:Lib/ssc_app/src/el9800appl.c ****                 }
 483              		.loc 1 317 34 is_stmt 0 discriminator 3 view .LVU156
 484 009c 2B5C     		ldrb	r3, [r5, r0]	@ zero_extendqisi2
 317:Lib/ssc_app/src/el9800appl.c ****                 }
 485              		.loc 1 317 31 discriminator 3 view .LVU157
 486 009e 1F44     		add	r7, r7, r3
 487              	.LVL28:
 317:Lib/ssc_app/src/el9800appl.c ****                 }
 488              		.loc 1 317 31 discriminator 3 view .LVU158
 489 00a0 BFB2     		uxth	r7, r7
 490              	.LVL29:
 313:Lib/ssc_app/src/el9800appl.c ****                 {
 491              		.loc 1 313 67 is_stmt 1 discriminator 3 view .LVU159
 313:Lib/ssc_app/src/el9800appl.c ****                 {
 492              		.loc 1 313 78 is_stmt 0 discriminator 3 view .LVU160
 493 00a2 0134     		adds	r4, r4, #1
 494              	.LVL30:
 313:Lib/ssc_app/src/el9800appl.c ****                 {
ARM GAS  /tmp/ccOuxVYw.s 			page 16


 495              		.loc 1 313 78 discriminator 3 view .LVU161
 496 00a4 A4B2     		uxth	r4, r4
 497              	.LVL31:
 498              	.L18:
 313:Lib/ssc_app/src/el9800appl.c ****                 {
 499              		.loc 1 313 39 is_stmt 1 discriminator 1 view .LVU162
 313:Lib/ssc_app/src/el9800appl.c ****                 {
 500              		.loc 1 313 17 is_stmt 0 discriminator 1 view .LVU163
 501 00a6 4C45     		cmp	r4, r9
 502 00a8 F0D3     		bcc	.L19
 307:Lib/ssc_app/src/el9800appl.c ****         {
 503              		.loc 1 307 84 is_stmt 1 discriminator 2 view .LVU164
 307:Lib/ssc_app/src/el9800appl.c ****         {
 504              		.loc 1 307 101 is_stmt 0 discriminator 2 view .LVU165
 505 00aa 0AF1010A 		add	r10, r10, #1
 506              	.LVL32:
 307:Lib/ssc_app/src/el9800appl.c ****         {
 507              		.loc 1 307 101 discriminator 2 view .LVU166
 508 00ae 1FFA8AFA 		uxth	r10, r10
 509              	.LVL33:
 510              	.L16:
 307:Lib/ssc_app/src/el9800appl.c ****         {
 511              		.loc 1 307 37 is_stmt 1 discriminator 1 view .LVU167
 307:Lib/ssc_app/src/el9800appl.c ****         {
 512              		.loc 1 307 69 is_stmt 0 discriminator 1 view .LVU168
 513 00b2 0D4B     		ldr	r3, .L26+4
 514 00b4 1B88     		ldrh	r3, [r3]
 307:Lib/ssc_app/src/el9800appl.c ****         {
 515              		.loc 1 307 9 discriminator 1 view .LVU169
 516 00b6 5345     		cmp	r3, r10
 517 00b8 D8D9     		bls	.L17
 309:Lib/ssc_app/src/el9800appl.c ****             if (pPDO != NULL)
 518              		.loc 1 309 13 is_stmt 1 view .LVU170
 309:Lib/ssc_app/src/el9800appl.c ****             if (pPDO != NULL)
 519              		.loc 1 309 20 is_stmt 0 view .LVU171
 520 00ba 0B4B     		ldr	r3, .L26+4
 521 00bc 03EB4A03 		add	r3, r3, r10, lsl #1
 522 00c0 5888     		ldrh	r0, [r3, #2]
 523 00c2 FFF7FEFF 		bl	OBJ_GetObjectHandle
 524              	.LVL34:
 310:Lib/ssc_app/src/el9800appl.c ****             {
 525              		.loc 1 310 13 is_stmt 1 view .LVU172
 310:Lib/ssc_app/src/el9800appl.c ****             {
 526              		.loc 1 310 16 is_stmt 0 view .LVU173
 527 00c6 0646     		mov	r6, r0
 528 00c8 38B1     		cbz	r0, .L23
 312:Lib/ssc_app/src/el9800appl.c ****                 for (PDOEntryCnt = 0; PDOEntryCnt < PDOSubindex0; PDOEntryCnt++)
 529              		.loc 1 312 17 is_stmt 1 view .LVU174
 312:Lib/ssc_app/src/el9800appl.c ****                 for (PDOEntryCnt = 0; PDOEntryCnt < PDOSubindex0; PDOEntryCnt++)
 530              		.loc 1 312 48 is_stmt 0 view .LVU175
 531 00ca 8369     		ldr	r3, [r0, #24]
 312:Lib/ssc_app/src/el9800appl.c ****                 for (PDOEntryCnt = 0; PDOEntryCnt < PDOSubindex0; PDOEntryCnt++)
 532              		.loc 1 312 30 view .LVU176
 533 00cc B3F80090 		ldrh	r9, [r3]
 534              	.LVL35:
 313:Lib/ssc_app/src/el9800appl.c ****                 {
 535              		.loc 1 313 17 is_stmt 1 view .LVU177
ARM GAS  /tmp/ccOuxVYw.s 			page 17


 313:Lib/ssc_app/src/el9800appl.c ****                 {
 536              		.loc 1 313 34 is_stmt 0 view .LVU178
 537 00d0 5C46     		mov	r4, fp
 313:Lib/ssc_app/src/el9800appl.c ****                 {
 538              		.loc 1 313 17 view .LVU179
 539 00d2 E8E7     		b	.L18
 540              	.LVL36:
 541              	.L22:
 274:Lib/ssc_app/src/el9800appl.c ****     UINT16 OutputSize = 0;
 542              		.loc 1 274 12 view .LVU180
 543 00d4 5F46     		mov	r7, fp
 307:Lib/ssc_app/src/el9800appl.c ****         {
 544              		.loc 1 307 32 view .LVU181
 545 00d6 DA46     		mov	r10, fp
 546 00d8 EBE7     		b	.L16
 547              	.LVL37:
 548              	.L23:
 323:Lib/ssc_app/src/el9800appl.c ****                 result = ALSTATUSCODE_INVALIDINPUTMAPPING;
 549              		.loc 1 323 27 view .LVU182
 550 00da 5F46     		mov	r7, fp
 551              	.LVL38:
 324:Lib/ssc_app/src/el9800appl.c ****                 break;
 552              		.loc 1 324 24 view .LVU183
 553 00dc 4FF0240B 		mov	fp, #36
 554              	.LVL39:
 324:Lib/ssc_app/src/el9800appl.c ****                 break;
 555              		.loc 1 324 24 view .LVU184
 556 00e0 C4E7     		b	.L17
 557              	.L27:
 558 00e2 00BF     		.align	2
 559              	.L26:
 560 00e4 00000000 		.word	.LANCHOR1
 561 00e8 00000000 		.word	.LANCHOR2
 562              		.cfi_endproc
 563              	.LFE130:
 565              		.section	.text.APPL_InputMapping,"ax",%progbits
 566              		.align	1
 567              		.global	APPL_InputMapping
 568              		.syntax unified
 569              		.thumb
 570              		.thumb_func
 572              	APPL_InputMapping:
 573              	.LVL40:
 574              	.LFB131:
 340:Lib/ssc_app/src/el9800appl.c **** 
 341:Lib/ssc_app/src/el9800appl.c **** /////////////////////////////////////////////////////////////////////////////////////////
 342:Lib/ssc_app/src/el9800appl.c **** /**
 343:Lib/ssc_app/src/el9800appl.c **** \param      pData  pointer to input process data
 344:Lib/ssc_app/src/el9800appl.c **** \brief      This function will copies the inputs from the local memory to the ESC memory
 345:Lib/ssc_app/src/el9800appl.c ****             to the hardware
 346:Lib/ssc_app/src/el9800appl.c **** */
 347:Lib/ssc_app/src/el9800appl.c **** ///////////////////////////////////////////////////////////////////////////////////////
 348:Lib/ssc_app/src/el9800appl.c **** #if _STM32_IO4 && AL_EVENT_ENABLED
 349:Lib/ssc_app/src/el9800appl.c **** /* the pragma interrupt_level is used to tell the compiler that these functions will not
 350:Lib/ssc_app/src/el9800appl.c ****    be called at the same time from the main function and the interrupt routine */
 351:Lib/ssc_app/src/el9800appl.c **** #pragma interrupt_level 1
 352:Lib/ssc_app/src/el9800appl.c **** #endif
ARM GAS  /tmp/ccOuxVYw.s 			page 18


 353:Lib/ssc_app/src/el9800appl.c **** void APPL_InputMapping(UINT16 *pData)
 354:Lib/ssc_app/src/el9800appl.c **** {
 575              		.loc 1 354 1 is_stmt 1 view -0
 576              		.cfi_startproc
 577              		@ args = 0, pretend = 0, frame = 0
 578              		@ frame_needed = 0, uses_anonymous_args = 0
 579              		@ link register save eliminated.
 355:Lib/ssc_app/src/el9800appl.c ****     UINT16 j = 0;
 580              		.loc 1 355 5 view .LVU186
 356:Lib/ssc_app/src/el9800appl.c ****     UINT16 *pTmpData = (UINT16 *)pData;
 581              		.loc 1 356 5 view .LVU187
 357:Lib/ssc_app/src/el9800appl.c **** 
 358:Lib/ssc_app/src/el9800appl.c ****     /* we go through all entries of the TxPDO Assign object to get the assigned TxPDOs */
 359:Lib/ssc_app/src/el9800appl.c ****     for (j = 0; j < sTxPDOassign.u16SubIndex0; j++)
 582              		.loc 1 359 5 view .LVU188
 583              		.loc 1 359 12 is_stmt 0 view .LVU189
 584 0000 0022     		movs	r2, #0
 585              		.loc 1 359 5 view .LVU190
 586 0002 05E0     		b	.L29
 587              	.LVL41:
 588              	.L30:
 360:Lib/ssc_app/src/el9800appl.c ****     {
 361:Lib/ssc_app/src/el9800appl.c ****         switch (sTxPDOassign.aEntries[j])
 362:Lib/ssc_app/src/el9800appl.c ****         {
 363:Lib/ssc_app/src/el9800appl.c ****         /* TxPDO 1 */
 364:Lib/ssc_app/src/el9800appl.c ****         case 0x1A00:
 365:Lib/ssc_app/src/el9800appl.c ****             *pTmpData++ = SWAPWORD(((UINT16 *)&sDIInputs)[1]);
 589              		.loc 1 365 13 is_stmt 1 view .LVU191
 590              		.loc 1 365 25 is_stmt 0 view .LVU192
 591 0004 214B     		ldr	r3, .L35
 592 0006 5B88     		ldrh	r3, [r3, #2]
 593 0008 20F8023B 		strh	r3, [r0], #2	@ movhi
 594              	.LVL42:
 366:Lib/ssc_app/src/el9800appl.c ****             break;
 595              		.loc 1 366 13 is_stmt 1 view .LVU193
 596              	.L32:
 359:Lib/ssc_app/src/el9800appl.c ****     {
 597              		.loc 1 359 48 discriminator 2 view .LVU194
 359:Lib/ssc_app/src/el9800appl.c ****     {
 598              		.loc 1 359 49 is_stmt 0 discriminator 2 view .LVU195
 599 000c 0132     		adds	r2, r2, #1
 600              	.LVL43:
 359:Lib/ssc_app/src/el9800appl.c ****     {
 601              		.loc 1 359 49 discriminator 2 view .LVU196
 602 000e 92B2     		uxth	r2, r2
 603              	.LVL44:
 604              	.L29:
 359:Lib/ssc_app/src/el9800appl.c ****     {
 605              		.loc 1 359 17 is_stmt 1 discriminator 1 view .LVU197
 359:Lib/ssc_app/src/el9800appl.c ****     {
 606              		.loc 1 359 33 is_stmt 0 discriminator 1 view .LVU198
 607 0010 1F4B     		ldr	r3, .L35+4
 608 0012 1B88     		ldrh	r3, [r3]
 359:Lib/ssc_app/src/el9800appl.c ****     {
 609              		.loc 1 359 5 discriminator 1 view .LVU199
 610 0014 9342     		cmp	r3, r2
 611 0016 37D9     		bls	.L34
ARM GAS  /tmp/ccOuxVYw.s 			page 19


 361:Lib/ssc_app/src/el9800appl.c ****         {
 612              		.loc 1 361 9 is_stmt 1 view .LVU200
 361:Lib/ssc_app/src/el9800appl.c ****         {
 613              		.loc 1 361 38 is_stmt 0 view .LVU201
 614 0018 1D4B     		ldr	r3, .L35+4
 615 001a 03EB4203 		add	r3, r3, r2, lsl #1
 616 001e 5B88     		ldrh	r3, [r3, #2]
 361:Lib/ssc_app/src/el9800appl.c ****         {
 617              		.loc 1 361 9 view .LVU202
 618 0020 B3F5D05F 		cmp	r3, #6656
 619 0024 EED0     		beq	.L30
 620 0026 41F60221 		movw	r1, #6658
 621 002a 8B42     		cmp	r3, r1
 622 002c EED1     		bne	.L32
 367:Lib/ssc_app/src/el9800appl.c ****         /* TxPDO 3 */
 368:Lib/ssc_app/src/el9800appl.c ****         case 0x1A02:
 369:Lib/ssc_app/src/el9800appl.c ****             *pTmpData++ = SWAPWORD(((UINT16 *)&sAIInputs)[1]);
 623              		.loc 1 369 13 is_stmt 1 view .LVU203
 624              	.LVL45:
 625              		.loc 1 369 25 is_stmt 0 view .LVU204
 626 002e 194B     		ldr	r3, .L35+8
 627 0030 5988     		ldrh	r1, [r3, #2]
 628 0032 0180     		strh	r1, [r0]	@ movhi
 370:Lib/ssc_app/src/el9800appl.c ****             *pTmpData++ = SWAPWORD(((UINT16 *)&sAIInputs)[2]);
 629              		.loc 1 370 13 is_stmt 1 view .LVU205
 630              	.LVL46:
 631              		.loc 1 370 25 is_stmt 0 view .LVU206
 632 0034 9988     		ldrh	r1, [r3, #4]
 633 0036 4180     		strh	r1, [r0, #2]	@ movhi
 371:Lib/ssc_app/src/el9800appl.c ****             /*can2*/
 372:Lib/ssc_app/src/el9800appl.c ****             *pTmpData++ = SWAPWORD(((UINT16 *)&sAIInputs)[3]);
 634              		.loc 1 372 13 is_stmt 1 view .LVU207
 635              	.LVL47:
 636              		.loc 1 372 25 is_stmt 0 view .LVU208
 637 0038 D988     		ldrh	r1, [r3, #6]
 638 003a 8180     		strh	r1, [r0, #4]	@ movhi
 373:Lib/ssc_app/src/el9800appl.c ****             *pTmpData++ = SWAPWORD(((UINT16 *)&sAIInputs)[4]);
 639              		.loc 1 373 13 is_stmt 1 view .LVU209
 640              	.LVL48:
 641              		.loc 1 373 25 is_stmt 0 view .LVU210
 642 003c 1989     		ldrh	r1, [r3, #8]
 643 003e C180     		strh	r1, [r0, #6]	@ movhi
 374:Lib/ssc_app/src/el9800appl.c ****             *pTmpData++ = SWAPWORD(((UINT16 *)&sAIInputs)[5]);
 644              		.loc 1 374 13 is_stmt 1 view .LVU211
 645              	.LVL49:
 646              		.loc 1 374 25 is_stmt 0 view .LVU212
 647 0040 5989     		ldrh	r1, [r3, #10]
 648 0042 0181     		strh	r1, [r0, #8]	@ movhi
 375:Lib/ssc_app/src/el9800appl.c ****             *pTmpData++ = SWAPWORD(((UINT16 *)&sAIInputs)[6]);
 649              		.loc 1 375 13 is_stmt 1 view .LVU213
 650              	.LVL50:
 651              		.loc 1 375 25 is_stmt 0 view .LVU214
 652 0044 9989     		ldrh	r1, [r3, #12]
 653 0046 4181     		strh	r1, [r0, #10]	@ movhi
 376:Lib/ssc_app/src/el9800appl.c ****             *pTmpData++ = SWAPWORD(((UINT16 *)&sAIInputs)[7]);
 654              		.loc 1 376 13 is_stmt 1 view .LVU215
 655              	.LVL51:
ARM GAS  /tmp/ccOuxVYw.s 			page 20


 656              		.loc 1 376 25 is_stmt 0 view .LVU216
 657 0048 D989     		ldrh	r1, [r3, #14]
 658 004a 8181     		strh	r1, [r0, #12]	@ movhi
 377:Lib/ssc_app/src/el9800appl.c ****             *pTmpData++ = SWAPWORD(((UINT16 *)&sAIInputs)[8]);
 659              		.loc 1 377 13 is_stmt 1 view .LVU217
 660              	.LVL52:
 661              		.loc 1 377 25 is_stmt 0 view .LVU218
 662 004c 198A     		ldrh	r1, [r3, #16]
 663 004e C181     		strh	r1, [r0, #14]	@ movhi
 378:Lib/ssc_app/src/el9800appl.c ****             *pTmpData++ = SWAPWORD(((UINT16 *)&sAIInputs)[9]);
 664              		.loc 1 378 13 is_stmt 1 view .LVU219
 665              	.LVL53:
 666              		.loc 1 378 25 is_stmt 0 view .LVU220
 667 0050 598A     		ldrh	r1, [r3, #18]
 668 0052 0182     		strh	r1, [r0, #16]	@ movhi
 379:Lib/ssc_app/src/el9800appl.c ****             /*motor*/
 380:Lib/ssc_app/src/el9800appl.c ****             *pTmpData++ = SWAPWORD(((UINT16 *)&sAIInputs)[10]);
 669              		.loc 1 380 13 is_stmt 1 view .LVU221
 670              	.LVL54:
 671              		.loc 1 380 25 is_stmt 0 view .LVU222
 672 0054 998A     		ldrh	r1, [r3, #20]
 673 0056 4182     		strh	r1, [r0, #18]	@ movhi
 381:Lib/ssc_app/src/el9800appl.c ****             *pTmpData++ = SWAPWORD(((UINT16 *)&sAIInputs)[11]);
 674              		.loc 1 381 13 is_stmt 1 view .LVU223
 675              	.LVL55:
 676              		.loc 1 381 25 is_stmt 0 view .LVU224
 677 0058 D98A     		ldrh	r1, [r3, #22]
 678 005a 8182     		strh	r1, [r0, #20]	@ movhi
 382:Lib/ssc_app/src/el9800appl.c ****             *pTmpData++ = SWAPWORD(((UINT16 *)&sAIInputs)[12]);
 679              		.loc 1 382 13 is_stmt 1 view .LVU225
 680              	.LVL56:
 681              		.loc 1 382 25 is_stmt 0 view .LVU226
 682 005c 198B     		ldrh	r1, [r3, #24]
 683 005e C182     		strh	r1, [r0, #22]	@ movhi
 383:Lib/ssc_app/src/el9800appl.c **** 
 384:Lib/ssc_app/src/el9800appl.c ****             *pTmpData++ = SWAPWORD(((UINT16 *)&sAIInputs)[13]);
 684              		.loc 1 384 13 is_stmt 1 view .LVU227
 685              	.LVL57:
 686              		.loc 1 384 25 is_stmt 0 view .LVU228
 687 0060 598B     		ldrh	r1, [r3, #26]
 688 0062 0183     		strh	r1, [r0, #24]	@ movhi
 385:Lib/ssc_app/src/el9800appl.c ****             *pTmpData++ = SWAPWORD(((UINT16 *)&sAIInputs)[14]);
 689              		.loc 1 385 13 is_stmt 1 view .LVU229
 690              	.LVL58:
 691              		.loc 1 385 25 is_stmt 0 view .LVU230
 692 0064 998B     		ldrh	r1, [r3, #28]
 693 0066 4183     		strh	r1, [r0, #26]	@ movhi
 386:Lib/ssc_app/src/el9800appl.c **** 
 387:Lib/ssc_app/src/el9800appl.c ****             *pTmpData++ = SWAPWORD(((UINT16 *)&sAIInputs)[15]);
 694              		.loc 1 387 13 is_stmt 1 view .LVU231
 695              	.LVL59:
 696              		.loc 1 387 25 is_stmt 0 view .LVU232
 697 0068 D98B     		ldrh	r1, [r3, #30]
 698 006a 8183     		strh	r1, [r0, #28]	@ movhi
 388:Lib/ssc_app/src/el9800appl.c ****             *pTmpData++ = SWAPWORD(((UINT16 *)&sAIInputs)[16]);
 699              		.loc 1 388 13 is_stmt 1 view .LVU233
 700              	.LVL60:
ARM GAS  /tmp/ccOuxVYw.s 			page 21


 701              		.loc 1 388 25 is_stmt 0 view .LVU234
 702 006c 198C     		ldrh	r1, [r3, #32]
 703 006e C183     		strh	r1, [r0, #30]	@ movhi
 389:Lib/ssc_app/src/el9800appl.c **** 
 390:Lib/ssc_app/src/el9800appl.c ****             *pTmpData++ = SWAPWORD(((UINT16 *)&sAIInputs)[17]);
 704              		.loc 1 390 13 is_stmt 1 view .LVU235
 705              	.LVL61:
 706              		.loc 1 390 25 is_stmt 0 view .LVU236
 707 0070 598C     		ldrh	r1, [r3, #34]
 708 0072 0184     		strh	r1, [r0, #32]	@ movhi
 391:Lib/ssc_app/src/el9800appl.c ****             *pTmpData++ = SWAPWORD(((UINT16 *)&sAIInputs)[18]);
 709              		.loc 1 391 13 is_stmt 1 view .LVU237
 710              	.LVL62:
 711              		.loc 1 391 25 is_stmt 0 view .LVU238
 712 0074 998C     		ldrh	r1, [r3, #36]
 713 0076 4184     		strh	r1, [r0, #34]	@ movhi
 392:Lib/ssc_app/src/el9800appl.c **** 
 393:Lib/ssc_app/src/el9800appl.c ****             *pTmpData++ = SWAPWORD(((UINT16 *)&sAIInputs)[19]);
 714              		.loc 1 393 13 is_stmt 1 view .LVU239
 715              	.LVL63:
 716              		.loc 1 393 25 is_stmt 0 view .LVU240
 717 0078 D98C     		ldrh	r1, [r3, #38]
 718 007a 8184     		strh	r1, [r0, #36]	@ movhi
 394:Lib/ssc_app/src/el9800appl.c ****             *pTmpData++ = SWAPWORD(((UINT16 *)&sAIInputs)[20]);
 719              		.loc 1 394 13 is_stmt 1 view .LVU241
 720              	.LVL64:
 721              		.loc 1 394 25 is_stmt 0 view .LVU242
 722 007c 198D     		ldrh	r1, [r3, #40]
 723 007e C184     		strh	r1, [r0, #38]	@ movhi
 395:Lib/ssc_app/src/el9800appl.c **** 
 396:Lib/ssc_app/src/el9800appl.c ****             *pTmpData++ = SWAPWORD(((UINT16 *)&sAIInputs)[21]);
 724              		.loc 1 396 13 is_stmt 1 view .LVU243
 725              	.LVL65:
 726              		.loc 1 396 25 is_stmt 0 view .LVU244
 727 0080 5B8D     		ldrh	r3, [r3, #42]
 728 0082 0385     		strh	r3, [r0, #40]	@ movhi
 397:Lib/ssc_app/src/el9800appl.c ****             /**/
 398:Lib/ssc_app/src/el9800appl.c ****             break;
 729              		.loc 1 398 13 is_stmt 1 view .LVU245
 396:Lib/ssc_app/src/el9800appl.c ****             /**/
 730              		.loc 1 396 22 is_stmt 0 view .LVU246
 731 0084 2A30     		adds	r0, r0, #42
 732              	.LVL66:
 733              		.loc 1 398 13 view .LVU247
 734 0086 C1E7     		b	.L32
 735              	.L34:
 399:Lib/ssc_app/src/el9800appl.c ****         }
 400:Lib/ssc_app/src/el9800appl.c ****     }
 401:Lib/ssc_app/src/el9800appl.c **** }
 736              		.loc 1 401 1 view .LVU248
 737 0088 7047     		bx	lr
 738              	.L36:
 739 008a 00BF     		.align	2
 740              	.L35:
 741 008c 00000000 		.word	.LANCHOR3
 742 0090 00000000 		.word	.LANCHOR2
 743 0094 00000000 		.word	.LANCHOR4
ARM GAS  /tmp/ccOuxVYw.s 			page 22


 744              		.cfi_endproc
 745              	.LFE131:
 747              		.section	.text.APPL_OutputMapping,"ax",%progbits
 748              		.align	1
 749              		.global	APPL_OutputMapping
 750              		.syntax unified
 751              		.thumb
 752              		.thumb_func
 754              	APPL_OutputMapping:
 755              	.LVL67:
 756              	.LFB132:
 402:Lib/ssc_app/src/el9800appl.c **** 
 403:Lib/ssc_app/src/el9800appl.c **** /////////////////////////////////////////////////////////////////////////////////////////
 404:Lib/ssc_app/src/el9800appl.c **** /**
 405:Lib/ssc_app/src/el9800appl.c **** \param      pData  pointer to output process data
 406:Lib/ssc_app/src/el9800appl.c **** 
 407:Lib/ssc_app/src/el9800appl.c **** \brief    This function will copies the outputs from the ESC memory to the local memory
 408:Lib/ssc_app/src/el9800appl.c ****             to the hardware
 409:Lib/ssc_app/src/el9800appl.c **** */
 410:Lib/ssc_app/src/el9800appl.c **** ///////////////////////////////////////////////////////////////////////////////////////
 411:Lib/ssc_app/src/el9800appl.c **** #if _STM32_IO4 && AL_EVENT_ENABLED
 412:Lib/ssc_app/src/el9800appl.c **** /* the pragma interrupt_level is used to tell the compiler that these functions will not
 413:Lib/ssc_app/src/el9800appl.c ****    be called at the same time from the main function and the interrupt routine */
 414:Lib/ssc_app/src/el9800appl.c **** #pragma interrupt_level 1
 415:Lib/ssc_app/src/el9800appl.c **** #endif
 416:Lib/ssc_app/src/el9800appl.c **** void APPL_OutputMapping(UINT16 *pData)
 417:Lib/ssc_app/src/el9800appl.c **** {
 757              		.loc 1 417 1 is_stmt 1 view -0
 758              		.cfi_startproc
 759              		@ args = 0, pretend = 0, frame = 0
 760              		@ frame_needed = 0, uses_anonymous_args = 0
 761              		@ link register save eliminated.
 418:Lib/ssc_app/src/el9800appl.c ****     UINT16 j = 0;
 762              		.loc 1 418 5 view .LVU250
 419:Lib/ssc_app/src/el9800appl.c ****     UINT16 *pTmpData = (UINT16 *)pData;
 763              		.loc 1 419 5 view .LVU251
 420:Lib/ssc_app/src/el9800appl.c **** 
 421:Lib/ssc_app/src/el9800appl.c ****     /* we go through all entries of the RxPDO Assign object to get the assigned RxPDOs */
 422:Lib/ssc_app/src/el9800appl.c ****     for (j = 0; j < sRxPDOassign.u16SubIndex0; j++)
 764              		.loc 1 422 5 view .LVU252
 765              		.loc 1 422 12 is_stmt 0 view .LVU253
 766 0000 0022     		movs	r2, #0
 767              		.loc 1 422 5 view .LVU254
 768 0002 01E0     		b	.L38
 769              	.LVL68:
 770              	.L39:
 771              		.loc 1 422 48 is_stmt 1 discriminator 2 view .LVU255
 772              		.loc 1 422 49 is_stmt 0 discriminator 2 view .LVU256
 773 0004 0132     		adds	r2, r2, #1
 774              	.LVL69:
 775              		.loc 1 422 49 discriminator 2 view .LVU257
 776 0006 92B2     		uxth	r2, r2
 777              	.LVL70:
 778              	.L38:
 779              		.loc 1 422 17 is_stmt 1 discriminator 1 view .LVU258
 780              		.loc 1 422 33 is_stmt 0 discriminator 1 view .LVU259
 781 0008 2C4B     		ldr	r3, .L42
ARM GAS  /tmp/ccOuxVYw.s 			page 23


 782 000a 1B88     		ldrh	r3, [r3]
 783              		.loc 1 422 5 discriminator 1 view .LVU260
 784 000c 9342     		cmp	r3, r2
 785 000e 54D9     		bls	.L41
 423:Lib/ssc_app/src/el9800appl.c ****     {
 424:Lib/ssc_app/src/el9800appl.c ****         switch (sRxPDOassign.aEntries[j])
 786              		.loc 1 424 9 is_stmt 1 view .LVU261
 787              		.loc 1 424 38 is_stmt 0 view .LVU262
 788 0010 2A4B     		ldr	r3, .L42
 789 0012 03EB4203 		add	r3, r3, r2, lsl #1
 790 0016 5988     		ldrh	r1, [r3, #2]
 791              		.loc 1 424 9 view .LVU263
 792 0018 41F20163 		movw	r3, #5633
 793 001c 9942     		cmp	r1, r3
 794 001e F1D1     		bne	.L39
 425:Lib/ssc_app/src/el9800appl.c ****         {
 426:Lib/ssc_app/src/el9800appl.c ****         /* RxPDO 2 */
 427:Lib/ssc_app/src/el9800appl.c ****         case 0x1601:
 428:Lib/ssc_app/src/el9800appl.c ****             ((UINT16 *)&sDOOutputs)[1] = SWAPWORD(*pTmpData);
 795              		.loc 1 428 13 is_stmt 1 view .LVU264
 796              		.loc 1 428 42 is_stmt 0 view .LVU265
 797 0020 0188     		ldrh	r1, [r0]
 798              		.loc 1 428 40 view .LVU266
 799 0022 274B     		ldr	r3, .L42+4
 800 0024 5980     		strh	r1, [r3, #2]	@ movhi
 429:Lib/ssc_app/src/el9800appl.c ****             ((UINT16 *)&sDOOutputs)[2] = (SWAPWORD(*pTmpData) >> 8 & 0xFF) | (SWAPWORD(*(pTmpData +
 801              		.loc 1 429 13 is_stmt 1 view .LVU267
 802              		.loc 1 429 79 is_stmt 0 view .LVU268
 803 0026 B0F802C0 		ldrh	ip, [r0, #2]
 804              		.loc 1 429 76 view .LVU269
 805 002a 090A     		lsrs	r1, r1, #8
 806 002c 41EA0C21 		orr	r1, r1, ip, lsl #8
 807              		.loc 1 429 40 view .LVU270
 808 0030 9980     		strh	r1, [r3, #4]	@ movhi
 430:Lib/ssc_app/src/el9800appl.c ****             ((UINT16 *)&sDOOutputs)[3] = (SWAPWORD(*(pTmpData + 1)) >> 8 & 0xFF) | (SWAPWORD(*(pTmp
 809              		.loc 1 430 13 is_stmt 1 view .LVU271
 810              		.loc 1 430 43 is_stmt 0 view .LVU272
 811 0032 4188     		ldrh	r1, [r0, #2]
 812              		.loc 1 430 85 view .LVU273
 813 0034 B0F804C0 		ldrh	ip, [r0, #4]
 814              		.loc 1 430 82 view .LVU274
 815 0038 090A     		lsrs	r1, r1, #8
 816 003a 41EA0C21 		orr	r1, r1, ip, lsl #8
 817              		.loc 1 430 40 view .LVU275
 818 003e D980     		strh	r1, [r3, #6]	@ movhi
 431:Lib/ssc_app/src/el9800appl.c ****             ((UINT16 *)&sDOOutputs)[4] = (SWAPWORD(*(pTmpData + 2)) >> 8 & 0xFF) | (SWAPWORD(*(pTmp
 819              		.loc 1 431 13 is_stmt 1 view .LVU276
 820              		.loc 1 431 43 is_stmt 0 view .LVU277
 821 0040 8188     		ldrh	r1, [r0, #4]
 822              		.loc 1 431 85 view .LVU278
 823 0042 B0F806C0 		ldrh	ip, [r0, #6]
 824              		.loc 1 431 82 view .LVU279
 825 0046 090A     		lsrs	r1, r1, #8
 826 0048 41EA0C21 		orr	r1, r1, ip, lsl #8
 827              		.loc 1 431 40 view .LVU280
 828 004c 1981     		strh	r1, [r3, #8]	@ movhi
 432:Lib/ssc_app/src/el9800appl.c ****             ((UINT16 *)&sDOOutputs)[5] = (SWAPWORD(*(pTmpData + 3)) >> 8 & 0xFF) | (SWAPWORD(*(pTmp
ARM GAS  /tmp/ccOuxVYw.s 			page 24


 829              		.loc 1 432 13 is_stmt 1 view .LVU281
 830              		.loc 1 432 43 is_stmt 0 view .LVU282
 831 004e C188     		ldrh	r1, [r0, #6]
 832              		.loc 1 432 85 view .LVU283
 833 0050 B0F808C0 		ldrh	ip, [r0, #8]
 834              		.loc 1 432 82 view .LVU284
 835 0054 090A     		lsrs	r1, r1, #8
 836 0056 41EA0C21 		orr	r1, r1, ip, lsl #8
 837              		.loc 1 432 40 view .LVU285
 838 005a 5981     		strh	r1, [r3, #10]	@ movhi
 433:Lib/ssc_app/src/el9800appl.c ****             ((UINT16 *)&sDOOutputs)[6] = (SWAPWORD(*(pTmpData + 4)) >> 8 & 0xFF) | (SWAPWORD(*(pTmp
 839              		.loc 1 433 13 is_stmt 1 view .LVU286
 840              		.loc 1 433 43 is_stmt 0 view .LVU287
 841 005c 0189     		ldrh	r1, [r0, #8]
 842              		.loc 1 433 85 view .LVU288
 843 005e B0F80AC0 		ldrh	ip, [r0, #10]
 844              		.loc 1 433 82 view .LVU289
 845 0062 090A     		lsrs	r1, r1, #8
 846 0064 41EA0C21 		orr	r1, r1, ip, lsl #8
 847              		.loc 1 433 40 view .LVU290
 848 0068 9981     		strh	r1, [r3, #12]	@ movhi
 434:Lib/ssc_app/src/el9800appl.c ****             ((UINT16 *)&sDOOutputs)[7] = (SWAPWORD(*(pTmpData + 5)) >> 8 & 0xFF) | (SWAPWORD(*(pTmp
 849              		.loc 1 434 13 is_stmt 1 view .LVU291
 850              		.loc 1 434 43 is_stmt 0 view .LVU292
 851 006a 4189     		ldrh	r1, [r0, #10]
 852              		.loc 1 434 85 view .LVU293
 853 006c B0F80CC0 		ldrh	ip, [r0, #12]
 854              		.loc 1 434 82 view .LVU294
 855 0070 090A     		lsrs	r1, r1, #8
 856 0072 41EA0C21 		orr	r1, r1, ip, lsl #8
 857              		.loc 1 434 40 view .LVU295
 858 0076 D981     		strh	r1, [r3, #14]	@ movhi
 435:Lib/ssc_app/src/el9800appl.c ****             ((UINT16 *)&sDOOutputs)[8] = (SWAPWORD(*(pTmpData + 6)) >> 8 & 0xFF) | (SWAPWORD(*(pTmp
 859              		.loc 1 435 13 is_stmt 1 view .LVU296
 860              		.loc 1 435 43 is_stmt 0 view .LVU297
 861 0078 8189     		ldrh	r1, [r0, #12]
 862              		.loc 1 435 85 view .LVU298
 863 007a B0F80EC0 		ldrh	ip, [r0, #14]
 864              		.loc 1 435 82 view .LVU299
 865 007e 090A     		lsrs	r1, r1, #8
 866 0080 41EA0C21 		orr	r1, r1, ip, lsl #8
 867              		.loc 1 435 40 view .LVU300
 868 0084 1982     		strh	r1, [r3, #16]	@ movhi
 436:Lib/ssc_app/src/el9800appl.c ****             /*motor1*/
 437:Lib/ssc_app/src/el9800appl.c ****             ((UINT16 *)&sDOOutputs)[16] = (SWAPWORD(*(pTmpData + 14)) >> 8 & 0xFF);
 869              		.loc 1 437 13 is_stmt 1 view .LVU301
 870              		.loc 1 437 44 is_stmt 0 view .LVU302
 871 0086 818B     		ldrh	r1, [r0, #28]
 872              		.loc 1 437 41 view .LVU303
 873 0088 090A     		lsrs	r1, r1, #8
 874 008a 1984     		strh	r1, [r3, #32]	@ movhi
 438:Lib/ssc_app/src/el9800appl.c ****             ((UINT16 *)&sDOOutputs)[17] = SWAPWORD(*(pTmpData + 15));
 875              		.loc 1 438 13 is_stmt 1 view .LVU304
 876              		.loc 1 438 41 is_stmt 0 view .LVU305
 877 008c C18B     		ldrh	r1, [r0, #30]
 878 008e 5984     		strh	r1, [r3, #34]	@ movhi
 439:Lib/ssc_app/src/el9800appl.c ****             ((UINT16 *)&sDOOutputs)[18] = SWAPWORD(*(pTmpData + 16));
ARM GAS  /tmp/ccOuxVYw.s 			page 25


 879              		.loc 1 439 13 is_stmt 1 view .LVU306
 880              		.loc 1 439 41 is_stmt 0 view .LVU307
 881 0090 018C     		ldrh	r1, [r0, #32]
 882 0092 9984     		strh	r1, [r3, #36]	@ movhi
 440:Lib/ssc_app/src/el9800appl.c ****             ((UINT16 *)&sDOOutputs)[19] = SWAPWORD(*(pTmpData + 17));
 883              		.loc 1 440 13 is_stmt 1 view .LVU308
 884              		.loc 1 440 41 is_stmt 0 view .LVU309
 885 0094 418C     		ldrh	r1, [r0, #34]
 886 0096 D984     		strh	r1, [r3, #38]	@ movhi
 441:Lib/ssc_app/src/el9800appl.c ****             ((UINT16 *)&sDOOutputs)[20] = SWAPWORD(*(pTmpData + 18));
 887              		.loc 1 441 13 is_stmt 1 view .LVU310
 888              		.loc 1 441 41 is_stmt 0 view .LVU311
 889 0098 818C     		ldrh	r1, [r0, #36]
 890 009a 1985     		strh	r1, [r3, #40]	@ movhi
 442:Lib/ssc_app/src/el9800appl.c ****             ((UINT16 *)&sDOOutputs)[21] = SWAPWORD(*(pTmpData + 19));
 891              		.loc 1 442 13 is_stmt 1 view .LVU312
 892              		.loc 1 442 41 is_stmt 0 view .LVU313
 893 009c C18C     		ldrh	r1, [r0, #38]
 894 009e 5985     		strh	r1, [r3, #42]	@ movhi
 443:Lib/ssc_app/src/el9800appl.c ****             ((UINT16 *)&sDOOutputs)[22] = SWAPWORD(*(pTmpData + 20));
 895              		.loc 1 443 13 is_stmt 1 view .LVU314
 896              		.loc 1 443 41 is_stmt 0 view .LVU315
 897 00a0 018D     		ldrh	r1, [r0, #40]
 898 00a2 9985     		strh	r1, [r3, #44]	@ movhi
 444:Lib/ssc_app/src/el9800appl.c ****             ((UINT16 *)&sDOOutputs)[23] = SWAPWORD(*(pTmpData + 21));
 899              		.loc 1 444 13 is_stmt 1 view .LVU316
 900              		.loc 1 444 41 is_stmt 0 view .LVU317
 901 00a4 418D     		ldrh	r1, [r0, #42]
 902 00a6 D985     		strh	r1, [r3, #46]	@ movhi
 445:Lib/ssc_app/src/el9800appl.c ****             ((UINT16 *)&sDOOutputs)[24] = SWAPWORD(*(pTmpData + 22));
 903              		.loc 1 445 13 is_stmt 1 view .LVU318
 904              		.loc 1 445 41 is_stmt 0 view .LVU319
 905 00a8 818D     		ldrh	r1, [r0, #44]
 906 00aa 1986     		strh	r1, [r3, #48]	@ movhi
 446:Lib/ssc_app/src/el9800appl.c ****             ((UINT16 *)&sDOOutputs)[25] = SWAPWORD(*(pTmpData + 23));
 907              		.loc 1 446 13 is_stmt 1 view .LVU320
 908              		.loc 1 446 41 is_stmt 0 view .LVU321
 909 00ac C18D     		ldrh	r1, [r0, #46]
 910 00ae 5986     		strh	r1, [r3, #50]	@ movhi
 447:Lib/ssc_app/src/el9800appl.c ****             ((UINT16 *)&sDOOutputs)[26] = SWAPWORD(*(pTmpData + 24));
 911              		.loc 1 447 13 is_stmt 1 view .LVU322
 912              		.loc 1 447 41 is_stmt 0 view .LVU323
 913 00b0 018E     		ldrh	r1, [r0, #48]
 914 00b2 9986     		strh	r1, [r3, #52]	@ movhi
 448:Lib/ssc_app/src/el9800appl.c ****             ((UINT16 *)&sDOOutputs)[27] = SWAPWORD(*(pTmpData + 25));
 915              		.loc 1 448 13 is_stmt 1 view .LVU324
 916              		.loc 1 448 41 is_stmt 0 view .LVU325
 917 00b4 418E     		ldrh	r1, [r0, #50]
 918 00b6 D986     		strh	r1, [r3, #54]	@ movhi
 449:Lib/ssc_app/src/el9800appl.c ****             break;
 919              		.loc 1 449 13 is_stmt 1 view .LVU326
 920 00b8 A4E7     		b	.L39
 921              	.L41:
 450:Lib/ssc_app/src/el9800appl.c ****         }
 451:Lib/ssc_app/src/el9800appl.c ****     }
 452:Lib/ssc_app/src/el9800appl.c **** }
 922              		.loc 1 452 1 is_stmt 0 view .LVU327
ARM GAS  /tmp/ccOuxVYw.s 			page 26


 923 00ba 7047     		bx	lr
 924              	.L43:
 925              		.align	2
 926              	.L42:
 927 00bc 00000000 		.word	.LANCHOR1
 928 00c0 00000000 		.word	.LANCHOR0
 929              		.cfi_endproc
 930              	.LFE132:
 932              		.global	__aeabi_f2d
 933              		.global	__aeabi_ddiv
 934              		.global	__aeabi_dmul
 935              		.global	__aeabi_d2iz
 936              		.section	.text.ecat_motor_data_rx,"ax",%progbits
 937              		.align	1
 938              		.global	ecat_motor_data_rx
 939              		.syntax unified
 940              		.thumb
 941              		.thumb_func
 943              	ecat_motor_data_rx:
 944              	.LFB134:
 453:Lib/ssc_app/src/el9800appl.c **** 
 454:Lib/ssc_app/src/el9800appl.c **** /////////////////////////////////////////////////////////////////////////////////////////
 455:Lib/ssc_app/src/el9800appl.c **** /**
 456:Lib/ssc_app/src/el9800appl.c **** \brief    This function will called from the synchronisation ISR
 457:Lib/ssc_app/src/el9800appl.c ****             or from the mainloop if no synchronisation is supported
 458:Lib/ssc_app/src/el9800appl.c **** */
 459:Lib/ssc_app/src/el9800appl.c **** ///////////////////////////////////////////////////////////////////////////////////////
 460:Lib/ssc_app/src/el9800appl.c **** 
 461:Lib/ssc_app/src/el9800appl.c **** #include "spi2_bus.h"
 462:Lib/ssc_app/src/el9800appl.c **** 
 463:Lib/ssc_app/src/el9800appl.c **** void ecat_motor_data_rx();
 464:Lib/ssc_app/src/el9800appl.c **** void ecat_can_rx();
 465:Lib/ssc_app/src/el9800appl.c **** 
 466:Lib/ssc_app/src/el9800appl.c **** int ms_flag = 0;
 467:Lib/ssc_app/src/el9800appl.c **** 
 468:Lib/ssc_app/src/el9800appl.c **** void APPL_Application(void)
 469:Lib/ssc_app/src/el9800appl.c **** {
 470:Lib/ssc_app/src/el9800appl.c ****     if (sDOOutputs.bLED1 != 0)
 471:Lib/ssc_app/src/el9800appl.c ****     {
 472:Lib/ssc_app/src/el9800appl.c ****         GPIO_SetBits(GPIOB, GPIO_Pin_15);
 473:Lib/ssc_app/src/el9800appl.c ****     }
 474:Lib/ssc_app/src/el9800appl.c ****     else
 475:Lib/ssc_app/src/el9800appl.c ****     {
 476:Lib/ssc_app/src/el9800appl.c ****         GPIO_ResetBits(GPIOB, GPIO_Pin_15);
 477:Lib/ssc_app/src/el9800appl.c ****     }
 478:Lib/ssc_app/src/el9800appl.c **** 
 479:Lib/ssc_app/src/el9800appl.c ****     if (sDOOutputs.bLED2 != 0)
 480:Lib/ssc_app/src/el9800appl.c ****     {
 481:Lib/ssc_app/src/el9800appl.c ****         GPIO_SetBits(GPIOB, GPIO_Pin_14);
 482:Lib/ssc_app/src/el9800appl.c ****     }
 483:Lib/ssc_app/src/el9800appl.c ****     else
 484:Lib/ssc_app/src/el9800appl.c ****     {
 485:Lib/ssc_app/src/el9800appl.c ****         GPIO_ResetBits(GPIOB, GPIO_Pin_14);
 486:Lib/ssc_app/src/el9800appl.c ****     }
 487:Lib/ssc_app/src/el9800appl.c **** 
 488:Lib/ssc_app/src/el9800appl.c ****     if (sDOOutputs.bLED3 != 0)
 489:Lib/ssc_app/src/el9800appl.c ****     {
ARM GAS  /tmp/ccOuxVYw.s 			page 27


 490:Lib/ssc_app/src/el9800appl.c ****         GPIO_SetBits(GPIOB, GPIO_Pin_13);
 491:Lib/ssc_app/src/el9800appl.c ****     }
 492:Lib/ssc_app/src/el9800appl.c ****     else
 493:Lib/ssc_app/src/el9800appl.c ****     {
 494:Lib/ssc_app/src/el9800appl.c ****         GPIO_ResetBits(GPIOB, GPIO_Pin_13);
 495:Lib/ssc_app/src/el9800appl.c ****     }
 496:Lib/ssc_app/src/el9800appl.c **** 
 497:Lib/ssc_app/src/el9800appl.c ****     ecat_can_rx();
 498:Lib/ssc_app/src/el9800appl.c ****     ecat_motor_data_rx();
 499:Lib/ssc_app/src/el9800appl.c **** 
 500:Lib/ssc_app/src/el9800appl.c ****     // uint8_t dummy = spi2_wr_cmd(0x01);
 501:Lib/ssc_app/src/el9800appl.c **** 
 502:Lib/ssc_app/src/el9800appl.c ****     /* start the conversion of the A/D converter */
 503:Lib/ssc_app/src/el9800appl.c ****     //		while(!(ADC_GetFlagStatus(ADC1, ADC_FLAG_EOC)==SET));
 504:Lib/ssc_app/src/el9800appl.c **** 
 505:Lib/ssc_app/src/el9800appl.c ****     sAIInputs.i16Analoginput = 0;
 506:Lib/ssc_app/src/el9800appl.c **** 
 507:Lib/ssc_app/src/el9800appl.c ****     sAIInputs.can2_h0 = Can2_RxMessage.StdId;
 508:Lib/ssc_app/src/el9800appl.c ****     sAIInputs.can2_h1 = Can2_RxMessage.ExtId;
 509:Lib/ssc_app/src/el9800appl.c ****     sAIInputs.can2_h2 = Can2_RxMessage.IDE;
 510:Lib/ssc_app/src/el9800appl.c ****     sAIInputs.can2_h3 = Can2_RxMessage.RTR;
 511:Lib/ssc_app/src/el9800appl.c ****     sAIInputs.can2_h4 = Can2_RxMessage.DLC;
 512:Lib/ssc_app/src/el9800appl.c **** 
 513:Lib/ssc_app/src/el9800appl.c ****     sAIInputs.can2_d0 = Can2_RxMessage.Data[0];
 514:Lib/ssc_app/src/el9800appl.c ****     sAIInputs.can2_d1 = Can2_RxMessage.Data[1];
 515:Lib/ssc_app/src/el9800appl.c ****     sAIInputs.can2_d2 = Can2_RxMessage.Data[2];
 516:Lib/ssc_app/src/el9800appl.c ****     sAIInputs.can2_d3 = Can2_RxMessage.Data[3];
 517:Lib/ssc_app/src/el9800appl.c ****     sAIInputs.can2_d4 = Can2_RxMessage.Data[4];
 518:Lib/ssc_app/src/el9800appl.c ****     sAIInputs.can2_d5 = Can2_RxMessage.Data[5];
 519:Lib/ssc_app/src/el9800appl.c ****     sAIInputs.can2_d6 = Can2_RxMessage.Data[6];
 520:Lib/ssc_app/src/el9800appl.c ****     sAIInputs.can2_d7 = Can2_RxMessage.Data[7];
 521:Lib/ssc_app/src/el9800appl.c **** 
 522:Lib/ssc_app/src/el9800appl.c ****     if (ms_flag < 11)
 523:Lib/ssc_app/src/el9800appl.c ****     {
 524:Lib/ssc_app/src/el9800appl.c ****         ms_flag++;
 525:Lib/ssc_app/src/el9800appl.c ****     }
 526:Lib/ssc_app/src/el9800appl.c ****     else
 527:Lib/ssc_app/src/el9800appl.c ****     {
 528:Lib/ssc_app/src/el9800appl.c ****         ms_flag = 0;
 529:Lib/ssc_app/src/el9800appl.c ****     }
 530:Lib/ssc_app/src/el9800appl.c **** 
 531:Lib/ssc_app/src/el9800appl.c ****     sAIInputs.motor_id = ms_flag;
 532:Lib/ssc_app/src/el9800appl.c ****     sAIInputs.motor_mode = 10;
 533:Lib/ssc_app/src/el9800appl.c **** 
 534:Lib/ssc_app/src/el9800appl.c ****     sAIInputs.motor_temp = motor_rx[ms_flag / 3][ms_flag % 3].Temp;                       //
 535:Lib/ssc_app/src/el9800appl.c ****     sAIInputs.motor_error = motor_rx[ms_flag / 3][ms_flag % 3].MError;                    //
 536:Lib/ssc_app/src/el9800appl.c ****     sAIInputs.motor_T = (float)motor_rx[ms_flag / 3][ms_flag % 3].T / 256;                //
 537:Lib/ssc_app/src/el9800appl.c ****     sAIInputs.motor_W = (float)motor_rx[ms_flag / 3][ms_flag % 3].W / 128;                //
 538:Lib/ssc_app/src/el9800appl.c ****     sAIInputs.motor_Pos = (float)motor_rx[ms_flag / 3][ms_flag % 3].Pos / 16384 * 6.2832; //
 539:Lib/ssc_app/src/el9800appl.c ****     sAIInputs.motor_LW = 10;
 540:Lib/ssc_app/src/el9800appl.c ****     sAIInputs.motor_Acc = (float)motor_rx[ms_flag / 3][ms_flag % 3].Acc; //
 541:Lib/ssc_app/src/el9800appl.c **** 
 542:Lib/ssc_app/src/el9800appl.c ****     ecat_spi_motor(ms_flag / 3, ms_flag % 3);
 543:Lib/ssc_app/src/el9800appl.c **** 
 544:Lib/ssc_app/src/el9800appl.c ****     /* we toggle the TxPDO Toggle after updating the data of the corresponding TxPDO */
 545:Lib/ssc_app/src/el9800appl.c ****     sAIInputs.bTxPDOToggle ^= 1;
 546:Lib/ssc_app/src/el9800appl.c **** 
ARM GAS  /tmp/ccOuxVYw.s 			page 28


 547:Lib/ssc_app/src/el9800appl.c ****     /* we simulate a problem of the analog input, if the Switch4 is on in this example,
 548:Lib/ssc_app/src/el9800appl.c ****        in this case the TxPDO State has to set to indicate the problem to the master */
 549:Lib/ssc_app/src/el9800appl.c ****     if (sDIInputs.bSwitch4)
 550:Lib/ssc_app/src/el9800appl.c ****         sAIInputs.bTxPDOState = 1;
 551:Lib/ssc_app/src/el9800appl.c ****     else
 552:Lib/ssc_app/src/el9800appl.c ****         sAIInputs.bTxPDOState = 0;
 553:Lib/ssc_app/src/el9800appl.c **** }
 554:Lib/ssc_app/src/el9800appl.c **** 
 555:Lib/ssc_app/src/el9800appl.c **** void ecat_motor_data_rx()
 556:Lib/ssc_app/src/el9800appl.c **** {
 945              		.loc 1 556 1 is_stmt 1 view -0
 946              		.cfi_startproc
 947              		@ args = 0, pretend = 0, frame = 0
 948              		@ frame_needed = 0, uses_anonymous_args = 0
 557:Lib/ssc_app/src/el9800appl.c ****     int motorid = sDOOutputs.motor_id;
 949              		.loc 1 557 5 view .LVU329
 950              		.loc 1 557 29 is_stmt 0 view .LVU330
 951 0000 394B     		ldr	r3, .L50+8
 952 0002 9A7C     		ldrb	r2, [r3, #18]	@ zero_extendqisi2
 953              	.LVL71:
 558:Lib/ssc_app/src/el9800appl.c **** 
 559:Lib/ssc_app/src/el9800appl.c ****     if (motorid <= 11)
 954              		.loc 1 559 5 is_stmt 1 view .LVU331
 955              		.loc 1 559 8 is_stmt 0 view .LVU332
 956 0004 0B2A     		cmp	r2, #11
 957 0006 69DC     		bgt	.L47
 556:Lib/ssc_app/src/el9800appl.c ****     int motorid = sDOOutputs.motor_id;
 958              		.loc 1 556 1 view .LVU333
 959 0008 2DE9F047 		push	{r4, r5, r6, r7, r8, r9, r10, lr}
 960              		.cfi_def_cfa_offset 32
 961              		.cfi_offset 4, -32
 962              		.cfi_offset 5, -28
 963              		.cfi_offset 6, -24
 964              		.cfi_offset 7, -20
 965              		.cfi_offset 8, -16
 966              		.cfi_offset 9, -12
 967              		.cfi_offset 10, -8
 968              		.cfi_offset 14, -4
 560:Lib/ssc_app/src/el9800appl.c ****     {
 561:Lib/ssc_app/src/el9800appl.c ****         motor_tx[motorid / 3][motorid % 3].start[0] = 0xD2;
 969              		.loc 1 561 9 is_stmt 1 view .LVU334
 970              		.loc 1 561 26 is_stmt 0 view .LVU335
 971 000c 374B     		ldr	r3, .L50+12
 972 000e 83FB0213 		smull	r1, r3, r3, r2
 973              		.loc 1 561 39 view .LVU336
 974 0012 03EB4301 		add	r1, r3, r3, lsl #1
 975 0016 521A     		subs	r2, r2, r1
 976              	.LVL72:
 977              		.loc 1 561 53 view .LVU337
 978 0018 3548     		ldr	r0, .L50+16
 979 001a 02EB4201 		add	r1, r2, r2, lsl #1
 980 001e C1EBC101 		rsb	r1, r1, r1, lsl #3
 981 0022 C3EB8314 		rsb	r4, r3, r3, lsl #6
 982 0026 2144     		add	r1, r1, r4
 983 0028 4518     		adds	r5, r0, r1
 984 002a D224     		movs	r4, #210
 985 002c 4454     		strb	r4, [r0, r1]
ARM GAS  /tmp/ccOuxVYw.s 			page 29


 562:Lib/ssc_app/src/el9800appl.c ****         motor_tx[motorid / 3][motorid % 3].start[1] = 0xFE;
 986              		.loc 1 562 9 is_stmt 1 view .LVU338
 987              		.loc 1 562 53 is_stmt 0 view .LVU339
 988 002e FE21     		movs	r1, #254
 989 0030 6970     		strb	r1, [r5, #1]
 563:Lib/ssc_app/src/el9800appl.c ****         motor_tx[motorid / 3][motorid % 3].leg_id = motorid / 3;
 990              		.loc 1 563 9 is_stmt 1 view .LVU340
 991              		.loc 1 563 51 is_stmt 0 view .LVU341
 992 0032 DEB2     		uxtb	r6, r3
 993 0034 AE70     		strb	r6, [r5, #2]
 564:Lib/ssc_app/src/el9800appl.c ****         motor_tx[motorid / 3][motorid % 3].motor_id = motorid % 3;
 994              		.loc 1 564 9 is_stmt 1 view .LVU342
 995              		.loc 1 564 53 is_stmt 0 view .LVU343
 996 0036 D4B2     		uxtb	r4, r2
 997 0038 EC70     		strb	r4, [r5, #3]
 565:Lib/ssc_app/src/el9800appl.c ****         motor_tx[motorid / 3][motorid % 3].mode = sDOOutputs.motor_mode;
 998              		.loc 1 565 9 is_stmt 1 view .LVU344
 999              		.loc 1 565 61 is_stmt 0 view .LVU345
 1000 003a DFF8ACA0 		ldr	r10, .L50+8
 1001              		.loc 1 565 49 view .LVU346
 1002 003e 9AF81490 		ldrb	r9, [r10, #20]	@ zero_extendqisi2
 1003 0042 85F80490 		strb	r9, [r5, #4]
 566:Lib/ssc_app/src/el9800appl.c ****         motor_tx[motorid / 3][motorid % 3].T = sDOOutputs.motor_t * 256;
 1004              		.loc 1 566 9 is_stmt 1 view .LVU347
 1005              		.loc 1 566 58 is_stmt 0 view .LVU348
 1006 0046 DAED0A7A 		vldr.32	s15, [r10, #40]
 1007              		.loc 1 566 46 view .LVU349
 1008 004a B0EE677A 		vmov.f32	s14, s15
 1009 004e BEEECC7A 		vcvt.s32.f32	s14, s14, #8
 1010 0052 17EE103A 		vmov	r3, s14	@ int
 1011 0056 0FFA83F8 		sxth	r8, r3
 1012 005a A5F80530 		strh	r3, [r5, #5]	@ unaligned
 567:Lib/ssc_app/src/el9800appl.c ****         motor_tx[motorid / 3][motorid % 3].W = sDOOutputs.motor_w * 128;
 1013              		.loc 1 567 9 is_stmt 1 view .LVU350
 1014              		.loc 1 567 58 is_stmt 0 view .LVU351
 1015 005e DAED077A 		vldr.32	s15, [r10, #28]
 1016              		.loc 1 567 46 view .LVU352
 1017 0062 B0EE677A 		vmov.f32	s14, s15
 1018 0066 BEEEEC7A 		vcvt.s32.f32	s14, s14, #7
 1019 006a 17EE103A 		vmov	r3, s14	@ int
 1020 006e 1FB2     		sxth	r7, r3
 1021 0070 A5F80730 		strh	r3, [r5, #7]	@ unaligned
 568:Lib/ssc_app/src/el9800appl.c ****         motor_tx[motorid / 3][motorid % 3].Pos = sDOOutputs.motor_pos / 6.2832 * 16384;
 1022              		.loc 1 568 9 is_stmt 1 view .LVU353
 1023              		.loc 1 568 60 is_stmt 0 view .LVU354
 1024 0074 DAF81800 		ldr	r0, [r10, #24]	@ float
 1025 0078 FFF7FEFF 		bl	__aeabi_f2d
 1026              	.LVL73:
 1027              		.loc 1 568 71 view .LVU355
 1028 007c 18A3     		adr	r3, .L50
 1029 007e D3E90023 		ldrd	r2, [r3]
 1030 0082 FFF7FEFF 		bl	__aeabi_ddiv
 1031              	.LVL74:
 1032              		.loc 1 568 80 view .LVU356
 1033 0086 0022     		movs	r2, #0
 1034 0088 1A4B     		ldr	r3, .L50+20
 1035 008a FFF7FEFF 		bl	__aeabi_dmul
ARM GAS  /tmp/ccOuxVYw.s 			page 30


 1036              	.LVL75:
 1037              		.loc 1 568 48 view .LVU357
 1038 008e FFF7FEFF 		bl	__aeabi_d2iz
 1039              	.LVL76:
 1040 0092 C5F80900 		str	r0, [r5, #9]	@ unaligned
 569:Lib/ssc_app/src/el9800appl.c ****         motor_tx[motorid / 3][motorid % 3].K_P = sDOOutputs.motor_kp * 2048;
 1041              		.loc 1 569 9 is_stmt 1 view .LVU358
 1042              		.loc 1 569 60 is_stmt 0 view .LVU359
 1043 0096 DAED087A 		vldr.32	s15, [r10, #32]
 1044              		.loc 1 569 48 view .LVU360
 1045 009a B0EE677A 		vmov.f32	s14, s15
 1046 009e BEEEEA7A 		vcvt.s32.f32	s14, s14, #11
 1047 00a2 17EE101A 		vmov	r1, s14	@ int
 1048 00a6 A5F80D10 		strh	r1, [r5, #13]	@ unaligned
 570:Lib/ssc_app/src/el9800appl.c ****         motor_tx[motorid / 3][motorid % 3].K_W = sDOOutputs.motor_kd * 1024;
 1049              		.loc 1 570 9 is_stmt 1 view .LVU361
 1050              		.loc 1 570 60 is_stmt 0 view .LVU362
 1051 00aa DAED097A 		vldr.32	s15, [r10, #36]
 1052              		.loc 1 570 48 view .LVU363
 1053 00ae B0EE677A 		vmov.f32	s14, s15
 1054 00b2 BEEECB7A 		vcvt.s32.f32	s14, s14, #10
 1055 00b6 17EE102A 		vmov	r2, s14	@ int
 1056 00ba A5F80F20 		strh	r2, [r5, #15]	@ unaligned
 571:Lib/ssc_app/src/el9800appl.c **** 
 572:Lib/ssc_app/src/el9800appl.c ****         motor_tx[motorid / 3][motorid % 3].SumCheck = motor_tx[motorid / 3][motorid % 3].start[0] +
 1057              		.loc 1 572 9 is_stmt 1 view .LVU364
 1058              		.loc 1 572 145 is_stmt 0 view .LVU365
 1059 00be 06F5E873 		add	r3, r6, #464
 1060              		.loc 1 572 189 view .LVU366
 1061 00c2 2344     		add	r3, r3, r4
 1062              		.loc 1 572 235 view .LVU367
 1063 00c4 4B44     		add	r3, r3, r9
 1064              		.loc 1 572 277 view .LVU368
 1065 00c6 4344     		add	r3, r3, r8
 1066              		.loc 1 572 316 view .LVU369
 1067 00c8 3B44     		add	r3, r3, r7
 1068              		.loc 1 572 355 view .LVU370
 1069 00ca 1844     		add	r0, r0, r3
 1070              		.loc 1 572 396 view .LVU371
 1071 00cc 00FA81F1 		sxtah	r1, r0, r1
 1072              		.loc 1 572 437 view .LVU372
 1073 00d0 01FA82F2 		sxtah	r2, r1, r2
 1074              		.loc 1 572 53 view .LVU373
 1075 00d4 C5F81120 		str	r2, [r5, #17]	@ unaligned
 573:Lib/ssc_app/src/el9800appl.c ****     }
 574:Lib/ssc_app/src/el9800appl.c **** }
 1076              		.loc 1 574 1 view .LVU374
 1077 00d8 BDE8F087 		pop	{r4, r5, r6, r7, r8, r9, r10, pc}
 1078              	.LVL77:
 1079              	.L47:
 1080              		.cfi_def_cfa_offset 0
 1081              		.cfi_restore 4
 1082              		.cfi_restore 5
 1083              		.cfi_restore 6
 1084              		.cfi_restore 7
 1085              		.cfi_restore 8
 1086              		.cfi_restore 9
ARM GAS  /tmp/ccOuxVYw.s 			page 31


 1087              		.cfi_restore 10
 1088              		.cfi_restore 14
 1089              		.loc 1 574 1 view .LVU375
 1090 00dc 7047     		bx	lr
 1091              	.L51:
 1092 00de 00BF     		.align	3
 1093              	.L50:
 1094 00e0 A7E8482E 		.word	776530087
 1095 00e4 FF211940 		.word	1075388927
 1096 00e8 00000000 		.word	.LANCHOR0
 1097 00ec 56555555 		.word	1431655766
 1098 00f0 00000000 		.word	motor_tx
 1099 00f4 0000D040 		.word	1087373312
 1100              		.cfi_endproc
 1101              	.LFE134:
 1103              		.section	.text.ecat_can_rx,"ax",%progbits
 1104              		.align	1
 1105              		.global	ecat_can_rx
 1106              		.syntax unified
 1107              		.thumb
 1108              		.thumb_func
 1110              	ecat_can_rx:
 1111              	.LFB135:
 575:Lib/ssc_app/src/el9800appl.c **** 
 576:Lib/ssc_app/src/el9800appl.c **** void ecat_can_rx()
 577:Lib/ssc_app/src/el9800appl.c **** {
 1112              		.loc 1 577 1 is_stmt 1 view -0
 1113              		.cfi_startproc
 1114              		@ args = 0, pretend = 0, frame = 0
 1115              		@ frame_needed = 0, uses_anonymous_args = 0
 1116 0000 08B5     		push	{r3, lr}
 1117              		.cfi_def_cfa_offset 8
 1118              		.cfi_offset 3, -8
 1119              		.cfi_offset 14, -4
 578:Lib/ssc_app/src/el9800appl.c ****     Can2_TxMessage.StdId = sDOOutputs.can2_h0;
 1120              		.loc 1 578 5 view .LVU377
 1121              		.loc 1 578 38 is_stmt 0 view .LVU378
 1122 0002 104B     		ldr	r3, .L54
 1123 0004 9A88     		ldrh	r2, [r3, #4]
 1124              		.loc 1 578 26 view .LVU379
 1125 0006 1049     		ldr	r1, .L54+4
 1126 0008 0A60     		str	r2, [r1]
 579:Lib/ssc_app/src/el9800appl.c ****     Can2_TxMessage.ExtId = sDOOutputs.can2_h1;
 1127              		.loc 1 579 5 is_stmt 1 view .LVU380
 1128              		.loc 1 579 38 is_stmt 0 view .LVU381
 1129 000a 9A79     		ldrb	r2, [r3, #6]	@ zero_extendqisi2
 1130              		.loc 1 579 26 view .LVU382
 1131 000c 4A60     		str	r2, [r1, #4]
 580:Lib/ssc_app/src/el9800appl.c ****     Can2_TxMessage.IDE = sDOOutputs.can2_h2;
 1132              		.loc 1 580 5 is_stmt 1 view .LVU383
 1133              		.loc 1 580 36 is_stmt 0 view .LVU384
 1134 000e DA79     		ldrb	r2, [r3, #7]	@ zero_extendqisi2
 1135              		.loc 1 580 24 view .LVU385
 1136 0010 0A72     		strb	r2, [r1, #8]
 581:Lib/ssc_app/src/el9800appl.c ****     Can2_TxMessage.RTR = sDOOutputs.can2_h3;
 1137              		.loc 1 581 5 is_stmt 1 view .LVU386
 1138              		.loc 1 581 36 is_stmt 0 view .LVU387
ARM GAS  /tmp/ccOuxVYw.s 			page 32


 1139 0012 1A7A     		ldrb	r2, [r3, #8]	@ zero_extendqisi2
 1140              		.loc 1 581 24 view .LVU388
 1141 0014 4A72     		strb	r2, [r1, #9]
 582:Lib/ssc_app/src/el9800appl.c ****     Can2_TxMessage.DLC = sDOOutputs.can2_h4;
 1142              		.loc 1 582 5 is_stmt 1 view .LVU389
 1143              		.loc 1 582 36 is_stmt 0 view .LVU390
 1144 0016 5A7A     		ldrb	r2, [r3, #9]	@ zero_extendqisi2
 1145              		.loc 1 582 24 view .LVU391
 1146 0018 8A72     		strb	r2, [r1, #10]
 583:Lib/ssc_app/src/el9800appl.c **** 
 584:Lib/ssc_app/src/el9800appl.c ****     Can2_TxMessage.Data[0] = sDOOutputs.can2_d0;
 1147              		.loc 1 584 5 is_stmt 1 view .LVU392
 1148              		.loc 1 584 40 is_stmt 0 view .LVU393
 1149 001a 9A7A     		ldrb	r2, [r3, #10]	@ zero_extendqisi2
 1150              		.loc 1 584 28 view .LVU394
 1151 001c CA72     		strb	r2, [r1, #11]
 585:Lib/ssc_app/src/el9800appl.c ****     Can2_TxMessage.Data[1] = sDOOutputs.can2_d1;
 1152              		.loc 1 585 5 is_stmt 1 view .LVU395
 1153              		.loc 1 585 40 is_stmt 0 view .LVU396
 1154 001e DA7A     		ldrb	r2, [r3, #11]	@ zero_extendqisi2
 1155              		.loc 1 585 28 view .LVU397
 1156 0020 0A73     		strb	r2, [r1, #12]
 586:Lib/ssc_app/src/el9800appl.c ****     Can2_TxMessage.Data[2] = sDOOutputs.can2_d2;
 1157              		.loc 1 586 5 is_stmt 1 view .LVU398
 1158              		.loc 1 586 40 is_stmt 0 view .LVU399
 1159 0022 1A7B     		ldrb	r2, [r3, #12]	@ zero_extendqisi2
 1160              		.loc 1 586 28 view .LVU400
 1161 0024 4A73     		strb	r2, [r1, #13]
 587:Lib/ssc_app/src/el9800appl.c ****     Can2_TxMessage.Data[3] = sDOOutputs.can2_d3;
 1162              		.loc 1 587 5 is_stmt 1 view .LVU401
 1163              		.loc 1 587 40 is_stmt 0 view .LVU402
 1164 0026 5A7B     		ldrb	r2, [r3, #13]	@ zero_extendqisi2
 1165              		.loc 1 587 28 view .LVU403
 1166 0028 8A73     		strb	r2, [r1, #14]
 588:Lib/ssc_app/src/el9800appl.c ****     Can2_TxMessage.Data[4] = sDOOutputs.can2_d4;
 1167              		.loc 1 588 5 is_stmt 1 view .LVU404
 1168              		.loc 1 588 40 is_stmt 0 view .LVU405
 1169 002a 9A7B     		ldrb	r2, [r3, #14]	@ zero_extendqisi2
 1170              		.loc 1 588 28 view .LVU406
 1171 002c CA73     		strb	r2, [r1, #15]
 589:Lib/ssc_app/src/el9800appl.c ****     Can2_TxMessage.Data[5] = sDOOutputs.can2_d5;
 1172              		.loc 1 589 5 is_stmt 1 view .LVU407
 1173              		.loc 1 589 40 is_stmt 0 view .LVU408
 1174 002e DA7B     		ldrb	r2, [r3, #15]	@ zero_extendqisi2
 1175              		.loc 1 589 28 view .LVU409
 1176 0030 0A74     		strb	r2, [r1, #16]
 590:Lib/ssc_app/src/el9800appl.c ****     Can2_TxMessage.Data[6] = sDOOutputs.can2_d6;
 1177              		.loc 1 590 5 is_stmt 1 view .LVU410
 1178              		.loc 1 590 40 is_stmt 0 view .LVU411
 1179 0032 1A7C     		ldrb	r2, [r3, #16]	@ zero_extendqisi2
 1180              		.loc 1 590 28 view .LVU412
 1181 0034 4A74     		strb	r2, [r1, #17]
 591:Lib/ssc_app/src/el9800appl.c ****     Can2_TxMessage.Data[7] = sDOOutputs.can2_d7;
 1182              		.loc 1 591 5 is_stmt 1 view .LVU413
 1183              		.loc 1 591 40 is_stmt 0 view .LVU414
 1184 0036 5B7C     		ldrb	r3, [r3, #17]	@ zero_extendqisi2
 1185              		.loc 1 591 28 view .LVU415
ARM GAS  /tmp/ccOuxVYw.s 			page 33


 1186 0038 8B74     		strb	r3, [r1, #18]
 592:Lib/ssc_app/src/el9800appl.c **** 
 593:Lib/ssc_app/src/el9800appl.c ****     CAN_Transmit(CAN2, &Can2_TxMessage);
 1187              		.loc 1 593 5 is_stmt 1 view .LVU416
 1188 003a 0448     		ldr	r0, .L54+8
 1189 003c FFF7FEFF 		bl	CAN_Transmit
 1190              	.LVL78:
 594:Lib/ssc_app/src/el9800appl.c **** }
 1191              		.loc 1 594 1 is_stmt 0 view .LVU417
 1192 0040 08BD     		pop	{r3, pc}
 1193              	.L55:
 1194 0042 00BF     		.align	2
 1195              	.L54:
 1196 0044 00000000 		.word	.LANCHOR0
 1197 0048 00000000 		.word	Can2_TxMessage
 1198 004c 00680040 		.word	1073768448
 1199              		.cfi_endproc
 1200              	.LFE135:
 1202              		.global	__aeabi_d2f
 1203              		.section	.text.APPL_Application,"ax",%progbits
 1204              		.align	1
 1205              		.global	APPL_Application
 1206              		.syntax unified
 1207              		.thumb
 1208              		.thumb_func
 1210              	APPL_Application:
 1211              	.LFB133:
 469:Lib/ssc_app/src/el9800appl.c ****     if (sDOOutputs.bLED1 != 0)
 1212              		.loc 1 469 1 is_stmt 1 view -0
 1213              		.cfi_startproc
 1214              		@ args = 0, pretend = 0, frame = 0
 1215              		@ frame_needed = 0, uses_anonymous_args = 0
 1216 0000 F8B5     		push	{r3, r4, r5, r6, r7, lr}
 1217              		.cfi_def_cfa_offset 24
 1218              		.cfi_offset 3, -24
 1219              		.cfi_offset 4, -20
 1220              		.cfi_offset 5, -16
 1221              		.cfi_offset 6, -12
 1222              		.cfi_offset 7, -8
 1223              		.cfi_offset 14, -4
 470:Lib/ssc_app/src/el9800appl.c ****     {
 1224              		.loc 1 470 5 view .LVU419
 470:Lib/ssc_app/src/el9800appl.c ****     {
 1225              		.loc 1 470 26 is_stmt 0 view .LVU420
 1226 0002 694B     		ldr	r3, .L68+8
 1227 0004 9B78     		ldrb	r3, [r3, #2]	@ zero_extendqisi2
 470:Lib/ssc_app/src/el9800appl.c ****     {
 1228              		.loc 1 470 8 view .LVU421
 1229 0006 13F0010F 		tst	r3, #1
 1230 000a 00F0AB80 		beq	.L57
 472:Lib/ssc_app/src/el9800appl.c ****     }
 1231              		.loc 1 472 9 is_stmt 1 view .LVU422
 1232 000e 4FF40041 		mov	r1, #32768
 1233 0012 6648     		ldr	r0, .L68+12
 1234 0014 FFF7FEFF 		bl	GPIO_SetBits
 1235              	.LVL79:
 1236              	.L58:
ARM GAS  /tmp/ccOuxVYw.s 			page 34


 479:Lib/ssc_app/src/el9800appl.c ****     {
 1237              		.loc 1 479 5 view .LVU423
 479:Lib/ssc_app/src/el9800appl.c ****     {
 1238              		.loc 1 479 26 is_stmt 0 view .LVU424
 1239 0018 634B     		ldr	r3, .L68+8
 1240 001a 9B78     		ldrb	r3, [r3, #2]	@ zero_extendqisi2
 479:Lib/ssc_app/src/el9800appl.c ****     {
 1241              		.loc 1 479 8 view .LVU425
 1242 001c 13F0020F 		tst	r3, #2
 1243 0020 00F0A680 		beq	.L59
 481:Lib/ssc_app/src/el9800appl.c ****     }
 1244              		.loc 1 481 9 is_stmt 1 view .LVU426
 1245 0024 4FF48041 		mov	r1, #16384
 1246 0028 6048     		ldr	r0, .L68+12
 1247 002a FFF7FEFF 		bl	GPIO_SetBits
 1248              	.LVL80:
 1249              	.L60:
 488:Lib/ssc_app/src/el9800appl.c ****     {
 1250              		.loc 1 488 5 view .LVU427
 488:Lib/ssc_app/src/el9800appl.c ****     {
 1251              		.loc 1 488 26 is_stmt 0 view .LVU428
 1252 002e 5E4B     		ldr	r3, .L68+8
 1253 0030 9B78     		ldrb	r3, [r3, #2]	@ zero_extendqisi2
 488:Lib/ssc_app/src/el9800appl.c ****     {
 1254              		.loc 1 488 8 view .LVU429
 1255 0032 13F0040F 		tst	r3, #4
 1256 0036 00F0A180 		beq	.L61
 490:Lib/ssc_app/src/el9800appl.c ****     }
 1257              		.loc 1 490 9 is_stmt 1 view .LVU430
 1258 003a 4FF40051 		mov	r1, #8192
 1259 003e 5B48     		ldr	r0, .L68+12
 1260 0040 FFF7FEFF 		bl	GPIO_SetBits
 1261              	.LVL81:
 1262              	.L62:
 497:Lib/ssc_app/src/el9800appl.c ****     ecat_motor_data_rx();
 1263              		.loc 1 497 5 view .LVU431
 1264 0044 FFF7FEFF 		bl	ecat_can_rx
 1265              	.LVL82:
 498:Lib/ssc_app/src/el9800appl.c **** 
 1266              		.loc 1 498 5 view .LVU432
 1267 0048 FFF7FEFF 		bl	ecat_motor_data_rx
 1268              	.LVL83:
 505:Lib/ssc_app/src/el9800appl.c **** 
 1269              		.loc 1 505 5 view .LVU433
 505:Lib/ssc_app/src/el9800appl.c **** 
 1270              		.loc 1 505 30 is_stmt 0 view .LVU434
 1271 004c 584B     		ldr	r3, .L68+16
 1272 004e 0022     		movs	r2, #0
 1273 0050 9A80     		strh	r2, [r3, #4]	@ movhi
 507:Lib/ssc_app/src/el9800appl.c ****     sAIInputs.can2_h1 = Can2_RxMessage.ExtId;
 1274              		.loc 1 507 5 is_stmt 1 view .LVU435
 507:Lib/ssc_app/src/el9800appl.c ****     sAIInputs.can2_h1 = Can2_RxMessage.ExtId;
 1275              		.loc 1 507 39 is_stmt 0 view .LVU436
 1276 0052 584A     		ldr	r2, .L68+20
 1277 0054 1168     		ldr	r1, [r2]
 507:Lib/ssc_app/src/el9800appl.c ****     sAIInputs.can2_h1 = Can2_RxMessage.ExtId;
 1278              		.loc 1 507 23 view .LVU437
ARM GAS  /tmp/ccOuxVYw.s 			page 35


 1279 0056 D980     		strh	r1, [r3, #6]	@ movhi
 508:Lib/ssc_app/src/el9800appl.c ****     sAIInputs.can2_h2 = Can2_RxMessage.IDE;
 1280              		.loc 1 508 5 is_stmt 1 view .LVU438
 508:Lib/ssc_app/src/el9800appl.c ****     sAIInputs.can2_h2 = Can2_RxMessage.IDE;
 1281              		.loc 1 508 39 is_stmt 0 view .LVU439
 1282 0058 5168     		ldr	r1, [r2, #4]
 508:Lib/ssc_app/src/el9800appl.c ****     sAIInputs.can2_h2 = Can2_RxMessage.IDE;
 1283              		.loc 1 508 23 view .LVU440
 1284 005a 1972     		strb	r1, [r3, #8]
 509:Lib/ssc_app/src/el9800appl.c ****     sAIInputs.can2_h3 = Can2_RxMessage.RTR;
 1285              		.loc 1 509 5 is_stmt 1 view .LVU441
 509:Lib/ssc_app/src/el9800appl.c ****     sAIInputs.can2_h3 = Can2_RxMessage.RTR;
 1286              		.loc 1 509 39 is_stmt 0 view .LVU442
 1287 005c 117A     		ldrb	r1, [r2, #8]	@ zero_extendqisi2
 509:Lib/ssc_app/src/el9800appl.c ****     sAIInputs.can2_h3 = Can2_RxMessage.RTR;
 1288              		.loc 1 509 23 view .LVU443
 1289 005e 5972     		strb	r1, [r3, #9]
 510:Lib/ssc_app/src/el9800appl.c ****     sAIInputs.can2_h4 = Can2_RxMessage.DLC;
 1290              		.loc 1 510 5 is_stmt 1 view .LVU444
 510:Lib/ssc_app/src/el9800appl.c ****     sAIInputs.can2_h4 = Can2_RxMessage.DLC;
 1291              		.loc 1 510 39 is_stmt 0 view .LVU445
 1292 0060 517A     		ldrb	r1, [r2, #9]	@ zero_extendqisi2
 510:Lib/ssc_app/src/el9800appl.c ****     sAIInputs.can2_h4 = Can2_RxMessage.DLC;
 1293              		.loc 1 510 23 view .LVU446
 1294 0062 9972     		strb	r1, [r3, #10]
 511:Lib/ssc_app/src/el9800appl.c **** 
 1295              		.loc 1 511 5 is_stmt 1 view .LVU447
 511:Lib/ssc_app/src/el9800appl.c **** 
 1296              		.loc 1 511 39 is_stmt 0 view .LVU448
 1297 0064 917A     		ldrb	r1, [r2, #10]	@ zero_extendqisi2
 511:Lib/ssc_app/src/el9800appl.c **** 
 1298              		.loc 1 511 23 view .LVU449
 1299 0066 D972     		strb	r1, [r3, #11]
 513:Lib/ssc_app/src/el9800appl.c ****     sAIInputs.can2_d1 = Can2_RxMessage.Data[1];
 1300              		.loc 1 513 5 is_stmt 1 view .LVU450
 513:Lib/ssc_app/src/el9800appl.c ****     sAIInputs.can2_d1 = Can2_RxMessage.Data[1];
 1301              		.loc 1 513 44 is_stmt 0 view .LVU451
 1302 0068 D17A     		ldrb	r1, [r2, #11]	@ zero_extendqisi2
 513:Lib/ssc_app/src/el9800appl.c ****     sAIInputs.can2_d1 = Can2_RxMessage.Data[1];
 1303              		.loc 1 513 23 view .LVU452
 1304 006a 1973     		strb	r1, [r3, #12]
 514:Lib/ssc_app/src/el9800appl.c ****     sAIInputs.can2_d2 = Can2_RxMessage.Data[2];
 1305              		.loc 1 514 5 is_stmt 1 view .LVU453
 514:Lib/ssc_app/src/el9800appl.c ****     sAIInputs.can2_d2 = Can2_RxMessage.Data[2];
 1306              		.loc 1 514 44 is_stmt 0 view .LVU454
 1307 006c 117B     		ldrb	r1, [r2, #12]	@ zero_extendqisi2
 514:Lib/ssc_app/src/el9800appl.c ****     sAIInputs.can2_d2 = Can2_RxMessage.Data[2];
 1308              		.loc 1 514 23 view .LVU455
 1309 006e 5973     		strb	r1, [r3, #13]
 515:Lib/ssc_app/src/el9800appl.c ****     sAIInputs.can2_d3 = Can2_RxMessage.Data[3];
 1310              		.loc 1 515 5 is_stmt 1 view .LVU456
 515:Lib/ssc_app/src/el9800appl.c ****     sAIInputs.can2_d3 = Can2_RxMessage.Data[3];
 1311              		.loc 1 515 44 is_stmt 0 view .LVU457
 1312 0070 517B     		ldrb	r1, [r2, #13]	@ zero_extendqisi2
 515:Lib/ssc_app/src/el9800appl.c ****     sAIInputs.can2_d3 = Can2_RxMessage.Data[3];
 1313              		.loc 1 515 23 view .LVU458
 1314 0072 9973     		strb	r1, [r3, #14]
ARM GAS  /tmp/ccOuxVYw.s 			page 36


 516:Lib/ssc_app/src/el9800appl.c ****     sAIInputs.can2_d4 = Can2_RxMessage.Data[4];
 1315              		.loc 1 516 5 is_stmt 1 view .LVU459
 516:Lib/ssc_app/src/el9800appl.c ****     sAIInputs.can2_d4 = Can2_RxMessage.Data[4];
 1316              		.loc 1 516 44 is_stmt 0 view .LVU460
 1317 0074 917B     		ldrb	r1, [r2, #14]	@ zero_extendqisi2
 516:Lib/ssc_app/src/el9800appl.c ****     sAIInputs.can2_d4 = Can2_RxMessage.Data[4];
 1318              		.loc 1 516 23 view .LVU461
 1319 0076 D973     		strb	r1, [r3, #15]
 517:Lib/ssc_app/src/el9800appl.c ****     sAIInputs.can2_d5 = Can2_RxMessage.Data[5];
 1320              		.loc 1 517 5 is_stmt 1 view .LVU462
 517:Lib/ssc_app/src/el9800appl.c ****     sAIInputs.can2_d5 = Can2_RxMessage.Data[5];
 1321              		.loc 1 517 44 is_stmt 0 view .LVU463
 1322 0078 D17B     		ldrb	r1, [r2, #15]	@ zero_extendqisi2
 517:Lib/ssc_app/src/el9800appl.c ****     sAIInputs.can2_d5 = Can2_RxMessage.Data[5];
 1323              		.loc 1 517 23 view .LVU464
 1324 007a 1974     		strb	r1, [r3, #16]
 518:Lib/ssc_app/src/el9800appl.c ****     sAIInputs.can2_d6 = Can2_RxMessage.Data[6];
 1325              		.loc 1 518 5 is_stmt 1 view .LVU465
 518:Lib/ssc_app/src/el9800appl.c ****     sAIInputs.can2_d6 = Can2_RxMessage.Data[6];
 1326              		.loc 1 518 44 is_stmt 0 view .LVU466
 1327 007c 117C     		ldrb	r1, [r2, #16]	@ zero_extendqisi2
 518:Lib/ssc_app/src/el9800appl.c ****     sAIInputs.can2_d6 = Can2_RxMessage.Data[6];
 1328              		.loc 1 518 23 view .LVU467
 1329 007e 5974     		strb	r1, [r3, #17]
 519:Lib/ssc_app/src/el9800appl.c ****     sAIInputs.can2_d7 = Can2_RxMessage.Data[7];
 1330              		.loc 1 519 5 is_stmt 1 view .LVU468
 519:Lib/ssc_app/src/el9800appl.c ****     sAIInputs.can2_d7 = Can2_RxMessage.Data[7];
 1331              		.loc 1 519 44 is_stmt 0 view .LVU469
 1332 0080 517C     		ldrb	r1, [r2, #17]	@ zero_extendqisi2
 519:Lib/ssc_app/src/el9800appl.c ****     sAIInputs.can2_d7 = Can2_RxMessage.Data[7];
 1333              		.loc 1 519 23 view .LVU470
 1334 0082 9974     		strb	r1, [r3, #18]
 520:Lib/ssc_app/src/el9800appl.c **** 
 1335              		.loc 1 520 5 is_stmt 1 view .LVU471
 520:Lib/ssc_app/src/el9800appl.c **** 
 1336              		.loc 1 520 44 is_stmt 0 view .LVU472
 1337 0084 927C     		ldrb	r2, [r2, #18]	@ zero_extendqisi2
 520:Lib/ssc_app/src/el9800appl.c **** 
 1338              		.loc 1 520 23 view .LVU473
 1339 0086 DA74     		strb	r2, [r3, #19]
 522:Lib/ssc_app/src/el9800appl.c ****     {
 1340              		.loc 1 522 5 is_stmt 1 view .LVU474
 522:Lib/ssc_app/src/el9800appl.c ****     {
 1341              		.loc 1 522 17 is_stmt 0 view .LVU475
 1342 0088 4B4B     		ldr	r3, .L68+24
 1343 008a 1B68     		ldr	r3, [r3]
 522:Lib/ssc_app/src/el9800appl.c ****     {
 1344              		.loc 1 522 8 view .LVU476
 1345 008c 0A2B     		cmp	r3, #10
 1346 008e 7BDC     		bgt	.L63
 524:Lib/ssc_app/src/el9800appl.c ****     }
 1347              		.loc 1 524 9 is_stmt 1 view .LVU477
 524:Lib/ssc_app/src/el9800appl.c ****     }
 1348              		.loc 1 524 16 is_stmt 0 view .LVU478
 1349 0090 0133     		adds	r3, r3, #1
 1350 0092 494A     		ldr	r2, .L68+24
 1351 0094 1360     		str	r3, [r2]
ARM GAS  /tmp/ccOuxVYw.s 			page 37


 1352              	.L64:
 531:Lib/ssc_app/src/el9800appl.c ****     sAIInputs.motor_mode = 10;
 1353              		.loc 1 531 5 is_stmt 1 view .LVU479
 531:Lib/ssc_app/src/el9800appl.c ****     sAIInputs.motor_mode = 10;
 1354              		.loc 1 531 24 is_stmt 0 view .LVU480
 1355 0096 484B     		ldr	r3, .L68+24
 1356 0098 1E68     		ldr	r6, [r3]
 1357 009a 454C     		ldr	r4, .L68+16
 1358 009c 2675     		strb	r6, [r4, #20]
 532:Lib/ssc_app/src/el9800appl.c **** 
 1359              		.loc 1 532 5 is_stmt 1 view .LVU481
 532:Lib/ssc_app/src/el9800appl.c **** 
 1360              		.loc 1 532 26 is_stmt 0 view .LVU482
 1361 009e 0A23     		movs	r3, #10
 1362 00a0 6375     		strb	r3, [r4, #21]
 534:Lib/ssc_app/src/el9800appl.c ****     sAIInputs.motor_error = motor_rx[ms_flag / 3][ms_flag % 3].MError;                    //
 1363              		.loc 1 534 5 is_stmt 1 view .LVU483
 534:Lib/ssc_app/src/el9800appl.c ****     sAIInputs.motor_error = motor_rx[ms_flag / 3][ms_flag % 3].MError;                    //
 1364              		.loc 1 534 45 is_stmt 0 view .LVU484
 1365 00a2 464D     		ldr	r5, .L68+28
 1366 00a4 85FB0635 		smull	r3, r5, r5, r6
 1367 00a8 A5EBE675 		sub	r5, r5, r6, asr #31
 534:Lib/ssc_app/src/el9800appl.c ****     sAIInputs.motor_error = motor_rx[ms_flag / 3][ms_flag % 3].MError;                    //
 1368              		.loc 1 534 58 view .LVU485
 1369 00ac 05EB4503 		add	r3, r5, r5, lsl #1
 1370 00b0 F61A     		subs	r6, r6, r3
 534:Lib/ssc_app/src/el9800appl.c ****     sAIInputs.motor_error = motor_rx[ms_flag / 3][ms_flag % 3].MError;                    //
 1371              		.loc 1 534 62 view .LVU486
 1372 00b2 06EB4603 		add	r3, r6, r6, lsl #1
 1373 00b6 C3EBC303 		rsb	r3, r3, r3, lsl #3
 1374 00ba C5EB8512 		rsb	r2, r5, r5, lsl #6
 1375 00be 1A44     		add	r2, r2, r3
 1376 00c0 3F4B     		ldr	r3, .L68+32
 1377 00c2 1344     		add	r3, r3, r2
 1378 00c4 93F90520 		ldrsb	r2, [r3, #5]
 534:Lib/ssc_app/src/el9800appl.c ****     sAIInputs.motor_error = motor_rx[ms_flag / 3][ms_flag % 3].MError;                    //
 1379              		.loc 1 534 26 view .LVU487
 1380 00c8 E282     		strh	r2, [r4, #22]	@ movhi
 535:Lib/ssc_app/src/el9800appl.c ****     sAIInputs.motor_T = (float)motor_rx[ms_flag / 3][ms_flag % 3].T / 256;                //
 1381              		.loc 1 535 5 is_stmt 1 view .LVU488
 535:Lib/ssc_app/src/el9800appl.c ****     sAIInputs.motor_T = (float)motor_rx[ms_flag / 3][ms_flag % 3].T / 256;                //
 1382              		.loc 1 535 63 is_stmt 0 view .LVU489
 1383 00ca 9A79     		ldrb	r2, [r3, #6]	@ zero_extendqisi2
 535:Lib/ssc_app/src/el9800appl.c ****     sAIInputs.motor_T = (float)motor_rx[ms_flag / 3][ms_flag % 3].T / 256;                //
 1384              		.loc 1 535 27 view .LVU490
 1385 00cc 2283     		strh	r2, [r4, #24]	@ movhi
 536:Lib/ssc_app/src/el9800appl.c ****     sAIInputs.motor_W = (float)motor_rx[ms_flag / 3][ms_flag % 3].W / 128;                //
 1386              		.loc 1 536 5 is_stmt 1 view .LVU491
 536:Lib/ssc_app/src/el9800appl.c ****     sAIInputs.motor_W = (float)motor_rx[ms_flag / 3][ms_flag % 3].W / 128;                //
 1387              		.loc 1 536 66 is_stmt 0 view .LVU492
 1388 00ce B3F90720 		ldrsh	r2, [r3, #7]	@ unaligned
 1389 00d2 07EE902A 		vmov	s15, r2	@ int
 536:Lib/ssc_app/src/el9800appl.c ****     sAIInputs.motor_W = (float)motor_rx[ms_flag / 3][ms_flag % 3].W / 128;                //
 1390              		.loc 1 536 25 view .LVU493
 1391 00d6 F8EEE77A 		vcvt.f32.s32	s15, s15
 536:Lib/ssc_app/src/el9800appl.c ****     sAIInputs.motor_W = (float)motor_rx[ms_flag / 3][ms_flag % 3].W / 128;                //
 1392              		.loc 1 536 69 view .LVU494
ARM GAS  /tmp/ccOuxVYw.s 			page 38


 1393 00da 9FED3A7A 		vldr.32	s14, .L68+36
 1394 00de 67EE877A 		vmul.f32	s15, s15, s14
 536:Lib/ssc_app/src/el9800appl.c ****     sAIInputs.motor_W = (float)motor_rx[ms_flag / 3][ms_flag % 3].W / 128;                //
 1395              		.loc 1 536 23 view .LVU495
 1396 00e2 C4ED077A 		vstr.32	s15, [r4, #28]
 537:Lib/ssc_app/src/el9800appl.c ****     sAIInputs.motor_Pos = (float)motor_rx[ms_flag / 3][ms_flag % 3].Pos / 16384 * 6.2832; //
 1397              		.loc 1 537 5 is_stmt 1 view .LVU496
 537:Lib/ssc_app/src/el9800appl.c ****     sAIInputs.motor_Pos = (float)motor_rx[ms_flag / 3][ms_flag % 3].Pos / 16384 * 6.2832; //
 1398              		.loc 1 537 66 is_stmt 0 view .LVU497
 1399 00e6 03F10807 		add	r7, r3, #8
 1400 00ea B3F90920 		ldrsh	r2, [r3, #9]	@ unaligned
 1401 00ee 07EE902A 		vmov	s15, r2	@ int
 537:Lib/ssc_app/src/el9800appl.c ****     sAIInputs.motor_Pos = (float)motor_rx[ms_flag / 3][ms_flag % 3].Pos / 16384 * 6.2832; //
 1402              		.loc 1 537 25 view .LVU498
 1403 00f2 F8EEE77A 		vcvt.f32.s32	s15, s15
 537:Lib/ssc_app/src/el9800appl.c ****     sAIInputs.motor_Pos = (float)motor_rx[ms_flag / 3][ms_flag % 3].Pos / 16384 * 6.2832; //
 1404              		.loc 1 537 69 view .LVU499
 1405 00f6 9FED347A 		vldr.32	s14, .L68+40
 1406 00fa 67EE877A 		vmul.f32	s15, s15, s14
 537:Lib/ssc_app/src/el9800appl.c ****     sAIInputs.motor_Pos = (float)motor_rx[ms_flag / 3][ms_flag % 3].Pos / 16384 * 6.2832; //
 1407              		.loc 1 537 23 view .LVU500
 1408 00fe C4ED087A 		vstr.32	s15, [r4, #32]
 538:Lib/ssc_app/src/el9800appl.c ****     sAIInputs.motor_LW = 10;
 1409              		.loc 1 538 5 is_stmt 1 view .LVU501
 538:Lib/ssc_app/src/el9800appl.c ****     sAIInputs.motor_LW = 10;
 1410              		.loc 1 538 68 is_stmt 0 view .LVU502
 1411 0102 D3F80D30 		ldr	r3, [r3, #13]	@ unaligned
 1412 0106 07EE903A 		vmov	s15, r3	@ int
 538:Lib/ssc_app/src/el9800appl.c ****     sAIInputs.motor_LW = 10;
 1413              		.loc 1 538 27 view .LVU503
 1414 010a F8EEE77A 		vcvt.f32.s32	s15, s15
 538:Lib/ssc_app/src/el9800appl.c ****     sAIInputs.motor_LW = 10;
 1415              		.loc 1 538 73 view .LVU504
 1416 010e 9FED2F7A 		vldr.32	s14, .L68+44
 1417 0112 67EE877A 		vmul.f32	s15, s15, s14
 1418 0116 17EE900A 		vmov	r0, s15
 1419 011a FFF7FEFF 		bl	__aeabi_f2d
 1420              	.LVL84:
 538:Lib/ssc_app/src/el9800appl.c ****     sAIInputs.motor_LW = 10;
 1421              		.loc 1 538 81 view .LVU505
 1422 011e 20A3     		adr	r3, .L68
 1423 0120 D3E90023 		ldrd	r2, [r3]
 1424 0124 FFF7FEFF 		bl	__aeabi_dmul
 1425              	.LVL85:
 1426 0128 FFF7FEFF 		bl	__aeabi_d2f
 1427              	.LVL86:
 538:Lib/ssc_app/src/el9800appl.c ****     sAIInputs.motor_LW = 10;
 1428              		.loc 1 538 25 view .LVU506
 1429 012c 6062     		str	r0, [r4, #36]	@ float
 539:Lib/ssc_app/src/el9800appl.c ****     sAIInputs.motor_Acc = (float)motor_rx[ms_flag / 3][ms_flag % 3].Acc; //
 1430              		.loc 1 539 5 is_stmt 1 view .LVU507
 539:Lib/ssc_app/src/el9800appl.c ****     sAIInputs.motor_Acc = (float)motor_rx[ms_flag / 3][ms_flag % 3].Acc; //
 1431              		.loc 1 539 24 is_stmt 0 view .LVU508
 1432 012e 284B     		ldr	r3, .L68+48
 1433 0130 A362     		str	r3, [r4, #40]	@ float
 540:Lib/ssc_app/src/el9800appl.c **** 
 1434              		.loc 1 540 5 is_stmt 1 view .LVU509
ARM GAS  /tmp/ccOuxVYw.s 			page 39


 540:Lib/ssc_app/src/el9800appl.c **** 
 1435              		.loc 1 540 68 is_stmt 0 view .LVU510
 1436 0132 B7F90330 		ldrsh	r3, [r7, #3]	@ unaligned
 540:Lib/ssc_app/src/el9800appl.c **** 
 1437              		.loc 1 540 25 view .LVU511
 1438 0136 A385     		strh	r3, [r4, #44]	@ movhi
 542:Lib/ssc_app/src/el9800appl.c **** 
 1439              		.loc 1 542 5 is_stmt 1 view .LVU512
 1440 0138 3146     		mov	r1, r6
 1441 013a 2846     		mov	r0, r5
 1442 013c FFF7FEFF 		bl	ecat_spi_motor
 1443              	.LVL87:
 545:Lib/ssc_app/src/el9800appl.c **** 
 1444              		.loc 1 545 5 view .LVU513
 545:Lib/ssc_app/src/el9800appl.c **** 
 1445              		.loc 1 545 28 is_stmt 0 view .LVU514
 1446 0140 E378     		ldrb	r3, [r4, #3]	@ zero_extendqisi2
 1447 0142 C3F3C012 		ubfx	r2, r3, #7, #1
 1448 0146 82F00102 		eor	r2, r2, #1
 1449 014a 62F3C713 		bfi	r3, r2, #7, #1
 1450 014e E370     		strb	r3, [r4, #3]
 549:Lib/ssc_app/src/el9800appl.c ****         sAIInputs.bTxPDOState = 1;
 1451              		.loc 1 549 5 is_stmt 1 view .LVU515
 549:Lib/ssc_app/src/el9800appl.c ****         sAIInputs.bTxPDOState = 1;
 1452              		.loc 1 549 9 is_stmt 0 view .LVU516
 1453 0150 204B     		ldr	r3, .L68+52
 1454 0152 9B78     		ldrb	r3, [r3, #2]	@ zero_extendqisi2
 549:Lib/ssc_app/src/el9800appl.c ****         sAIInputs.bTxPDOState = 1;
 1455              		.loc 1 549 8 view .LVU517
 1456 0154 13F0080F 		tst	r3, #8
 1457 0158 1AD0     		beq	.L65
 550:Lib/ssc_app/src/el9800appl.c ****     else
 1458              		.loc 1 550 9 is_stmt 1 view .LVU518
 550:Lib/ssc_app/src/el9800appl.c ****     else
 1459              		.loc 1 550 31 is_stmt 0 view .LVU519
 1460 015a E378     		ldrb	r3, [r4, #3]	@ zero_extendqisi2
 1461 015c 43F04003 		orr	r3, r3, #64
 1462 0160 E370     		strb	r3, [r4, #3]
 1463              	.L56:
 553:Lib/ssc_app/src/el9800appl.c **** 
 1464              		.loc 1 553 1 view .LVU520
 1465 0162 F8BD     		pop	{r3, r4, r5, r6, r7, pc}
 1466              	.L57:
 476:Lib/ssc_app/src/el9800appl.c ****     }
 1467              		.loc 1 476 9 is_stmt 1 view .LVU521
 1468 0164 4FF40041 		mov	r1, #32768
 1469 0168 1048     		ldr	r0, .L68+12
 1470 016a FFF7FEFF 		bl	GPIO_ResetBits
 1471              	.LVL88:
 1472 016e 53E7     		b	.L58
 1473              	.L59:
 485:Lib/ssc_app/src/el9800appl.c ****     }
 1474              		.loc 1 485 9 view .LVU522
 1475 0170 4FF48041 		mov	r1, #16384
 1476 0174 0D48     		ldr	r0, .L68+12
 1477 0176 FFF7FEFF 		bl	GPIO_ResetBits
 1478              	.LVL89:
ARM GAS  /tmp/ccOuxVYw.s 			page 40


 1479 017a 58E7     		b	.L60
 1480              	.L61:
 494:Lib/ssc_app/src/el9800appl.c ****     }
 1481              		.loc 1 494 9 view .LVU523
 1482 017c 4FF40051 		mov	r1, #8192
 1483 0180 0A48     		ldr	r0, .L68+12
 1484 0182 FFF7FEFF 		bl	GPIO_ResetBits
 1485              	.LVL90:
 1486 0186 5DE7     		b	.L62
 1487              	.L63:
 528:Lib/ssc_app/src/el9800appl.c ****     }
 1488              		.loc 1 528 9 view .LVU524
 528:Lib/ssc_app/src/el9800appl.c ****     }
 1489              		.loc 1 528 17 is_stmt 0 view .LVU525
 1490 0188 0B4B     		ldr	r3, .L68+24
 1491 018a 0022     		movs	r2, #0
 1492 018c 1A60     		str	r2, [r3]
 1493 018e 82E7     		b	.L64
 1494              	.L65:
 552:Lib/ssc_app/src/el9800appl.c **** }
 1495              		.loc 1 552 9 is_stmt 1 view .LVU526
 552:Lib/ssc_app/src/el9800appl.c **** }
 1496              		.loc 1 552 31 is_stmt 0 view .LVU527
 1497 0190 074B     		ldr	r3, .L68+16
 1498 0192 DA78     		ldrb	r2, [r3, #3]	@ zero_extendqisi2
 1499 0194 6FF38612 		bfc	r2, #6, #1
 1500 0198 DA70     		strb	r2, [r3, #3]
 553:Lib/ssc_app/src/el9800appl.c **** 
 1501              		.loc 1 553 1 view .LVU528
 1502 019a E2E7     		b	.L56
 1503              	.L69:
 1504 019c AFF30080 		.align	3
 1505              	.L68:
 1506 01a0 A7E8482E 		.word	776530087
 1507 01a4 FF211940 		.word	1075388927
 1508 01a8 00000000 		.word	.LANCHOR0
 1509 01ac 00040240 		.word	1073873920
 1510 01b0 00000000 		.word	.LANCHOR4
 1511 01b4 00000000 		.word	Can2_RxMessage
 1512 01b8 00000000 		.word	.LANCHOR5
 1513 01bc 56555555 		.word	1431655766
 1514 01c0 00000000 		.word	motor_rx
 1515 01c4 0000803B 		.word	998244352
 1516 01c8 0000003C 		.word	1006632960
 1517 01cc 00008038 		.word	947912704
 1518 01d0 00002041 		.word	1092616192
 1519 01d4 00000000 		.word	.LANCHOR3
 1520              		.cfi_endproc
 1521              	.LFE133:
 1523              		.section	.text.ReadObject0x1802,"ax",%progbits
 1524              		.align	1
 1525              		.global	ReadObject0x1802
 1526              		.syntax unified
 1527              		.thumb
 1528              		.thumb_func
 1530              	ReadObject0x1802:
 1531              	.LVL91:
ARM GAS  /tmp/ccOuxVYw.s 			page 41


 1532              	.LFB136:
 595:Lib/ssc_app/src/el9800appl.c **** /////////////////////////////////////////////////////////////////////////////////////////
 596:Lib/ssc_app/src/el9800appl.c **** /**
 597:Lib/ssc_app/src/el9800appl.c ****  \param     index               index of the requested object.
 598:Lib/ssc_app/src/el9800appl.c ****  \param     subindex            subindex of the requested object.
 599:Lib/ssc_app/src/el9800appl.c ****  \param     objSize             size of the requested object data, calculated with OBJ_GetObjectLen
 600:Lib/ssc_app/src/el9800appl.c ****  \param     pData               Pointer to the buffer where the data can be copied to
 601:Lib/ssc_app/src/el9800appl.c ****  \param     bCompleteAccess     Indicates if a complete read of all subindices of the
 602:Lib/ssc_app/src/el9800appl.c ****                                 object shall be done or not
 603:Lib/ssc_app/src/el9800appl.c **** 
 604:Lib/ssc_app/src/el9800appl.c ****  \return    ABORTIDX_XXX
 605:Lib/ssc_app/src/el9800appl.c **** 
 606:Lib/ssc_app/src/el9800appl.c ****  \brief     Handles SDO read requests to TxPDO Parameter
 607:Lib/ssc_app/src/el9800appl.c **** */
 608:Lib/ssc_app/src/el9800appl.c **** ///////////////////////////////////////////////////////////////////////////////////////
 609:Lib/ssc_app/src/el9800appl.c **** UINT8 ReadObject0x1802(UINT16 index, UINT8 subindex, UINT32 dataSize, UINT16 MBXMEM *pData, UINT8 b
 610:Lib/ssc_app/src/el9800appl.c **** {
 1533              		.loc 1 610 1 is_stmt 1 view -0
 1534              		.cfi_startproc
 1535              		@ args = 4, pretend = 0, frame = 0
 1536              		@ frame_needed = 0, uses_anonymous_args = 0
 1537              		.loc 1 610 1 is_stmt 0 view .LVU530
 1538 0000 10B5     		push	{r4, lr}
 1539              		.cfi_def_cfa_offset 8
 1540              		.cfi_offset 4, -8
 1541              		.cfi_offset 14, -4
 1542 0002 9DF80840 		ldrb	r4, [sp, #8]	@ zero_extendqisi2
 611:Lib/ssc_app/src/el9800appl.c **** 
 612:Lib/ssc_app/src/el9800appl.c ****     if (bCompleteAccess)
 1543              		.loc 1 612 5 is_stmt 1 view .LVU531
 1544              		.loc 1 612 8 is_stmt 0 view .LVU532
 1545 0006 34BB     		cbnz	r4, .L75
 613:Lib/ssc_app/src/el9800appl.c ****         return ABORTIDX_UNSUPPORTED_ACCESS;
 614:Lib/ssc_app/src/el9800appl.c **** 
 615:Lib/ssc_app/src/el9800appl.c ****     if (subindex == 0)
 1546              		.loc 1 615 5 is_stmt 1 view .LVU533
 1547              		.loc 1 615 8 is_stmt 0 view .LVU534
 1548 0008 21B9     		cbnz	r1, .L72
 616:Lib/ssc_app/src/el9800appl.c ****     {
 617:Lib/ssc_app/src/el9800appl.c ****         *pData = TxPDO1802Subindex0;
 1549              		.loc 1 617 9 is_stmt 1 view .LVU535
 1550              		.loc 1 617 16 is_stmt 0 view .LVU536
 1551 000a 154A     		ldr	r2, .L82
 1552              	.LVL92:
 1553              		.loc 1 617 16 view .LVU537
 1554 000c 1288     		ldrh	r2, [r2]
 1555 000e 1A80     		strh	r2, [r3]	@ movhi
 618:Lib/ssc_app/src/el9800appl.c ****     }
 619:Lib/ssc_app/src/el9800appl.c ****     else if (subindex == 6)
 620:Lib/ssc_app/src/el9800appl.c ****     {
 621:Lib/ssc_app/src/el9800appl.c ****         /*clear destination buffer (no excluded TxPDO set)*/
 622:Lib/ssc_app/src/el9800appl.c ****         if (dataSize > 0)
 623:Lib/ssc_app/src/el9800appl.c ****             MBXMEMSET(pData, 0x00, dataSize);
 624:Lib/ssc_app/src/el9800appl.c ****     }
 625:Lib/ssc_app/src/el9800appl.c ****     else if (subindex == 7)
 626:Lib/ssc_app/src/el9800appl.c ****     {
 627:Lib/ssc_app/src/el9800appl.c ****         /*min size is one Byte*/
ARM GAS  /tmp/ccOuxVYw.s 			page 42


 628:Lib/ssc_app/src/el9800appl.c ****         UINT8 *pu8Data = (UINT8 *)pData;
 629:Lib/ssc_app/src/el9800appl.c **** 
 630:Lib/ssc_app/src/el9800appl.c ****         // Reset Buffer
 631:Lib/ssc_app/src/el9800appl.c ****         *pu8Data = 0;
 632:Lib/ssc_app/src/el9800appl.c **** 
 633:Lib/ssc_app/src/el9800appl.c ****         *pu8Data = sAIInputs.bTxPDOState;
 634:Lib/ssc_app/src/el9800appl.c ****     }
 635:Lib/ssc_app/src/el9800appl.c ****     else if (subindex == 9)
 636:Lib/ssc_app/src/el9800appl.c ****     {
 637:Lib/ssc_app/src/el9800appl.c ****         /*min size is one Byte*/
 638:Lib/ssc_app/src/el9800appl.c ****         UINT8 *pu8Data = (UINT8 *)pData;
 639:Lib/ssc_app/src/el9800appl.c **** 
 640:Lib/ssc_app/src/el9800appl.c ****         // Reset Buffer
 641:Lib/ssc_app/src/el9800appl.c ****         *pu8Data = 0;
 642:Lib/ssc_app/src/el9800appl.c **** 
 643:Lib/ssc_app/src/el9800appl.c ****         *pu8Data = sAIInputs.bTxPDOToggle;
 644:Lib/ssc_app/src/el9800appl.c ****     }
 645:Lib/ssc_app/src/el9800appl.c ****     else
 646:Lib/ssc_app/src/el9800appl.c ****         return ABORTIDX_SUBINDEX_NOT_EXISTING;
 647:Lib/ssc_app/src/el9800appl.c **** 
 648:Lib/ssc_app/src/el9800appl.c ****     return 0;
 1556              		.loc 1 648 12 view .LVU538
 1557 0010 0846     		mov	r0, r1
 1558              	.LVL93:
 1559              	.L71:
 649:Lib/ssc_app/src/el9800appl.c **** }
 1560              		.loc 1 649 1 view .LVU539
 1561 0012 10BD     		pop	{r4, pc}
 1562              	.LVL94:
 1563              	.L72:
 619:Lib/ssc_app/src/el9800appl.c ****     {
 1564              		.loc 1 619 10 is_stmt 1 view .LVU540
 619:Lib/ssc_app/src/el9800appl.c ****     {
 1565              		.loc 1 619 13 is_stmt 0 view .LVU541
 1566 0014 0629     		cmp	r1, #6
 1567 0016 0CD0     		beq	.L79
 625:Lib/ssc_app/src/el9800appl.c ****     {
 1568              		.loc 1 625 10 is_stmt 1 view .LVU542
 625:Lib/ssc_app/src/el9800appl.c ****     {
 1569              		.loc 1 625 13 is_stmt 0 view .LVU543
 1570 0018 0729     		cmp	r1, #7
 1571 001a 13D0     		beq	.L80
 635:Lib/ssc_app/src/el9800appl.c ****     {
 1572              		.loc 1 635 10 is_stmt 1 view .LVU544
 635:Lib/ssc_app/src/el9800appl.c ****     {
 1573              		.loc 1 635 13 is_stmt 0 view .LVU545
 1574 001c 0929     		cmp	r1, #9
 1575 001e 1CD1     		bne	.L77
 1576              	.LBB2:
 638:Lib/ssc_app/src/el9800appl.c **** 
 1577              		.loc 1 638 9 is_stmt 1 view .LVU546
 1578              	.LVL95:
 641:Lib/ssc_app/src/el9800appl.c **** 
 1579              		.loc 1 641 9 view .LVU547
 641:Lib/ssc_app/src/el9800appl.c **** 
 1580              		.loc 1 641 18 is_stmt 0 view .LVU548
 1581 0020 0022     		movs	r2, #0
ARM GAS  /tmp/ccOuxVYw.s 			page 43


 1582              	.LVL96:
 641:Lib/ssc_app/src/el9800appl.c **** 
 1583              		.loc 1 641 18 view .LVU549
 1584 0022 1A70     		strb	r2, [r3]
 643:Lib/ssc_app/src/el9800appl.c ****     }
 1585              		.loc 1 643 9 is_stmt 1 view .LVU550
 643:Lib/ssc_app/src/el9800appl.c ****     }
 1586              		.loc 1 643 29 is_stmt 0 view .LVU551
 1587 0024 0F4A     		ldr	r2, .L82+4
 1588 0026 D278     		ldrb	r2, [r2, #3]	@ zero_extendqisi2
 1589 0028 C2F3C012 		ubfx	r2, r2, #7, #1
 643:Lib/ssc_app/src/el9800appl.c ****     }
 1590              		.loc 1 643 18 view .LVU552
 1591 002c 1A70     		strb	r2, [r3]
 1592              	.LBE2:
 648:Lib/ssc_app/src/el9800appl.c **** }
 1593              		.loc 1 648 12 view .LVU553
 1594 002e 2046     		mov	r0, r4
 1595              	.LVL97:
 648:Lib/ssc_app/src/el9800appl.c **** }
 1596              		.loc 1 648 12 view .LVU554
 1597 0030 EFE7     		b	.L71
 1598              	.LVL98:
 1599              	.L79:
 622:Lib/ssc_app/src/el9800appl.c ****             MBXMEMSET(pData, 0x00, dataSize);
 1600              		.loc 1 622 9 is_stmt 1 view .LVU555
 622:Lib/ssc_app/src/el9800appl.c ****             MBXMEMSET(pData, 0x00, dataSize);
 1601              		.loc 1 622 12 is_stmt 0 view .LVU556
 1602 0032 0AB9     		cbnz	r2, .L81
 648:Lib/ssc_app/src/el9800appl.c **** }
 1603              		.loc 1 648 12 view .LVU557
 1604 0034 2046     		mov	r0, r4
 1605              	.LVL99:
 648:Lib/ssc_app/src/el9800appl.c **** }
 1606              		.loc 1 648 12 view .LVU558
 1607 0036 ECE7     		b	.L71
 1608              	.LVL100:
 1609              	.L81:
 623:Lib/ssc_app/src/el9800appl.c ****     }
 1610              		.loc 1 623 13 is_stmt 1 view .LVU559
 1611 0038 0021     		movs	r1, #0
 1612              	.LVL101:
 623:Lib/ssc_app/src/el9800appl.c ****     }
 1613              		.loc 1 623 13 is_stmt 0 view .LVU560
 1614 003a 1846     		mov	r0, r3
 1615              	.LVL102:
 623:Lib/ssc_app/src/el9800appl.c ****     }
 1616              		.loc 1 623 13 view .LVU561
 1617 003c FFF7FEFF 		bl	memset
 1618              	.LVL103:
 648:Lib/ssc_app/src/el9800appl.c **** }
 1619              		.loc 1 648 12 view .LVU562
 1620 0040 2046     		mov	r0, r4
 1621 0042 E6E7     		b	.L71
 1622              	.LVL104:
 1623              	.L80:
 1624              	.LBB3:
ARM GAS  /tmp/ccOuxVYw.s 			page 44


 628:Lib/ssc_app/src/el9800appl.c **** 
 1625              		.loc 1 628 9 is_stmt 1 view .LVU563
 631:Lib/ssc_app/src/el9800appl.c **** 
 1626              		.loc 1 631 9 view .LVU564
 631:Lib/ssc_app/src/el9800appl.c **** 
 1627              		.loc 1 631 18 is_stmt 0 view .LVU565
 1628 0044 0022     		movs	r2, #0
 1629              	.LVL105:
 631:Lib/ssc_app/src/el9800appl.c **** 
 1630              		.loc 1 631 18 view .LVU566
 1631 0046 1A70     		strb	r2, [r3]
 633:Lib/ssc_app/src/el9800appl.c ****     }
 1632              		.loc 1 633 9 is_stmt 1 view .LVU567
 633:Lib/ssc_app/src/el9800appl.c ****     }
 1633              		.loc 1 633 29 is_stmt 0 view .LVU568
 1634 0048 064A     		ldr	r2, .L82+4
 1635 004a D278     		ldrb	r2, [r2, #3]	@ zero_extendqisi2
 1636 004c C2F38012 		ubfx	r2, r2, #6, #1
 633:Lib/ssc_app/src/el9800appl.c ****     }
 1637              		.loc 1 633 18 view .LVU569
 1638 0050 1A70     		strb	r2, [r3]
 1639              	.LBE3:
 648:Lib/ssc_app/src/el9800appl.c **** }
 1640              		.loc 1 648 12 view .LVU570
 1641 0052 2046     		mov	r0, r4
 1642              	.LVL106:
 648:Lib/ssc_app/src/el9800appl.c **** }
 1643              		.loc 1 648 12 view .LVU571
 1644 0054 DDE7     		b	.L71
 1645              	.LVL107:
 1646              	.L75:
 613:Lib/ssc_app/src/el9800appl.c **** 
 1647              		.loc 1 613 16 view .LVU572
 1648 0056 0520     		movs	r0, #5
 1649              	.LVL108:
 613:Lib/ssc_app/src/el9800appl.c **** 
 1650              		.loc 1 613 16 view .LVU573
 1651 0058 DBE7     		b	.L71
 1652              	.LVL109:
 1653              	.L77:
 646:Lib/ssc_app/src/el9800appl.c **** 
 1654              		.loc 1 646 16 view .LVU574
 1655 005a 1120     		movs	r0, #17
 1656              	.LVL110:
 646:Lib/ssc_app/src/el9800appl.c **** 
 1657              		.loc 1 646 16 view .LVU575
 1658 005c D9E7     		b	.L71
 1659              	.L83:
 1660 005e 00BF     		.align	2
 1661              	.L82:
 1662 0060 00000000 		.word	.LANCHOR6
 1663 0064 00000000 		.word	.LANCHOR4
 1664              		.cfi_endproc
 1665              	.LFE136:
 1667              		.section	.text.main,"ax",%progbits
 1668              		.align	1
 1669              		.global	main
ARM GAS  /tmp/ccOuxVYw.s 			page 45


 1670              		.syntax unified
 1671              		.thumb
 1672              		.thumb_func
 1674              	main:
 1675              	.LFB137:
 650:Lib/ssc_app/src/el9800appl.c **** 
 651:Lib/ssc_app/src/el9800appl.c **** #if EXPLICIT_DEVICE_ID
 652:Lib/ssc_app/src/el9800appl.c **** /////////////////////////////////////////////////////////////////////////////////////////
 653:Lib/ssc_app/src/el9800appl.c **** /**
 654:Lib/ssc_app/src/el9800appl.c ****  \return    The Explicit Device ID of the EtherCAT slave
 655:Lib/ssc_app/src/el9800appl.c **** 
 656:Lib/ssc_app/src/el9800appl.c ****  \brief     Calculate the Explicit Device ID
 657:Lib/ssc_app/src/el9800appl.c **** */
 658:Lib/ssc_app/src/el9800appl.c **** ///////////////////////////////////////////////////////////////////////////////////////
 659:Lib/ssc_app/src/el9800appl.c **** UINT16 APPL_GetDeviceID()
 660:Lib/ssc_app/src/el9800appl.c **** {
 661:Lib/ssc_app/src/el9800appl.c ****     UINT16 Value = (UINT16)(SWITCH_8 << 7) | (SWITCH_7 << 6) | (SWITCH_6 << 5) | (SWITCH_5 << 4) | 
 662:Lib/ssc_app/src/el9800appl.c ****     return Value;
 663:Lib/ssc_app/src/el9800appl.c **** }
 664:Lib/ssc_app/src/el9800appl.c **** #endif
 665:Lib/ssc_app/src/el9800appl.c **** 
 666:Lib/ssc_app/src/el9800appl.c **** #if USE_DEFAULT_MAIN
 667:Lib/ssc_app/src/el9800appl.c **** /////////////////////////////////////////////////////////////////////////////////////////
 668:Lib/ssc_app/src/el9800appl.c **** /**
 669:Lib/ssc_app/src/el9800appl.c **** 
 670:Lib/ssc_app/src/el9800appl.c ****  \brief    This is the main function
 671:Lib/ssc_app/src/el9800appl.c **** 
 672:Lib/ssc_app/src/el9800appl.c **** */
 673:Lib/ssc_app/src/el9800appl.c **** ///////////////////////////////////////////////////////////////////////////////////////
 674:Lib/ssc_app/src/el9800appl.c **** uint32_t times = 0x1000000;
 675:Lib/ssc_app/src/el9800appl.c **** #if _STM32_IO8
 676:Lib/ssc_app/src/el9800appl.c **** int main(void)
 677:Lib/ssc_app/src/el9800appl.c **** #else
 678:Lib/ssc_app/src/el9800appl.c **** void main(void)
 679:Lib/ssc_app/src/el9800appl.c **** #endif
 680:Lib/ssc_app/src/el9800appl.c **** {
 1676              		.loc 1 680 1 is_stmt 1 view -0
 1677              		.cfi_startproc
 1678              		@ args = 0, pretend = 0, frame = 0
 1679              		@ frame_needed = 0, uses_anonymous_args = 0
 1680 0000 08B5     		push	{r3, lr}
 1681              		.cfi_def_cfa_offset 8
 1682              		.cfi_offset 3, -8
 1683              		.cfi_offset 14, -4
 681:Lib/ssc_app/src/el9800appl.c ****     /* initialize the Hardware and the EtherCAT Slave Controller */
 682:Lib/ssc_app/src/el9800appl.c ****     HW_Init();
 1684              		.loc 1 682 5 view .LVU577
 1685 0002 FFF7FEFF 		bl	HW_Init
 1686              	.LVL111:
 683:Lib/ssc_app/src/el9800appl.c **** 
 684:Lib/ssc_app/src/el9800appl.c ****     MainInit();
 1687              		.loc 1 684 5 view .LVU578
 1688 0006 FFF7FEFF 		bl	MainInit
 1689              	.LVL112:
 685:Lib/ssc_app/src/el9800appl.c **** 
 686:Lib/ssc_app/src/el9800appl.c ****     bRunApplication = TRUE;
 1690              		.loc 1 686 5 view .LVU579
ARM GAS  /tmp/ccOuxVYw.s 			page 46


 1691              		.loc 1 686 21 is_stmt 0 view .LVU580
 1692 000a 064B     		ldr	r3, .L87
 1693 000c 0122     		movs	r2, #1
 1694 000e 1A70     		strb	r2, [r3]
 1695              	.L85:
 687:Lib/ssc_app/src/el9800appl.c ****     do
 1696              		.loc 1 687 5 is_stmt 1 discriminator 1 view .LVU581
 688:Lib/ssc_app/src/el9800appl.c ****     {
 689:Lib/ssc_app/src/el9800appl.c ****         MainLoop();
 1697              		.loc 1 689 9 discriminator 1 view .LVU582
 1698 0010 FFF7FEFF 		bl	MainLoop
 1699              	.LVL113:
 690:Lib/ssc_app/src/el9800appl.c ****     } while (bRunApplication == TRUE);
 1700              		.loc 1 690 13 discriminator 1 view .LVU583
 1701              		.loc 1 690 30 is_stmt 0 discriminator 1 view .LVU584
 1702 0014 034B     		ldr	r3, .L87
 1703 0016 1B78     		ldrb	r3, [r3]	@ zero_extendqisi2
 1704              		.loc 1 690 5 discriminator 1 view .LVU585
 1705 0018 012B     		cmp	r3, #1
 1706 001a F9D0     		beq	.L85
 691:Lib/ssc_app/src/el9800appl.c **** 
 692:Lib/ssc_app/src/el9800appl.c ****     HW_Release();
 1707              		.loc 1 692 5 is_stmt 1 view .LVU586
 1708 001c FFF7FEFF 		bl	HW_Release
 1709              	.LVL114:
 693:Lib/ssc_app/src/el9800appl.c **** #if _STM32_IO8
 694:Lib/ssc_app/src/el9800appl.c ****     return 0;
 1710              		.loc 1 694 5 view .LVU587
 695:Lib/ssc_app/src/el9800appl.c **** #endif
 696:Lib/ssc_app/src/el9800appl.c **** }
 1711              		.loc 1 696 1 is_stmt 0 view .LVU588
 1712 0020 0020     		movs	r0, #0
 1713 0022 08BD     		pop	{r3, pc}
 1714              	.L88:
 1715              		.align	2
 1716              	.L87:
 1717 0024 00000000 		.word	bRunApplication
 1718              		.cfi_endproc
 1719              	.LFE137:
 1721              		.global	times
 1722              		.global	ms_flag
 1723              		.global	sModulelist
 1724              		.global	sModulardeviceprofile
 1725              		.global	sAISettings
 1726              		.global	sDOOutputs
 1727              		.global	sAIInputs
 1728              		.global	sDIInputs
 1729              		.global	sTxPDOassign
 1730              		.global	sRxPDOassign
 1731              		.global	sAITxPDOMap
 1732              		.global	sDITxPDOMap
 1733              		.global	TxPDO1802Subindex0
 1734              		.global	sDORxPDOMap
 1735              		.section	.bss.ms_flag,"aw",%nobits
 1736              		.align	2
 1737              		.set	.LANCHOR5,. + 0
 1740              	ms_flag:
ARM GAS  /tmp/ccOuxVYw.s 			page 47


 1741 0000 00000000 		.space	4
 1742              		.section	.data.TxPDO1802Subindex0,"aw"
 1743              		.align	1
 1744              		.set	.LANCHOR6,. + 0
 1747              	TxPDO1802Subindex0:
 1748 0000 0900     		.short	9
 1749              		.section	.data.sAIInputs,"aw"
 1750              		.align	2
 1751              		.set	.LANCHOR4,. + 0
 1754              	sAIInputs:
 1755 0000 2700     		.short	39
 1756 0002 00       		.byte	0
 1757 0003 00       		.byte	0
 1758 0004 FF7F     		.short	32767
 1759 0006 0000     		.short	0
 1760 0008 00       		.byte	0
 1761 0009 00       		.byte	0
 1762 000a 00       		.byte	0
 1763 000b 00       		.byte	0
 1764 000c 00       		.byte	0
 1765 000d 00       		.byte	0
 1766 000e 00       		.byte	0
 1767 000f 00       		.byte	0
 1768 0010 00       		.byte	0
 1769 0011 00       		.byte	0
 1770 0012 00       		.byte	0
 1771 0013 00       		.byte	0
 1772 0014 00       		.byte	0
 1773 0015 00       		.byte	0
 1774 0016 0000     		.short	0
 1775 0018 0000     		.short	0
 1776 001a 0000     		.space	2
 1777 001c 00000000 		.word	0
 1778 0020 00000000 		.word	0
 1779 0024 00000000 		.word	0
 1780 0028 00000000 		.word	0
 1781 002c 0000     		.short	0
 1782 002e 0000     		.space	2
 1783              		.section	.data.sAISettings,"aw"
 1784              		.align	2
 1787              	sAISettings:
 1788 0000 1400     		.short	20
 1789 0002 00       		.byte	0
 1790 0003 00       		.byte	0
 1791 0004 0000     		.short	0
 1792 0006 0000     		.space	2
 1793 0008 00000000 		.word	0
 1794 000c 0000     		.short	0
 1795 000e 0000     		.short	0
 1796              		.section	.data.sAITxPDOMap,"aw"
 1797              		.align	2
 1800              	sAITxPDOMap:
 1801 0000 1E00     		.short	30
 1802 0002 0000     		.space	2
 1803 0004 01012060 		.word	1612710145
 1804 0008 01022060 		.word	1612710401
 1805 000c 02032060 		.word	1612710658
ARM GAS  /tmp/ccOuxVYw.s 			page 48


 1806 0010 02052060 		.word	1612711170
 1807 0014 08000000 		.word	8
 1808 0018 01070218 		.word	402786049
 1809 001c 01090218 		.word	402786561
 1810 0020 10112060 		.word	1612714256
 1811 0024 10122060 		.word	1612714512
 1812 0028 08132060 		.word	1612714760
 1813 002c 08142060 		.word	1612715016
 1814 0030 08152060 		.word	1612715272
 1815 0034 08162060 		.word	1612715528
 1816 0038 08172060 		.word	1612715784
 1817 003c 08182060 		.word	1612716040
 1818 0040 08192060 		.word	1612716296
 1819 0044 08202060 		.word	1612718088
 1820 0048 08212060 		.word	1612718344
 1821 004c 08222060 		.word	1612718600
 1822 0050 08232060 		.word	1612718856
 1823 0054 08242060 		.word	1612719112
 1824 0058 08252060 		.word	1612719368
 1825 005c 08262060 		.word	1612719624
 1826 0060 10272060 		.word	1612719888
 1827 0064 10282060 		.word	1612720144
 1828 0068 20292060 		.word	1612720416
 1829 006c 20302060 		.word	1612722208
 1830 0070 20312060 		.word	1612722464
 1831 0074 20322060 		.word	1612722720
 1832 0078 10332060 		.word	1612722960
 1833              		.section	.data.sDIInputs,"aw"
 1834              		.align	2
 1835              		.set	.LANCHOR3,. + 0
 1838              	sDIInputs:
 1839 0000 0800     		.short	8
 1840 0002 00       		.byte	0
 1841 0003 00       		.byte	0
 1842              		.section	.data.sDITxPDOMap,"aw"
 1843              		.align	2
 1846              	sDITxPDOMap:
 1847 0000 0900     		.short	9
 1848 0002 0000     		.space	2
 1849 0004 01010060 		.word	1610612993
 1850 0008 01020060 		.word	1610613249
 1851 000c 01030060 		.word	1610613505
 1852 0010 01040060 		.word	1610613761
 1853 0014 01050060 		.word	1610614017
 1854 0018 01060060 		.word	1610614273
 1855 001c 01070060 		.word	1610614529
 1856 0020 01080060 		.word	1610614785
 1857 0024 08000000 		.word	8
 1858              		.section	.data.sDOOutputs,"aw"
 1859              		.align	2
 1860              		.set	.LANCHOR0,. + 0
 1863              	sDOOutputs:
 1864 0000 1C00     		.short	28
 1865 0002 00       		.byte	0
 1866 0003 00       		.space	1
 1867 0004 0000     		.short	0
 1868 0006 00       		.byte	0
ARM GAS  /tmp/ccOuxVYw.s 			page 49


 1869 0007 00       		.byte	0
 1870 0008 00       		.byte	0
 1871 0009 00       		.byte	0
 1872 000a 00       		.byte	0
 1873 000b 00       		.byte	0
 1874 000c 00       		.byte	0
 1875 000d 00       		.byte	0
 1876 000e 00       		.byte	0
 1877 000f 00       		.byte	0
 1878 0010 00       		.byte	0
 1879 0011 00       		.byte	0
 1880 0012 00       		.byte	0
 1881 0013 00       		.space	1
 1882 0014 0000     		.short	0
 1883 0016 0000     		.space	2
 1884 0018 00000000 		.word	0
 1885 001c 00000000 		.word	0
 1886 0020 00000000 		.word	0
 1887 0024 00000000 		.word	0
 1888 0028 00000000 		.word	0
 1889              		.section	.data.sDORxPDOMap,"aw"
 1890              		.align	2
 1893              	sDORxPDOMap:
 1894 0000 1C00     		.short	28
 1895 0002 0000     		.space	2
 1896 0004 01011070 		.word	1880097025
 1897 0008 01021070 		.word	1880097281
 1898 000c 01031070 		.word	1880097537
 1899 0010 01041070 		.word	1880097793
 1900 0014 01051070 		.word	1880098049
 1901 0018 01061070 		.word	1880098305
 1902 001c 01071070 		.word	1880098561
 1903 0020 01081070 		.word	1880098817
 1904 0024 10091070 		.word	1880099088
 1905 0028 08101070 		.word	1880100872
 1906 002c 08111070 		.word	1880101128
 1907 0030 08121070 		.word	1880101384
 1908 0034 08131070 		.word	1880101640
 1909 0038 08141070 		.word	1880101896
 1910 003c 08151070 		.word	1880102152
 1911 0040 08161070 		.word	1880102408
 1912 0044 08171070 		.word	1880102664
 1913 0048 08181070 		.word	1880102920
 1914 004c 08191070 		.word	1880103176
 1915 0050 08201070 		.word	1880104968
 1916 0054 08211070 		.word	1880105224
 1917 0058 08221070 		.word	1880105480
 1918 005c 10231070 		.word	1880105744
 1919 0060 20241070 		.word	1880106016
 1920 0064 20251070 		.word	1880106272
 1921 0068 20261070 		.word	1880106528
 1922 006c 20271070 		.word	1880106784
 1923 0070 20281070 		.word	1880107040
 1924              		.section	.data.sModulardeviceprofile,"aw"
 1925              		.align	2
 1928              	sModulardeviceprofile:
 1929 0000 0200     		.short	2
ARM GAS  /tmp/ccOuxVYw.s 			page 50


 1930 0002 1000     		.short	16
 1931 0004 0300     		.short	3
 1932              		.section	.data.sModulelist,"aw"
 1933              		.align	2
 1936              	sModulelist:
 1937 0000 0300     		.short	3
 1938 0002 0000     		.space	2
 1939 0004 64000000 		.word	100
 1940 0008 C8000000 		.word	200
 1941 000c 2C010000 		.word	300
 1942              		.section	.data.sRxPDOassign,"aw"
 1943              		.align	2
 1944              		.set	.LANCHOR1,. + 0
 1947              	sRxPDOassign:
 1948 0000 0100     		.short	1
 1949 0002 0116     		.short	5633
 1950              		.section	.data.sTxPDOassign,"aw"
 1951              		.align	2
 1952              		.set	.LANCHOR2,. + 0
 1955              	sTxPDOassign:
 1956 0000 0200     		.short	2
 1957 0002 001A     		.short	6656
 1958 0004 021A     		.short	6658
 1959              		.section	.data.times,"aw"
 1960              		.align	2
 1963              	times:
 1964 0000 00000001 		.word	16777216
 1965              		.text
 1966              	.Letext0:
 1967              		.file 2 "/usr/share/gcc-arm-none-eabi-10.3-2021.10/arm-none-eabi/include/machine/_default_types.h"
 1968              		.file 3 "/usr/share/gcc-arm-none-eabi-10.3-2021.10/arm-none-eabi/include/sys/_stdint.h"
 1969              		.file 4 "Drivers/CMSIS/Device/ST/STM32F4xx/Include/stm32f4xx.h"
 1970              		.file 5 "Drivers/STM32F4xx_StdPeriph_Driver/inc/stm32f4xx_can.h"
 1971              		.file 6 "Lib/ssc/include/sdoserv.h"
 1972              		.file 7 "Lib/ssc/include/objdef.h"
 1973              		.file 8 "Lib/ssc_app/include/el9800appl.h"
 1974              		.file 9 "Lib/ssc_app/include/ecatappl.h"
 1975              		.file 10 "Lib/application/include/spi2_bus.h"
 1976              		.file 11 "Lib/ssc/include/el9800hw.h"
 1977              		.file 12 "Lib/ssc/include/applInterface.h"
 1978              		.file 13 "Drivers/STM32F4xx_StdPeriph_Driver/inc/stm32f4xx_gpio.h"
 1979              		.file 14 "<built-in>"
ARM GAS  /tmp/ccOuxVYw.s 			page 51

