ARM GAS  /tmp/cciZl0lI.s 			page 1


   1              		.cpu cortex-m4
   2              		.arch armv7e-m
   3              		.fpu fpv4-sp-d16
   4              		.eabi_attribute 27, 1
   5              		.eabi_attribute 28, 1
   6              		.eabi_attribute 20, 1
   7              		.eabi_attribute 21, 1
   8              		.eabi_attribute 23, 3
   9              		.eabi_attribute 24, 1
  10              		.eabi_attribute 25, 1
  11              		.eabi_attribute 26, 1
  12              		.eabi_attribute 30, 1
  13              		.eabi_attribute 34, 1
  14              		.eabi_attribute 18, 4
  15              		.file	"el9800appl.c"
  16              		.text
  17              	.Ltext0:
  18              		.cfi_sections	.debug_frame
  19              		.section	.text.APPL_AckErrorInd,"ax",%progbits
  20              		.align	1
  21              		.global	APPL_AckErrorInd
  22              		.syntax unified
  23              		.thumb
  24              		.thumb_func
  26              	APPL_AckErrorInd:
  27              	.LVL0:
  28              	.LFB134:
  29              		.file 1 "Lib/ssc_app/src/el9800appl.c"
   1:Lib/ssc_app/src/el9800appl.c **** // ############################################################
   2:Lib/ssc_app/src/el9800appl.c **** // ÔøΩÔøΩÔøΩÔøΩÔøΩÔøΩ÷ªÔøΩÔøΩ—ßœ∞ πÔøΩ√£ÔøΩŒ¥ÔøΩÔøΩÔøΩÔøΩÔøΩÔøΩÔøΩÔøΩÔøΩ…£ÔøΩÔøΩÔøΩÔøΩÔøΩÔøΩÔøΩÔøΩÔ
   3:Lib/ssc_app/src/el9800appl.c **** // ÔøΩÔøΩ»®ÔøΩÔøΩÔøΩ–£ÔøΩÔøΩÔøΩÔøΩÔøΩÿæÔøΩ
   4:Lib/ssc_app/src/el9800appl.c **** // EtherCATÔøΩÔøΩ’æ—ßœ∞ÔøΩÔøΩ
   5:Lib/ssc_app/src/el9800appl.c **** // AuthorÔøΩÔøΩÕ¢ÔøΩÔøΩÔøΩÔøΩÔøΩÔøΩÔøΩÔøΩÔøΩ
   6:Lib/ssc_app/src/el9800appl.c **** // ÔøΩ‘±ÔøΩÔøΩÔøΩÔøΩÔøΩ: https://shop461235811.taobao.com/
   7:Lib/ssc_app/src/el9800appl.c **** // ÔøΩ“µƒ≤ÔøΩÔøΩÕ£ÔøΩhttps://blog.csdn.net/zhandouhu/article/category/9455918
   8:Lib/ssc_app/src/el9800appl.c **** // ############################################################
   9:Lib/ssc_app/src/el9800appl.c **** /**
  10:Lib/ssc_app/src/el9800appl.c **** \addtogroup EL9800Appl EL9800 application
  11:Lib/ssc_app/src/el9800appl.c **** @{
  12:Lib/ssc_app/src/el9800appl.c **** */
  13:Lib/ssc_app/src/el9800appl.c **** 
  14:Lib/ssc_app/src/el9800appl.c **** /**
  15:Lib/ssc_app/src/el9800appl.c **** \file el9800appl.c
  16:Lib/ssc_app/src/el9800appl.c **** \author EthercatSSC@beckhoff.com
  17:Lib/ssc_app/src/el9800appl.c **** \brief Implementation
  18:Lib/ssc_app/src/el9800appl.c **** 
  19:Lib/ssc_app/src/el9800appl.c **** \version 5.11
  20:Lib/ssc_app/src/el9800appl.c **** 
  21:Lib/ssc_app/src/el9800appl.c **** <br>Changes to version V5.10:<br>
  22:Lib/ssc_app/src/el9800appl.c **** V5.11 ECAT11: create application interface function pointer, add eeprom emulation interface functio
  23:Lib/ssc_app/src/el9800appl.c **** V5.11 EL9800 1: reset outputs on fallback from OP state<br>
  24:Lib/ssc_app/src/el9800appl.c **** <br>Changes to version V5.01:<br>
  25:Lib/ssc_app/src/el9800appl.c **** V5.10 ECAT6: Add "USE_DEFAULT_MAIN" to enable or disable the main function<br>
  26:Lib/ssc_app/src/el9800appl.c **** <br>Changes to version V5.0:<br>
  27:Lib/ssc_app/src/el9800appl.c **** V5.01 EL9800 2: Add TxPdo Parameter object 0x1802<br>
  28:Lib/ssc_app/src/el9800appl.c **** <br>Changes to version V4.30:<br>
  29:Lib/ssc_app/src/el9800appl.c **** V4.50 ECAT2: Create generic application interface functions. Documentation in Application Note ET93
ARM GAS  /tmp/cciZl0lI.s 			page 2


  30:Lib/ssc_app/src/el9800appl.c **** V4.50 COE2: Handle invalid PDO assign values.<br>
  31:Lib/ssc_app/src/el9800appl.c **** V4.30 : create file
  32:Lib/ssc_app/src/el9800appl.c **** */
  33:Lib/ssc_app/src/el9800appl.c **** 
  34:Lib/ssc_app/src/el9800appl.c **** /*-----------------------------------------------------------------------------------------
  35:Lib/ssc_app/src/el9800appl.c **** ------
  36:Lib/ssc_app/src/el9800appl.c **** ------    Includes
  37:Lib/ssc_app/src/el9800appl.c **** ------
  38:Lib/ssc_app/src/el9800appl.c **** -----------------------------------------------------------------------------------------*/
  39:Lib/ssc_app/src/el9800appl.c **** #include "ecat_def.h"
  40:Lib/ssc_app/src/el9800appl.c **** #include "main.h"
  41:Lib/ssc_app/src/el9800appl.c **** 
  42:Lib/ssc_app/src/el9800appl.c **** #if EL9800_APPLICATION
  43:Lib/ssc_app/src/el9800appl.c **** 
  44:Lib/ssc_app/src/el9800appl.c **** /* ECATCHANGE_START(V5.11) ECAT11*/
  45:Lib/ssc_app/src/el9800appl.c **** #include "applInterface.h"
  46:Lib/ssc_app/src/el9800appl.c **** /* ECATCHANGE_END(V5.11) ECAT11*/
  47:Lib/ssc_app/src/el9800appl.c **** 
  48:Lib/ssc_app/src/el9800appl.c **** // #include "el9800hw.h"
  49:Lib/ssc_app/src/el9800appl.c **** 
  50:Lib/ssc_app/src/el9800appl.c **** #define _EVALBOARD_
  51:Lib/ssc_app/src/el9800appl.c **** #include "el9800appl.h"
  52:Lib/ssc_app/src/el9800appl.c **** #undef _EVALBOARD_
  53:Lib/ssc_app/src/el9800appl.c **** 
  54:Lib/ssc_app/src/el9800appl.c **** #if MCI_HW
  55:Lib/ssc_app/src/el9800appl.c **** #include "mcihw.h"
  56:Lib/ssc_app/src/el9800appl.c **** #endif
  57:Lib/ssc_app/src/el9800appl.c **** #if EL9800_HW
  58:Lib/ssc_app/src/el9800appl.c **** #include "el9800hw.h"
  59:Lib/ssc_app/src/el9800appl.c **** #endif
  60:Lib/ssc_app/src/el9800appl.c **** /*--------------------------------------------------------------------------------------
  61:Lib/ssc_app/src/el9800appl.c **** ------
  62:Lib/ssc_app/src/el9800appl.c **** ------    local types and defines
  63:Lib/ssc_app/src/el9800appl.c **** ------
  64:Lib/ssc_app/src/el9800appl.c **** --------------------------------------------------------------------------------------*/
  65:Lib/ssc_app/src/el9800appl.c **** 
  66:Lib/ssc_app/src/el9800appl.c **** /*-----------------------------------------------------------------------------------------
  67:Lib/ssc_app/src/el9800appl.c **** ------
  68:Lib/ssc_app/src/el9800appl.c **** ------    local variables and constants
  69:Lib/ssc_app/src/el9800appl.c **** ------
  70:Lib/ssc_app/src/el9800appl.c **** -----------------------------------------------------------------------------------------*/
  71:Lib/ssc_app/src/el9800appl.c **** 
  72:Lib/ssc_app/src/el9800appl.c **** /*-----------------------------------------------------------------------------------------
  73:Lib/ssc_app/src/el9800appl.c **** ------
  74:Lib/ssc_app/src/el9800appl.c **** ------    application specific functions
  75:Lib/ssc_app/src/el9800appl.c **** ------
  76:Lib/ssc_app/src/el9800appl.c **** -----------------------------------------------------------------------------------------*/
  77:Lib/ssc_app/src/el9800appl.c **** 
  78:Lib/ssc_app/src/el9800appl.c **** /*-----------------------------------------------------------------------------------------
  79:Lib/ssc_app/src/el9800appl.c **** ------
  80:Lib/ssc_app/src/el9800appl.c **** ------    generic functions
  81:Lib/ssc_app/src/el9800appl.c **** ------
  82:Lib/ssc_app/src/el9800appl.c **** -----------------------------------------------------------------------------------------*/
  83:Lib/ssc_app/src/el9800appl.c **** 
  84:Lib/ssc_app/src/el9800appl.c **** /////////////////////////////////////////////////////////////////////////////////////////
  85:Lib/ssc_app/src/el9800appl.c **** /**
  86:Lib/ssc_app/src/el9800appl.c ****  \brief    The function is called when an error state was acknowledged by the master
ARM GAS  /tmp/cciZl0lI.s 			page 3


  87:Lib/ssc_app/src/el9800appl.c **** 
  88:Lib/ssc_app/src/el9800appl.c **** */
  89:Lib/ssc_app/src/el9800appl.c **** ///////////////////////////////////////////////////////////////////////////////////////
  90:Lib/ssc_app/src/el9800appl.c **** 
  91:Lib/ssc_app/src/el9800appl.c **** void APPL_AckErrorInd(UINT16 stateTrans)
  92:Lib/ssc_app/src/el9800appl.c **** {
  30              		.loc 1 92 1 view -0
  31              		.cfi_startproc
  32              		@ args = 0, pretend = 0, frame = 0
  33              		@ frame_needed = 0, uses_anonymous_args = 0
  34              		@ link register save eliminated.
  93:Lib/ssc_app/src/el9800appl.c **** }
  35              		.loc 1 93 1 view .LVU1
  36 0000 7047     		bx	lr
  37              		.cfi_endproc
  38              	.LFE134:
  40              		.section	.text.APPL_StartMailboxHandler,"ax",%progbits
  41              		.align	1
  42              		.global	APPL_StartMailboxHandler
  43              		.syntax unified
  44              		.thumb
  45              		.thumb_func
  47              	APPL_StartMailboxHandler:
  48              	.LFB135:
  94:Lib/ssc_app/src/el9800appl.c **** 
  95:Lib/ssc_app/src/el9800appl.c **** /////////////////////////////////////////////////////////////////////////////////////////
  96:Lib/ssc_app/src/el9800appl.c **** /**
  97:Lib/ssc_app/src/el9800appl.c ****  \return    AL Status Code (see ecatslv.h ALSTATUSCODE_....)
  98:Lib/ssc_app/src/el9800appl.c **** 
  99:Lib/ssc_app/src/el9800appl.c ****  \brief    The function is called in the state transition from INIT to PREOP when
 100:Lib/ssc_app/src/el9800appl.c ****            all general settings were checked to start the mailbox handler. This function
 101:Lib/ssc_app/src/el9800appl.c ****            informs the application about the state transition, the application can refuse
 102:Lib/ssc_app/src/el9800appl.c ****            the state transition when returning an AL Status error code.
 103:Lib/ssc_app/src/el9800appl.c ****            The return code NOERROR_INWORK can be used, if the application cannot confirm
 104:Lib/ssc_app/src/el9800appl.c ****            the state transition immediately, in that case the application need to be complete
 105:Lib/ssc_app/src/el9800appl.c ****            the transition by calling ECAT_StateChange.
 106:Lib/ssc_app/src/el9800appl.c **** 
 107:Lib/ssc_app/src/el9800appl.c **** */
 108:Lib/ssc_app/src/el9800appl.c **** ///////////////////////////////////////////////////////////////////////////////////////
 109:Lib/ssc_app/src/el9800appl.c **** 
 110:Lib/ssc_app/src/el9800appl.c **** UINT16 APPL_StartMailboxHandler(void)
 111:Lib/ssc_app/src/el9800appl.c **** {
  49              		.loc 1 111 1 view -0
  50              		.cfi_startproc
  51              		@ args = 0, pretend = 0, frame = 0
  52              		@ frame_needed = 0, uses_anonymous_args = 0
  53              		@ link register save eliminated.
 112:Lib/ssc_app/src/el9800appl.c ****     return ALSTATUSCODE_NOERROR;
  54              		.loc 1 112 5 view .LVU3
 113:Lib/ssc_app/src/el9800appl.c **** }
  55              		.loc 1 113 1 is_stmt 0 view .LVU4
  56 0000 0020     		movs	r0, #0
  57 0002 7047     		bx	lr
  58              		.cfi_endproc
  59              	.LFE135:
  61              		.section	.text.APPL_StopMailboxHandler,"ax",%progbits
  62              		.align	1
ARM GAS  /tmp/cciZl0lI.s 			page 4


  63              		.global	APPL_StopMailboxHandler
  64              		.syntax unified
  65              		.thumb
  66              		.thumb_func
  68              	APPL_StopMailboxHandler:
  69              	.LFB136:
 114:Lib/ssc_app/src/el9800appl.c **** 
 115:Lib/ssc_app/src/el9800appl.c **** /////////////////////////////////////////////////////////////////////////////////////////
 116:Lib/ssc_app/src/el9800appl.c **** /**
 117:Lib/ssc_app/src/el9800appl.c ****  \return     0, NOERROR_INWORK
 118:Lib/ssc_app/src/el9800appl.c **** 
 119:Lib/ssc_app/src/el9800appl.c ****  \brief    The function is called in the state transition from PREEOP to INIT
 120:Lib/ssc_app/src/el9800appl.c ****              to stop the mailbox handler. This functions informs the application
 121:Lib/ssc_app/src/el9800appl.c ****              about the state transition, the application cannot refuse
 122:Lib/ssc_app/src/el9800appl.c ****              the state transition.
 123:Lib/ssc_app/src/el9800appl.c **** 
 124:Lib/ssc_app/src/el9800appl.c **** */
 125:Lib/ssc_app/src/el9800appl.c **** ///////////////////////////////////////////////////////////////////////////////////////
 126:Lib/ssc_app/src/el9800appl.c **** 
 127:Lib/ssc_app/src/el9800appl.c **** UINT16 APPL_StopMailboxHandler(void)
 128:Lib/ssc_app/src/el9800appl.c **** {
  70              		.loc 1 128 1 is_stmt 1 view -0
  71              		.cfi_startproc
  72              		@ args = 0, pretend = 0, frame = 0
  73              		@ frame_needed = 0, uses_anonymous_args = 0
  74              		@ link register save eliminated.
 129:Lib/ssc_app/src/el9800appl.c ****     return ALSTATUSCODE_NOERROR;
  75              		.loc 1 129 5 view .LVU6
 130:Lib/ssc_app/src/el9800appl.c **** }
  76              		.loc 1 130 1 is_stmt 0 view .LVU7
  77 0000 0020     		movs	r0, #0
  78 0002 7047     		bx	lr
  79              		.cfi_endproc
  80              	.LFE136:
  82              		.section	.text.APPL_StartInputHandler,"ax",%progbits
  83              		.align	1
  84              		.global	APPL_StartInputHandler
  85              		.syntax unified
  86              		.thumb
  87              		.thumb_func
  89              	APPL_StartInputHandler:
  90              	.LVL1:
  91              	.LFB137:
 131:Lib/ssc_app/src/el9800appl.c **** 
 132:Lib/ssc_app/src/el9800appl.c **** /////////////////////////////////////////////////////////////////////////////////////////
 133:Lib/ssc_app/src/el9800appl.c **** /**
 134:Lib/ssc_app/src/el9800appl.c ****  \param    pIntMask    pointer to the AL Event Mask which will be written to the AL event Mask
 135:Lib/ssc_app/src/el9800appl.c ****                         register (0x204) when this function is succeeded. The event mask can be ada
 136:Lib/ssc_app/src/el9800appl.c ****                         in this function
 137:Lib/ssc_app/src/el9800appl.c ****  \return    AL Status Code (see ecatslv.h ALSTATUSCODE_....)
 138:Lib/ssc_app/src/el9800appl.c **** 
 139:Lib/ssc_app/src/el9800appl.c ****  \brief    The function is called in the state transition from PREOP to SAFEOP when
 140:Lib/ssc_app/src/el9800appl.c ****              all general settings were checked to start the input handler. This function
 141:Lib/ssc_app/src/el9800appl.c ****              informs the application about the state transition, the application can refuse
 142:Lib/ssc_app/src/el9800appl.c ****              the state transition when returning an AL Status error code.
 143:Lib/ssc_app/src/el9800appl.c ****             The return code NOERROR_INWORK can be used, if the application cannot confirm
 144:Lib/ssc_app/src/el9800appl.c ****             the state transition immediately, in that case the application need to be complete
ARM GAS  /tmp/cciZl0lI.s 			page 5


 145:Lib/ssc_app/src/el9800appl.c ****             the transition by calling ECAT_StateChange.
 146:Lib/ssc_app/src/el9800appl.c **** */
 147:Lib/ssc_app/src/el9800appl.c **** ///////////////////////////////////////////////////////////////////////////////////////
 148:Lib/ssc_app/src/el9800appl.c **** 
 149:Lib/ssc_app/src/el9800appl.c **** UINT16 APPL_StartInputHandler(UINT16 *pIntMask)
 150:Lib/ssc_app/src/el9800appl.c **** {
  92              		.loc 1 150 1 is_stmt 1 view -0
  93              		.cfi_startproc
  94              		@ args = 0, pretend = 0, frame = 0
  95              		@ frame_needed = 0, uses_anonymous_args = 0
  96              		@ link register save eliminated.
 151:Lib/ssc_app/src/el9800appl.c ****     return ALSTATUSCODE_NOERROR;
  97              		.loc 1 151 5 view .LVU9
 152:Lib/ssc_app/src/el9800appl.c **** }
  98              		.loc 1 152 1 is_stmt 0 view .LVU10
  99 0000 0020     		movs	r0, #0
 100              	.LVL2:
 101              		.loc 1 152 1 view .LVU11
 102 0002 7047     		bx	lr
 103              		.cfi_endproc
 104              	.LFE137:
 106              		.section	.text.APPL_StopInputHandler,"ax",%progbits
 107              		.align	1
 108              		.global	APPL_StopInputHandler
 109              		.syntax unified
 110              		.thumb
 111              		.thumb_func
 113              	APPL_StopInputHandler:
 114              	.LFB138:
 153:Lib/ssc_app/src/el9800appl.c **** 
 154:Lib/ssc_app/src/el9800appl.c **** /////////////////////////////////////////////////////////////////////////////////////////
 155:Lib/ssc_app/src/el9800appl.c **** /**
 156:Lib/ssc_app/src/el9800appl.c ****  \return     0, NOERROR_INWORK
 157:Lib/ssc_app/src/el9800appl.c **** 
 158:Lib/ssc_app/src/el9800appl.c ****  \brief    The function is called in the state transition from SAFEOP to PREEOP
 159:Lib/ssc_app/src/el9800appl.c ****              to stop the input handler. This functions informs the application
 160:Lib/ssc_app/src/el9800appl.c ****              about the state transition, the application cannot refuse
 161:Lib/ssc_app/src/el9800appl.c ****              the state transition.
 162:Lib/ssc_app/src/el9800appl.c **** 
 163:Lib/ssc_app/src/el9800appl.c **** */
 164:Lib/ssc_app/src/el9800appl.c **** ///////////////////////////////////////////////////////////////////////////////////////
 165:Lib/ssc_app/src/el9800appl.c **** 
 166:Lib/ssc_app/src/el9800appl.c **** UINT16 APPL_StopInputHandler(void)
 167:Lib/ssc_app/src/el9800appl.c **** {
 115              		.loc 1 167 1 is_stmt 1 view -0
 116              		.cfi_startproc
 117              		@ args = 0, pretend = 0, frame = 0
 118              		@ frame_needed = 0, uses_anonymous_args = 0
 119              		@ link register save eliminated.
 168:Lib/ssc_app/src/el9800appl.c ****     return ALSTATUSCODE_NOERROR;
 120              		.loc 1 168 5 view .LVU13
 169:Lib/ssc_app/src/el9800appl.c **** }
 121              		.loc 1 169 1 is_stmt 0 view .LVU14
 122 0000 0020     		movs	r0, #0
 123 0002 7047     		bx	lr
 124              		.cfi_endproc
 125              	.LFE138:
ARM GAS  /tmp/cciZl0lI.s 			page 6


 127              		.section	.text.APPL_StartOutputHandler,"ax",%progbits
 128              		.align	1
 129              		.global	APPL_StartOutputHandler
 130              		.syntax unified
 131              		.thumb
 132              		.thumb_func
 134              	APPL_StartOutputHandler:
 135              	.LFB139:
 170:Lib/ssc_app/src/el9800appl.c **** 
 171:Lib/ssc_app/src/el9800appl.c **** /////////////////////////////////////////////////////////////////////////////////////////
 172:Lib/ssc_app/src/el9800appl.c **** /**
 173:Lib/ssc_app/src/el9800appl.c ****  \return    AL Status Code (see ecatslv.h ALSTATUSCODE_....)
 174:Lib/ssc_app/src/el9800appl.c **** 
 175:Lib/ssc_app/src/el9800appl.c ****  \brief    The function is called in the state transition from SAFEOP to OP when
 176:Lib/ssc_app/src/el9800appl.c ****              all general settings were checked to start the output handler. This function
 177:Lib/ssc_app/src/el9800appl.c ****              informs the application about the state transition, the application can refuse
 178:Lib/ssc_app/src/el9800appl.c ****              the state transition when returning an AL Status error code.
 179:Lib/ssc_app/src/el9800appl.c ****            The return code NOERROR_INWORK can be used, if the application cannot confirm
 180:Lib/ssc_app/src/el9800appl.c ****            the state transition immediately, in that case the application need to be complete
 181:Lib/ssc_app/src/el9800appl.c ****            the transition by calling ECAT_StateChange.
 182:Lib/ssc_app/src/el9800appl.c **** */
 183:Lib/ssc_app/src/el9800appl.c **** ///////////////////////////////////////////////////////////////////////////////////////
 184:Lib/ssc_app/src/el9800appl.c **** 
 185:Lib/ssc_app/src/el9800appl.c **** UINT16 APPL_StartOutputHandler(void)
 186:Lib/ssc_app/src/el9800appl.c **** {
 136              		.loc 1 186 1 is_stmt 1 view -0
 137              		.cfi_startproc
 138              		@ args = 0, pretend = 0, frame = 0
 139              		@ frame_needed = 0, uses_anonymous_args = 0
 140              		@ link register save eliminated.
 187:Lib/ssc_app/src/el9800appl.c ****     return ALSTATUSCODE_NOERROR;
 141              		.loc 1 187 5 view .LVU16
 188:Lib/ssc_app/src/el9800appl.c **** }
 142              		.loc 1 188 1 is_stmt 0 view .LVU17
 143 0000 0020     		movs	r0, #0
 144 0002 7047     		bx	lr
 145              		.cfi_endproc
 146              	.LFE139:
 148              		.section	.text.APPL_StopOutputHandler,"ax",%progbits
 149              		.align	1
 150              		.global	APPL_StopOutputHandler
 151              		.syntax unified
 152              		.thumb
 153              		.thumb_func
 155              	APPL_StopOutputHandler:
 156              	.LFB140:
 189:Lib/ssc_app/src/el9800appl.c **** 
 190:Lib/ssc_app/src/el9800appl.c **** /////////////////////////////////////////////////////////////////////////////////////////
 191:Lib/ssc_app/src/el9800appl.c **** /**
 192:Lib/ssc_app/src/el9800appl.c ****  \return     0, NOERROR_INWORK
 193:Lib/ssc_app/src/el9800appl.c **** 
 194:Lib/ssc_app/src/el9800appl.c ****  \brief    The function is called in the state transition from OP to SAFEOP
 195:Lib/ssc_app/src/el9800appl.c ****              to stop the output handler. This functions informs the application
 196:Lib/ssc_app/src/el9800appl.c ****              about the state transition, the application cannot refuse
 197:Lib/ssc_app/src/el9800appl.c ****              the state transition.
 198:Lib/ssc_app/src/el9800appl.c **** 
 199:Lib/ssc_app/src/el9800appl.c **** */
ARM GAS  /tmp/cciZl0lI.s 			page 7


 200:Lib/ssc_app/src/el9800appl.c **** ///////////////////////////////////////////////////////////////////////////////////////
 201:Lib/ssc_app/src/el9800appl.c **** 
 202:Lib/ssc_app/src/el9800appl.c **** //extern CanTxMsg Can1_TxMessage; // ÂèëÈÄÅÁºìÂÜ≤Âå∫
 203:Lib/ssc_app/src/el9800appl.c **** //extern CanRxMsg Can1_RxMessage; // Êé•Êî∂ÁºìÂÜ≤Âå∫
 204:Lib/ssc_app/src/el9800appl.c **** //
 205:Lib/ssc_app/src/el9800appl.c **** //extern CanTxMsg Can2_TxMessage; // ÂèëÈÄÅÁºìÂÜ≤Âå∫
 206:Lib/ssc_app/src/el9800appl.c **** //extern CanRxMsg Can2_RxMessage; // Êé•Êî∂ÁºìÂÜ≤Âå∫
 207:Lib/ssc_app/src/el9800appl.c **** 
 208:Lib/ssc_app/src/el9800appl.c **** UINT16 APPL_StopOutputHandler(void)
 209:Lib/ssc_app/src/el9800appl.c **** {
 157              		.loc 1 209 1 is_stmt 1 view -0
 158              		.cfi_startproc
 159              		@ args = 0, pretend = 0, frame = 0
 160              		@ frame_needed = 0, uses_anonymous_args = 0
 161              		@ link register save eliminated.
 210:Lib/ssc_app/src/el9800appl.c ****     /*ECATCHANGE_START(V5.11) EL9800 1*/
 211:Lib/ssc_app/src/el9800appl.c **** 
 212:Lib/ssc_app/src/el9800appl.c ****     sDOOutputs.bLED1 = 0;
 162              		.loc 1 212 5 view .LVU19
 163              		.loc 1 212 22 is_stmt 0 view .LVU20
 164 0000 114B     		ldr	r3, .L8
 165 0002 9A78     		ldrb	r2, [r3, #2]	@ zero_extendqisi2
 166 0004 6FF30002 		bfc	r2, #0, #1
 167 0008 9A70     		strb	r2, [r3, #2]
 213:Lib/ssc_app/src/el9800appl.c ****     sDOOutputs.bLED2 = 0;
 168              		.loc 1 213 5 is_stmt 1 view .LVU21
 169              		.loc 1 213 22 is_stmt 0 view .LVU22
 170 000a D2B2     		uxtb	r2, r2
 171 000c 6FF34102 		bfc	r2, #1, #1
 172 0010 9A70     		strb	r2, [r3, #2]
 214:Lib/ssc_app/src/el9800appl.c ****     sDOOutputs.bLED3 = 0;
 173              		.loc 1 214 5 is_stmt 1 view .LVU23
 174              		.loc 1 214 22 is_stmt 0 view .LVU24
 175 0012 D2B2     		uxtb	r2, r2
 176 0014 6FF38202 		bfc	r2, #2, #1
 177 0018 9A70     		strb	r2, [r3, #2]
 215:Lib/ssc_app/src/el9800appl.c ****     sDOOutputs.bLED4 = 0;
 178              		.loc 1 215 5 is_stmt 1 view .LVU25
 179              		.loc 1 215 22 is_stmt 0 view .LVU26
 180 001a D2B2     		uxtb	r2, r2
 181 001c 6FF3C302 		bfc	r2, #3, #1
 182 0020 9A70     		strb	r2, [r3, #2]
 216:Lib/ssc_app/src/el9800appl.c ****     sDOOutputs.bLED5 = 0;
 183              		.loc 1 216 5 is_stmt 1 view .LVU27
 184              		.loc 1 216 22 is_stmt 0 view .LVU28
 185 0022 D2B2     		uxtb	r2, r2
 186 0024 6FF30412 		bfc	r2, #4, #1
 187 0028 9A70     		strb	r2, [r3, #2]
 217:Lib/ssc_app/src/el9800appl.c ****     sDOOutputs.bLED7 = 0;
 188              		.loc 1 217 5 is_stmt 1 view .LVU29
 189              		.loc 1 217 22 is_stmt 0 view .LVU30
 190 002a D2B2     		uxtb	r2, r2
 191 002c 6FF38612 		bfc	r2, #6, #1
 192 0030 9A70     		strb	r2, [r3, #2]
 218:Lib/ssc_app/src/el9800appl.c ****     sDOOutputs.bLED6 = 0;
 193              		.loc 1 218 5 is_stmt 1 view .LVU31
 194              		.loc 1 218 22 is_stmt 0 view .LVU32
ARM GAS  /tmp/cciZl0lI.s 			page 8


 195 0032 D2B2     		uxtb	r2, r2
 196 0034 6FF34512 		bfc	r2, #5, #1
 197 0038 9A70     		strb	r2, [r3, #2]
 219:Lib/ssc_app/src/el9800appl.c ****     sDOOutputs.bLED8 = 0;
 198              		.loc 1 219 5 is_stmt 1 view .LVU33
 199              		.loc 1 219 22 is_stmt 0 view .LVU34
 200 003a D2B2     		uxtb	r2, r2
 201 003c 6FF3C712 		bfc	r2, #7, #1
 202 0040 9A70     		strb	r2, [r3, #2]
 220:Lib/ssc_app/src/el9800appl.c **** /*
 221:Lib/ssc_app/src/el9800appl.c ****     Can1_TxMessage.StdId = 0;
 222:Lib/ssc_app/src/el9800appl.c ****     Can1_TxMessage.ExtId = 0;
 223:Lib/ssc_app/src/el9800appl.c ****     Can1_TxMessage.IDE = 0;
 224:Lib/ssc_app/src/el9800appl.c ****     Can1_TxMessage.RTR = 0;
 225:Lib/ssc_app/src/el9800appl.c ****     Can1_TxMessage.DLC = 0;
 226:Lib/ssc_app/src/el9800appl.c **** 
 227:Lib/ssc_app/src/el9800appl.c ****     Can1_TxMessage.Data[0] = 0;
 228:Lib/ssc_app/src/el9800appl.c ****     Can1_TxMessage.Data[1] = 0;
 229:Lib/ssc_app/src/el9800appl.c ****     Can1_TxMessage.Data[2] = 0;
 230:Lib/ssc_app/src/el9800appl.c ****     Can1_TxMessage.Data[3] = 0;
 231:Lib/ssc_app/src/el9800appl.c ****     Can1_TxMessage.Data[4] = 0;
 232:Lib/ssc_app/src/el9800appl.c ****     Can1_TxMessage.Data[5] = 0;
 233:Lib/ssc_app/src/el9800appl.c ****     Can1_TxMessage.Data[6] = 0;
 234:Lib/ssc_app/src/el9800appl.c ****     Can1_TxMessage.Data[7] = 0;
 235:Lib/ssc_app/src/el9800appl.c **** 
 236:Lib/ssc_app/src/el9800appl.c ****     Can2_TxMessage.StdId = 0;
 237:Lib/ssc_app/src/el9800appl.c ****     Can2_TxMessage.ExtId = 0;
 238:Lib/ssc_app/src/el9800appl.c ****     Can2_TxMessage.IDE = 0;
 239:Lib/ssc_app/src/el9800appl.c ****     Can2_TxMessage.RTR = 0;
 240:Lib/ssc_app/src/el9800appl.c ****     Can2_TxMessage.DLC = 0;
 241:Lib/ssc_app/src/el9800appl.c **** 
 242:Lib/ssc_app/src/el9800appl.c ****     Can2_TxMessage.Data[0] = 0;
 243:Lib/ssc_app/src/el9800appl.c ****     Can2_TxMessage.Data[1] = 0;
 244:Lib/ssc_app/src/el9800appl.c ****     Can2_TxMessage.Data[2] = 0;
 245:Lib/ssc_app/src/el9800appl.c ****     Can2_TxMessage.Data[3] = 0;
 246:Lib/ssc_app/src/el9800appl.c ****     Can2_TxMessage.Data[4] = 0;
 247:Lib/ssc_app/src/el9800appl.c ****     Can2_TxMessage.Data[5] = 0;
 248:Lib/ssc_app/src/el9800appl.c ****     Can2_TxMessage.Data[6] = 0;
 249:Lib/ssc_app/src/el9800appl.c ****     Can2_TxMessage.Data[7] = 0;
 250:Lib/ssc_app/src/el9800appl.c ****     */
 251:Lib/ssc_app/src/el9800appl.c **** 
 252:Lib/ssc_app/src/el9800appl.c ****     /*ECATCHANGE_END(V5.11) EL9800 1*/
 253:Lib/ssc_app/src/el9800appl.c ****     return ALSTATUSCODE_NOERROR;
 203              		.loc 1 253 5 is_stmt 1 view .LVU35
 254:Lib/ssc_app/src/el9800appl.c **** }
 204              		.loc 1 254 1 is_stmt 0 view .LVU36
 205 0042 0020     		movs	r0, #0
 206 0044 7047     		bx	lr
 207              	.L9:
 208 0046 00BF     		.align	2
 209              	.L8:
 210 0048 00000000 		.word	.LANCHOR0
 211              		.cfi_endproc
 212              	.LFE140:
 214              		.section	.text.APPL_GenerateMapping,"ax",%progbits
 215              		.align	1
 216              		.global	APPL_GenerateMapping
ARM GAS  /tmp/cciZl0lI.s 			page 9


 217              		.syntax unified
 218              		.thumb
 219              		.thumb_func
 221              	APPL_GenerateMapping:
 222              	.LVL3:
 223              	.LFB141:
 255:Lib/ssc_app/src/el9800appl.c **** 
 256:Lib/ssc_app/src/el9800appl.c **** /////////////////////////////////////////////////////////////////////////////////////////
 257:Lib/ssc_app/src/el9800appl.c **** /**
 258:Lib/ssc_app/src/el9800appl.c **** \return     0(ALSTATUSCODE_NOERROR), NOERROR_INWORK
 259:Lib/ssc_app/src/el9800appl.c **** \param      pInputSize  pointer to save the input process data length
 260:Lib/ssc_app/src/el9800appl.c **** \param      pOutputSize  pointer to save the output process data length
 261:Lib/ssc_app/src/el9800appl.c **** 
 262:Lib/ssc_app/src/el9800appl.c **** \brief    This function calculates the process data sizes from the actual SM-PDO-Assign
 263:Lib/ssc_app/src/el9800appl.c ****             and PDO mapping
 264:Lib/ssc_app/src/el9800appl.c **** */
 265:Lib/ssc_app/src/el9800appl.c **** ///////////////////////////////////////////////////////////////////////////////////////
 266:Lib/ssc_app/src/el9800appl.c **** UINT16 APPL_GenerateMapping(UINT16 *pInputSize, UINT16 *pOutputSize)
 267:Lib/ssc_app/src/el9800appl.c **** {
 224              		.loc 1 267 1 is_stmt 1 view -0
 225              		.cfi_startproc
 226              		@ args = 0, pretend = 0, frame = 8
 227              		@ frame_needed = 0, uses_anonymous_args = 0
 228              		.loc 1 267 1 is_stmt 0 view .LVU38
 229 0000 2DE9F04F 		push	{r4, r5, r6, r7, r8, r9, r10, fp, lr}
 230              		.cfi_def_cfa_offset 36
 231              		.cfi_offset 4, -36
 232              		.cfi_offset 5, -32
 233              		.cfi_offset 6, -28
 234              		.cfi_offset 7, -24
 235              		.cfi_offset 8, -20
 236              		.cfi_offset 9, -16
 237              		.cfi_offset 10, -12
 238              		.cfi_offset 11, -8
 239              		.cfi_offset 14, -4
 240 0004 83B0     		sub	sp, sp, #12
 241              		.cfi_def_cfa_offset 48
 242 0006 0090     		str	r0, [sp]
 243 0008 0191     		str	r1, [sp, #4]
 268:Lib/ssc_app/src/el9800appl.c **** #if COE_SUPPORTED
 269:Lib/ssc_app/src/el9800appl.c ****     UINT16 result = ALSTATUSCODE_NOERROR;
 244              		.loc 1 269 5 is_stmt 1 view .LVU39
 245              	.LVL4:
 270:Lib/ssc_app/src/el9800appl.c ****     UINT16 PDOAssignEntryCnt = 0;
 246              		.loc 1 270 5 view .LVU40
 271:Lib/ssc_app/src/el9800appl.c ****     OBJCONST TOBJECT OBJMEM *pPDO = NULL;
 247              		.loc 1 271 5 view .LVU41
 272:Lib/ssc_app/src/el9800appl.c ****     UINT16 PDOSubindex0 = 0;
 248              		.loc 1 272 5 view .LVU42
 273:Lib/ssc_app/src/el9800appl.c ****     UINT32 *pPDOEntry = NULL;
 249              		.loc 1 273 5 view .LVU43
 274:Lib/ssc_app/src/el9800appl.c ****     UINT16 PDOEntryCnt = 0;
 250              		.loc 1 274 5 view .LVU44
 275:Lib/ssc_app/src/el9800appl.c ****     UINT16 InputSize = 0;
 251              		.loc 1 275 5 view .LVU45
 276:Lib/ssc_app/src/el9800appl.c ****     UINT16 OutputSize = 0;
 252              		.loc 1 276 5 view .LVU46
ARM GAS  /tmp/cciZl0lI.s 			page 10


 277:Lib/ssc_app/src/el9800appl.c **** 
 278:Lib/ssc_app/src/el9800appl.c ****     /*Scan object 0x1C12 RXPDO assign*/
 279:Lib/ssc_app/src/el9800appl.c ****     for (PDOAssignEntryCnt = 0; PDOAssignEntryCnt < sRxPDOassign.u16SubIndex0; PDOAssignEntryCnt++)
 253              		.loc 1 279 5 view .LVU47
 276:Lib/ssc_app/src/el9800appl.c ****     UINT16 OutputSize = 0;
 254              		.loc 1 276 12 is_stmt 0 view .LVU48
 255 000a 0026     		movs	r6, #0
 256              		.loc 1 279 28 view .LVU49
 257 000c B046     		mov	r8, r6
 258              		.loc 1 279 5 view .LVU50
 259 000e 14E0     		b	.L11
 260              	.LVL5:
 261              	.L14:
 280:Lib/ssc_app/src/el9800appl.c ****     {
 281:Lib/ssc_app/src/el9800appl.c ****         pPDO = OBJ_GetObjectHandle(sRxPDOassign.aEntries[PDOAssignEntryCnt]);
 282:Lib/ssc_app/src/el9800appl.c ****         if (pPDO != NULL)
 283:Lib/ssc_app/src/el9800appl.c ****         {
 284:Lib/ssc_app/src/el9800appl.c ****             PDOSubindex0 = *((UINT16 *)pPDO->pVarPtr);
 285:Lib/ssc_app/src/el9800appl.c ****             for (PDOEntryCnt = 0; PDOEntryCnt < PDOSubindex0; PDOEntryCnt++)
 286:Lib/ssc_app/src/el9800appl.c ****             {
 287:Lib/ssc_app/src/el9800appl.c ****                 //				result = *(UINT8 *)pPDO->pVarPtr;
 288:Lib/ssc_app/src/el9800appl.c ****                 //				result=(OBJ_GetEntryOffset((PDOEntryCnt+1),pPDO)>>3);
 289:Lib/ssc_app/src/el9800appl.c ****                 pPDOEntry = (UINT32 *)((UINT8 *)pPDO->pVarPtr + (OBJ_GetEntryOffset((PDOEntryCnt + 
 262              		.loc 1 289 17 is_stmt 1 discriminator 3 view .LVU51
 263              		.loc 1 289 53 is_stmt 0 discriminator 3 view .LVU52
 264 0010 D5F81890 		ldr	r9, [r5, #24]
 265              		.loc 1 289 66 discriminator 3 view .LVU53
 266 0014 601C     		adds	r0, r4, #1
 267 0016 2946     		mov	r1, r5
 268 0018 C0B2     		uxtb	r0, r0
 269 001a FFF7FEFF 		bl	OBJ_GetEntryOffset
 270              	.LVL6:
 271              		.loc 1 289 110 discriminator 3 view .LVU54
 272 001e C0F3CF00 		ubfx	r0, r0, #3, #16
 273              	.LVL7:
 290:Lib/ssc_app/src/el9800appl.c ****                 // we increment the expected output size depending on the mapped Entry
 291:Lib/ssc_app/src/el9800appl.c ****                 OutputSize += (UINT16)((*pPDOEntry) & 0xFF);
 274              		.loc 1 291 17 is_stmt 1 discriminator 3 view .LVU55
 275              		.loc 1 291 31 is_stmt 0 discriminator 3 view .LVU56
 276 0022 19F80030 		ldrb	r3, [r9, r0]	@ zero_extendqisi2
 277              		.loc 1 291 28 discriminator 3 view .LVU57
 278 0026 3344     		add	r3, r3, r6
 279 0028 9EB2     		uxth	r6, r3
 280              	.LVL8:
 285:Lib/ssc_app/src/el9800appl.c ****             {
 281              		.loc 1 285 63 is_stmt 1 discriminator 3 view .LVU58
 285:Lib/ssc_app/src/el9800appl.c ****             {
 282              		.loc 1 285 74 is_stmt 0 discriminator 3 view .LVU59
 283 002a 0134     		adds	r4, r4, #1
 284              	.LVL9:
 285:Lib/ssc_app/src/el9800appl.c ****             {
 285              		.loc 1 285 74 discriminator 3 view .LVU60
 286 002c A4B2     		uxth	r4, r4
 287              	.LVL10:
 288              	.L13:
 285:Lib/ssc_app/src/el9800appl.c ****             {
 289              		.loc 1 285 35 is_stmt 1 discriminator 1 view .LVU61
ARM GAS  /tmp/cciZl0lI.s 			page 11


 285:Lib/ssc_app/src/el9800appl.c ****             {
 290              		.loc 1 285 13 is_stmt 0 discriminator 1 view .LVU62
 291 002e BC42     		cmp	r4, r7
 292 0030 EED3     		bcc	.L14
 279:Lib/ssc_app/src/el9800appl.c ****     {
 293              		.loc 1 279 80 is_stmt 1 discriminator 2 view .LVU63
 279:Lib/ssc_app/src/el9800appl.c ****     {
 294              		.loc 1 279 97 is_stmt 0 discriminator 2 view .LVU64
 295 0032 08F10108 		add	r8, r8, #1
 296              	.LVL11:
 279:Lib/ssc_app/src/el9800appl.c ****     {
 297              		.loc 1 279 97 discriminator 2 view .LVU65
 298 0036 1FFA88F8 		uxth	r8, r8
 299              	.LVL12:
 300              	.L11:
 279:Lib/ssc_app/src/el9800appl.c ****     {
 301              		.loc 1 279 33 is_stmt 1 discriminator 1 view .LVU66
 279:Lib/ssc_app/src/el9800appl.c ****     {
 302              		.loc 1 279 65 is_stmt 0 discriminator 1 view .LVU67
 303 003a 2A4B     		ldr	r3, .L26
 304 003c 1B88     		ldrh	r3, [r3]
 279:Lib/ssc_app/src/el9800appl.c ****     {
 305              		.loc 1 279 5 discriminator 1 view .LVU68
 306 003e 4345     		cmp	r3, r8
 307 0040 0BD9     		bls	.L25
 281:Lib/ssc_app/src/el9800appl.c ****         if (pPDO != NULL)
 308              		.loc 1 281 9 is_stmt 1 view .LVU69
 281:Lib/ssc_app/src/el9800appl.c ****         if (pPDO != NULL)
 309              		.loc 1 281 16 is_stmt 0 view .LVU70
 310 0042 284B     		ldr	r3, .L26
 311 0044 03EB4803 		add	r3, r3, r8, lsl #1
 312 0048 5888     		ldrh	r0, [r3, #2]
 313 004a FFF7FEFF 		bl	OBJ_GetObjectHandle
 314              	.LVL13:
 282:Lib/ssc_app/src/el9800appl.c ****         {
 315              		.loc 1 282 9 is_stmt 1 view .LVU71
 282:Lib/ssc_app/src/el9800appl.c ****         {
 316              		.loc 1 282 12 is_stmt 0 view .LVU72
 317 004e 0546     		mov	r5, r0
 318 0050 C0B1     		cbz	r0, .L21
 284:Lib/ssc_app/src/el9800appl.c ****             for (PDOEntryCnt = 0; PDOEntryCnt < PDOSubindex0; PDOEntryCnt++)
 319              		.loc 1 284 13 is_stmt 1 view .LVU73
 284:Lib/ssc_app/src/el9800appl.c ****             for (PDOEntryCnt = 0; PDOEntryCnt < PDOSubindex0; PDOEntryCnt++)
 320              		.loc 1 284 44 is_stmt 0 view .LVU74
 321 0052 8369     		ldr	r3, [r0, #24]
 284:Lib/ssc_app/src/el9800appl.c ****             for (PDOEntryCnt = 0; PDOEntryCnt < PDOSubindex0; PDOEntryCnt++)
 322              		.loc 1 284 26 view .LVU75
 323 0054 1F88     		ldrh	r7, [r3]
 324              	.LVL14:
 285:Lib/ssc_app/src/el9800appl.c ****             {
 325              		.loc 1 285 13 is_stmt 1 view .LVU76
 285:Lib/ssc_app/src/el9800appl.c ****             {
 326              		.loc 1 285 30 is_stmt 0 view .LVU77
 327 0056 0024     		movs	r4, #0
 285:Lib/ssc_app/src/el9800appl.c ****             {
 328              		.loc 1 285 13 view .LVU78
 329 0058 E9E7     		b	.L13
ARM GAS  /tmp/cciZl0lI.s 			page 12


 330              	.LVL15:
 331              	.L25:
 269:Lib/ssc_app/src/el9800appl.c ****     UINT16 PDOAssignEntryCnt = 0;
 332              		.loc 1 269 12 view .LVU79
 333 005a 4FF0000B 		mov	fp, #0
 334              	.LVL16:
 335              	.L12:
 292:Lib/ssc_app/src/el9800appl.c ****             }
 293:Lib/ssc_app/src/el9800appl.c ****         }
 294:Lib/ssc_app/src/el9800appl.c ****         else
 295:Lib/ssc_app/src/el9800appl.c ****         {
 296:Lib/ssc_app/src/el9800appl.c ****             /*assigned PDO was not found in object dictionary. return invalid mapping*/
 297:Lib/ssc_app/src/el9800appl.c ****             OutputSize = 0;
 298:Lib/ssc_app/src/el9800appl.c ****             result = ALSTATUSCODE_INVALIDOUTPUTMAPPING;
 299:Lib/ssc_app/src/el9800appl.c ****             break;
 300:Lib/ssc_app/src/el9800appl.c ****         }
 301:Lib/ssc_app/src/el9800appl.c ****     }
 302:Lib/ssc_app/src/el9800appl.c **** 
 303:Lib/ssc_app/src/el9800appl.c ****     OutputSize = (OutputSize + 7) >> 3;
 336              		.loc 1 303 5 is_stmt 1 view .LVU80
 337              		.loc 1 303 30 is_stmt 0 view .LVU81
 338 005e F31D     		adds	r3, r6, #7
 339              		.loc 1 303 16 view .LVU82
 340 0060 C3F3CF08 		ubfx	r8, r3, #3, #16
 341              	.LVL17:
 304:Lib/ssc_app/src/el9800appl.c **** 
 305:Lib/ssc_app/src/el9800appl.c ****     if (result == 0)
 342              		.loc 1 305 5 is_stmt 1 view .LVU83
 343              		.loc 1 305 8 is_stmt 0 view .LVU84
 344 0064 BBF1000F 		cmp	fp, #0
 345 0068 34D0     		beq	.L22
 275:Lib/ssc_app/src/el9800appl.c ****     UINT16 OutputSize = 0;
 346              		.loc 1 275 12 view .LVU85
 347 006a 0027     		movs	r7, #0
 348              	.LVL18:
 349              	.L17:
 306:Lib/ssc_app/src/el9800appl.c ****     {
 307:Lib/ssc_app/src/el9800appl.c ****         /*Scan Object 0x1C13 TXPDO assign*/
 308:Lib/ssc_app/src/el9800appl.c ****         for (PDOAssignEntryCnt = 0; PDOAssignEntryCnt < sTxPDOassign.u16SubIndex0; PDOAssignEntryCn
 309:Lib/ssc_app/src/el9800appl.c ****         {
 310:Lib/ssc_app/src/el9800appl.c ****             pPDO = OBJ_GetObjectHandle(sTxPDOassign.aEntries[PDOAssignEntryCnt]);
 311:Lib/ssc_app/src/el9800appl.c ****             if (pPDO != NULL)
 312:Lib/ssc_app/src/el9800appl.c ****             {
 313:Lib/ssc_app/src/el9800appl.c ****                 PDOSubindex0 = *((UINT16 *)pPDO->pVarPtr);
 314:Lib/ssc_app/src/el9800appl.c ****                 for (PDOEntryCnt = 0; PDOEntryCnt < PDOSubindex0; PDOEntryCnt++)
 315:Lib/ssc_app/src/el9800appl.c ****                 {
 316:Lib/ssc_app/src/el9800appl.c ****                     pPDOEntry = (UINT32 *)((UINT8 *)pPDO->pVarPtr + (OBJ_GetEntryOffset((PDOEntryCn
 317:Lib/ssc_app/src/el9800appl.c ****                     // we increment the expected output size depending on the mapped Entry
 318:Lib/ssc_app/src/el9800appl.c ****                     InputSize += (UINT16)((*pPDOEntry) & 0xFF);
 319:Lib/ssc_app/src/el9800appl.c ****                 }
 320:Lib/ssc_app/src/el9800appl.c ****             }
 321:Lib/ssc_app/src/el9800appl.c ****             else
 322:Lib/ssc_app/src/el9800appl.c ****             {
 323:Lib/ssc_app/src/el9800appl.c ****                 /*assigned PDO was not found in object dictionary. return invalid mapping*/
 324:Lib/ssc_app/src/el9800appl.c ****                 InputSize = 0;
 325:Lib/ssc_app/src/el9800appl.c ****                 result = ALSTATUSCODE_INVALIDINPUTMAPPING;
 326:Lib/ssc_app/src/el9800appl.c ****                 break;
ARM GAS  /tmp/cciZl0lI.s 			page 13


 327:Lib/ssc_app/src/el9800appl.c ****             }
 328:Lib/ssc_app/src/el9800appl.c ****         }
 329:Lib/ssc_app/src/el9800appl.c ****     }
 330:Lib/ssc_app/src/el9800appl.c ****     InputSize = (InputSize + 7) >> 3;
 350              		.loc 1 330 5 is_stmt 1 view .LVU86
 351              		.loc 1 330 28 is_stmt 0 view .LVU87
 352 006c FB1D     		adds	r3, r7, #7
 353              		.loc 1 330 15 view .LVU88
 354 006e C3F3CF03 		ubfx	r3, r3, #3, #16
 355              	.LVL19:
 331:Lib/ssc_app/src/el9800appl.c **** 
 332:Lib/ssc_app/src/el9800appl.c ****     *pInputSize = InputSize;
 356              		.loc 1 332 5 is_stmt 1 view .LVU89
 357              		.loc 1 332 17 is_stmt 0 view .LVU90
 358 0072 009A     		ldr	r2, [sp]
 359 0074 1380     		strh	r3, [r2]	@ movhi
 333:Lib/ssc_app/src/el9800appl.c ****     *pOutputSize = OutputSize;
 360              		.loc 1 333 5 is_stmt 1 view .LVU91
 361              		.loc 1 333 18 is_stmt 0 view .LVU92
 362 0076 019B     		ldr	r3, [sp, #4]
 363              	.LVL20:
 364              		.loc 1 333 18 view .LVU93
 365 0078 A3F80080 		strh	r8, [r3]	@ movhi
 366              	.LVL21:
 334:Lib/ssc_app/src/el9800appl.c ****     return result;
 367              		.loc 1 334 5 is_stmt 1 view .LVU94
 335:Lib/ssc_app/src/el9800appl.c **** #else
 336:Lib/ssc_app/src/el9800appl.c ****     *pInputSize = 6;
 337:Lib/ssc_app/src/el9800appl.c ****     *pOutputSize = 2;
 338:Lib/ssc_app/src/el9800appl.c ****     return ALSTATUSCODE_NOERROR;
 339:Lib/ssc_app/src/el9800appl.c **** #endif
 340:Lib/ssc_app/src/el9800appl.c **** }
 368              		.loc 1 340 1 is_stmt 0 view .LVU95
 369 007c 5846     		mov	r0, fp
 370 007e 03B0     		add	sp, sp, #12
 371              		.cfi_remember_state
 372              		.cfi_def_cfa_offset 36
 373              	.LVL22:
 374              		.loc 1 340 1 view .LVU96
 375              		@ sp needed
 376 0080 BDE8F08F 		pop	{r4, r5, r6, r7, r8, r9, r10, fp, pc}
 377              	.LVL23:
 378              	.L21:
 379              		.cfi_restore_state
 297:Lib/ssc_app/src/el9800appl.c ****             result = ALSTATUSCODE_INVALIDOUTPUTMAPPING;
 380              		.loc 1 297 24 view .LVU97
 381 0084 0026     		movs	r6, #0
 382              	.LVL24:
 298:Lib/ssc_app/src/el9800appl.c ****             break;
 383              		.loc 1 298 20 view .LVU98
 384 0086 4FF0250B 		mov	fp, #37
 385 008a E8E7     		b	.L12
 386              	.LVL25:
 387              	.L19:
 316:Lib/ssc_app/src/el9800appl.c ****                     // we increment the expected output size depending on the mapped Entry
 388              		.loc 1 316 21 is_stmt 1 discriminator 3 view .LVU99
 316:Lib/ssc_app/src/el9800appl.c ****                     // we increment the expected output size depending on the mapped Entry
ARM GAS  /tmp/cciZl0lI.s 			page 14


 389              		.loc 1 316 57 is_stmt 0 discriminator 3 view .LVU100
 390 008c B569     		ldr	r5, [r6, #24]
 316:Lib/ssc_app/src/el9800appl.c ****                     // we increment the expected output size depending on the mapped Entry
 391              		.loc 1 316 70 discriminator 3 view .LVU101
 392 008e 601C     		adds	r0, r4, #1
 393 0090 3146     		mov	r1, r6
 394 0092 C0B2     		uxtb	r0, r0
 395 0094 FFF7FEFF 		bl	OBJ_GetEntryOffset
 396              	.LVL26:
 316:Lib/ssc_app/src/el9800appl.c ****                     // we increment the expected output size depending on the mapped Entry
 397              		.loc 1 316 114 discriminator 3 view .LVU102
 398 0098 C0F3CF00 		ubfx	r0, r0, #3, #16
 399              	.LVL27:
 318:Lib/ssc_app/src/el9800appl.c ****                 }
 400              		.loc 1 318 21 is_stmt 1 discriminator 3 view .LVU103
 318:Lib/ssc_app/src/el9800appl.c ****                 }
 401              		.loc 1 318 34 is_stmt 0 discriminator 3 view .LVU104
 402 009c 2B5C     		ldrb	r3, [r5, r0]	@ zero_extendqisi2
 318:Lib/ssc_app/src/el9800appl.c ****                 }
 403              		.loc 1 318 31 discriminator 3 view .LVU105
 404 009e 1F44     		add	r7, r7, r3
 405              	.LVL28:
 318:Lib/ssc_app/src/el9800appl.c ****                 }
 406              		.loc 1 318 31 discriminator 3 view .LVU106
 407 00a0 BFB2     		uxth	r7, r7
 408              	.LVL29:
 314:Lib/ssc_app/src/el9800appl.c ****                 {
 409              		.loc 1 314 67 is_stmt 1 discriminator 3 view .LVU107
 314:Lib/ssc_app/src/el9800appl.c ****                 {
 410              		.loc 1 314 78 is_stmt 0 discriminator 3 view .LVU108
 411 00a2 0134     		adds	r4, r4, #1
 412              	.LVL30:
 314:Lib/ssc_app/src/el9800appl.c ****                 {
 413              		.loc 1 314 78 discriminator 3 view .LVU109
 414 00a4 A4B2     		uxth	r4, r4
 415              	.LVL31:
 416              	.L18:
 314:Lib/ssc_app/src/el9800appl.c ****                 {
 417              		.loc 1 314 39 is_stmt 1 discriminator 1 view .LVU110
 314:Lib/ssc_app/src/el9800appl.c ****                 {
 418              		.loc 1 314 17 is_stmt 0 discriminator 1 view .LVU111
 419 00a6 4C45     		cmp	r4, r9
 420 00a8 F0D3     		bcc	.L19
 308:Lib/ssc_app/src/el9800appl.c ****         {
 421              		.loc 1 308 84 is_stmt 1 discriminator 2 view .LVU112
 308:Lib/ssc_app/src/el9800appl.c ****         {
 422              		.loc 1 308 101 is_stmt 0 discriminator 2 view .LVU113
 423 00aa 0AF1010A 		add	r10, r10, #1
 424              	.LVL32:
 308:Lib/ssc_app/src/el9800appl.c ****         {
 425              		.loc 1 308 101 discriminator 2 view .LVU114
 426 00ae 1FFA8AFA 		uxth	r10, r10
 427              	.LVL33:
 428              	.L16:
 308:Lib/ssc_app/src/el9800appl.c ****         {
 429              		.loc 1 308 37 is_stmt 1 discriminator 1 view .LVU115
 308:Lib/ssc_app/src/el9800appl.c ****         {
ARM GAS  /tmp/cciZl0lI.s 			page 15


 430              		.loc 1 308 69 is_stmt 0 discriminator 1 view .LVU116
 431 00b2 0D4B     		ldr	r3, .L26+4
 432 00b4 1B88     		ldrh	r3, [r3]
 308:Lib/ssc_app/src/el9800appl.c ****         {
 433              		.loc 1 308 9 discriminator 1 view .LVU117
 434 00b6 5345     		cmp	r3, r10
 435 00b8 D8D9     		bls	.L17
 310:Lib/ssc_app/src/el9800appl.c ****             if (pPDO != NULL)
 436              		.loc 1 310 13 is_stmt 1 view .LVU118
 310:Lib/ssc_app/src/el9800appl.c ****             if (pPDO != NULL)
 437              		.loc 1 310 20 is_stmt 0 view .LVU119
 438 00ba 0B4B     		ldr	r3, .L26+4
 439 00bc 03EB4A03 		add	r3, r3, r10, lsl #1
 440 00c0 5888     		ldrh	r0, [r3, #2]
 441 00c2 FFF7FEFF 		bl	OBJ_GetObjectHandle
 442              	.LVL34:
 311:Lib/ssc_app/src/el9800appl.c ****             {
 443              		.loc 1 311 13 is_stmt 1 view .LVU120
 311:Lib/ssc_app/src/el9800appl.c ****             {
 444              		.loc 1 311 16 is_stmt 0 view .LVU121
 445 00c6 0646     		mov	r6, r0
 446 00c8 38B1     		cbz	r0, .L23
 313:Lib/ssc_app/src/el9800appl.c ****                 for (PDOEntryCnt = 0; PDOEntryCnt < PDOSubindex0; PDOEntryCnt++)
 447              		.loc 1 313 17 is_stmt 1 view .LVU122
 313:Lib/ssc_app/src/el9800appl.c ****                 for (PDOEntryCnt = 0; PDOEntryCnt < PDOSubindex0; PDOEntryCnt++)
 448              		.loc 1 313 48 is_stmt 0 view .LVU123
 449 00ca 8369     		ldr	r3, [r0, #24]
 313:Lib/ssc_app/src/el9800appl.c ****                 for (PDOEntryCnt = 0; PDOEntryCnt < PDOSubindex0; PDOEntryCnt++)
 450              		.loc 1 313 30 view .LVU124
 451 00cc B3F80090 		ldrh	r9, [r3]
 452              	.LVL35:
 314:Lib/ssc_app/src/el9800appl.c ****                 {
 453              		.loc 1 314 17 is_stmt 1 view .LVU125
 314:Lib/ssc_app/src/el9800appl.c ****                 {
 454              		.loc 1 314 34 is_stmt 0 view .LVU126
 455 00d0 5C46     		mov	r4, fp
 314:Lib/ssc_app/src/el9800appl.c ****                 {
 456              		.loc 1 314 17 view .LVU127
 457 00d2 E8E7     		b	.L18
 458              	.LVL36:
 459              	.L22:
 275:Lib/ssc_app/src/el9800appl.c ****     UINT16 OutputSize = 0;
 460              		.loc 1 275 12 view .LVU128
 461 00d4 5F46     		mov	r7, fp
 308:Lib/ssc_app/src/el9800appl.c ****         {
 462              		.loc 1 308 32 view .LVU129
 463 00d6 DA46     		mov	r10, fp
 464 00d8 EBE7     		b	.L16
 465              	.LVL37:
 466              	.L23:
 324:Lib/ssc_app/src/el9800appl.c ****                 result = ALSTATUSCODE_INVALIDINPUTMAPPING;
 467              		.loc 1 324 27 view .LVU130
 468 00da 5F46     		mov	r7, fp
 469              	.LVL38:
 325:Lib/ssc_app/src/el9800appl.c ****                 break;
 470              		.loc 1 325 24 view .LVU131
 471 00dc 4FF0240B 		mov	fp, #36
ARM GAS  /tmp/cciZl0lI.s 			page 16


 472              	.LVL39:
 325:Lib/ssc_app/src/el9800appl.c ****                 break;
 473              		.loc 1 325 24 view .LVU132
 474 00e0 C4E7     		b	.L17
 475              	.L27:
 476 00e2 00BF     		.align	2
 477              	.L26:
 478 00e4 00000000 		.word	.LANCHOR1
 479 00e8 00000000 		.word	.LANCHOR2
 480              		.cfi_endproc
 481              	.LFE141:
 483              		.section	.text.APPL_InputMapping,"ax",%progbits
 484              		.align	1
 485              		.global	APPL_InputMapping
 486              		.syntax unified
 487              		.thumb
 488              		.thumb_func
 490              	APPL_InputMapping:
 491              	.LVL40:
 492              	.LFB142:
 341:Lib/ssc_app/src/el9800appl.c **** 
 342:Lib/ssc_app/src/el9800appl.c **** /////////////////////////////////////////////////////////////////////////////////////////
 343:Lib/ssc_app/src/el9800appl.c **** /**
 344:Lib/ssc_app/src/el9800appl.c **** \param      pData  pointer to input process data
 345:Lib/ssc_app/src/el9800appl.c **** \brief      This function will copies the inputs from the local memory to the ESC memory
 346:Lib/ssc_app/src/el9800appl.c ****             to the hardware
 347:Lib/ssc_app/src/el9800appl.c **** */
 348:Lib/ssc_app/src/el9800appl.c **** ///////////////////////////////////////////////////////////////////////////////////////
 349:Lib/ssc_app/src/el9800appl.c **** #if _STM32_IO4 && AL_EVENT_ENABLED
 350:Lib/ssc_app/src/el9800appl.c **** /* the pragma interrupt_level is used to tell the compiler that these functions will not
 351:Lib/ssc_app/src/el9800appl.c ****    be called at the same time from the main function and the interrupt routine */
 352:Lib/ssc_app/src/el9800appl.c **** #pragma interrupt_level 1
 353:Lib/ssc_app/src/el9800appl.c **** #endif
 354:Lib/ssc_app/src/el9800appl.c **** void APPL_InputMapping(UINT16 *pData)
 355:Lib/ssc_app/src/el9800appl.c **** {
 493              		.loc 1 355 1 is_stmt 1 view -0
 494              		.cfi_startproc
 495              		@ args = 0, pretend = 0, frame = 0
 496              		@ frame_needed = 0, uses_anonymous_args = 0
 497              		@ link register save eliminated.
 356:Lib/ssc_app/src/el9800appl.c ****     UINT16 j = 0;
 498              		.loc 1 356 5 view .LVU134
 357:Lib/ssc_app/src/el9800appl.c ****     UINT16 *pTmpData = (UINT16 *)pData;
 499              		.loc 1 357 5 view .LVU135
 358:Lib/ssc_app/src/el9800appl.c **** 
 359:Lib/ssc_app/src/el9800appl.c ****     /* we go through all entries of the TxPDO Assign object to get the assigned TxPDOs */
 360:Lib/ssc_app/src/el9800appl.c ****     for (j = 0; j < sTxPDOassign.u16SubIndex0; j++)
 500              		.loc 1 360 5 view .LVU136
 501              		.loc 1 360 12 is_stmt 0 view .LVU137
 502 0000 0022     		movs	r2, #0
 503              		.loc 1 360 5 view .LVU138
 504 0002 05E0     		b	.L29
 505              	.LVL41:
 506              	.L30:
 361:Lib/ssc_app/src/el9800appl.c ****     {
 362:Lib/ssc_app/src/el9800appl.c ****         switch (sTxPDOassign.aEntries[j])
 363:Lib/ssc_app/src/el9800appl.c ****         {
ARM GAS  /tmp/cciZl0lI.s 			page 17


 364:Lib/ssc_app/src/el9800appl.c ****         /* TxPDO 1 */
 365:Lib/ssc_app/src/el9800appl.c ****         case 0x1A00:
 366:Lib/ssc_app/src/el9800appl.c ****             *pTmpData++ = SWAPWORD(((UINT16 *)&sDIInputs)[1]);
 507              		.loc 1 366 13 is_stmt 1 view .LVU139
 508              		.loc 1 366 25 is_stmt 0 view .LVU140
 509 0004 3C4B     		ldr	r3, .L35
 510 0006 5B88     		ldrh	r3, [r3, #2]
 511 0008 20F8023B 		strh	r3, [r0], #2	@ movhi
 512              	.LVL42:
 367:Lib/ssc_app/src/el9800appl.c ****             break;
 513              		.loc 1 367 13 is_stmt 1 view .LVU141
 514              	.L32:
 360:Lib/ssc_app/src/el9800appl.c ****     {
 515              		.loc 1 360 48 discriminator 2 view .LVU142
 360:Lib/ssc_app/src/el9800appl.c ****     {
 516              		.loc 1 360 49 is_stmt 0 discriminator 2 view .LVU143
 517 000c 0132     		adds	r2, r2, #1
 518              	.LVL43:
 360:Lib/ssc_app/src/el9800appl.c ****     {
 519              		.loc 1 360 49 discriminator 2 view .LVU144
 520 000e 92B2     		uxth	r2, r2
 521              	.LVL44:
 522              	.L29:
 360:Lib/ssc_app/src/el9800appl.c ****     {
 523              		.loc 1 360 17 is_stmt 1 discriminator 1 view .LVU145
 360:Lib/ssc_app/src/el9800appl.c ****     {
 524              		.loc 1 360 33 is_stmt 0 discriminator 1 view .LVU146
 525 0010 3A4B     		ldr	r3, .L35+4
 526 0012 1B88     		ldrh	r3, [r3]
 360:Lib/ssc_app/src/el9800appl.c ****     {
 527              		.loc 1 360 5 discriminator 1 view .LVU147
 528 0014 9342     		cmp	r3, r2
 529 0016 6ED9     		bls	.L34
 362:Lib/ssc_app/src/el9800appl.c ****         {
 530              		.loc 1 362 9 is_stmt 1 view .LVU148
 362:Lib/ssc_app/src/el9800appl.c ****         {
 531              		.loc 1 362 38 is_stmt 0 view .LVU149
 532 0018 384B     		ldr	r3, .L35+4
 533 001a 03EB4203 		add	r3, r3, r2, lsl #1
 534 001e 5B88     		ldrh	r3, [r3, #2]
 362:Lib/ssc_app/src/el9800appl.c ****         {
 535              		.loc 1 362 9 view .LVU150
 536 0020 B3F5D05F 		cmp	r3, #6656
 537 0024 EED0     		beq	.L30
 538 0026 41F60221 		movw	r1, #6658
 539 002a 8B42     		cmp	r3, r1
 540 002c EED1     		bne	.L32
 368:Lib/ssc_app/src/el9800appl.c ****         /* TxPDO 3 */
 369:Lib/ssc_app/src/el9800appl.c ****         case 0x1A02:
 370:Lib/ssc_app/src/el9800appl.c ****             *pTmpData++ = SWAPWORD(((UINT16 *)&sAIInputs)[1]);
 541              		.loc 1 370 13 is_stmt 1 view .LVU151
 542              	.LVL45:
 543              		.loc 1 370 25 is_stmt 0 view .LVU152
 544 002e 344B     		ldr	r3, .L35+8
 545 0030 5988     		ldrh	r1, [r3, #2]
 546 0032 0180     		strh	r1, [r0]	@ movhi
 371:Lib/ssc_app/src/el9800appl.c ****             *pTmpData++ = SWAPWORD(((UINT16 *)&sAIInputs)[2]);
ARM GAS  /tmp/cciZl0lI.s 			page 18


 547              		.loc 1 371 13 is_stmt 1 view .LVU153
 548              	.LVL46:
 549              		.loc 1 371 25 is_stmt 0 view .LVU154
 550 0034 9988     		ldrh	r1, [r3, #4]
 551 0036 4180     		strh	r1, [r0, #2]	@ movhi
 372:Lib/ssc_app/src/el9800appl.c ****             *pTmpData++ = SWAPWORD(((UINT16 *)&sAIInputs)[3]);
 552              		.loc 1 372 13 is_stmt 1 view .LVU155
 553              	.LVL47:
 554              		.loc 1 372 25 is_stmt 0 view .LVU156
 555 0038 D988     		ldrh	r1, [r3, #6]
 556 003a 8180     		strh	r1, [r0, #4]	@ movhi
 373:Lib/ssc_app/src/el9800appl.c ****             *pTmpData++ = SWAPWORD(((UINT16 *)&sAIInputs)[4]);
 557              		.loc 1 373 13 is_stmt 1 view .LVU157
 558              	.LVL48:
 559              		.loc 1 373 25 is_stmt 0 view .LVU158
 560 003c 1989     		ldrh	r1, [r3, #8]
 561 003e C180     		strh	r1, [r0, #6]	@ movhi
 374:Lib/ssc_app/src/el9800appl.c ****             *pTmpData++ = SWAPWORD(((UINT16 *)&sAIInputs)[5]);
 562              		.loc 1 374 13 is_stmt 1 view .LVU159
 563              	.LVL49:
 564              		.loc 1 374 25 is_stmt 0 view .LVU160
 565 0040 5989     		ldrh	r1, [r3, #10]
 566 0042 0181     		strh	r1, [r0, #8]	@ movhi
 375:Lib/ssc_app/src/el9800appl.c ****             *pTmpData++ = SWAPWORD(((UINT16 *)&sAIInputs)[6]);
 567              		.loc 1 375 13 is_stmt 1 view .LVU161
 568              	.LVL50:
 569              		.loc 1 375 25 is_stmt 0 view .LVU162
 570 0044 9989     		ldrh	r1, [r3, #12]
 571 0046 4181     		strh	r1, [r0, #10]	@ movhi
 376:Lib/ssc_app/src/el9800appl.c ****             *pTmpData++ = SWAPWORD(((UINT16 *)&sAIInputs)[7]);
 572              		.loc 1 376 13 is_stmt 1 view .LVU163
 573              	.LVL51:
 574              		.loc 1 376 25 is_stmt 0 view .LVU164
 575 0048 D989     		ldrh	r1, [r3, #14]
 576 004a 8181     		strh	r1, [r0, #12]	@ movhi
 377:Lib/ssc_app/src/el9800appl.c ****             *pTmpData++ = SWAPWORD(((UINT16 *)&sAIInputs)[8]);
 577              		.loc 1 377 13 is_stmt 1 view .LVU165
 578              	.LVL52:
 579              		.loc 1 377 25 is_stmt 0 view .LVU166
 580 004c 198A     		ldrh	r1, [r3, #16]
 581 004e C181     		strh	r1, [r0, #14]	@ movhi
 378:Lib/ssc_app/src/el9800appl.c ****             *pTmpData++ = SWAPWORD(((UINT16 *)&sAIInputs)[9]);
 582              		.loc 1 378 13 is_stmt 1 view .LVU167
 583              	.LVL53:
 584              		.loc 1 378 25 is_stmt 0 view .LVU168
 585 0050 598A     		ldrh	r1, [r3, #18]
 586 0052 0182     		strh	r1, [r0, #16]	@ movhi
 379:Lib/ssc_app/src/el9800appl.c ****             *pTmpData++ = SWAPWORD(((UINT16 *)&sAIInputs)[10]);
 587              		.loc 1 379 13 is_stmt 1 view .LVU169
 588              	.LVL54:
 589              		.loc 1 379 25 is_stmt 0 view .LVU170
 590 0054 998A     		ldrh	r1, [r3, #20]
 591 0056 4182     		strh	r1, [r0, #18]	@ movhi
 380:Lib/ssc_app/src/el9800appl.c ****             *pTmpData++ = SWAPWORD(((UINT16 *)&sAIInputs)[11]);
 592              		.loc 1 380 13 is_stmt 1 view .LVU171
 593              	.LVL55:
 594              		.loc 1 380 25 is_stmt 0 view .LVU172
ARM GAS  /tmp/cciZl0lI.s 			page 19


 595 0058 D98A     		ldrh	r1, [r3, #22]
 596 005a 8182     		strh	r1, [r0, #20]	@ movhi
 381:Lib/ssc_app/src/el9800appl.c ****             *pTmpData++ = SWAPWORD(((UINT16 *)&sAIInputs)[12]);
 597              		.loc 1 381 13 is_stmt 1 view .LVU173
 598              	.LVL56:
 599              		.loc 1 381 25 is_stmt 0 view .LVU174
 600 005c 198B     		ldrh	r1, [r3, #24]
 601 005e C182     		strh	r1, [r0, #22]	@ movhi
 382:Lib/ssc_app/src/el9800appl.c ****             *pTmpData++ = SWAPWORD(((UINT16 *)&sAIInputs)[13]);
 602              		.loc 1 382 13 is_stmt 1 view .LVU175
 603              	.LVL57:
 604              		.loc 1 382 25 is_stmt 0 view .LVU176
 605 0060 598B     		ldrh	r1, [r3, #26]
 606 0062 0183     		strh	r1, [r0, #24]	@ movhi
 383:Lib/ssc_app/src/el9800appl.c ****             *pTmpData++ = SWAPWORD(((UINT16 *)&sAIInputs)[14]);
 607              		.loc 1 383 13 is_stmt 1 view .LVU177
 608              	.LVL58:
 609              		.loc 1 383 25 is_stmt 0 view .LVU178
 610 0064 998B     		ldrh	r1, [r3, #28]
 611 0066 4183     		strh	r1, [r0, #26]	@ movhi
 384:Lib/ssc_app/src/el9800appl.c ****             *pTmpData++ = SWAPWORD(((UINT16 *)&sAIInputs)[15]);
 612              		.loc 1 384 13 is_stmt 1 view .LVU179
 613              	.LVL59:
 614              		.loc 1 384 25 is_stmt 0 view .LVU180
 615 0068 D98B     		ldrh	r1, [r3, #30]
 616 006a 8183     		strh	r1, [r0, #28]	@ movhi
 385:Lib/ssc_app/src/el9800appl.c ****             *pTmpData++ = SWAPWORD(((UINT16 *)&sAIInputs)[16]);
 617              		.loc 1 385 13 is_stmt 1 view .LVU181
 618              	.LVL60:
 619              		.loc 1 385 25 is_stmt 0 view .LVU182
 620 006c 198C     		ldrh	r1, [r3, #32]
 621 006e C183     		strh	r1, [r0, #30]	@ movhi
 386:Lib/ssc_app/src/el9800appl.c ****             *pTmpData++ = SWAPWORD(((UINT16 *)&sAIInputs)[17]);
 622              		.loc 1 386 13 is_stmt 1 view .LVU183
 623              	.LVL61:
 624              		.loc 1 386 25 is_stmt 0 view .LVU184
 625 0070 598C     		ldrh	r1, [r3, #34]
 626 0072 0184     		strh	r1, [r0, #32]	@ movhi
 387:Lib/ssc_app/src/el9800appl.c ****             *pTmpData++ = SWAPWORD(((UINT16 *)&sAIInputs)[18]);
 627              		.loc 1 387 13 is_stmt 1 view .LVU185
 628              	.LVL62:
 629              		.loc 1 387 25 is_stmt 0 view .LVU186
 630 0074 998C     		ldrh	r1, [r3, #36]
 631 0076 4184     		strh	r1, [r0, #34]	@ movhi
 388:Lib/ssc_app/src/el9800appl.c ****             *pTmpData++ = SWAPWORD(((UINT16 *)&sAIInputs)[19]);
 632              		.loc 1 388 13 is_stmt 1 view .LVU187
 633              	.LVL63:
 634              		.loc 1 388 25 is_stmt 0 view .LVU188
 635 0078 D98C     		ldrh	r1, [r3, #38]
 636 007a 8184     		strh	r1, [r0, #36]	@ movhi
 389:Lib/ssc_app/src/el9800appl.c ****             *pTmpData++ = SWAPWORD(((UINT16 *)&sAIInputs)[20]);
 637              		.loc 1 389 13 is_stmt 1 view .LVU189
 638              	.LVL64:
 639              		.loc 1 389 25 is_stmt 0 view .LVU190
 640 007c 198D     		ldrh	r1, [r3, #40]
 641 007e C184     		strh	r1, [r0, #38]	@ movhi
 390:Lib/ssc_app/src/el9800appl.c ****             *pTmpData++ = SWAPWORD(((UINT16 *)&sAIInputs)[21]);
ARM GAS  /tmp/cciZl0lI.s 			page 20


 642              		.loc 1 390 13 is_stmt 1 view .LVU191
 643              	.LVL65:
 644              		.loc 1 390 25 is_stmt 0 view .LVU192
 645 0080 598D     		ldrh	r1, [r3, #42]
 646 0082 0185     		strh	r1, [r0, #40]	@ movhi
 391:Lib/ssc_app/src/el9800appl.c ****             *pTmpData++ = SWAPWORD(((UINT16 *)&sAIInputs)[22]);
 647              		.loc 1 391 13 is_stmt 1 view .LVU193
 648              	.LVL66:
 649              		.loc 1 391 25 is_stmt 0 view .LVU194
 650 0084 998D     		ldrh	r1, [r3, #44]
 651 0086 4185     		strh	r1, [r0, #42]	@ movhi
 392:Lib/ssc_app/src/el9800appl.c ****             *pTmpData++ = SWAPWORD(((UINT16 *)&sAIInputs)[23]);
 652              		.loc 1 392 13 is_stmt 1 view .LVU195
 653              	.LVL67:
 654              		.loc 1 392 25 is_stmt 0 view .LVU196
 655 0088 D98D     		ldrh	r1, [r3, #46]
 656 008a 8185     		strh	r1, [r0, #44]	@ movhi
 393:Lib/ssc_app/src/el9800appl.c ****             *pTmpData++ = SWAPWORD(((UINT16 *)&sAIInputs)[24]);
 657              		.loc 1 393 13 is_stmt 1 view .LVU197
 658              	.LVL68:
 659              		.loc 1 393 25 is_stmt 0 view .LVU198
 660 008c 198E     		ldrh	r1, [r3, #48]
 661 008e C185     		strh	r1, [r0, #46]	@ movhi
 394:Lib/ssc_app/src/el9800appl.c ****             *pTmpData++ = SWAPWORD(((UINT16 *)&sAIInputs)[25]);
 662              		.loc 1 394 13 is_stmt 1 view .LVU199
 663              	.LVL69:
 664              		.loc 1 394 25 is_stmt 0 view .LVU200
 665 0090 598E     		ldrh	r1, [r3, #50]
 666 0092 0186     		strh	r1, [r0, #48]	@ movhi
 395:Lib/ssc_app/src/el9800appl.c ****             *pTmpData++ = SWAPWORD(((UINT16 *)&sAIInputs)[26]);
 667              		.loc 1 395 13 is_stmt 1 view .LVU201
 668              	.LVL70:
 669              		.loc 1 395 25 is_stmt 0 view .LVU202
 670 0094 998E     		ldrh	r1, [r3, #52]
 671 0096 4186     		strh	r1, [r0, #50]	@ movhi
 396:Lib/ssc_app/src/el9800appl.c ****             *pTmpData++ = SWAPWORD(((UINT16 *)&sAIInputs)[27]);
 672              		.loc 1 396 13 is_stmt 1 view .LVU203
 673              	.LVL71:
 674              		.loc 1 396 25 is_stmt 0 view .LVU204
 675 0098 D98E     		ldrh	r1, [r3, #54]
 676 009a 8186     		strh	r1, [r0, #52]	@ movhi
 397:Lib/ssc_app/src/el9800appl.c ****             *pTmpData++ = SWAPWORD(((UINT16 *)&sAIInputs)[28]);//
 677              		.loc 1 397 13 is_stmt 1 view .LVU205
 678              	.LVL72:
 679              		.loc 1 397 25 is_stmt 0 view .LVU206
 680 009c 198F     		ldrh	r1, [r3, #56]
 681 009e C186     		strh	r1, [r0, #54]	@ movhi
 398:Lib/ssc_app/src/el9800appl.c ****             
 399:Lib/ssc_app/src/el9800appl.c ****             *pTmpData++ = SWAPWORD(((UINT16 *)&sAIInputs)[29]);
 682              		.loc 1 399 13 is_stmt 1 view .LVU207
 683              	.LVL73:
 684              		.loc 1 399 25 is_stmt 0 view .LVU208
 685 00a0 598F     		ldrh	r1, [r3, #58]
 686 00a2 0187     		strh	r1, [r0, #56]	@ movhi
 400:Lib/ssc_app/src/el9800appl.c ****             *pTmpData++ = SWAPWORD(((UINT16 *)&sAIInputs)[30]);
 687              		.loc 1 400 13 is_stmt 1 view .LVU209
 688              	.LVL74:
ARM GAS  /tmp/cciZl0lI.s 			page 21


 689              		.loc 1 400 25 is_stmt 0 view .LVU210
 690 00a4 998F     		ldrh	r1, [r3, #60]
 691 00a6 4187     		strh	r1, [r0, #58]	@ movhi
 401:Lib/ssc_app/src/el9800appl.c ****             *pTmpData++ = SWAPWORD(((UINT16 *)&sAIInputs)[31]);
 692              		.loc 1 401 13 is_stmt 1 view .LVU211
 693              	.LVL75:
 694              		.loc 1 401 25 is_stmt 0 view .LVU212
 695 00a8 D98F     		ldrh	r1, [r3, #62]
 696 00aa 8187     		strh	r1, [r0, #60]	@ movhi
 402:Lib/ssc_app/src/el9800appl.c ****             *pTmpData++ = SWAPWORD(((UINT16 *)&sAIInputs)[32]);
 697              		.loc 1 402 13 is_stmt 1 view .LVU213
 698              	.LVL76:
 699              		.loc 1 402 25 is_stmt 0 view .LVU214
 700 00ac B3F84010 		ldrh	r1, [r3, #64]
 701 00b0 C187     		strh	r1, [r0, #62]	@ movhi
 403:Lib/ssc_app/src/el9800appl.c ****             *pTmpData++ = SWAPWORD(((UINT16 *)&sAIInputs)[33]);
 702              		.loc 1 403 13 is_stmt 1 view .LVU215
 703              	.LVL77:
 704              		.loc 1 403 25 is_stmt 0 view .LVU216
 705 00b2 B3F84210 		ldrh	r1, [r3, #66]
 706 00b6 A0F84010 		strh	r1, [r0, #64]	@ movhi
 404:Lib/ssc_app/src/el9800appl.c ****             *pTmpData++ = SWAPWORD(((UINT16 *)&sAIInputs)[34]);
 707              		.loc 1 404 13 is_stmt 1 view .LVU217
 708              	.LVL78:
 709              		.loc 1 404 25 is_stmt 0 view .LVU218
 710 00ba B3F84410 		ldrh	r1, [r3, #68]
 711 00be A0F84210 		strh	r1, [r0, #66]	@ movhi
 405:Lib/ssc_app/src/el9800appl.c ****             *pTmpData++ = SWAPWORD(((UINT16 *)&sAIInputs)[35]);
 712              		.loc 1 405 13 is_stmt 1 view .LVU219
 713              	.LVL79:
 714              		.loc 1 405 25 is_stmt 0 view .LVU220
 715 00c2 B3F84610 		ldrh	r1, [r3, #70]
 716 00c6 A0F84410 		strh	r1, [r0, #68]	@ movhi
 406:Lib/ssc_app/src/el9800appl.c ****             *pTmpData++ = SWAPWORD(((UINT16 *)&sAIInputs)[36]);
 717              		.loc 1 406 13 is_stmt 1 view .LVU221
 718              	.LVL80:
 719              		.loc 1 406 25 is_stmt 0 view .LVU222
 720 00ca B3F84810 		ldrh	r1, [r3, #72]
 721 00ce A0F84610 		strh	r1, [r0, #70]	@ movhi
 407:Lib/ssc_app/src/el9800appl.c ****             *pTmpData++ = SWAPWORD(((UINT16 *)&sAIInputs)[37]);
 722              		.loc 1 407 13 is_stmt 1 view .LVU223
 723              	.LVL81:
 724              		.loc 1 407 25 is_stmt 0 view .LVU224
 725 00d2 B3F84A10 		ldrh	r1, [r3, #74]
 726 00d6 A0F84810 		strh	r1, [r0, #72]	@ movhi
 408:Lib/ssc_app/src/el9800appl.c ****             *pTmpData++ = SWAPWORD(((UINT16 *)&sAIInputs)[38]);
 727              		.loc 1 408 13 is_stmt 1 view .LVU225
 728              	.LVL82:
 729              		.loc 1 408 25 is_stmt 0 view .LVU226
 730 00da B3F84C10 		ldrh	r1, [r3, #76]
 731 00de A0F84A10 		strh	r1, [r0, #74]	@ movhi
 409:Lib/ssc_app/src/el9800appl.c ****             *pTmpData++ = SWAPWORD(((UINT16 *)&sAIInputs)[39]);
 732              		.loc 1 409 13 is_stmt 1 view .LVU227
 733              	.LVL83:
 734              		.loc 1 409 25 is_stmt 0 view .LVU228
 735 00e2 B3F84E10 		ldrh	r1, [r3, #78]
 736 00e6 A0F84C10 		strh	r1, [r0, #76]	@ movhi
ARM GAS  /tmp/cciZl0lI.s 			page 22


 410:Lib/ssc_app/src/el9800appl.c ****             *pTmpData++ = SWAPWORD(((UINT16 *)&sAIInputs)[40]);
 737              		.loc 1 410 13 is_stmt 1 view .LVU229
 738              	.LVL84:
 739              		.loc 1 410 25 is_stmt 0 view .LVU230
 740 00ea B3F85030 		ldrh	r3, [r3, #80]
 741 00ee A0F84E30 		strh	r3, [r0, #78]	@ movhi
 411:Lib/ssc_app/src/el9800appl.c ****             break;
 742              		.loc 1 411 13 is_stmt 1 view .LVU231
 410:Lib/ssc_app/src/el9800appl.c ****             *pTmpData++ = SWAPWORD(((UINT16 *)&sAIInputs)[40]);
 743              		.loc 1 410 22 is_stmt 0 view .LVU232
 744 00f2 5030     		adds	r0, r0, #80
 745              	.LVL85:
 746              		.loc 1 411 13 view .LVU233
 747 00f4 8AE7     		b	.L32
 748              	.L34:
 412:Lib/ssc_app/src/el9800appl.c ****         }
 413:Lib/ssc_app/src/el9800appl.c ****     }
 414:Lib/ssc_app/src/el9800appl.c **** }
 749              		.loc 1 414 1 view .LVU234
 750 00f6 7047     		bx	lr
 751              	.L36:
 752              		.align	2
 753              	.L35:
 754 00f8 00000000 		.word	.LANCHOR3
 755 00fc 00000000 		.word	.LANCHOR2
 756 0100 00000000 		.word	.LANCHOR4
 757              		.cfi_endproc
 758              	.LFE142:
 760              		.section	.text.APPL_OutputMapping,"ax",%progbits
 761              		.align	1
 762              		.global	APPL_OutputMapping
 763              		.syntax unified
 764              		.thumb
 765              		.thumb_func
 767              	APPL_OutputMapping:
 768              	.LVL86:
 769              	.LFB143:
 415:Lib/ssc_app/src/el9800appl.c **** 
 416:Lib/ssc_app/src/el9800appl.c **** /////////////////////////////////////////////////////////////////////////////////////////
 417:Lib/ssc_app/src/el9800appl.c **** /**
 418:Lib/ssc_app/src/el9800appl.c **** \param      pData  pointer to output process data
 419:Lib/ssc_app/src/el9800appl.c **** 
 420:Lib/ssc_app/src/el9800appl.c **** \brief    This function will copies the outputs from the ESC memory to the local memory
 421:Lib/ssc_app/src/el9800appl.c ****             to the hardware
 422:Lib/ssc_app/src/el9800appl.c **** */
 423:Lib/ssc_app/src/el9800appl.c **** ///////////////////////////////////////////////////////////////////////////////////////
 424:Lib/ssc_app/src/el9800appl.c **** #if _STM32_IO4 && AL_EVENT_ENABLED
 425:Lib/ssc_app/src/el9800appl.c **** /* the pragma interrupt_level is used to tell the compiler that these functions will not
 426:Lib/ssc_app/src/el9800appl.c ****    be called at the same time from the main function and the interrupt routine */
 427:Lib/ssc_app/src/el9800appl.c **** #pragma interrupt_level 1
 428:Lib/ssc_app/src/el9800appl.c **** #endif
 429:Lib/ssc_app/src/el9800appl.c **** void APPL_OutputMapping(UINT16 *pData)
 430:Lib/ssc_app/src/el9800appl.c **** {
 770              		.loc 1 430 1 is_stmt 1 view -0
 771              		.cfi_startproc
 772              		@ args = 0, pretend = 0, frame = 0
 773              		@ frame_needed = 0, uses_anonymous_args = 0
ARM GAS  /tmp/cciZl0lI.s 			page 23


 774              		@ link register save eliminated.
 431:Lib/ssc_app/src/el9800appl.c ****     UINT16 j = 0;
 775              		.loc 1 431 5 view .LVU236
 432:Lib/ssc_app/src/el9800appl.c ****     UINT16 *pTmpData = (UINT16 *)pData;
 776              		.loc 1 432 5 view .LVU237
 433:Lib/ssc_app/src/el9800appl.c **** 
 434:Lib/ssc_app/src/el9800appl.c ****     /* we go through all entries of the RxPDO Assign object to get the assigned RxPDOs */
 435:Lib/ssc_app/src/el9800appl.c ****     for (j = 0; j < sRxPDOassign.u16SubIndex0; j++)
 777              		.loc 1 435 5 view .LVU238
 778              		.loc 1 435 12 is_stmt 0 view .LVU239
 779 0000 0023     		movs	r3, #0
 780              		.loc 1 435 5 view .LVU240
 781 0002 01E0     		b	.L38
 782              	.LVL87:
 783              	.L39:
 784              		.loc 1 435 48 is_stmt 1 discriminator 2 view .LVU241
 785              		.loc 1 435 49 is_stmt 0 discriminator 2 view .LVU242
 786 0004 0133     		adds	r3, r3, #1
 787              	.LVL88:
 788              		.loc 1 435 49 discriminator 2 view .LVU243
 789 0006 9BB2     		uxth	r3, r3
 790              	.LVL89:
 791              	.L38:
 792              		.loc 1 435 17 is_stmt 1 discriminator 1 view .LVU244
 793              		.loc 1 435 33 is_stmt 0 discriminator 1 view .LVU245
 794 0008 384A     		ldr	r2, .L42
 795 000a 1288     		ldrh	r2, [r2]
 796              		.loc 1 435 5 discriminator 1 view .LVU246
 797 000c 9A42     		cmp	r2, r3
 798 000e 6CD9     		bls	.L41
 436:Lib/ssc_app/src/el9800appl.c ****     {
 437:Lib/ssc_app/src/el9800appl.c ****         switch (sRxPDOassign.aEntries[j])
 799              		.loc 1 437 9 is_stmt 1 view .LVU247
 800              		.loc 1 437 38 is_stmt 0 view .LVU248
 801 0010 364A     		ldr	r2, .L42
 802 0012 02EB4302 		add	r2, r2, r3, lsl #1
 803 0016 5188     		ldrh	r1, [r2, #2]
 804              		.loc 1 437 9 view .LVU249
 805 0018 41F20162 		movw	r2, #5633
 806 001c 9142     		cmp	r1, r2
 807 001e F1D1     		bne	.L39
 438:Lib/ssc_app/src/el9800appl.c ****         {
 439:Lib/ssc_app/src/el9800appl.c ****         /* RxPDO 2 */
 440:Lib/ssc_app/src/el9800appl.c ****         case 0x1601:
 441:Lib/ssc_app/src/el9800appl.c ****             ((UINT16 *)&sDOOutputs)[1] = SWAPWORD(*pTmpData);
 808              		.loc 1 441 13 is_stmt 1 view .LVU250
 809              		.loc 1 441 42 is_stmt 0 view .LVU251
 810 0020 0188     		ldrh	r1, [r0]
 811              		.loc 1 441 40 view .LVU252
 812 0022 334A     		ldr	r2, .L42+4
 813 0024 5180     		strh	r1, [r2, #2]	@ movhi
 442:Lib/ssc_app/src/el9800appl.c ****             ((UINT16 *)&sDOOutputs)[2] = (SWAPWORD(*pTmpData) >> 8 & 0xFF) | (SWAPWORD(*(pTmpData +
 814              		.loc 1 442 13 is_stmt 1 view .LVU253
 815              		.loc 1 442 79 is_stmt 0 view .LVU254
 816 0026 B0F802C0 		ldrh	ip, [r0, #2]
 817              		.loc 1 442 76 view .LVU255
 818 002a 090A     		lsrs	r1, r1, #8
ARM GAS  /tmp/cciZl0lI.s 			page 24


 819 002c 41EA0C21 		orr	r1, r1, ip, lsl #8
 820              		.loc 1 442 40 view .LVU256
 821 0030 9180     		strh	r1, [r2, #4]	@ movhi
 443:Lib/ssc_app/src/el9800appl.c ****             ((UINT16 *)&sDOOutputs)[3] = (SWAPWORD(*(pTmpData + 1)) >> 8 & 0xFF) | (SWAPWORD(*(pTmp
 822              		.loc 1 443 13 is_stmt 1 view .LVU257
 823              		.loc 1 443 43 is_stmt 0 view .LVU258
 824 0032 4188     		ldrh	r1, [r0, #2]
 825              		.loc 1 443 85 view .LVU259
 826 0034 B0F804C0 		ldrh	ip, [r0, #4]
 827              		.loc 1 443 82 view .LVU260
 828 0038 090A     		lsrs	r1, r1, #8
 829 003a 41EA0C21 		orr	r1, r1, ip, lsl #8
 830              		.loc 1 443 40 view .LVU261
 831 003e D180     		strh	r1, [r2, #6]	@ movhi
 444:Lib/ssc_app/src/el9800appl.c ****             ((UINT16 *)&sDOOutputs)[4] = (SWAPWORD(*(pTmpData + 2)) >> 8 & 0xFF) | (SWAPWORD(*(pTmp
 832              		.loc 1 444 13 is_stmt 1 view .LVU262
 833              		.loc 1 444 43 is_stmt 0 view .LVU263
 834 0040 8188     		ldrh	r1, [r0, #4]
 835              		.loc 1 444 85 view .LVU264
 836 0042 B0F806C0 		ldrh	ip, [r0, #6]
 837              		.loc 1 444 82 view .LVU265
 838 0046 090A     		lsrs	r1, r1, #8
 839 0048 41EA0C21 		orr	r1, r1, ip, lsl #8
 840              		.loc 1 444 40 view .LVU266
 841 004c 1181     		strh	r1, [r2, #8]	@ movhi
 445:Lib/ssc_app/src/el9800appl.c ****             ((UINT16 *)&sDOOutputs)[5] = (SWAPWORD(*(pTmpData + 3)) >> 8 & 0xFF) | (SWAPWORD(*(pTmp
 842              		.loc 1 445 13 is_stmt 1 view .LVU267
 843              		.loc 1 445 43 is_stmt 0 view .LVU268
 844 004e C188     		ldrh	r1, [r0, #6]
 845              		.loc 1 445 85 view .LVU269
 846 0050 B0F808C0 		ldrh	ip, [r0, #8]
 847              		.loc 1 445 82 view .LVU270
 848 0054 090A     		lsrs	r1, r1, #8
 849 0056 41EA0C21 		orr	r1, r1, ip, lsl #8
 850              		.loc 1 445 40 view .LVU271
 851 005a 5181     		strh	r1, [r2, #10]	@ movhi
 446:Lib/ssc_app/src/el9800appl.c ****             ((UINT16 *)&sDOOutputs)[6] = (SWAPWORD(*(pTmpData + 4)) >> 8 & 0xFF) | (SWAPWORD(*(pTmp
 852              		.loc 1 446 13 is_stmt 1 view .LVU272
 853              		.loc 1 446 43 is_stmt 0 view .LVU273
 854 005c 0189     		ldrh	r1, [r0, #8]
 855              		.loc 1 446 85 view .LVU274
 856 005e B0F80AC0 		ldrh	ip, [r0, #10]
 857              		.loc 1 446 82 view .LVU275
 858 0062 090A     		lsrs	r1, r1, #8
 859 0064 41EA0C21 		orr	r1, r1, ip, lsl #8
 860              		.loc 1 446 40 view .LVU276
 861 0068 9181     		strh	r1, [r2, #12]	@ movhi
 447:Lib/ssc_app/src/el9800appl.c ****             ((UINT16 *)&sDOOutputs)[7] = (SWAPWORD(*(pTmpData + 5)) >> 8 & 0xFF) | (SWAPWORD(*(pTmp
 862              		.loc 1 447 13 is_stmt 1 view .LVU277
 863              		.loc 1 447 43 is_stmt 0 view .LVU278
 864 006a 4189     		ldrh	r1, [r0, #10]
 865              		.loc 1 447 85 view .LVU279
 866 006c B0F80CC0 		ldrh	ip, [r0, #12]
 867              		.loc 1 447 82 view .LVU280
 868 0070 090A     		lsrs	r1, r1, #8
 869 0072 41EA0C21 		orr	r1, r1, ip, lsl #8
 870              		.loc 1 447 40 view .LVU281
ARM GAS  /tmp/cciZl0lI.s 			page 25


 871 0076 D181     		strh	r1, [r2, #14]	@ movhi
 448:Lib/ssc_app/src/el9800appl.c ****             ((UINT16 *)&sDOOutputs)[8] = (SWAPWORD(*(pTmpData + 6)) >> 8 & 0xFF) | (SWAPWORD(*(pTmp
 872              		.loc 1 448 13 is_stmt 1 view .LVU282
 873              		.loc 1 448 43 is_stmt 0 view .LVU283
 874 0078 8189     		ldrh	r1, [r0, #12]
 875              		.loc 1 448 85 view .LVU284
 876 007a B0F80EC0 		ldrh	ip, [r0, #14]
 877              		.loc 1 448 82 view .LVU285
 878 007e 090A     		lsrs	r1, r1, #8
 879 0080 41EA0C21 		orr	r1, r1, ip, lsl #8
 880              		.loc 1 448 40 view .LVU286
 881 0084 1182     		strh	r1, [r2, #16]	@ movhi
 449:Lib/ssc_app/src/el9800appl.c ****             ((UINT16 *)&sDOOutputs)[9] = (SWAPWORD(*(pTmpData + 7)) >> 8 & 0xFF) | (SWAPWORD(*(pTmp
 882              		.loc 1 449 13 is_stmt 1 view .LVU287
 883              		.loc 1 449 43 is_stmt 0 view .LVU288
 884 0086 C189     		ldrh	r1, [r0, #14]
 885              		.loc 1 449 85 view .LVU289
 886 0088 B0F810C0 		ldrh	ip, [r0, #16]
 887              		.loc 1 449 82 view .LVU290
 888 008c 090A     		lsrs	r1, r1, #8
 889 008e 41EA0C21 		orr	r1, r1, ip, lsl #8
 890              		.loc 1 449 40 view .LVU291
 891 0092 5182     		strh	r1, [r2, #18]	@ movhi
 450:Lib/ssc_app/src/el9800appl.c ****             ((UINT16 *)&sDOOutputs)[10] = (SWAPWORD(*(pTmpData + 8)) >> 8 & 0xFF) | (SWAPWORD(*(pTm
 892              		.loc 1 450 13 is_stmt 1 view .LVU292
 893              		.loc 1 450 44 is_stmt 0 view .LVU293
 894 0094 018A     		ldrh	r1, [r0, #16]
 895              		.loc 1 450 86 view .LVU294
 896 0096 B0F812C0 		ldrh	ip, [r0, #18]
 897              		.loc 1 450 83 view .LVU295
 898 009a 090A     		lsrs	r1, r1, #8
 899 009c 41EA0C21 		orr	r1, r1, ip, lsl #8
 900              		.loc 1 450 41 view .LVU296
 901 00a0 9182     		strh	r1, [r2, #20]	@ movhi
 451:Lib/ssc_app/src/el9800appl.c ****             ((UINT16 *)&sDOOutputs)[11] = (SWAPWORD(*(pTmpData + 9)) >> 8 & 0xFF) | (SWAPWORD(*(pTm
 902              		.loc 1 451 13 is_stmt 1 view .LVU297
 903              		.loc 1 451 44 is_stmt 0 view .LVU298
 904 00a2 418A     		ldrh	r1, [r0, #18]
 905              		.loc 1 451 86 view .LVU299
 906 00a4 B0F814C0 		ldrh	ip, [r0, #20]
 907              		.loc 1 451 83 view .LVU300
 908 00a8 090A     		lsrs	r1, r1, #8
 909 00aa 41EA0C21 		orr	r1, r1, ip, lsl #8
 910              		.loc 1 451 41 view .LVU301
 911 00ae D182     		strh	r1, [r2, #22]	@ movhi
 452:Lib/ssc_app/src/el9800appl.c ****             ((UINT16 *)&sDOOutputs)[12] = (SWAPWORD(*(pTmpData + 10)) >> 8 & 0xFF) | (SWAPWORD(*(pT
 912              		.loc 1 452 13 is_stmt 1 view .LVU302
 913              		.loc 1 452 44 is_stmt 0 view .LVU303
 914 00b0 818A     		ldrh	r1, [r0, #20]
 915              		.loc 1 452 87 view .LVU304
 916 00b2 B0F816C0 		ldrh	ip, [r0, #22]
 917              		.loc 1 452 84 view .LVU305
 918 00b6 090A     		lsrs	r1, r1, #8
 919 00b8 41EA0C21 		orr	r1, r1, ip, lsl #8
 920              		.loc 1 452 41 view .LVU306
 921 00bc 1183     		strh	r1, [r2, #24]	@ movhi
 453:Lib/ssc_app/src/el9800appl.c ****             ((UINT16 *)&sDOOutputs)[13] = (SWAPWORD(*(pTmpData + 11)) >> 8 & 0xFF) | (SWAPWORD(*(pT
ARM GAS  /tmp/cciZl0lI.s 			page 26


 922              		.loc 1 453 13 is_stmt 1 view .LVU307
 923              		.loc 1 453 44 is_stmt 0 view .LVU308
 924 00be C18A     		ldrh	r1, [r0, #22]
 925              		.loc 1 453 87 view .LVU309
 926 00c0 B0F818C0 		ldrh	ip, [r0, #24]
 927              		.loc 1 453 84 view .LVU310
 928 00c4 090A     		lsrs	r1, r1, #8
 929 00c6 41EA0C21 		orr	r1, r1, ip, lsl #8
 930              		.loc 1 453 41 view .LVU311
 931 00ca 5183     		strh	r1, [r2, #26]	@ movhi
 454:Lib/ssc_app/src/el9800appl.c ****             ((UINT16 *)&sDOOutputs)[14] = (SWAPWORD(*(pTmpData + 12)) >> 8 & 0xFF) | (SWAPWORD(*(pT
 932              		.loc 1 454 13 is_stmt 1 view .LVU312
 933              		.loc 1 454 44 is_stmt 0 view .LVU313
 934 00cc 018B     		ldrh	r1, [r0, #24]
 935              		.loc 1 454 87 view .LVU314
 936 00ce B0F81AC0 		ldrh	ip, [r0, #26]
 937              		.loc 1 454 84 view .LVU315
 938 00d2 090A     		lsrs	r1, r1, #8
 939 00d4 41EA0C21 		orr	r1, r1, ip, lsl #8
 940              		.loc 1 454 41 view .LVU316
 941 00d8 9183     		strh	r1, [r2, #28]	@ movhi
 455:Lib/ssc_app/src/el9800appl.c ****             ((UINT16 *)&sDOOutputs)[15] = (SWAPWORD(*(pTmpData + 13)) >> 8 & 0xFF) | (SWAPWORD(*(pT
 942              		.loc 1 455 13 is_stmt 1 view .LVU317
 943              		.loc 1 455 44 is_stmt 0 view .LVU318
 944 00da 418B     		ldrh	r1, [r0, #26]
 945              		.loc 1 455 87 view .LVU319
 946 00dc B0F81CC0 		ldrh	ip, [r0, #28]
 947              		.loc 1 455 84 view .LVU320
 948 00e0 090A     		lsrs	r1, r1, #8
 949 00e2 41EA0C21 		orr	r1, r1, ip, lsl #8
 950              		.loc 1 455 41 view .LVU321
 951 00e6 D183     		strh	r1, [r2, #30]	@ movhi
 456:Lib/ssc_app/src/el9800appl.c ****             break;
 952              		.loc 1 456 13 is_stmt 1 view .LVU322
 953 00e8 8CE7     		b	.L39
 954              	.L41:
 457:Lib/ssc_app/src/el9800appl.c ****         }
 458:Lib/ssc_app/src/el9800appl.c ****     }
 459:Lib/ssc_app/src/el9800appl.c **** }
 955              		.loc 1 459 1 is_stmt 0 view .LVU323
 956 00ea 7047     		bx	lr
 957              	.L43:
 958              		.align	2
 959              	.L42:
 960 00ec 00000000 		.word	.LANCHOR1
 961 00f0 00000000 		.word	.LANCHOR0
 962              		.cfi_endproc
 963              	.LFE143:
 965              		.section	.text.APPL_Application,"ax",%progbits
 966              		.align	1
 967              		.global	APPL_Application
 968              		.syntax unified
 969              		.thumb
 970              		.thumb_func
 972              	APPL_Application:
 973              	.LFB144:
 460:Lib/ssc_app/src/el9800appl.c **** 
ARM GAS  /tmp/cciZl0lI.s 			page 27


 461:Lib/ssc_app/src/el9800appl.c **** /////////////////////////////////////////////////////////////////////////////////////////
 462:Lib/ssc_app/src/el9800appl.c **** /**
 463:Lib/ssc_app/src/el9800appl.c **** \brief    This function will called from the synchronisation ISR
 464:Lib/ssc_app/src/el9800appl.c ****             or from the mainloop if no synchronisation is supported
 465:Lib/ssc_app/src/el9800appl.c **** */
 466:Lib/ssc_app/src/el9800appl.c **** ///////////////////////////////////////////////////////////////////////////////////////
 467:Lib/ssc_app/src/el9800appl.c **** 
 468:Lib/ssc_app/src/el9800appl.c **** #include <stdint.h>
 469:Lib/ssc_app/src/el9800appl.c **** 
 470:Lib/ssc_app/src/el9800appl.c **** void APPL_Application(void)
 471:Lib/ssc_app/src/el9800appl.c **** {
 974              		.loc 1 471 1 is_stmt 1 view -0
 975              		.cfi_startproc
 976              		@ args = 0, pretend = 0, frame = 0
 977              		@ frame_needed = 0, uses_anonymous_args = 0
 978 0000 08B5     		push	{r3, lr}
 979              		.cfi_def_cfa_offset 8
 980              		.cfi_offset 3, -8
 981              		.cfi_offset 14, -4
 472:Lib/ssc_app/src/el9800appl.c ****     
 473:Lib/ssc_app/src/el9800appl.c ****     if (sDOOutputs.bLED1 != 0)
 982              		.loc 1 473 5 view .LVU325
 983              		.loc 1 473 26 is_stmt 0 view .LVU326
 984 0002 274B     		ldr	r3, .L54
 985 0004 9B78     		ldrb	r3, [r3, #2]	@ zero_extendqisi2
 986              		.loc 1 473 8 view .LVU327
 987 0006 13F0010F 		tst	r3, #1
 988 000a 2ED0     		beq	.L45
 474:Lib/ssc_app/src/el9800appl.c ****     {
 475:Lib/ssc_app/src/el9800appl.c ****         HAL_GPIO_WritePin(LED1_GPIO_Port,LED1_Pin,GPIO_PIN_SET);
 989              		.loc 1 475 9 is_stmt 1 view .LVU328
 990 000c 0122     		movs	r2, #1
 991 000e 4FF40041 		mov	r1, #32768
 992 0012 2448     		ldr	r0, .L54+4
 993 0014 FFF7FEFF 		bl	HAL_GPIO_WritePin
 994              	.LVL90:
 995              	.L46:
 476:Lib/ssc_app/src/el9800appl.c ****     }
 477:Lib/ssc_app/src/el9800appl.c ****     else
 478:Lib/ssc_app/src/el9800appl.c ****     {
 479:Lib/ssc_app/src/el9800appl.c ****         HAL_GPIO_WritePin(LED1_GPIO_Port,LED1_Pin,GPIO_PIN_RESET);
 480:Lib/ssc_app/src/el9800appl.c ****     }
 481:Lib/ssc_app/src/el9800appl.c **** 
 482:Lib/ssc_app/src/el9800appl.c **** 
 483:Lib/ssc_app/src/el9800appl.c ****     if (sDOOutputs.bLED2 != 0)
 996              		.loc 1 483 5 view .LVU329
 997              		.loc 1 483 26 is_stmt 0 view .LVU330
 998 0018 214B     		ldr	r3, .L54
 999 001a 9B78     		ldrb	r3, [r3, #2]	@ zero_extendqisi2
 1000              		.loc 1 483 8 view .LVU331
 1001 001c 13F0020F 		tst	r3, #2
 1002 0020 2AD0     		beq	.L47
 484:Lib/ssc_app/src/el9800appl.c ****     {
 485:Lib/ssc_app/src/el9800appl.c ****         HAL_GPIO_WritePin(LED2_GPIO_Port,LED2_Pin,GPIO_PIN_SET);
 1003              		.loc 1 485 9 is_stmt 1 view .LVU332
 1004 0022 0122     		movs	r2, #1
 1005 0024 4FF48041 		mov	r1, #16384
ARM GAS  /tmp/cciZl0lI.s 			page 28


 1006 0028 1E48     		ldr	r0, .L54+4
 1007 002a FFF7FEFF 		bl	HAL_GPIO_WritePin
 1008              	.LVL91:
 1009              	.L48:
 486:Lib/ssc_app/src/el9800appl.c ****     }
 487:Lib/ssc_app/src/el9800appl.c ****     else
 488:Lib/ssc_app/src/el9800appl.c ****     {
 489:Lib/ssc_app/src/el9800appl.c ****         HAL_GPIO_WritePin(LED2_GPIO_Port,LED2_Pin,GPIO_PIN_RESET);
 490:Lib/ssc_app/src/el9800appl.c ****     }
 491:Lib/ssc_app/src/el9800appl.c **** 
 492:Lib/ssc_app/src/el9800appl.c **** 
 493:Lib/ssc_app/src/el9800appl.c ****     if (sDOOutputs.bLED3 != 0)
 1010              		.loc 1 493 5 view .LVU333
 1011              		.loc 1 493 26 is_stmt 0 view .LVU334
 1012 002e 1C4B     		ldr	r3, .L54
 1013 0030 9B78     		ldrb	r3, [r3, #2]	@ zero_extendqisi2
 1014              		.loc 1 493 8 view .LVU335
 1015 0032 13F0040F 		tst	r3, #4
 1016 0036 26D0     		beq	.L49
 494:Lib/ssc_app/src/el9800appl.c ****     {
 495:Lib/ssc_app/src/el9800appl.c ****         HAL_GPIO_WritePin(LED3_GPIO_Port,LED3_Pin,GPIO_PIN_SET);
 1017              		.loc 1 495 9 is_stmt 1 view .LVU336
 1018 0038 0122     		movs	r2, #1
 1019 003a 4FF40051 		mov	r1, #8192
 1020 003e 1948     		ldr	r0, .L54+4
 1021 0040 FFF7FEFF 		bl	HAL_GPIO_WritePin
 1022              	.LVL92:
 1023              	.L50:
 496:Lib/ssc_app/src/el9800appl.c ****     }
 497:Lib/ssc_app/src/el9800appl.c ****     else
 498:Lib/ssc_app/src/el9800appl.c ****     {
 499:Lib/ssc_app/src/el9800appl.c ****         HAL_GPIO_WritePin(LED3_GPIO_Port,LED3_Pin,GPIO_PIN_RESET);
 500:Lib/ssc_app/src/el9800appl.c ****     }
 501:Lib/ssc_app/src/el9800appl.c **** 
 502:Lib/ssc_app/src/el9800appl.c ****     /*
 503:Lib/ssc_app/src/el9800appl.c ****     Can1_TxMessage.StdId = sDOOutputs.can1_h0;
 504:Lib/ssc_app/src/el9800appl.c ****     Can1_TxMessage.ExtId = sDOOutputs.can1_h1;
 505:Lib/ssc_app/src/el9800appl.c ****     Can1_TxMessage.IDE = sDOOutputs.can1_h2;
 506:Lib/ssc_app/src/el9800appl.c ****     Can1_TxMessage.RTR = sDOOutputs.can1_h3;
 507:Lib/ssc_app/src/el9800appl.c ****     Can1_TxMessage.DLC = sDOOutputs.can1_h4;
 508:Lib/ssc_app/src/el9800appl.c **** 
 509:Lib/ssc_app/src/el9800appl.c ****     Can1_TxMessage.Data[0] = sDOOutputs.can1_d0;
 510:Lib/ssc_app/src/el9800appl.c ****     Can1_TxMessage.Data[1] = sDOOutputs.can1_d1;
 511:Lib/ssc_app/src/el9800appl.c ****     Can1_TxMessage.Data[2] = sDOOutputs.can1_d2;
 512:Lib/ssc_app/src/el9800appl.c ****     Can1_TxMessage.Data[3] = sDOOutputs.can1_d3;
 513:Lib/ssc_app/src/el9800appl.c ****     Can1_TxMessage.Data[4] = sDOOutputs.can1_d4;
 514:Lib/ssc_app/src/el9800appl.c ****     Can1_TxMessage.Data[5] = sDOOutputs.can1_d5;
 515:Lib/ssc_app/src/el9800appl.c ****     Can1_TxMessage.Data[6] = sDOOutputs.can1_d6;
 516:Lib/ssc_app/src/el9800appl.c ****     Can1_TxMessage.Data[7] = sDOOutputs.can1_d7;
 517:Lib/ssc_app/src/el9800appl.c **** 
 518:Lib/ssc_app/src/el9800appl.c ****     CAN_Transmit(CAN1, &Can1_TxMessage);
 519:Lib/ssc_app/src/el9800appl.c **** 
 520:Lib/ssc_app/src/el9800appl.c ****     Can2_TxMessage.StdId = sDOOutputs.can2_h0;
 521:Lib/ssc_app/src/el9800appl.c ****     Can2_TxMessage.ExtId = sDOOutputs.can2_h1;
 522:Lib/ssc_app/src/el9800appl.c ****     Can2_TxMessage.IDE = sDOOutputs.can2_h2;
 523:Lib/ssc_app/src/el9800appl.c ****     Can2_TxMessage.RTR = sDOOutputs.can2_h3;
 524:Lib/ssc_app/src/el9800appl.c ****     Can2_TxMessage.DLC = sDOOutputs.can2_h4;
ARM GAS  /tmp/cciZl0lI.s 			page 29


 525:Lib/ssc_app/src/el9800appl.c **** 
 526:Lib/ssc_app/src/el9800appl.c ****     Can2_TxMessage.Data[0] = sDOOutputs.can2_d0;
 527:Lib/ssc_app/src/el9800appl.c ****     Can2_TxMessage.Data[1] = sDOOutputs.can2_d1;
 528:Lib/ssc_app/src/el9800appl.c ****     Can2_TxMessage.Data[2] = sDOOutputs.can2_d2;
 529:Lib/ssc_app/src/el9800appl.c ****     Can2_TxMessage.Data[3] = sDOOutputs.can2_d3;
 530:Lib/ssc_app/src/el9800appl.c ****     Can2_TxMessage.Data[4] = sDOOutputs.can2_d4;
 531:Lib/ssc_app/src/el9800appl.c ****     Can2_TxMessage.Data[5] = sDOOutputs.can2_d5;
 532:Lib/ssc_app/src/el9800appl.c ****     Can2_TxMessage.Data[6] = sDOOutputs.can2_d6;
 533:Lib/ssc_app/src/el9800appl.c ****     Can2_TxMessage.Data[7] = sDOOutputs.can2_d7;
 534:Lib/ssc_app/src/el9800appl.c **** 
 535:Lib/ssc_app/src/el9800appl.c ****     CAN_Transmit(CAN2, &Can2_TxMessage);
 536:Lib/ssc_app/src/el9800appl.c **** 
 537:Lib/ssc_app/src/el9800appl.c ****     sDIInputs.bSwitch1 = 0;
 538:Lib/ssc_app/src/el9800appl.c ****     sDIInputs.bSwitch2 = 0;
 539:Lib/ssc_app/src/el9800appl.c ****     sDIInputs.bSwitch3 = 0;
 540:Lib/ssc_app/src/el9800appl.c ****     sDIInputs.bSwitch4 = 0;
 541:Lib/ssc_app/src/el9800appl.c ****     sDIInputs.bSwitch5 = 0;
 542:Lib/ssc_app/src/el9800appl.c ****     sDIInputs.bSwitch6 = 0;
 543:Lib/ssc_app/src/el9800appl.c ****     sDIInputs.bSwitch7 = 0;
 544:Lib/ssc_app/src/el9800appl.c ****     sDIInputs.bSwitch8 = 0;
 545:Lib/ssc_app/src/el9800appl.c ****     */
 546:Lib/ssc_app/src/el9800appl.c **** 
 547:Lib/ssc_app/src/el9800appl.c ****     /* start the conversion of the A/D converter */
 548:Lib/ssc_app/src/el9800appl.c ****     //		while(!(ADC_GetFlagStatus(ADC1, ADC_FLAG_EOC)==SET));
 549:Lib/ssc_app/src/el9800appl.c **** 
 550:Lib/ssc_app/src/el9800appl.c ****     /*
 551:Lib/ssc_app/src/el9800appl.c ****     sAIInputs.i16Analoginput = 0;
 552:Lib/ssc_app/src/el9800appl.c **** 
 553:Lib/ssc_app/src/el9800appl.c ****     sAIInputs.can1_h0 = Can1_RxMessage.StdId;
 554:Lib/ssc_app/src/el9800appl.c ****     sAIInputs.can1_h1 = Can1_RxMessage.ExtId;
 555:Lib/ssc_app/src/el9800appl.c ****     sAIInputs.can1_h2 = Can1_RxMessage.IDE;
 556:Lib/ssc_app/src/el9800appl.c ****     sAIInputs.can1_h3 = Can1_RxMessage.RTR;
 557:Lib/ssc_app/src/el9800appl.c ****     sAIInputs.can1_h4 = Can1_RxMessage.DLC;
 558:Lib/ssc_app/src/el9800appl.c **** 
 559:Lib/ssc_app/src/el9800appl.c ****     sAIInputs.can1_d0 = Can1_RxMessage.Data[0];
 560:Lib/ssc_app/src/el9800appl.c ****     sAIInputs.can1_d1 = Can1_RxMessage.Data[1];
 561:Lib/ssc_app/src/el9800appl.c ****     sAIInputs.can1_d2 = Can1_RxMessage.Data[2];
 562:Lib/ssc_app/src/el9800appl.c ****     sAIInputs.can1_d3 = Can1_RxMessage.Data[3];
 563:Lib/ssc_app/src/el9800appl.c ****     sAIInputs.can1_d4 = Can1_RxMessage.Data[4];
 564:Lib/ssc_app/src/el9800appl.c ****     sAIInputs.can1_d5 = Can1_RxMessage.Data[5];
 565:Lib/ssc_app/src/el9800appl.c ****     sAIInputs.can1_d6 = Can1_RxMessage.Data[6];
 566:Lib/ssc_app/src/el9800appl.c ****     sAIInputs.can1_d7 = Can1_RxMessage.Data[7];
 567:Lib/ssc_app/src/el9800appl.c **** 
 568:Lib/ssc_app/src/el9800appl.c ****     sAIInputs.can2_h0 = Can2_RxMessage.StdId;
 569:Lib/ssc_app/src/el9800appl.c ****     sAIInputs.can2_h1 = Can2_RxMessage.ExtId;
 570:Lib/ssc_app/src/el9800appl.c ****     sAIInputs.can2_h2 = Can2_RxMessage.IDE;
 571:Lib/ssc_app/src/el9800appl.c ****     sAIInputs.can2_h3 = Can2_RxMessage.RTR;
 572:Lib/ssc_app/src/el9800appl.c ****     sAIInputs.can2_h4 = Can2_RxMessage.DLC;
 573:Lib/ssc_app/src/el9800appl.c **** 
 574:Lib/ssc_app/src/el9800appl.c ****     sAIInputs.can2_d0 = Can2_RxMessage.Data[0];
 575:Lib/ssc_app/src/el9800appl.c ****     sAIInputs.can2_d1 = Can2_RxMessage.Data[1];
 576:Lib/ssc_app/src/el9800appl.c ****     sAIInputs.can2_d2 = Can2_RxMessage.Data[2];
 577:Lib/ssc_app/src/el9800appl.c ****     sAIInputs.can2_d3 = Can2_RxMessage.Data[3];
 578:Lib/ssc_app/src/el9800appl.c ****     sAIInputs.can2_d4 = Can2_RxMessage.Data[4];
 579:Lib/ssc_app/src/el9800appl.c ****     sAIInputs.can2_d5 = Can2_RxMessage.Data[5];
 580:Lib/ssc_app/src/el9800appl.c ****     sAIInputs.can2_d6 = Can2_RxMessage.Data[6];
 581:Lib/ssc_app/src/el9800appl.c ****     sAIInputs.can2_d7 = Can2_RxMessage.Data[7];
ARM GAS  /tmp/cciZl0lI.s 			page 30


 582:Lib/ssc_app/src/el9800appl.c ****     */
 583:Lib/ssc_app/src/el9800appl.c **** 
 584:Lib/ssc_app/src/el9800appl.c ****     //modfiy_cmd();
 585:Lib/ssc_app/src/el9800appl.c ****     //unitreeA1_rxtx(&huart1);
 586:Lib/ssc_app/src/el9800appl.c ****     
 587:Lib/ssc_app/src/el9800appl.c **** 
 588:Lib/ssc_app/src/el9800appl.c ****     /* we toggle the TxPDO Toggle after updating the data of the corresponding TxPDO */
 589:Lib/ssc_app/src/el9800appl.c ****     sAIInputs.bTxPDOToggle ^= 1;
 1024              		.loc 1 589 5 view .LVU337
 1025              		.loc 1 589 28 is_stmt 0 view .LVU338
 1026 0044 1849     		ldr	r1, .L54+8
 1027 0046 CB78     		ldrb	r3, [r1, #3]	@ zero_extendqisi2
 1028 0048 C3F3C012 		ubfx	r2, r3, #7, #1
 1029 004c 82F00102 		eor	r2, r2, #1
 1030 0050 62F3C713 		bfi	r3, r2, #7, #1
 1031 0054 CB70     		strb	r3, [r1, #3]
 590:Lib/ssc_app/src/el9800appl.c **** 
 591:Lib/ssc_app/src/el9800appl.c ****     /* we simulate a problem of the analog input, if the Switch4 is on in this example,
 592:Lib/ssc_app/src/el9800appl.c ****        in this case the TxPDO State has to set to indicate the problem to the master */
 593:Lib/ssc_app/src/el9800appl.c ****     if (sDIInputs.bSwitch4)
 1032              		.loc 1 593 5 is_stmt 1 view .LVU339
 1033              		.loc 1 593 9 is_stmt 0 view .LVU340
 1034 0056 154B     		ldr	r3, .L54+12
 1035 0058 9B78     		ldrb	r3, [r3, #2]	@ zero_extendqisi2
 1036              		.loc 1 593 8 view .LVU341
 1037 005a 13F0080F 		tst	r3, #8
 1038 005e 19D0     		beq	.L51
 594:Lib/ssc_app/src/el9800appl.c ****         sAIInputs.bTxPDOState = 1;
 1039              		.loc 1 594 9 is_stmt 1 view .LVU342
 1040              		.loc 1 594 31 is_stmt 0 view .LVU343
 1041 0060 CB78     		ldrb	r3, [r1, #3]	@ zero_extendqisi2
 1042 0062 43F04003 		orr	r3, r3, #64
 1043 0066 CB70     		strb	r3, [r1, #3]
 1044              	.L44:
 595:Lib/ssc_app/src/el9800appl.c ****     else
 596:Lib/ssc_app/src/el9800appl.c ****         sAIInputs.bTxPDOState = 0;
 597:Lib/ssc_app/src/el9800appl.c **** }
 1045              		.loc 1 597 1 view .LVU344
 1046 0068 08BD     		pop	{r3, pc}
 1047              	.L45:
 479:Lib/ssc_app/src/el9800appl.c ****     }
 1048              		.loc 1 479 9 is_stmt 1 view .LVU345
 1049 006a 0022     		movs	r2, #0
 1050 006c 4FF40041 		mov	r1, #32768
 1051 0070 0C48     		ldr	r0, .L54+4
 1052 0072 FFF7FEFF 		bl	HAL_GPIO_WritePin
 1053              	.LVL93:
 1054 0076 CFE7     		b	.L46
 1055              	.L47:
 489:Lib/ssc_app/src/el9800appl.c ****     }
 1056              		.loc 1 489 9 view .LVU346
 1057 0078 0022     		movs	r2, #0
 1058 007a 4FF48041 		mov	r1, #16384
 1059 007e 0948     		ldr	r0, .L54+4
 1060 0080 FFF7FEFF 		bl	HAL_GPIO_WritePin
 1061              	.LVL94:
 1062 0084 D3E7     		b	.L48
ARM GAS  /tmp/cciZl0lI.s 			page 31


 1063              	.L49:
 499:Lib/ssc_app/src/el9800appl.c ****     }
 1064              		.loc 1 499 9 view .LVU347
 1065 0086 0022     		movs	r2, #0
 1066 0088 4FF40051 		mov	r1, #8192
 1067 008c 0548     		ldr	r0, .L54+4
 1068 008e FFF7FEFF 		bl	HAL_GPIO_WritePin
 1069              	.LVL95:
 1070 0092 D7E7     		b	.L50
 1071              	.L51:
 596:Lib/ssc_app/src/el9800appl.c **** }
 1072              		.loc 1 596 9 view .LVU348
 596:Lib/ssc_app/src/el9800appl.c **** }
 1073              		.loc 1 596 31 is_stmt 0 view .LVU349
 1074 0094 044B     		ldr	r3, .L54+8
 1075 0096 DA78     		ldrb	r2, [r3, #3]	@ zero_extendqisi2
 1076 0098 6FF38612 		bfc	r2, #6, #1
 1077 009c DA70     		strb	r2, [r3, #3]
 1078              		.loc 1 597 1 view .LVU350
 1079 009e E3E7     		b	.L44
 1080              	.L55:
 1081              		.align	2
 1082              	.L54:
 1083 00a0 00000000 		.word	.LANCHOR0
 1084 00a4 00040240 		.word	1073873920
 1085 00a8 00000000 		.word	.LANCHOR4
 1086 00ac 00000000 		.word	.LANCHOR3
 1087              		.cfi_endproc
 1088              	.LFE144:
 1090              		.section	.text.ReadObject0x1802,"ax",%progbits
 1091              		.align	1
 1092              		.global	ReadObject0x1802
 1093              		.syntax unified
 1094              		.thumb
 1095              		.thumb_func
 1097              	ReadObject0x1802:
 1098              	.LVL96:
 1099              	.LFB145:
 598:Lib/ssc_app/src/el9800appl.c **** 
 599:Lib/ssc_app/src/el9800appl.c **** /////////////////////////////////////////////////////////////////////////////////////////
 600:Lib/ssc_app/src/el9800appl.c **** /**
 601:Lib/ssc_app/src/el9800appl.c ****  \param     index               index of the requested object.
 602:Lib/ssc_app/src/el9800appl.c ****  \param     subindex            subindex of the requested object.
 603:Lib/ssc_app/src/el9800appl.c ****  \param     objSize             size of the requested object data, calculated with OBJ_GetObjectLen
 604:Lib/ssc_app/src/el9800appl.c ****  \param     pData               Pointer to the buffer where the data can be copied to
 605:Lib/ssc_app/src/el9800appl.c ****  \param     bCompleteAccess     Indicates if a complete read of all subindices of the
 606:Lib/ssc_app/src/el9800appl.c ****                                 object shall be done or not
 607:Lib/ssc_app/src/el9800appl.c **** 
 608:Lib/ssc_app/src/el9800appl.c ****  \return    ABORTIDX_XXX
 609:Lib/ssc_app/src/el9800appl.c **** 
 610:Lib/ssc_app/src/el9800appl.c ****  \brief     Handles SDO read requests to TxPDO Parameter
 611:Lib/ssc_app/src/el9800appl.c **** */
 612:Lib/ssc_app/src/el9800appl.c **** ///////////////////////////////////////////////////////////////////////////////////////
 613:Lib/ssc_app/src/el9800appl.c **** UINT8 ReadObject0x1802(UINT16 index, UINT8 subindex, UINT32 dataSize, UINT16 MBXMEM *pData, UINT8 b
 614:Lib/ssc_app/src/el9800appl.c **** {
 1100              		.loc 1 614 1 is_stmt 1 view -0
 1101              		.cfi_startproc
ARM GAS  /tmp/cciZl0lI.s 			page 32


 1102              		@ args = 4, pretend = 0, frame = 0
 1103              		@ frame_needed = 0, uses_anonymous_args = 0
 1104              		.loc 1 614 1 is_stmt 0 view .LVU352
 1105 0000 10B5     		push	{r4, lr}
 1106              		.cfi_def_cfa_offset 8
 1107              		.cfi_offset 4, -8
 1108              		.cfi_offset 14, -4
 1109 0002 9DF80840 		ldrb	r4, [sp, #8]	@ zero_extendqisi2
 615:Lib/ssc_app/src/el9800appl.c **** 
 616:Lib/ssc_app/src/el9800appl.c ****     if (bCompleteAccess)
 1110              		.loc 1 616 5 is_stmt 1 view .LVU353
 1111              		.loc 1 616 8 is_stmt 0 view .LVU354
 1112 0006 34BB     		cbnz	r4, .L61
 617:Lib/ssc_app/src/el9800appl.c ****         return ABORTIDX_UNSUPPORTED_ACCESS;
 618:Lib/ssc_app/src/el9800appl.c **** 
 619:Lib/ssc_app/src/el9800appl.c ****     if (subindex == 0)
 1113              		.loc 1 619 5 is_stmt 1 view .LVU355
 1114              		.loc 1 619 8 is_stmt 0 view .LVU356
 1115 0008 21B9     		cbnz	r1, .L58
 620:Lib/ssc_app/src/el9800appl.c ****     {
 621:Lib/ssc_app/src/el9800appl.c ****         *pData = TxPDO1802Subindex0;
 1116              		.loc 1 621 9 is_stmt 1 view .LVU357
 1117              		.loc 1 621 16 is_stmt 0 view .LVU358
 1118 000a 154A     		ldr	r2, .L68
 1119              	.LVL97:
 1120              		.loc 1 621 16 view .LVU359
 1121 000c 1288     		ldrh	r2, [r2]
 1122 000e 1A80     		strh	r2, [r3]	@ movhi
 622:Lib/ssc_app/src/el9800appl.c ****     }
 623:Lib/ssc_app/src/el9800appl.c ****     else if (subindex == 6)
 624:Lib/ssc_app/src/el9800appl.c ****     {
 625:Lib/ssc_app/src/el9800appl.c ****         /*clear destination buffer (no excluded TxPDO set)*/
 626:Lib/ssc_app/src/el9800appl.c ****         if (dataSize > 0)
 627:Lib/ssc_app/src/el9800appl.c ****             MBXMEMSET(pData, 0x00, dataSize);
 628:Lib/ssc_app/src/el9800appl.c ****     }
 629:Lib/ssc_app/src/el9800appl.c ****     else if (subindex == 7)
 630:Lib/ssc_app/src/el9800appl.c ****     {
 631:Lib/ssc_app/src/el9800appl.c ****         /*min size is one Byte*/
 632:Lib/ssc_app/src/el9800appl.c ****         UINT8 *pu8Data = (UINT8 *)pData;
 633:Lib/ssc_app/src/el9800appl.c **** 
 634:Lib/ssc_app/src/el9800appl.c ****         // Reset Buffer
 635:Lib/ssc_app/src/el9800appl.c ****         *pu8Data = 0;
 636:Lib/ssc_app/src/el9800appl.c **** 
 637:Lib/ssc_app/src/el9800appl.c ****         *pu8Data = sAIInputs.bTxPDOState;
 638:Lib/ssc_app/src/el9800appl.c ****     }
 639:Lib/ssc_app/src/el9800appl.c ****     else if (subindex == 9)
 640:Lib/ssc_app/src/el9800appl.c ****     {
 641:Lib/ssc_app/src/el9800appl.c ****         /*min size is one Byte*/
 642:Lib/ssc_app/src/el9800appl.c ****         UINT8 *pu8Data = (UINT8 *)pData;
 643:Lib/ssc_app/src/el9800appl.c **** 
 644:Lib/ssc_app/src/el9800appl.c ****         // Reset Buffer
 645:Lib/ssc_app/src/el9800appl.c ****         *pu8Data = 0;
 646:Lib/ssc_app/src/el9800appl.c **** 
 647:Lib/ssc_app/src/el9800appl.c ****         *pu8Data = sAIInputs.bTxPDOToggle;
 648:Lib/ssc_app/src/el9800appl.c ****     }
 649:Lib/ssc_app/src/el9800appl.c ****     else
 650:Lib/ssc_app/src/el9800appl.c ****         return ABORTIDX_SUBINDEX_NOT_EXISTING;
ARM GAS  /tmp/cciZl0lI.s 			page 33


 651:Lib/ssc_app/src/el9800appl.c **** 
 652:Lib/ssc_app/src/el9800appl.c ****     return 0;
 1123              		.loc 1 652 12 view .LVU360
 1124 0010 0846     		mov	r0, r1
 1125              	.LVL98:
 1126              	.L57:
 653:Lib/ssc_app/src/el9800appl.c **** }
 1127              		.loc 1 653 1 view .LVU361
 1128 0012 10BD     		pop	{r4, pc}
 1129              	.LVL99:
 1130              	.L58:
 623:Lib/ssc_app/src/el9800appl.c ****     {
 1131              		.loc 1 623 10 is_stmt 1 view .LVU362
 623:Lib/ssc_app/src/el9800appl.c ****     {
 1132              		.loc 1 623 13 is_stmt 0 view .LVU363
 1133 0014 0629     		cmp	r1, #6
 1134 0016 0CD0     		beq	.L65
 629:Lib/ssc_app/src/el9800appl.c ****     {
 1135              		.loc 1 629 10 is_stmt 1 view .LVU364
 629:Lib/ssc_app/src/el9800appl.c ****     {
 1136              		.loc 1 629 13 is_stmt 0 view .LVU365
 1137 0018 0729     		cmp	r1, #7
 1138 001a 13D0     		beq	.L66
 639:Lib/ssc_app/src/el9800appl.c ****     {
 1139              		.loc 1 639 10 is_stmt 1 view .LVU366
 639:Lib/ssc_app/src/el9800appl.c ****     {
 1140              		.loc 1 639 13 is_stmt 0 view .LVU367
 1141 001c 0929     		cmp	r1, #9
 1142 001e 1CD1     		bne	.L63
 1143              	.LBB2:
 642:Lib/ssc_app/src/el9800appl.c **** 
 1144              		.loc 1 642 9 is_stmt 1 view .LVU368
 1145              	.LVL100:
 645:Lib/ssc_app/src/el9800appl.c **** 
 1146              		.loc 1 645 9 view .LVU369
 645:Lib/ssc_app/src/el9800appl.c **** 
 1147              		.loc 1 645 18 is_stmt 0 view .LVU370
 1148 0020 0022     		movs	r2, #0
 1149              	.LVL101:
 645:Lib/ssc_app/src/el9800appl.c **** 
 1150              		.loc 1 645 18 view .LVU371
 1151 0022 1A70     		strb	r2, [r3]
 647:Lib/ssc_app/src/el9800appl.c ****     }
 1152              		.loc 1 647 9 is_stmt 1 view .LVU372
 647:Lib/ssc_app/src/el9800appl.c ****     }
 1153              		.loc 1 647 29 is_stmt 0 view .LVU373
 1154 0024 0F4A     		ldr	r2, .L68+4
 1155 0026 D278     		ldrb	r2, [r2, #3]	@ zero_extendqisi2
 1156 0028 C2F3C012 		ubfx	r2, r2, #7, #1
 647:Lib/ssc_app/src/el9800appl.c ****     }
 1157              		.loc 1 647 18 view .LVU374
 1158 002c 1A70     		strb	r2, [r3]
 1159              	.LBE2:
 652:Lib/ssc_app/src/el9800appl.c **** }
 1160              		.loc 1 652 12 view .LVU375
 1161 002e 2046     		mov	r0, r4
 1162              	.LVL102:
ARM GAS  /tmp/cciZl0lI.s 			page 34


 652:Lib/ssc_app/src/el9800appl.c **** }
 1163              		.loc 1 652 12 view .LVU376
 1164 0030 EFE7     		b	.L57
 1165              	.LVL103:
 1166              	.L65:
 626:Lib/ssc_app/src/el9800appl.c ****             MBXMEMSET(pData, 0x00, dataSize);
 1167              		.loc 1 626 9 is_stmt 1 view .LVU377
 626:Lib/ssc_app/src/el9800appl.c ****             MBXMEMSET(pData, 0x00, dataSize);
 1168              		.loc 1 626 12 is_stmt 0 view .LVU378
 1169 0032 0AB9     		cbnz	r2, .L67
 652:Lib/ssc_app/src/el9800appl.c **** }
 1170              		.loc 1 652 12 view .LVU379
 1171 0034 2046     		mov	r0, r4
 1172              	.LVL104:
 652:Lib/ssc_app/src/el9800appl.c **** }
 1173              		.loc 1 652 12 view .LVU380
 1174 0036 ECE7     		b	.L57
 1175              	.LVL105:
 1176              	.L67:
 627:Lib/ssc_app/src/el9800appl.c ****     }
 1177              		.loc 1 627 13 is_stmt 1 view .LVU381
 1178 0038 0021     		movs	r1, #0
 1179              	.LVL106:
 627:Lib/ssc_app/src/el9800appl.c ****     }
 1180              		.loc 1 627 13 is_stmt 0 view .LVU382
 1181 003a 1846     		mov	r0, r3
 1182              	.LVL107:
 627:Lib/ssc_app/src/el9800appl.c ****     }
 1183              		.loc 1 627 13 view .LVU383
 1184 003c FFF7FEFF 		bl	memset
 1185              	.LVL108:
 652:Lib/ssc_app/src/el9800appl.c **** }
 1186              		.loc 1 652 12 view .LVU384
 1187 0040 2046     		mov	r0, r4
 1188 0042 E6E7     		b	.L57
 1189              	.LVL109:
 1190              	.L66:
 1191              	.LBB3:
 632:Lib/ssc_app/src/el9800appl.c **** 
 1192              		.loc 1 632 9 is_stmt 1 view .LVU385
 635:Lib/ssc_app/src/el9800appl.c **** 
 1193              		.loc 1 635 9 view .LVU386
 635:Lib/ssc_app/src/el9800appl.c **** 
 1194              		.loc 1 635 18 is_stmt 0 view .LVU387
 1195 0044 0022     		movs	r2, #0
 1196              	.LVL110:
 635:Lib/ssc_app/src/el9800appl.c **** 
 1197              		.loc 1 635 18 view .LVU388
 1198 0046 1A70     		strb	r2, [r3]
 637:Lib/ssc_app/src/el9800appl.c ****     }
 1199              		.loc 1 637 9 is_stmt 1 view .LVU389
 637:Lib/ssc_app/src/el9800appl.c ****     }
 1200              		.loc 1 637 29 is_stmt 0 view .LVU390
 1201 0048 064A     		ldr	r2, .L68+4
 1202 004a D278     		ldrb	r2, [r2, #3]	@ zero_extendqisi2
 1203 004c C2F38012 		ubfx	r2, r2, #6, #1
 637:Lib/ssc_app/src/el9800appl.c ****     }
ARM GAS  /tmp/cciZl0lI.s 			page 35


 1204              		.loc 1 637 18 view .LVU391
 1205 0050 1A70     		strb	r2, [r3]
 1206              	.LBE3:
 652:Lib/ssc_app/src/el9800appl.c **** }
 1207              		.loc 1 652 12 view .LVU392
 1208 0052 2046     		mov	r0, r4
 1209              	.LVL111:
 652:Lib/ssc_app/src/el9800appl.c **** }
 1210              		.loc 1 652 12 view .LVU393
 1211 0054 DDE7     		b	.L57
 1212              	.LVL112:
 1213              	.L61:
 617:Lib/ssc_app/src/el9800appl.c **** 
 1214              		.loc 1 617 16 view .LVU394
 1215 0056 0520     		movs	r0, #5
 1216              	.LVL113:
 617:Lib/ssc_app/src/el9800appl.c **** 
 1217              		.loc 1 617 16 view .LVU395
 1218 0058 DBE7     		b	.L57
 1219              	.LVL114:
 1220              	.L63:
 650:Lib/ssc_app/src/el9800appl.c **** 
 1221              		.loc 1 650 16 view .LVU396
 1222 005a 1120     		movs	r0, #17
 1223              	.LVL115:
 650:Lib/ssc_app/src/el9800appl.c **** 
 1224              		.loc 1 650 16 view .LVU397
 1225 005c D9E7     		b	.L57
 1226              	.L69:
 1227 005e 00BF     		.align	2
 1228              	.L68:
 1229 0060 00000000 		.word	.LANCHOR5
 1230 0064 00000000 		.word	.LANCHOR4
 1231              		.cfi_endproc
 1232              	.LFE145:
 1234              		.global	times
 1235              		.global	sModulelist
 1236              		.global	sModulardeviceprofile
 1237              		.global	sAISettings
 1238              		.global	sDOOutputs
 1239              		.global	sAIInputs
 1240              		.global	sDIInputs
 1241              		.global	sTxPDOassign
 1242              		.global	sRxPDOassign
 1243              		.global	sAITxPDOMap
 1244              		.global	sDITxPDOMap
 1245              		.global	TxPDO1802Subindex0
 1246              		.global	sDORxPDOMap
 1247              		.section	.data.TxPDO1802Subindex0,"aw"
 1248              		.align	1
 1249              		.set	.LANCHOR5,. + 0
 1252              	TxPDO1802Subindex0:
 1253 0000 0900     		.short	9
 1254              		.section	.data.sAIInputs,"aw"
 1255              		.align	2
 1256              		.set	.LANCHOR4,. + 0
 1259              	sAIInputs:
ARM GAS  /tmp/cciZl0lI.s 			page 36


 1260 0000 3400     		.short	52
 1261 0002 00       		.byte	0
 1262 0003 00       		.byte	0
 1263 0004 FF7F     		.short	32767
 1264 0006 0000     		.short	0
 1265 0008 00       		.byte	0
 1266 0009 00       		.byte	0
 1267 000a 00       		.byte	0
 1268 000b 00       		.byte	0
 1269 000c 00       		.byte	0
 1270 000d 00       		.byte	0
 1271 000e 00       		.byte	0
 1272 000f 00       		.byte	0
 1273 0010 00       		.byte	0
 1274 0011 00       		.byte	0
 1275 0012 00       		.byte	0
 1276 0013 00       		.byte	0
 1277 0014 0000     		.short	0
 1278 0016 00       		.byte	0
 1279 0017 00       		.byte	0
 1280 0018 00       		.byte	0
 1281 0019 00       		.byte	0
 1282 001a 00       		.byte	0
 1283 001b 00       		.byte	0
 1284 001c 00       		.byte	0
 1285 001d 00       		.byte	0
 1286 001e 00       		.byte	0
 1287 001f 00       		.byte	0
 1288 0020 00       		.byte	0
 1289 0021 00       		.byte	0
 1290 0022 00       		.byte	0
 1291 0023 00       		.byte	0
 1292 0024 0000     		.short	0
 1293 0026 0000     		.short	0
 1294 0028 00000000 		.word	0
 1295 002c 00000000 		.word	0
 1296 0030 00000000 		.word	0
 1297 0034 00000000 		.word	0
 1298 0038 0000     		.short	0
 1299 003a 0000     		.space	2
 1300              		.section	.data.sAISettings,"aw"
 1301              		.align	2
 1304              	sAISettings:
 1305 0000 1400     		.short	20
 1306 0002 00       		.byte	0
 1307 0003 00       		.byte	0
 1308 0004 0000     		.short	0
 1309 0006 0000     		.space	2
 1310 0008 00000000 		.word	0
 1311 000c 0000     		.short	0
 1312 000e 0000     		.short	0
 1313              		.section	.data.sAITxPDOMap,"aw"
 1314              		.align	2
 1317              	sAITxPDOMap:
 1318 0000 2B00     		.short	43
 1319 0002 0000     		.space	2
 1320 0004 01012060 		.word	1612710145
ARM GAS  /tmp/cciZl0lI.s 			page 37


 1321 0008 01022060 		.word	1612710401
 1322 000c 02032060 		.word	1612710658
 1323 0010 02052060 		.word	1612711170
 1324 0014 08000000 		.word	8
 1325 0018 01070218 		.word	402786049
 1326 001c 01090218 		.word	402786561
 1327 0020 10112060 		.word	1612714256
 1328 0024 10122060 		.word	1612714512
 1329 0028 08132060 		.word	1612714760
 1330 002c 08142060 		.word	1612715016
 1331 0030 08152060 		.word	1612715272
 1332 0034 08162060 		.word	1612715528
 1333 0038 08172060 		.word	1612715784
 1334 003c 08182060 		.word	1612716040
 1335 0040 08192060 		.word	1612716296
 1336 0044 08202060 		.word	1612718088
 1337 0048 08212060 		.word	1612718344
 1338 004c 08222060 		.word	1612718600
 1339 0050 08232060 		.word	1612718856
 1340 0054 08242060 		.word	1612719112
 1341 0058 10252060 		.word	1612719376
 1342 005c 08262060 		.word	1612719624
 1343 0060 08272060 		.word	1612719880
 1344 0064 08282060 		.word	1612720136
 1345 0068 08292060 		.word	1612720392
 1346 006c 08302060 		.word	1612722184
 1347 0070 08312060 		.word	1612722440
 1348 0074 08322060 		.word	1612722696
 1349 0078 08332060 		.word	1612722952
 1350 007c 08342060 		.word	1612723208
 1351 0080 08352060 		.word	1612723464
 1352 0084 08362060 		.word	1612723720
 1353 0088 08372060 		.word	1612723976
 1354 008c 08382060 		.word	1612724232
 1355 0090 08392060 		.word	1612724488
 1356 0094 10402060 		.word	1612726288
 1357 0098 10412060 		.word	1612726544
 1358 009c 20422060 		.word	1612726816
 1359 00a0 20432060 		.word	1612727072
 1360 00a4 20442060 		.word	1612727328
 1361 00a8 20452060 		.word	1612727584
 1362 00ac 10462060 		.word	1612727824
 1363              		.section	.data.sDIInputs,"aw"
 1364              		.align	2
 1365              		.set	.LANCHOR3,. + 0
 1368              	sDIInputs:
 1369 0000 0800     		.short	8
 1370 0002 00       		.byte	0
 1371 0003 00       		.byte	0
 1372              		.section	.data.sDITxPDOMap,"aw"
 1373              		.align	2
 1376              	sDITxPDOMap:
 1377 0000 0900     		.short	9
 1378 0002 0000     		.space	2
 1379 0004 01010060 		.word	1610612993
 1380 0008 01020060 		.word	1610613249
 1381 000c 01030060 		.word	1610613505
ARM GAS  /tmp/cciZl0lI.s 			page 38


 1382 0010 01040060 		.word	1610613761
 1383 0014 01050060 		.word	1610614017
 1384 0018 01060060 		.word	1610614273
 1385 001c 01070060 		.word	1610614529
 1386 0020 01080060 		.word	1610614785
 1387 0024 08000000 		.word	8
 1388              		.section	.data.sDOOutputs,"aw"
 1389              		.align	2
 1390              		.set	.LANCHOR0,. + 0
 1393              	sDOOutputs:
 1394 0000 2300     		.short	35
 1395 0002 00       		.byte	0
 1396 0003 00       		.space	1
 1397 0004 0000     		.short	0
 1398 0006 00       		.byte	0
 1399 0007 00       		.byte	0
 1400 0008 00       		.byte	0
 1401 0009 00       		.byte	0
 1402 000a 00       		.byte	0
 1403 000b 00       		.byte	0
 1404 000c 00       		.byte	0
 1405 000d 00       		.byte	0
 1406 000e 00       		.byte	0
 1407 000f 00       		.byte	0
 1408 0010 00       		.byte	0
 1409 0011 00       		.byte	0
 1410 0012 0000     		.short	0
 1411 0014 00       		.byte	0
 1412 0015 00       		.byte	0
 1413 0016 00       		.byte	0
 1414 0017 00       		.byte	0
 1415 0018 00       		.byte	0
 1416 0019 00       		.byte	0
 1417 001a 00       		.byte	0
 1418 001b 00       		.byte	0
 1419 001c 00       		.byte	0
 1420 001d 00       		.byte	0
 1421 001e 00       		.byte	0
 1422 001f 00       		.byte	0
 1423 0020 00       		.byte	0
 1424 0021 00       		.space	1
 1425              		.section	.data.sDORxPDOMap,"aw"
 1426              		.align	2
 1429              	sDORxPDOMap:
 1430 0000 2300     		.short	35
 1431 0002 0000     		.space	2
 1432 0004 01011070 		.word	1880097025
 1433 0008 01021070 		.word	1880097281
 1434 000c 01031070 		.word	1880097537
 1435 0010 01041070 		.word	1880097793
 1436 0014 01051070 		.word	1880098049
 1437 0018 01061070 		.word	1880098305
 1438 001c 01071070 		.word	1880098561
 1439 0020 01081070 		.word	1880098817
 1440 0024 10091070 		.word	1880099088
 1441 0028 08101070 		.word	1880100872
 1442 002c 08111070 		.word	1880101128
ARM GAS  /tmp/cciZl0lI.s 			page 39


 1443 0030 08121070 		.word	1880101384
 1444 0034 08131070 		.word	1880101640
 1445 0038 08141070 		.word	1880101896
 1446 003c 08151070 		.word	1880102152
 1447 0040 08161070 		.word	1880102408
 1448 0044 08171070 		.word	1880102664
 1449 0048 08181070 		.word	1880102920
 1450 004c 08191070 		.word	1880103176
 1451 0050 08201070 		.word	1880104968
 1452 0054 08211070 		.word	1880105224
 1453 0058 10221070 		.word	1880105488
 1454 005c 08231070 		.word	1880105736
 1455 0060 08241070 		.word	1880105992
 1456 0064 08251070 		.word	1880106248
 1457 0068 08261070 		.word	1880106504
 1458 006c 08271070 		.word	1880106760
 1459 0070 08281070 		.word	1880107016
 1460 0074 08291070 		.word	1880107272
 1461 0078 08301070 		.word	1880109064
 1462 007c 08311070 		.word	1880109320
 1463 0080 08321070 		.word	1880109576
 1464 0084 08331070 		.word	1880109832
 1465 0088 08341070 		.word	1880110088
 1466 008c 08341070 		.word	1880110088
 1467              		.section	.data.sModulardeviceprofile,"aw"
 1468              		.align	2
 1471              	sModulardeviceprofile:
 1472 0000 0200     		.short	2
 1473 0002 1000     		.short	16
 1474 0004 0300     		.short	3
 1475              		.section	.data.sModulelist,"aw"
 1476              		.align	2
 1479              	sModulelist:
 1480 0000 0300     		.short	3
 1481 0002 0000     		.space	2
 1482 0004 64000000 		.word	100
 1483 0008 C8000000 		.word	200
 1484 000c 2C010000 		.word	300
 1485              		.section	.data.sRxPDOassign,"aw"
 1486              		.align	2
 1487              		.set	.LANCHOR1,. + 0
 1490              	sRxPDOassign:
 1491 0000 0100     		.short	1
 1492 0002 0116     		.short	5633
 1493              		.section	.data.sTxPDOassign,"aw"
 1494              		.align	2
 1495              		.set	.LANCHOR2,. + 0
 1498              	sTxPDOassign:
 1499 0000 0200     		.short	2
 1500 0002 001A     		.short	6656
 1501 0004 021A     		.short	6658
 1502              		.section	.data.times,"aw"
 1503              		.align	2
 1506              	times:
 1507 0000 00000001 		.word	16777216
 1508              		.text
 1509              	.Letext0:
ARM GAS  /tmp/cciZl0lI.s 			page 40


 1510              		.file 2 "/usr/share/gcc-arm-none-eabi-10.3-2021.10/arm-none-eabi/include/machine/_default_types.h"
 1511              		.file 3 "/usr/share/gcc-arm-none-eabi-10.3-2021.10/arm-none-eabi/include/sys/_stdint.h"
 1512              		.file 4 "Drivers/CMSIS/Device/ST/STM32F4xx/Include/stm32f427xx.h"
 1513              		.file 5 "Lib/ssc/include/sdoserv.h"
 1514              		.file 6 "Lib/ssc/include/objdef.h"
 1515              		.file 7 "Lib/ssc_app/include/el9800appl.h"
 1516              		.file 8 "Drivers/STM32F4xx_HAL_Driver/Inc/stm32f4xx_hal_gpio.h"
 1517              		.file 9 "<built-in>"
ARM GAS  /tmp/cciZl0lI.s 			page 41


DEFINED SYMBOLS
                            *ABS*:0000000000000000 el9800appl.c
     /tmp/cciZl0lI.s:20     .text.APPL_AckErrorInd:0000000000000000 $t
     /tmp/cciZl0lI.s:26     .text.APPL_AckErrorInd:0000000000000000 APPL_AckErrorInd
     /tmp/cciZl0lI.s:41     .text.APPL_StartMailboxHandler:0000000000000000 $t
     /tmp/cciZl0lI.s:47     .text.APPL_StartMailboxHandler:0000000000000000 APPL_StartMailboxHandler
     /tmp/cciZl0lI.s:62     .text.APPL_StopMailboxHandler:0000000000000000 $t
     /tmp/cciZl0lI.s:68     .text.APPL_StopMailboxHandler:0000000000000000 APPL_StopMailboxHandler
     /tmp/cciZl0lI.s:83     .text.APPL_StartInputHandler:0000000000000000 $t
     /tmp/cciZl0lI.s:89     .text.APPL_StartInputHandler:0000000000000000 APPL_StartInputHandler
     /tmp/cciZl0lI.s:107    .text.APPL_StopInputHandler:0000000000000000 $t
     /tmp/cciZl0lI.s:113    .text.APPL_StopInputHandler:0000000000000000 APPL_StopInputHandler
     /tmp/cciZl0lI.s:128    .text.APPL_StartOutputHandler:0000000000000000 $t
     /tmp/cciZl0lI.s:134    .text.APPL_StartOutputHandler:0000000000000000 APPL_StartOutputHandler
     /tmp/cciZl0lI.s:149    .text.APPL_StopOutputHandler:0000000000000000 $t
     /tmp/cciZl0lI.s:155    .text.APPL_StopOutputHandler:0000000000000000 APPL_StopOutputHandler
     /tmp/cciZl0lI.s:210    .text.APPL_StopOutputHandler:0000000000000048 $d
     /tmp/cciZl0lI.s:215    .text.APPL_GenerateMapping:0000000000000000 $t
     /tmp/cciZl0lI.s:221    .text.APPL_GenerateMapping:0000000000000000 APPL_GenerateMapping
     /tmp/cciZl0lI.s:478    .text.APPL_GenerateMapping:00000000000000e4 $d
     /tmp/cciZl0lI.s:484    .text.APPL_InputMapping:0000000000000000 $t
     /tmp/cciZl0lI.s:490    .text.APPL_InputMapping:0000000000000000 APPL_InputMapping
     /tmp/cciZl0lI.s:754    .text.APPL_InputMapping:00000000000000f8 $d
     /tmp/cciZl0lI.s:761    .text.APPL_OutputMapping:0000000000000000 $t
     /tmp/cciZl0lI.s:767    .text.APPL_OutputMapping:0000000000000000 APPL_OutputMapping
     /tmp/cciZl0lI.s:960    .text.APPL_OutputMapping:00000000000000ec $d
     /tmp/cciZl0lI.s:966    .text.APPL_Application:0000000000000000 $t
     /tmp/cciZl0lI.s:972    .text.APPL_Application:0000000000000000 APPL_Application
     /tmp/cciZl0lI.s:1083   .text.APPL_Application:00000000000000a0 $d
     /tmp/cciZl0lI.s:1091   .text.ReadObject0x1802:0000000000000000 $t
     /tmp/cciZl0lI.s:1097   .text.ReadObject0x1802:0000000000000000 ReadObject0x1802
     /tmp/cciZl0lI.s:1229   .text.ReadObject0x1802:0000000000000060 $d
     /tmp/cciZl0lI.s:1506   .data.times:0000000000000000 times
     /tmp/cciZl0lI.s:1479   .data.sModulelist:0000000000000000 sModulelist
     /tmp/cciZl0lI.s:1471   .data.sModulardeviceprofile:0000000000000000 sModulardeviceprofile
     /tmp/cciZl0lI.s:1304   .data.sAISettings:0000000000000000 sAISettings
     /tmp/cciZl0lI.s:1393   .data.sDOOutputs:0000000000000000 sDOOutputs
     /tmp/cciZl0lI.s:1259   .data.sAIInputs:0000000000000000 sAIInputs
     /tmp/cciZl0lI.s:1368   .data.sDIInputs:0000000000000000 sDIInputs
     /tmp/cciZl0lI.s:1498   .data.sTxPDOassign:0000000000000000 sTxPDOassign
     /tmp/cciZl0lI.s:1490   .data.sRxPDOassign:0000000000000000 sRxPDOassign
     /tmp/cciZl0lI.s:1317   .data.sAITxPDOMap:0000000000000000 sAITxPDOMap
     /tmp/cciZl0lI.s:1376   .data.sDITxPDOMap:0000000000000000 sDITxPDOMap
     /tmp/cciZl0lI.s:1252   .data.TxPDO1802Subindex0:0000000000000000 TxPDO1802Subindex0
     /tmp/cciZl0lI.s:1429   .data.sDORxPDOMap:0000000000000000 sDORxPDOMap
     /tmp/cciZl0lI.s:1248   .data.TxPDO1802Subindex0:0000000000000000 $d
     /tmp/cciZl0lI.s:1255   .data.sAIInputs:0000000000000000 $d
     /tmp/cciZl0lI.s:1301   .data.sAISettings:0000000000000000 $d
     /tmp/cciZl0lI.s:1314   .data.sAITxPDOMap:0000000000000000 $d
     /tmp/cciZl0lI.s:1364   .data.sDIInputs:0000000000000000 $d
     /tmp/cciZl0lI.s:1373   .data.sDITxPDOMap:0000000000000000 $d
     /tmp/cciZl0lI.s:1389   .data.sDOOutputs:0000000000000000 $d
     /tmp/cciZl0lI.s:1426   .data.sDORxPDOMap:0000000000000000 $d
     /tmp/cciZl0lI.s:1468   .data.sModulardeviceprofile:0000000000000000 $d
     /tmp/cciZl0lI.s:1476   .data.sModulelist:0000000000000000 $d
     /tmp/cciZl0lI.s:1486   .data.sRxPDOassign:0000000000000000 $d
     /tmp/cciZl0lI.s:1494   .data.sTxPDOassign:0000000000000000 $d
ARM GAS  /tmp/cciZl0lI.s 			page 42


     /tmp/cciZl0lI.s:1503   .data.times:0000000000000000 $d

UNDEFINED SYMBOLS
OBJ_GetEntryOffset
OBJ_GetObjectHandle
HAL_GPIO_WritePin
memset
