ARM GAS  /tmp/ccf4hIfb.s 			page 1


   1              		.cpu cortex-m4
   2              		.arch armv7e-m
   3              		.fpu fpv4-sp-d16
   4              		.eabi_attribute 27, 1
   5              		.eabi_attribute 28, 1
   6              		.eabi_attribute 20, 1
   7              		.eabi_attribute 21, 1
   8              		.eabi_attribute 23, 3
   9              		.eabi_attribute 24, 1
  10              		.eabi_attribute 25, 1
  11              		.eabi_attribute 26, 1
  12              		.eabi_attribute 30, 1
  13              		.eabi_attribute 34, 1
  14              		.eabi_attribute 18, 4
  15              		.file	"el9800appl.c"
  16              		.text
  17              	.Ltext0:
  18              		.cfi_sections	.debug_frame
  19              		.section	.text.APPL_AckErrorInd,"ax",%progbits
  20              		.align	1
  21              		.global	APPL_AckErrorInd
  22              		.syntax unified
  23              		.thumb
  24              		.thumb_func
  26              	APPL_AckErrorInd:
  27              	.LVL0:
  28              	.LFB134:
  29              		.file 1 "Lib/ssc_app/src/el9800appl.c"
   1:Lib/ssc_app/src/el9800appl.c **** // ############################################################
   2:Lib/ssc_app/src/el9800appl.c **** // ÔøΩÔøΩÔøΩÔøΩÔøΩÔøΩ÷ªÔøΩÔøΩ—ßœ∞ πÔøΩ√£ÔøΩŒ¥ÔøΩÔøΩÔøΩÔøΩÔøΩÔøΩÔøΩÔøΩÔøΩ…£ÔøΩÔøΩÔøΩÔøΩÔøΩÔøΩÔøΩÔøΩÔ
   3:Lib/ssc_app/src/el9800appl.c **** // ÔøΩÔøΩ»®ÔøΩÔøΩÔøΩ–£ÔøΩÔøΩÔøΩÔøΩÔøΩÿæÔøΩ
   4:Lib/ssc_app/src/el9800appl.c **** // EtherCATÔøΩÔøΩ’æ—ßœ∞ÔøΩÔøΩ
   5:Lib/ssc_app/src/el9800appl.c **** // AuthorÔøΩÔøΩÕ¢ÔøΩÔøΩÔøΩÔøΩÔøΩÔøΩÔøΩÔøΩÔøΩ
   6:Lib/ssc_app/src/el9800appl.c **** // ÔøΩ‘±ÔøΩÔøΩÔøΩÔøΩÔøΩ: https://shop461235811.taobao.com/
   7:Lib/ssc_app/src/el9800appl.c **** // ÔøΩ“µƒ≤ÔøΩÔøΩÕ£ÔøΩhttps://blog.csdn.net/zhandouhu/article/category/9455918
   8:Lib/ssc_app/src/el9800appl.c **** // ############################################################
   9:Lib/ssc_app/src/el9800appl.c **** /**
  10:Lib/ssc_app/src/el9800appl.c **** \addtogroup EL9800Appl EL9800 application
  11:Lib/ssc_app/src/el9800appl.c **** @{
  12:Lib/ssc_app/src/el9800appl.c **** */
  13:Lib/ssc_app/src/el9800appl.c **** 
  14:Lib/ssc_app/src/el9800appl.c **** /**
  15:Lib/ssc_app/src/el9800appl.c **** \file el9800appl.c
  16:Lib/ssc_app/src/el9800appl.c **** \author EthercatSSC@beckhoff.com
  17:Lib/ssc_app/src/el9800appl.c **** \brief Implementation
  18:Lib/ssc_app/src/el9800appl.c **** 
  19:Lib/ssc_app/src/el9800appl.c **** \version 5.11
  20:Lib/ssc_app/src/el9800appl.c **** 
  21:Lib/ssc_app/src/el9800appl.c **** <br>Changes to version V5.10:<br>
  22:Lib/ssc_app/src/el9800appl.c **** V5.11 ECAT11: create application interface function pointer, add eeprom emulation interface functio
  23:Lib/ssc_app/src/el9800appl.c **** V5.11 EL9800 1: reset outputs on fallback from OP state<br>
  24:Lib/ssc_app/src/el9800appl.c **** <br>Changes to version V5.01:<br>
  25:Lib/ssc_app/src/el9800appl.c **** V5.10 ECAT6: Add "USE_DEFAULT_MAIN" to enable or disable the main function<br>
  26:Lib/ssc_app/src/el9800appl.c **** <br>Changes to version V5.0:<br>
  27:Lib/ssc_app/src/el9800appl.c **** V5.01 EL9800 2: Add TxPdo Parameter object 0x1802<br>
  28:Lib/ssc_app/src/el9800appl.c **** <br>Changes to version V4.30:<br>
  29:Lib/ssc_app/src/el9800appl.c **** V4.50 ECAT2: Create generic application interface functions. Documentation in Application Note ET93
ARM GAS  /tmp/ccf4hIfb.s 			page 2


  30:Lib/ssc_app/src/el9800appl.c **** V4.50 COE2: Handle invalid PDO assign values.<br>
  31:Lib/ssc_app/src/el9800appl.c **** V4.30 : create file
  32:Lib/ssc_app/src/el9800appl.c **** */
  33:Lib/ssc_app/src/el9800appl.c **** 
  34:Lib/ssc_app/src/el9800appl.c **** /*-----------------------------------------------------------------------------------------
  35:Lib/ssc_app/src/el9800appl.c **** ------
  36:Lib/ssc_app/src/el9800appl.c **** ------    Includes
  37:Lib/ssc_app/src/el9800appl.c **** ------
  38:Lib/ssc_app/src/el9800appl.c **** -----------------------------------------------------------------------------------------*/
  39:Lib/ssc_app/src/el9800appl.c **** #include "ecat_def.h"
  40:Lib/ssc_app/src/el9800appl.c **** 
  41:Lib/ssc_app/src/el9800appl.c **** #if EL9800_APPLICATION
  42:Lib/ssc_app/src/el9800appl.c **** 
  43:Lib/ssc_app/src/el9800appl.c **** /* ECATCHANGE_START(V5.11) ECAT11*/
  44:Lib/ssc_app/src/el9800appl.c **** #include "applInterface.h"
  45:Lib/ssc_app/src/el9800appl.c **** /* ECATCHANGE_END(V5.11) ECAT11*/
  46:Lib/ssc_app/src/el9800appl.c **** 
  47:Lib/ssc_app/src/el9800appl.c **** // #include "el9800hw.h"
  48:Lib/ssc_app/src/el9800appl.c **** 
  49:Lib/ssc_app/src/el9800appl.c **** #define _EVALBOARD_
  50:Lib/ssc_app/src/el9800appl.c **** #include "el9800appl.h"
  51:Lib/ssc_app/src/el9800appl.c **** #undef _EVALBOARD_
  52:Lib/ssc_app/src/el9800appl.c **** 
  53:Lib/ssc_app/src/el9800appl.c **** #if MCI_HW
  54:Lib/ssc_app/src/el9800appl.c **** #include "mcihw.h"
  55:Lib/ssc_app/src/el9800appl.c **** #endif
  56:Lib/ssc_app/src/el9800appl.c **** #if EL9800_HW
  57:Lib/ssc_app/src/el9800appl.c **** #include "el9800hw.h"
  58:Lib/ssc_app/src/el9800appl.c **** #endif
  59:Lib/ssc_app/src/el9800appl.c **** /*--------------------------------------------------------------------------------------
  60:Lib/ssc_app/src/el9800appl.c **** ------
  61:Lib/ssc_app/src/el9800appl.c **** ------    local types and defines
  62:Lib/ssc_app/src/el9800appl.c **** ------
  63:Lib/ssc_app/src/el9800appl.c **** --------------------------------------------------------------------------------------*/
  64:Lib/ssc_app/src/el9800appl.c **** 
  65:Lib/ssc_app/src/el9800appl.c **** /*-----------------------------------------------------------------------------------------
  66:Lib/ssc_app/src/el9800appl.c **** ------
  67:Lib/ssc_app/src/el9800appl.c **** ------    local variables and constants
  68:Lib/ssc_app/src/el9800appl.c **** ------
  69:Lib/ssc_app/src/el9800appl.c **** -----------------------------------------------------------------------------------------*/
  70:Lib/ssc_app/src/el9800appl.c **** 
  71:Lib/ssc_app/src/el9800appl.c **** /*-----------------------------------------------------------------------------------------
  72:Lib/ssc_app/src/el9800appl.c **** ------
  73:Lib/ssc_app/src/el9800appl.c **** ------    application specific functions
  74:Lib/ssc_app/src/el9800appl.c **** ------
  75:Lib/ssc_app/src/el9800appl.c **** -----------------------------------------------------------------------------------------*/
  76:Lib/ssc_app/src/el9800appl.c **** 
  77:Lib/ssc_app/src/el9800appl.c **** /*-----------------------------------------------------------------------------------------
  78:Lib/ssc_app/src/el9800appl.c **** ------
  79:Lib/ssc_app/src/el9800appl.c **** ------    generic functions
  80:Lib/ssc_app/src/el9800appl.c **** ------
  81:Lib/ssc_app/src/el9800appl.c **** -----------------------------------------------------------------------------------------*/
  82:Lib/ssc_app/src/el9800appl.c **** 
  83:Lib/ssc_app/src/el9800appl.c **** /////////////////////////////////////////////////////////////////////////////////////////
  84:Lib/ssc_app/src/el9800appl.c **** /**
  85:Lib/ssc_app/src/el9800appl.c ****  \brief    The function is called when an error state was acknowledged by the master
  86:Lib/ssc_app/src/el9800appl.c **** 
ARM GAS  /tmp/ccf4hIfb.s 			page 3


  87:Lib/ssc_app/src/el9800appl.c **** */
  88:Lib/ssc_app/src/el9800appl.c **** ///////////////////////////////////////////////////////////////////////////////////////
  89:Lib/ssc_app/src/el9800appl.c **** 
  90:Lib/ssc_app/src/el9800appl.c **** void APPL_AckErrorInd(UINT16 stateTrans)
  91:Lib/ssc_app/src/el9800appl.c **** {
  30              		.loc 1 91 1 view -0
  31              		.cfi_startproc
  32              		@ args = 0, pretend = 0, frame = 0
  33              		@ frame_needed = 0, uses_anonymous_args = 0
  34              		@ link register save eliminated.
  92:Lib/ssc_app/src/el9800appl.c **** }
  35              		.loc 1 92 1 view .LVU1
  36 0000 7047     		bx	lr
  37              		.cfi_endproc
  38              	.LFE134:
  40              		.section	.text.APPL_StartMailboxHandler,"ax",%progbits
  41              		.align	1
  42              		.global	APPL_StartMailboxHandler
  43              		.syntax unified
  44              		.thumb
  45              		.thumb_func
  47              	APPL_StartMailboxHandler:
  48              	.LFB135:
  93:Lib/ssc_app/src/el9800appl.c **** 
  94:Lib/ssc_app/src/el9800appl.c **** /////////////////////////////////////////////////////////////////////////////////////////
  95:Lib/ssc_app/src/el9800appl.c **** /**
  96:Lib/ssc_app/src/el9800appl.c ****  \return    AL Status Code (see ecatslv.h ALSTATUSCODE_....)
  97:Lib/ssc_app/src/el9800appl.c **** 
  98:Lib/ssc_app/src/el9800appl.c ****  \brief    The function is called in the state transition from INIT to PREOP when
  99:Lib/ssc_app/src/el9800appl.c ****            all general settings were checked to start the mailbox handler. This function
 100:Lib/ssc_app/src/el9800appl.c ****            informs the application about the state transition, the application can refuse
 101:Lib/ssc_app/src/el9800appl.c ****            the state transition when returning an AL Status error code.
 102:Lib/ssc_app/src/el9800appl.c ****            The return code NOERROR_INWORK can be used, if the application cannot confirm
 103:Lib/ssc_app/src/el9800appl.c ****            the state transition immediately, in that case the application need to be complete
 104:Lib/ssc_app/src/el9800appl.c ****            the transition by calling ECAT_StateChange.
 105:Lib/ssc_app/src/el9800appl.c **** 
 106:Lib/ssc_app/src/el9800appl.c **** */
 107:Lib/ssc_app/src/el9800appl.c **** ///////////////////////////////////////////////////////////////////////////////////////
 108:Lib/ssc_app/src/el9800appl.c **** 
 109:Lib/ssc_app/src/el9800appl.c **** UINT16 APPL_StartMailboxHandler(void)
 110:Lib/ssc_app/src/el9800appl.c **** {
  49              		.loc 1 110 1 view -0
  50              		.cfi_startproc
  51              		@ args = 0, pretend = 0, frame = 0
  52              		@ frame_needed = 0, uses_anonymous_args = 0
  53              		@ link register save eliminated.
 111:Lib/ssc_app/src/el9800appl.c ****     return ALSTATUSCODE_NOERROR;
  54              		.loc 1 111 5 view .LVU3
 112:Lib/ssc_app/src/el9800appl.c **** }
  55              		.loc 1 112 1 is_stmt 0 view .LVU4
  56 0000 0020     		movs	r0, #0
  57 0002 7047     		bx	lr
  58              		.cfi_endproc
  59              	.LFE135:
  61              		.section	.text.APPL_StopMailboxHandler,"ax",%progbits
  62              		.align	1
  63              		.global	APPL_StopMailboxHandler
ARM GAS  /tmp/ccf4hIfb.s 			page 4


  64              		.syntax unified
  65              		.thumb
  66              		.thumb_func
  68              	APPL_StopMailboxHandler:
  69              	.LFB136:
 113:Lib/ssc_app/src/el9800appl.c **** 
 114:Lib/ssc_app/src/el9800appl.c **** /////////////////////////////////////////////////////////////////////////////////////////
 115:Lib/ssc_app/src/el9800appl.c **** /**
 116:Lib/ssc_app/src/el9800appl.c ****  \return     0, NOERROR_INWORK
 117:Lib/ssc_app/src/el9800appl.c **** 
 118:Lib/ssc_app/src/el9800appl.c ****  \brief    The function is called in the state transition from PREEOP to INIT
 119:Lib/ssc_app/src/el9800appl.c ****              to stop the mailbox handler. This functions informs the application
 120:Lib/ssc_app/src/el9800appl.c ****              about the state transition, the application cannot refuse
 121:Lib/ssc_app/src/el9800appl.c ****              the state transition.
 122:Lib/ssc_app/src/el9800appl.c **** 
 123:Lib/ssc_app/src/el9800appl.c **** */
 124:Lib/ssc_app/src/el9800appl.c **** ///////////////////////////////////////////////////////////////////////////////////////
 125:Lib/ssc_app/src/el9800appl.c **** 
 126:Lib/ssc_app/src/el9800appl.c **** UINT16 APPL_StopMailboxHandler(void)
 127:Lib/ssc_app/src/el9800appl.c **** {
  70              		.loc 1 127 1 is_stmt 1 view -0
  71              		.cfi_startproc
  72              		@ args = 0, pretend = 0, frame = 0
  73              		@ frame_needed = 0, uses_anonymous_args = 0
  74              		@ link register save eliminated.
 128:Lib/ssc_app/src/el9800appl.c ****     return ALSTATUSCODE_NOERROR;
  75              		.loc 1 128 5 view .LVU6
 129:Lib/ssc_app/src/el9800appl.c **** }
  76              		.loc 1 129 1 is_stmt 0 view .LVU7
  77 0000 0020     		movs	r0, #0
  78 0002 7047     		bx	lr
  79              		.cfi_endproc
  80              	.LFE136:
  82              		.section	.text.APPL_StartInputHandler,"ax",%progbits
  83              		.align	1
  84              		.global	APPL_StartInputHandler
  85              		.syntax unified
  86              		.thumb
  87              		.thumb_func
  89              	APPL_StartInputHandler:
  90              	.LVL1:
  91              	.LFB137:
 130:Lib/ssc_app/src/el9800appl.c **** 
 131:Lib/ssc_app/src/el9800appl.c **** /////////////////////////////////////////////////////////////////////////////////////////
 132:Lib/ssc_app/src/el9800appl.c **** /**
 133:Lib/ssc_app/src/el9800appl.c ****  \param    pIntMask    pointer to the AL Event Mask which will be written to the AL event Mask
 134:Lib/ssc_app/src/el9800appl.c ****                         register (0x204) when this function is succeeded. The event mask can be ada
 135:Lib/ssc_app/src/el9800appl.c ****                         in this function
 136:Lib/ssc_app/src/el9800appl.c ****  \return    AL Status Code (see ecatslv.h ALSTATUSCODE_....)
 137:Lib/ssc_app/src/el9800appl.c **** 
 138:Lib/ssc_app/src/el9800appl.c ****  \brief    The function is called in the state transition from PREOP to SAFEOP when
 139:Lib/ssc_app/src/el9800appl.c ****              all general settings were checked to start the input handler. This function
 140:Lib/ssc_app/src/el9800appl.c ****              informs the application about the state transition, the application can refuse
 141:Lib/ssc_app/src/el9800appl.c ****              the state transition when returning an AL Status error code.
 142:Lib/ssc_app/src/el9800appl.c ****             The return code NOERROR_INWORK can be used, if the application cannot confirm
 143:Lib/ssc_app/src/el9800appl.c ****             the state transition immediately, in that case the application need to be complete
 144:Lib/ssc_app/src/el9800appl.c ****             the transition by calling ECAT_StateChange.
ARM GAS  /tmp/ccf4hIfb.s 			page 5


 145:Lib/ssc_app/src/el9800appl.c **** */
 146:Lib/ssc_app/src/el9800appl.c **** ///////////////////////////////////////////////////////////////////////////////////////
 147:Lib/ssc_app/src/el9800appl.c **** 
 148:Lib/ssc_app/src/el9800appl.c **** UINT16 APPL_StartInputHandler(UINT16 *pIntMask)
 149:Lib/ssc_app/src/el9800appl.c **** {
  92              		.loc 1 149 1 is_stmt 1 view -0
  93              		.cfi_startproc
  94              		@ args = 0, pretend = 0, frame = 0
  95              		@ frame_needed = 0, uses_anonymous_args = 0
  96              		@ link register save eliminated.
 150:Lib/ssc_app/src/el9800appl.c ****     return ALSTATUSCODE_NOERROR;
  97              		.loc 1 150 5 view .LVU9
 151:Lib/ssc_app/src/el9800appl.c **** }
  98              		.loc 1 151 1 is_stmt 0 view .LVU10
  99 0000 0020     		movs	r0, #0
 100              	.LVL2:
 101              		.loc 1 151 1 view .LVU11
 102 0002 7047     		bx	lr
 103              		.cfi_endproc
 104              	.LFE137:
 106              		.section	.text.APPL_StopInputHandler,"ax",%progbits
 107              		.align	1
 108              		.global	APPL_StopInputHandler
 109              		.syntax unified
 110              		.thumb
 111              		.thumb_func
 113              	APPL_StopInputHandler:
 114              	.LFB138:
 152:Lib/ssc_app/src/el9800appl.c **** 
 153:Lib/ssc_app/src/el9800appl.c **** /////////////////////////////////////////////////////////////////////////////////////////
 154:Lib/ssc_app/src/el9800appl.c **** /**
 155:Lib/ssc_app/src/el9800appl.c ****  \return     0, NOERROR_INWORK
 156:Lib/ssc_app/src/el9800appl.c **** 
 157:Lib/ssc_app/src/el9800appl.c ****  \brief    The function is called in the state transition from SAFEOP to PREEOP
 158:Lib/ssc_app/src/el9800appl.c ****              to stop the input handler. This functions informs the application
 159:Lib/ssc_app/src/el9800appl.c ****              about the state transition, the application cannot refuse
 160:Lib/ssc_app/src/el9800appl.c ****              the state transition.
 161:Lib/ssc_app/src/el9800appl.c **** 
 162:Lib/ssc_app/src/el9800appl.c **** */
 163:Lib/ssc_app/src/el9800appl.c **** ///////////////////////////////////////////////////////////////////////////////////////
 164:Lib/ssc_app/src/el9800appl.c **** 
 165:Lib/ssc_app/src/el9800appl.c **** UINT16 APPL_StopInputHandler(void)
 166:Lib/ssc_app/src/el9800appl.c **** {
 115              		.loc 1 166 1 is_stmt 1 view -0
 116              		.cfi_startproc
 117              		@ args = 0, pretend = 0, frame = 0
 118              		@ frame_needed = 0, uses_anonymous_args = 0
 119              		@ link register save eliminated.
 167:Lib/ssc_app/src/el9800appl.c ****     return ALSTATUSCODE_NOERROR;
 120              		.loc 1 167 5 view .LVU13
 168:Lib/ssc_app/src/el9800appl.c **** }
 121              		.loc 1 168 1 is_stmt 0 view .LVU14
 122 0000 0020     		movs	r0, #0
 123 0002 7047     		bx	lr
 124              		.cfi_endproc
 125              	.LFE138:
 127              		.section	.text.APPL_StartOutputHandler,"ax",%progbits
ARM GAS  /tmp/ccf4hIfb.s 			page 6


 128              		.align	1
 129              		.global	APPL_StartOutputHandler
 130              		.syntax unified
 131              		.thumb
 132              		.thumb_func
 134              	APPL_StartOutputHandler:
 135              	.LFB139:
 169:Lib/ssc_app/src/el9800appl.c **** 
 170:Lib/ssc_app/src/el9800appl.c **** /////////////////////////////////////////////////////////////////////////////////////////
 171:Lib/ssc_app/src/el9800appl.c **** /**
 172:Lib/ssc_app/src/el9800appl.c ****  \return    AL Status Code (see ecatslv.h ALSTATUSCODE_....)
 173:Lib/ssc_app/src/el9800appl.c **** 
 174:Lib/ssc_app/src/el9800appl.c ****  \brief    The function is called in the state transition from SAFEOP to OP when
 175:Lib/ssc_app/src/el9800appl.c ****              all general settings were checked to start the output handler. This function
 176:Lib/ssc_app/src/el9800appl.c ****              informs the application about the state transition, the application can refuse
 177:Lib/ssc_app/src/el9800appl.c ****              the state transition when returning an AL Status error code.
 178:Lib/ssc_app/src/el9800appl.c ****            The return code NOERROR_INWORK can be used, if the application cannot confirm
 179:Lib/ssc_app/src/el9800appl.c ****            the state transition immediately, in that case the application need to be complete
 180:Lib/ssc_app/src/el9800appl.c ****            the transition by calling ECAT_StateChange.
 181:Lib/ssc_app/src/el9800appl.c **** */
 182:Lib/ssc_app/src/el9800appl.c **** ///////////////////////////////////////////////////////////////////////////////////////
 183:Lib/ssc_app/src/el9800appl.c **** 
 184:Lib/ssc_app/src/el9800appl.c **** UINT16 APPL_StartOutputHandler(void)
 185:Lib/ssc_app/src/el9800appl.c **** {
 136              		.loc 1 185 1 is_stmt 1 view -0
 137              		.cfi_startproc
 138              		@ args = 0, pretend = 0, frame = 0
 139              		@ frame_needed = 0, uses_anonymous_args = 0
 140              		@ link register save eliminated.
 186:Lib/ssc_app/src/el9800appl.c ****     return ALSTATUSCODE_NOERROR;
 141              		.loc 1 186 5 view .LVU16
 187:Lib/ssc_app/src/el9800appl.c **** }
 142              		.loc 1 187 1 is_stmt 0 view .LVU17
 143 0000 0020     		movs	r0, #0
 144 0002 7047     		bx	lr
 145              		.cfi_endproc
 146              	.LFE139:
 148              		.section	.text.APPL_StopOutputHandler,"ax",%progbits
 149              		.align	1
 150              		.global	APPL_StopOutputHandler
 151              		.syntax unified
 152              		.thumb
 153              		.thumb_func
 155              	APPL_StopOutputHandler:
 156              	.LFB140:
 188:Lib/ssc_app/src/el9800appl.c **** 
 189:Lib/ssc_app/src/el9800appl.c **** /////////////////////////////////////////////////////////////////////////////////////////
 190:Lib/ssc_app/src/el9800appl.c **** /**
 191:Lib/ssc_app/src/el9800appl.c ****  \return     0, NOERROR_INWORK
 192:Lib/ssc_app/src/el9800appl.c **** 
 193:Lib/ssc_app/src/el9800appl.c ****  \brief    The function is called in the state transition from OP to SAFEOP
 194:Lib/ssc_app/src/el9800appl.c ****              to stop the output handler. This functions informs the application
 195:Lib/ssc_app/src/el9800appl.c ****              about the state transition, the application cannot refuse
 196:Lib/ssc_app/src/el9800appl.c ****              the state transition.
 197:Lib/ssc_app/src/el9800appl.c **** 
 198:Lib/ssc_app/src/el9800appl.c **** */
 199:Lib/ssc_app/src/el9800appl.c **** ///////////////////////////////////////////////////////////////////////////////////////
ARM GAS  /tmp/ccf4hIfb.s 			page 7


 200:Lib/ssc_app/src/el9800appl.c **** 
 201:Lib/ssc_app/src/el9800appl.c **** //extern CanTxMsg Can1_TxMessage; // ÂèëÈÄÅÁºìÂÜ≤Âå∫
 202:Lib/ssc_app/src/el9800appl.c **** //extern CanRxMsg Can1_RxMessage; // Êé•Êî∂ÁºìÂÜ≤Âå∫
 203:Lib/ssc_app/src/el9800appl.c **** //
 204:Lib/ssc_app/src/el9800appl.c **** //extern CanTxMsg Can2_TxMessage; // ÂèëÈÄÅÁºìÂÜ≤Âå∫
 205:Lib/ssc_app/src/el9800appl.c **** //extern CanRxMsg Can2_RxMessage; // Êé•Êî∂ÁºìÂÜ≤Âå∫
 206:Lib/ssc_app/src/el9800appl.c **** 
 207:Lib/ssc_app/src/el9800appl.c **** UINT16 APPL_StopOutputHandler(void)
 208:Lib/ssc_app/src/el9800appl.c **** {
 157              		.loc 1 208 1 is_stmt 1 view -0
 158              		.cfi_startproc
 159              		@ args = 0, pretend = 0, frame = 0
 160              		@ frame_needed = 0, uses_anonymous_args = 0
 161              		@ link register save eliminated.
 209:Lib/ssc_app/src/el9800appl.c ****     /*ECATCHANGE_START(V5.11) EL9800 1*/
 210:Lib/ssc_app/src/el9800appl.c **** 
 211:Lib/ssc_app/src/el9800appl.c ****     /*
 212:Lib/ssc_app/src/el9800appl.c ****     sDOOutputs.bLED1 = 0;
 213:Lib/ssc_app/src/el9800appl.c ****     sDOOutputs.bLED2 = 0;
 214:Lib/ssc_app/src/el9800appl.c ****     sDOOutputs.bLED3 = 0;
 215:Lib/ssc_app/src/el9800appl.c ****     sDOOutputs.bLED4 = 0;
 216:Lib/ssc_app/src/el9800appl.c ****     sDOOutputs.bLED5 = 0;
 217:Lib/ssc_app/src/el9800appl.c ****     sDOOutputs.bLED7 = 0;
 218:Lib/ssc_app/src/el9800appl.c ****     sDOOutputs.bLED6 = 0;
 219:Lib/ssc_app/src/el9800appl.c ****     sDOOutputs.bLED8 = 0;
 220:Lib/ssc_app/src/el9800appl.c **** 
 221:Lib/ssc_app/src/el9800appl.c ****     Can1_TxMessage.StdId = 0;
 222:Lib/ssc_app/src/el9800appl.c ****     Can1_TxMessage.ExtId = 0;
 223:Lib/ssc_app/src/el9800appl.c ****     Can1_TxMessage.IDE = 0;
 224:Lib/ssc_app/src/el9800appl.c ****     Can1_TxMessage.RTR = 0;
 225:Lib/ssc_app/src/el9800appl.c ****     Can1_TxMessage.DLC = 0;
 226:Lib/ssc_app/src/el9800appl.c **** 
 227:Lib/ssc_app/src/el9800appl.c ****     Can1_TxMessage.Data[0] = 0;
 228:Lib/ssc_app/src/el9800appl.c ****     Can1_TxMessage.Data[1] = 0;
 229:Lib/ssc_app/src/el9800appl.c ****     Can1_TxMessage.Data[2] = 0;
 230:Lib/ssc_app/src/el9800appl.c ****     Can1_TxMessage.Data[3] = 0;
 231:Lib/ssc_app/src/el9800appl.c ****     Can1_TxMessage.Data[4] = 0;
 232:Lib/ssc_app/src/el9800appl.c ****     Can1_TxMessage.Data[5] = 0;
 233:Lib/ssc_app/src/el9800appl.c ****     Can1_TxMessage.Data[6] = 0;
 234:Lib/ssc_app/src/el9800appl.c ****     Can1_TxMessage.Data[7] = 0;
 235:Lib/ssc_app/src/el9800appl.c **** 
 236:Lib/ssc_app/src/el9800appl.c ****     Can2_TxMessage.StdId = 0;
 237:Lib/ssc_app/src/el9800appl.c ****     Can2_TxMessage.ExtId = 0;
 238:Lib/ssc_app/src/el9800appl.c ****     Can2_TxMessage.IDE = 0;
 239:Lib/ssc_app/src/el9800appl.c ****     Can2_TxMessage.RTR = 0;
 240:Lib/ssc_app/src/el9800appl.c ****     Can2_TxMessage.DLC = 0;
 241:Lib/ssc_app/src/el9800appl.c **** 
 242:Lib/ssc_app/src/el9800appl.c ****     Can2_TxMessage.Data[0] = 0;
 243:Lib/ssc_app/src/el9800appl.c ****     Can2_TxMessage.Data[1] = 0;
 244:Lib/ssc_app/src/el9800appl.c ****     Can2_TxMessage.Data[2] = 0;
 245:Lib/ssc_app/src/el9800appl.c ****     Can2_TxMessage.Data[3] = 0;
 246:Lib/ssc_app/src/el9800appl.c ****     Can2_TxMessage.Data[4] = 0;
 247:Lib/ssc_app/src/el9800appl.c ****     Can2_TxMessage.Data[5] = 0;
 248:Lib/ssc_app/src/el9800appl.c ****     Can2_TxMessage.Data[6] = 0;
 249:Lib/ssc_app/src/el9800appl.c ****     Can2_TxMessage.Data[7] = 0;
 250:Lib/ssc_app/src/el9800appl.c ****     */
 251:Lib/ssc_app/src/el9800appl.c **** 
ARM GAS  /tmp/ccf4hIfb.s 			page 8


 252:Lib/ssc_app/src/el9800appl.c ****     /*ECATCHANGE_END(V5.11) EL9800 1*/
 253:Lib/ssc_app/src/el9800appl.c ****     return ALSTATUSCODE_NOERROR;
 162              		.loc 1 253 5 view .LVU19
 254:Lib/ssc_app/src/el9800appl.c **** }
 163              		.loc 1 254 1 is_stmt 0 view .LVU20
 164 0000 0020     		movs	r0, #0
 165 0002 7047     		bx	lr
 166              		.cfi_endproc
 167              	.LFE140:
 169              		.section	.text.APPL_GenerateMapping,"ax",%progbits
 170              		.align	1
 171              		.global	APPL_GenerateMapping
 172              		.syntax unified
 173              		.thumb
 174              		.thumb_func
 176              	APPL_GenerateMapping:
 177              	.LVL3:
 178              	.LFB141:
 255:Lib/ssc_app/src/el9800appl.c **** 
 256:Lib/ssc_app/src/el9800appl.c **** /////////////////////////////////////////////////////////////////////////////////////////
 257:Lib/ssc_app/src/el9800appl.c **** /**
 258:Lib/ssc_app/src/el9800appl.c **** \return     0(ALSTATUSCODE_NOERROR), NOERROR_INWORK
 259:Lib/ssc_app/src/el9800appl.c **** \param      pInputSize  pointer to save the input process data length
 260:Lib/ssc_app/src/el9800appl.c **** \param      pOutputSize  pointer to save the output process data length
 261:Lib/ssc_app/src/el9800appl.c **** 
 262:Lib/ssc_app/src/el9800appl.c **** \brief    This function calculates the process data sizes from the actual SM-PDO-Assign
 263:Lib/ssc_app/src/el9800appl.c ****             and PDO mapping
 264:Lib/ssc_app/src/el9800appl.c **** */
 265:Lib/ssc_app/src/el9800appl.c **** ///////////////////////////////////////////////////////////////////////////////////////
 266:Lib/ssc_app/src/el9800appl.c **** UINT16 APPL_GenerateMapping(UINT16 *pInputSize, UINT16 *pOutputSize)
 267:Lib/ssc_app/src/el9800appl.c **** {
 179              		.loc 1 267 1 is_stmt 1 view -0
 180              		.cfi_startproc
 181              		@ args = 0, pretend = 0, frame = 8
 182              		@ frame_needed = 0, uses_anonymous_args = 0
 183              		.loc 1 267 1 is_stmt 0 view .LVU22
 184 0000 2DE9F04F 		push	{r4, r5, r6, r7, r8, r9, r10, fp, lr}
 185              		.cfi_def_cfa_offset 36
 186              		.cfi_offset 4, -36
 187              		.cfi_offset 5, -32
 188              		.cfi_offset 6, -28
 189              		.cfi_offset 7, -24
 190              		.cfi_offset 8, -20
 191              		.cfi_offset 9, -16
 192              		.cfi_offset 10, -12
 193              		.cfi_offset 11, -8
 194              		.cfi_offset 14, -4
 195 0004 83B0     		sub	sp, sp, #12
 196              		.cfi_def_cfa_offset 48
 197 0006 0090     		str	r0, [sp]
 198 0008 0191     		str	r1, [sp, #4]
 268:Lib/ssc_app/src/el9800appl.c **** #if COE_SUPPORTED
 269:Lib/ssc_app/src/el9800appl.c ****     UINT16 result = ALSTATUSCODE_NOERROR;
 199              		.loc 1 269 5 is_stmt 1 view .LVU23
 200              	.LVL4:
 270:Lib/ssc_app/src/el9800appl.c ****     UINT16 PDOAssignEntryCnt = 0;
 201              		.loc 1 270 5 view .LVU24
ARM GAS  /tmp/ccf4hIfb.s 			page 9


 271:Lib/ssc_app/src/el9800appl.c ****     OBJCONST TOBJECT OBJMEM *pPDO = NULL;
 202              		.loc 1 271 5 view .LVU25
 272:Lib/ssc_app/src/el9800appl.c ****     UINT16 PDOSubindex0 = 0;
 203              		.loc 1 272 5 view .LVU26
 273:Lib/ssc_app/src/el9800appl.c ****     UINT32 *pPDOEntry = NULL;
 204              		.loc 1 273 5 view .LVU27
 274:Lib/ssc_app/src/el9800appl.c ****     UINT16 PDOEntryCnt = 0;
 205              		.loc 1 274 5 view .LVU28
 275:Lib/ssc_app/src/el9800appl.c ****     UINT16 InputSize = 0;
 206              		.loc 1 275 5 view .LVU29
 276:Lib/ssc_app/src/el9800appl.c ****     UINT16 OutputSize = 0;
 207              		.loc 1 276 5 view .LVU30
 277:Lib/ssc_app/src/el9800appl.c **** 
 278:Lib/ssc_app/src/el9800appl.c ****     /*Scan object 0x1C12 RXPDO assign*/
 279:Lib/ssc_app/src/el9800appl.c ****     for (PDOAssignEntryCnt = 0; PDOAssignEntryCnt < sRxPDOassign.u16SubIndex0; PDOAssignEntryCnt++)
 208              		.loc 1 279 5 view .LVU31
 276:Lib/ssc_app/src/el9800appl.c ****     UINT16 OutputSize = 0;
 209              		.loc 1 276 12 is_stmt 0 view .LVU32
 210 000a 0026     		movs	r6, #0
 211              		.loc 1 279 28 view .LVU33
 212 000c B046     		mov	r8, r6
 213              		.loc 1 279 5 view .LVU34
 214 000e 14E0     		b	.L9
 215              	.LVL5:
 216              	.L12:
 280:Lib/ssc_app/src/el9800appl.c ****     {
 281:Lib/ssc_app/src/el9800appl.c ****         pPDO = OBJ_GetObjectHandle(sRxPDOassign.aEntries[PDOAssignEntryCnt]);
 282:Lib/ssc_app/src/el9800appl.c ****         if (pPDO != NULL)
 283:Lib/ssc_app/src/el9800appl.c ****         {
 284:Lib/ssc_app/src/el9800appl.c ****             PDOSubindex0 = *((UINT16 *)pPDO->pVarPtr);
 285:Lib/ssc_app/src/el9800appl.c ****             for (PDOEntryCnt = 0; PDOEntryCnt < PDOSubindex0; PDOEntryCnt++)
 286:Lib/ssc_app/src/el9800appl.c ****             {
 287:Lib/ssc_app/src/el9800appl.c ****                 //				result = *(UINT8 *)pPDO->pVarPtr;
 288:Lib/ssc_app/src/el9800appl.c ****                 //				result=(OBJ_GetEntryOffset((PDOEntryCnt+1),pPDO)>>3);
 289:Lib/ssc_app/src/el9800appl.c ****                 pPDOEntry = (UINT32 *)((UINT8 *)pPDO->pVarPtr + (OBJ_GetEntryOffset((PDOEntryCnt + 
 217              		.loc 1 289 17 is_stmt 1 discriminator 3 view .LVU35
 218              		.loc 1 289 53 is_stmt 0 discriminator 3 view .LVU36
 219 0010 D5F81890 		ldr	r9, [r5, #24]
 220              		.loc 1 289 66 discriminator 3 view .LVU37
 221 0014 601C     		adds	r0, r4, #1
 222 0016 2946     		mov	r1, r5
 223 0018 C0B2     		uxtb	r0, r0
 224 001a FFF7FEFF 		bl	OBJ_GetEntryOffset
 225              	.LVL6:
 226              		.loc 1 289 110 discriminator 3 view .LVU38
 227 001e C0F3CF00 		ubfx	r0, r0, #3, #16
 228              	.LVL7:
 290:Lib/ssc_app/src/el9800appl.c ****                 // we increment the expected output size depending on the mapped Entry
 291:Lib/ssc_app/src/el9800appl.c ****                 OutputSize += (UINT16)((*pPDOEntry) & 0xFF);
 229              		.loc 1 291 17 is_stmt 1 discriminator 3 view .LVU39
 230              		.loc 1 291 31 is_stmt 0 discriminator 3 view .LVU40
 231 0022 19F80030 		ldrb	r3, [r9, r0]	@ zero_extendqisi2
 232              		.loc 1 291 28 discriminator 3 view .LVU41
 233 0026 3344     		add	r3, r3, r6
 234 0028 9EB2     		uxth	r6, r3
 235              	.LVL8:
 285:Lib/ssc_app/src/el9800appl.c ****             {
ARM GAS  /tmp/ccf4hIfb.s 			page 10


 236              		.loc 1 285 63 is_stmt 1 discriminator 3 view .LVU42
 285:Lib/ssc_app/src/el9800appl.c ****             {
 237              		.loc 1 285 74 is_stmt 0 discriminator 3 view .LVU43
 238 002a 0134     		adds	r4, r4, #1
 239              	.LVL9:
 285:Lib/ssc_app/src/el9800appl.c ****             {
 240              		.loc 1 285 74 discriminator 3 view .LVU44
 241 002c A4B2     		uxth	r4, r4
 242              	.LVL10:
 243              	.L11:
 285:Lib/ssc_app/src/el9800appl.c ****             {
 244              		.loc 1 285 35 is_stmt 1 discriminator 1 view .LVU45
 285:Lib/ssc_app/src/el9800appl.c ****             {
 245              		.loc 1 285 13 is_stmt 0 discriminator 1 view .LVU46
 246 002e BC42     		cmp	r4, r7
 247 0030 EED3     		bcc	.L12
 279:Lib/ssc_app/src/el9800appl.c ****     {
 248              		.loc 1 279 80 is_stmt 1 discriminator 2 view .LVU47
 279:Lib/ssc_app/src/el9800appl.c ****     {
 249              		.loc 1 279 97 is_stmt 0 discriminator 2 view .LVU48
 250 0032 08F10108 		add	r8, r8, #1
 251              	.LVL11:
 279:Lib/ssc_app/src/el9800appl.c ****     {
 252              		.loc 1 279 97 discriminator 2 view .LVU49
 253 0036 1FFA88F8 		uxth	r8, r8
 254              	.LVL12:
 255              	.L9:
 279:Lib/ssc_app/src/el9800appl.c ****     {
 256              		.loc 1 279 33 is_stmt 1 discriminator 1 view .LVU50
 279:Lib/ssc_app/src/el9800appl.c ****     {
 257              		.loc 1 279 65 is_stmt 0 discriminator 1 view .LVU51
 258 003a 2A4B     		ldr	r3, .L24
 259 003c 1B88     		ldrh	r3, [r3]
 279:Lib/ssc_app/src/el9800appl.c ****     {
 260              		.loc 1 279 5 discriminator 1 view .LVU52
 261 003e 4345     		cmp	r3, r8
 262 0040 0BD9     		bls	.L23
 281:Lib/ssc_app/src/el9800appl.c ****         if (pPDO != NULL)
 263              		.loc 1 281 9 is_stmt 1 view .LVU53
 281:Lib/ssc_app/src/el9800appl.c ****         if (pPDO != NULL)
 264              		.loc 1 281 16 is_stmt 0 view .LVU54
 265 0042 284B     		ldr	r3, .L24
 266 0044 03EB4803 		add	r3, r3, r8, lsl #1
 267 0048 5888     		ldrh	r0, [r3, #2]
 268 004a FFF7FEFF 		bl	OBJ_GetObjectHandle
 269              	.LVL13:
 282:Lib/ssc_app/src/el9800appl.c ****         {
 270              		.loc 1 282 9 is_stmt 1 view .LVU55
 282:Lib/ssc_app/src/el9800appl.c ****         {
 271              		.loc 1 282 12 is_stmt 0 view .LVU56
 272 004e 0546     		mov	r5, r0
 273 0050 C0B1     		cbz	r0, .L19
 284:Lib/ssc_app/src/el9800appl.c ****             for (PDOEntryCnt = 0; PDOEntryCnt < PDOSubindex0; PDOEntryCnt++)
 274              		.loc 1 284 13 is_stmt 1 view .LVU57
 284:Lib/ssc_app/src/el9800appl.c ****             for (PDOEntryCnt = 0; PDOEntryCnt < PDOSubindex0; PDOEntryCnt++)
 275              		.loc 1 284 44 is_stmt 0 view .LVU58
 276 0052 8369     		ldr	r3, [r0, #24]
ARM GAS  /tmp/ccf4hIfb.s 			page 11


 284:Lib/ssc_app/src/el9800appl.c ****             for (PDOEntryCnt = 0; PDOEntryCnt < PDOSubindex0; PDOEntryCnt++)
 277              		.loc 1 284 26 view .LVU59
 278 0054 1F88     		ldrh	r7, [r3]
 279              	.LVL14:
 285:Lib/ssc_app/src/el9800appl.c ****             {
 280              		.loc 1 285 13 is_stmt 1 view .LVU60
 285:Lib/ssc_app/src/el9800appl.c ****             {
 281              		.loc 1 285 30 is_stmt 0 view .LVU61
 282 0056 0024     		movs	r4, #0
 285:Lib/ssc_app/src/el9800appl.c ****             {
 283              		.loc 1 285 13 view .LVU62
 284 0058 E9E7     		b	.L11
 285              	.LVL15:
 286              	.L23:
 269:Lib/ssc_app/src/el9800appl.c ****     UINT16 PDOAssignEntryCnt = 0;
 287              		.loc 1 269 12 view .LVU63
 288 005a 4FF0000B 		mov	fp, #0
 289              	.LVL16:
 290              	.L10:
 292:Lib/ssc_app/src/el9800appl.c ****             }
 293:Lib/ssc_app/src/el9800appl.c ****         }
 294:Lib/ssc_app/src/el9800appl.c ****         else
 295:Lib/ssc_app/src/el9800appl.c ****         {
 296:Lib/ssc_app/src/el9800appl.c ****             /*assigned PDO was not found in object dictionary. return invalid mapping*/
 297:Lib/ssc_app/src/el9800appl.c ****             OutputSize = 0;
 298:Lib/ssc_app/src/el9800appl.c ****             result = ALSTATUSCODE_INVALIDOUTPUTMAPPING;
 299:Lib/ssc_app/src/el9800appl.c ****             break;
 300:Lib/ssc_app/src/el9800appl.c ****         }
 301:Lib/ssc_app/src/el9800appl.c ****     }
 302:Lib/ssc_app/src/el9800appl.c **** 
 303:Lib/ssc_app/src/el9800appl.c ****     OutputSize = (OutputSize + 7) >> 3;
 291              		.loc 1 303 5 is_stmt 1 view .LVU64
 292              		.loc 1 303 30 is_stmt 0 view .LVU65
 293 005e F31D     		adds	r3, r6, #7
 294              		.loc 1 303 16 view .LVU66
 295 0060 C3F3CF08 		ubfx	r8, r3, #3, #16
 296              	.LVL17:
 304:Lib/ssc_app/src/el9800appl.c **** 
 305:Lib/ssc_app/src/el9800appl.c ****     if (result == 0)
 297              		.loc 1 305 5 is_stmt 1 view .LVU67
 298              		.loc 1 305 8 is_stmt 0 view .LVU68
 299 0064 BBF1000F 		cmp	fp, #0
 300 0068 34D0     		beq	.L20
 275:Lib/ssc_app/src/el9800appl.c ****     UINT16 OutputSize = 0;
 301              		.loc 1 275 12 view .LVU69
 302 006a 0027     		movs	r7, #0
 303              	.LVL18:
 304              	.L15:
 306:Lib/ssc_app/src/el9800appl.c ****     {
 307:Lib/ssc_app/src/el9800appl.c ****         /*Scan Object 0x1C13 TXPDO assign*/
 308:Lib/ssc_app/src/el9800appl.c ****         for (PDOAssignEntryCnt = 0; PDOAssignEntryCnt < sTxPDOassign.u16SubIndex0; PDOAssignEntryCn
 309:Lib/ssc_app/src/el9800appl.c ****         {
 310:Lib/ssc_app/src/el9800appl.c ****             pPDO = OBJ_GetObjectHandle(sTxPDOassign.aEntries[PDOAssignEntryCnt]);
 311:Lib/ssc_app/src/el9800appl.c ****             if (pPDO != NULL)
 312:Lib/ssc_app/src/el9800appl.c ****             {
 313:Lib/ssc_app/src/el9800appl.c ****                 PDOSubindex0 = *((UINT16 *)pPDO->pVarPtr);
 314:Lib/ssc_app/src/el9800appl.c ****                 for (PDOEntryCnt = 0; PDOEntryCnt < PDOSubindex0; PDOEntryCnt++)
ARM GAS  /tmp/ccf4hIfb.s 			page 12


 315:Lib/ssc_app/src/el9800appl.c ****                 {
 316:Lib/ssc_app/src/el9800appl.c ****                     pPDOEntry = (UINT32 *)((UINT8 *)pPDO->pVarPtr + (OBJ_GetEntryOffset((PDOEntryCn
 317:Lib/ssc_app/src/el9800appl.c ****                     // we increment the expected output size depending on the mapped Entry
 318:Lib/ssc_app/src/el9800appl.c ****                     InputSize += (UINT16)((*pPDOEntry) & 0xFF);
 319:Lib/ssc_app/src/el9800appl.c ****                 }
 320:Lib/ssc_app/src/el9800appl.c ****             }
 321:Lib/ssc_app/src/el9800appl.c ****             else
 322:Lib/ssc_app/src/el9800appl.c ****             {
 323:Lib/ssc_app/src/el9800appl.c ****                 /*assigned PDO was not found in object dictionary. return invalid mapping*/
 324:Lib/ssc_app/src/el9800appl.c ****                 InputSize = 0;
 325:Lib/ssc_app/src/el9800appl.c ****                 result = ALSTATUSCODE_INVALIDINPUTMAPPING;
 326:Lib/ssc_app/src/el9800appl.c ****                 break;
 327:Lib/ssc_app/src/el9800appl.c ****             }
 328:Lib/ssc_app/src/el9800appl.c ****         }
 329:Lib/ssc_app/src/el9800appl.c ****     }
 330:Lib/ssc_app/src/el9800appl.c ****     InputSize = (InputSize + 7) >> 3;
 305              		.loc 1 330 5 is_stmt 1 view .LVU70
 306              		.loc 1 330 28 is_stmt 0 view .LVU71
 307 006c FB1D     		adds	r3, r7, #7
 308              		.loc 1 330 15 view .LVU72
 309 006e C3F3CF03 		ubfx	r3, r3, #3, #16
 310              	.LVL19:
 331:Lib/ssc_app/src/el9800appl.c **** 
 332:Lib/ssc_app/src/el9800appl.c ****     *pInputSize = InputSize;
 311              		.loc 1 332 5 is_stmt 1 view .LVU73
 312              		.loc 1 332 17 is_stmt 0 view .LVU74
 313 0072 009A     		ldr	r2, [sp]
 314 0074 1380     		strh	r3, [r2]	@ movhi
 333:Lib/ssc_app/src/el9800appl.c ****     *pOutputSize = OutputSize;
 315              		.loc 1 333 5 is_stmt 1 view .LVU75
 316              		.loc 1 333 18 is_stmt 0 view .LVU76
 317 0076 019B     		ldr	r3, [sp, #4]
 318              	.LVL20:
 319              		.loc 1 333 18 view .LVU77
 320 0078 A3F80080 		strh	r8, [r3]	@ movhi
 321              	.LVL21:
 334:Lib/ssc_app/src/el9800appl.c ****     return result;
 322              		.loc 1 334 5 is_stmt 1 view .LVU78
 335:Lib/ssc_app/src/el9800appl.c **** #else
 336:Lib/ssc_app/src/el9800appl.c ****     *pInputSize = 6;
 337:Lib/ssc_app/src/el9800appl.c ****     *pOutputSize = 2;
 338:Lib/ssc_app/src/el9800appl.c ****     return ALSTATUSCODE_NOERROR;
 339:Lib/ssc_app/src/el9800appl.c **** #endif
 340:Lib/ssc_app/src/el9800appl.c **** }
 323              		.loc 1 340 1 is_stmt 0 view .LVU79
 324 007c 5846     		mov	r0, fp
 325 007e 03B0     		add	sp, sp, #12
 326              		.cfi_remember_state
 327              		.cfi_def_cfa_offset 36
 328              	.LVL22:
 329              		.loc 1 340 1 view .LVU80
 330              		@ sp needed
 331 0080 BDE8F08F 		pop	{r4, r5, r6, r7, r8, r9, r10, fp, pc}
 332              	.LVL23:
 333              	.L19:
 334              		.cfi_restore_state
 297:Lib/ssc_app/src/el9800appl.c ****             result = ALSTATUSCODE_INVALIDOUTPUTMAPPING;
ARM GAS  /tmp/ccf4hIfb.s 			page 13


 335              		.loc 1 297 24 view .LVU81
 336 0084 0026     		movs	r6, #0
 337              	.LVL24:
 298:Lib/ssc_app/src/el9800appl.c ****             break;
 338              		.loc 1 298 20 view .LVU82
 339 0086 4FF0250B 		mov	fp, #37
 340 008a E8E7     		b	.L10
 341              	.LVL25:
 342              	.L17:
 316:Lib/ssc_app/src/el9800appl.c ****                     // we increment the expected output size depending on the mapped Entry
 343              		.loc 1 316 21 is_stmt 1 discriminator 3 view .LVU83
 316:Lib/ssc_app/src/el9800appl.c ****                     // we increment the expected output size depending on the mapped Entry
 344              		.loc 1 316 57 is_stmt 0 discriminator 3 view .LVU84
 345 008c B569     		ldr	r5, [r6, #24]
 316:Lib/ssc_app/src/el9800appl.c ****                     // we increment the expected output size depending on the mapped Entry
 346              		.loc 1 316 70 discriminator 3 view .LVU85
 347 008e 601C     		adds	r0, r4, #1
 348 0090 3146     		mov	r1, r6
 349 0092 C0B2     		uxtb	r0, r0
 350 0094 FFF7FEFF 		bl	OBJ_GetEntryOffset
 351              	.LVL26:
 316:Lib/ssc_app/src/el9800appl.c ****                     // we increment the expected output size depending on the mapped Entry
 352              		.loc 1 316 114 discriminator 3 view .LVU86
 353 0098 C0F3CF00 		ubfx	r0, r0, #3, #16
 354              	.LVL27:
 318:Lib/ssc_app/src/el9800appl.c ****                 }
 355              		.loc 1 318 21 is_stmt 1 discriminator 3 view .LVU87
 318:Lib/ssc_app/src/el9800appl.c ****                 }
 356              		.loc 1 318 34 is_stmt 0 discriminator 3 view .LVU88
 357 009c 2B5C     		ldrb	r3, [r5, r0]	@ zero_extendqisi2
 318:Lib/ssc_app/src/el9800appl.c ****                 }
 358              		.loc 1 318 31 discriminator 3 view .LVU89
 359 009e 1F44     		add	r7, r7, r3
 360              	.LVL28:
 318:Lib/ssc_app/src/el9800appl.c ****                 }
 361              		.loc 1 318 31 discriminator 3 view .LVU90
 362 00a0 BFB2     		uxth	r7, r7
 363              	.LVL29:
 314:Lib/ssc_app/src/el9800appl.c ****                 {
 364              		.loc 1 314 67 is_stmt 1 discriminator 3 view .LVU91
 314:Lib/ssc_app/src/el9800appl.c ****                 {
 365              		.loc 1 314 78 is_stmt 0 discriminator 3 view .LVU92
 366 00a2 0134     		adds	r4, r4, #1
 367              	.LVL30:
 314:Lib/ssc_app/src/el9800appl.c ****                 {
 368              		.loc 1 314 78 discriminator 3 view .LVU93
 369 00a4 A4B2     		uxth	r4, r4
 370              	.LVL31:
 371              	.L16:
 314:Lib/ssc_app/src/el9800appl.c ****                 {
 372              		.loc 1 314 39 is_stmt 1 discriminator 1 view .LVU94
 314:Lib/ssc_app/src/el9800appl.c ****                 {
 373              		.loc 1 314 17 is_stmt 0 discriminator 1 view .LVU95
 374 00a6 4C45     		cmp	r4, r9
 375 00a8 F0D3     		bcc	.L17
 308:Lib/ssc_app/src/el9800appl.c ****         {
 376              		.loc 1 308 84 is_stmt 1 discriminator 2 view .LVU96
ARM GAS  /tmp/ccf4hIfb.s 			page 14


 308:Lib/ssc_app/src/el9800appl.c ****         {
 377              		.loc 1 308 101 is_stmt 0 discriminator 2 view .LVU97
 378 00aa 0AF1010A 		add	r10, r10, #1
 379              	.LVL32:
 308:Lib/ssc_app/src/el9800appl.c ****         {
 380              		.loc 1 308 101 discriminator 2 view .LVU98
 381 00ae 1FFA8AFA 		uxth	r10, r10
 382              	.LVL33:
 383              	.L14:
 308:Lib/ssc_app/src/el9800appl.c ****         {
 384              		.loc 1 308 37 is_stmt 1 discriminator 1 view .LVU99
 308:Lib/ssc_app/src/el9800appl.c ****         {
 385              		.loc 1 308 69 is_stmt 0 discriminator 1 view .LVU100
 386 00b2 0D4B     		ldr	r3, .L24+4
 387 00b4 1B88     		ldrh	r3, [r3]
 308:Lib/ssc_app/src/el9800appl.c ****         {
 388              		.loc 1 308 9 discriminator 1 view .LVU101
 389 00b6 5345     		cmp	r3, r10
 390 00b8 D8D9     		bls	.L15
 310:Lib/ssc_app/src/el9800appl.c ****             if (pPDO != NULL)
 391              		.loc 1 310 13 is_stmt 1 view .LVU102
 310:Lib/ssc_app/src/el9800appl.c ****             if (pPDO != NULL)
 392              		.loc 1 310 20 is_stmt 0 view .LVU103
 393 00ba 0B4B     		ldr	r3, .L24+4
 394 00bc 03EB4A03 		add	r3, r3, r10, lsl #1
 395 00c0 5888     		ldrh	r0, [r3, #2]
 396 00c2 FFF7FEFF 		bl	OBJ_GetObjectHandle
 397              	.LVL34:
 311:Lib/ssc_app/src/el9800appl.c ****             {
 398              		.loc 1 311 13 is_stmt 1 view .LVU104
 311:Lib/ssc_app/src/el9800appl.c ****             {
 399              		.loc 1 311 16 is_stmt 0 view .LVU105
 400 00c6 0646     		mov	r6, r0
 401 00c8 38B1     		cbz	r0, .L21
 313:Lib/ssc_app/src/el9800appl.c ****                 for (PDOEntryCnt = 0; PDOEntryCnt < PDOSubindex0; PDOEntryCnt++)
 402              		.loc 1 313 17 is_stmt 1 view .LVU106
 313:Lib/ssc_app/src/el9800appl.c ****                 for (PDOEntryCnt = 0; PDOEntryCnt < PDOSubindex0; PDOEntryCnt++)
 403              		.loc 1 313 48 is_stmt 0 view .LVU107
 404 00ca 8369     		ldr	r3, [r0, #24]
 313:Lib/ssc_app/src/el9800appl.c ****                 for (PDOEntryCnt = 0; PDOEntryCnt < PDOSubindex0; PDOEntryCnt++)
 405              		.loc 1 313 30 view .LVU108
 406 00cc B3F80090 		ldrh	r9, [r3]
 407              	.LVL35:
 314:Lib/ssc_app/src/el9800appl.c ****                 {
 408              		.loc 1 314 17 is_stmt 1 view .LVU109
 314:Lib/ssc_app/src/el9800appl.c ****                 {
 409              		.loc 1 314 34 is_stmt 0 view .LVU110
 410 00d0 5C46     		mov	r4, fp
 314:Lib/ssc_app/src/el9800appl.c ****                 {
 411              		.loc 1 314 17 view .LVU111
 412 00d2 E8E7     		b	.L16
 413              	.LVL36:
 414              	.L20:
 275:Lib/ssc_app/src/el9800appl.c ****     UINT16 OutputSize = 0;
 415              		.loc 1 275 12 view .LVU112
 416 00d4 5F46     		mov	r7, fp
 308:Lib/ssc_app/src/el9800appl.c ****         {
ARM GAS  /tmp/ccf4hIfb.s 			page 15


 417              		.loc 1 308 32 view .LVU113
 418 00d6 DA46     		mov	r10, fp
 419 00d8 EBE7     		b	.L14
 420              	.LVL37:
 421              	.L21:
 324:Lib/ssc_app/src/el9800appl.c ****                 result = ALSTATUSCODE_INVALIDINPUTMAPPING;
 422              		.loc 1 324 27 view .LVU114
 423 00da 5F46     		mov	r7, fp
 424              	.LVL38:
 325:Lib/ssc_app/src/el9800appl.c ****                 break;
 425              		.loc 1 325 24 view .LVU115
 426 00dc 4FF0240B 		mov	fp, #36
 427              	.LVL39:
 325:Lib/ssc_app/src/el9800appl.c ****                 break;
 428              		.loc 1 325 24 view .LVU116
 429 00e0 C4E7     		b	.L15
 430              	.L25:
 431 00e2 00BF     		.align	2
 432              	.L24:
 433 00e4 00000000 		.word	.LANCHOR0
 434 00e8 00000000 		.word	.LANCHOR1
 435              		.cfi_endproc
 436              	.LFE141:
 438              		.section	.text.APPL_InputMapping,"ax",%progbits
 439              		.align	1
 440              		.global	APPL_InputMapping
 441              		.syntax unified
 442              		.thumb
 443              		.thumb_func
 445              	APPL_InputMapping:
 446              	.LVL40:
 447              	.LFB142:
 341:Lib/ssc_app/src/el9800appl.c **** 
 342:Lib/ssc_app/src/el9800appl.c **** /////////////////////////////////////////////////////////////////////////////////////////
 343:Lib/ssc_app/src/el9800appl.c **** /**
 344:Lib/ssc_app/src/el9800appl.c **** \param      pData  pointer to input process data
 345:Lib/ssc_app/src/el9800appl.c **** \brief      This function will copies the inputs from the local memory to the ESC memory
 346:Lib/ssc_app/src/el9800appl.c ****             to the hardware
 347:Lib/ssc_app/src/el9800appl.c **** */
 348:Lib/ssc_app/src/el9800appl.c **** ///////////////////////////////////////////////////////////////////////////////////////
 349:Lib/ssc_app/src/el9800appl.c **** #if _STM32_IO4 && AL_EVENT_ENABLED
 350:Lib/ssc_app/src/el9800appl.c **** /* the pragma interrupt_level is used to tell the compiler that these functions will not
 351:Lib/ssc_app/src/el9800appl.c ****    be called at the same time from the main function and the interrupt routine */
 352:Lib/ssc_app/src/el9800appl.c **** #pragma interrupt_level 1
 353:Lib/ssc_app/src/el9800appl.c **** #endif
 354:Lib/ssc_app/src/el9800appl.c **** void APPL_InputMapping(UINT16 *pData)
 355:Lib/ssc_app/src/el9800appl.c **** {
 448              		.loc 1 355 1 is_stmt 1 view -0
 449              		.cfi_startproc
 450              		@ args = 0, pretend = 0, frame = 0
 451              		@ frame_needed = 0, uses_anonymous_args = 0
 452              		@ link register save eliminated.
 356:Lib/ssc_app/src/el9800appl.c ****     UINT16 j = 0;
 453              		.loc 1 356 5 view .LVU118
 357:Lib/ssc_app/src/el9800appl.c ****     UINT16 *pTmpData = (UINT16 *)pData;
 454              		.loc 1 357 5 view .LVU119
 358:Lib/ssc_app/src/el9800appl.c **** 
ARM GAS  /tmp/ccf4hIfb.s 			page 16


 359:Lib/ssc_app/src/el9800appl.c ****     /* we go through all entries of the TxPDO Assign object to get the assigned TxPDOs */
 360:Lib/ssc_app/src/el9800appl.c ****     for (j = 0; j < sTxPDOassign.u16SubIndex0; j++)
 455              		.loc 1 360 5 view .LVU120
 456              		.loc 1 360 12 is_stmt 0 view .LVU121
 457 0000 0022     		movs	r2, #0
 458              		.loc 1 360 5 view .LVU122
 459 0002 05E0     		b	.L27
 460              	.LVL41:
 461              	.L28:
 361:Lib/ssc_app/src/el9800appl.c ****     {
 362:Lib/ssc_app/src/el9800appl.c ****         switch (sTxPDOassign.aEntries[j])
 363:Lib/ssc_app/src/el9800appl.c ****         {
 364:Lib/ssc_app/src/el9800appl.c ****         /* TxPDO 1 */
 365:Lib/ssc_app/src/el9800appl.c ****         case 0x1A00:
 366:Lib/ssc_app/src/el9800appl.c ****             *pTmpData++ = SWAPWORD(((UINT16 *)&sDIInputs)[1]);
 462              		.loc 1 366 13 is_stmt 1 view .LVU123
 463              		.loc 1 366 25 is_stmt 0 view .LVU124
 464 0004 3C4B     		ldr	r3, .L33
 465 0006 5B88     		ldrh	r3, [r3, #2]
 466 0008 20F8023B 		strh	r3, [r0], #2	@ movhi
 467              	.LVL42:
 367:Lib/ssc_app/src/el9800appl.c ****             break;
 468              		.loc 1 367 13 is_stmt 1 view .LVU125
 469              	.L30:
 360:Lib/ssc_app/src/el9800appl.c ****     {
 470              		.loc 1 360 48 discriminator 2 view .LVU126
 360:Lib/ssc_app/src/el9800appl.c ****     {
 471              		.loc 1 360 49 is_stmt 0 discriminator 2 view .LVU127
 472 000c 0132     		adds	r2, r2, #1
 473              	.LVL43:
 360:Lib/ssc_app/src/el9800appl.c ****     {
 474              		.loc 1 360 49 discriminator 2 view .LVU128
 475 000e 92B2     		uxth	r2, r2
 476              	.LVL44:
 477              	.L27:
 360:Lib/ssc_app/src/el9800appl.c ****     {
 478              		.loc 1 360 17 is_stmt 1 discriminator 1 view .LVU129
 360:Lib/ssc_app/src/el9800appl.c ****     {
 479              		.loc 1 360 33 is_stmt 0 discriminator 1 view .LVU130
 480 0010 3A4B     		ldr	r3, .L33+4
 481 0012 1B88     		ldrh	r3, [r3]
 360:Lib/ssc_app/src/el9800appl.c ****     {
 482              		.loc 1 360 5 discriminator 1 view .LVU131
 483 0014 9342     		cmp	r3, r2
 484 0016 6ED9     		bls	.L32
 362:Lib/ssc_app/src/el9800appl.c ****         {
 485              		.loc 1 362 9 is_stmt 1 view .LVU132
 362:Lib/ssc_app/src/el9800appl.c ****         {
 486              		.loc 1 362 38 is_stmt 0 view .LVU133
 487 0018 384B     		ldr	r3, .L33+4
 488 001a 03EB4203 		add	r3, r3, r2, lsl #1
 489 001e 5B88     		ldrh	r3, [r3, #2]
 362:Lib/ssc_app/src/el9800appl.c ****         {
 490              		.loc 1 362 9 view .LVU134
 491 0020 B3F5D05F 		cmp	r3, #6656
 492 0024 EED0     		beq	.L28
 493 0026 41F60221 		movw	r1, #6658
ARM GAS  /tmp/ccf4hIfb.s 			page 17


 494 002a 8B42     		cmp	r3, r1
 495 002c EED1     		bne	.L30
 368:Lib/ssc_app/src/el9800appl.c ****         /* TxPDO 3 */
 369:Lib/ssc_app/src/el9800appl.c ****         case 0x1A02:
 370:Lib/ssc_app/src/el9800appl.c ****             *pTmpData++ = SWAPWORD(((UINT16 *)&sAIInputs)[1]);
 496              		.loc 1 370 13 is_stmt 1 view .LVU135
 497              	.LVL45:
 498              		.loc 1 370 25 is_stmt 0 view .LVU136
 499 002e 344B     		ldr	r3, .L33+8
 500 0030 5988     		ldrh	r1, [r3, #2]
 501 0032 0180     		strh	r1, [r0]	@ movhi
 371:Lib/ssc_app/src/el9800appl.c ****             *pTmpData++ = SWAPWORD(((UINT16 *)&sAIInputs)[2]);
 502              		.loc 1 371 13 is_stmt 1 view .LVU137
 503              	.LVL46:
 504              		.loc 1 371 25 is_stmt 0 view .LVU138
 505 0034 9988     		ldrh	r1, [r3, #4]
 506 0036 4180     		strh	r1, [r0, #2]	@ movhi
 372:Lib/ssc_app/src/el9800appl.c ****             *pTmpData++ = SWAPWORD(((UINT16 *)&sAIInputs)[3]);
 507              		.loc 1 372 13 is_stmt 1 view .LVU139
 508              	.LVL47:
 509              		.loc 1 372 25 is_stmt 0 view .LVU140
 510 0038 D988     		ldrh	r1, [r3, #6]
 511 003a 8180     		strh	r1, [r0, #4]	@ movhi
 373:Lib/ssc_app/src/el9800appl.c ****             *pTmpData++ = SWAPWORD(((UINT16 *)&sAIInputs)[4]);
 512              		.loc 1 373 13 is_stmt 1 view .LVU141
 513              	.LVL48:
 514              		.loc 1 373 25 is_stmt 0 view .LVU142
 515 003c 1989     		ldrh	r1, [r3, #8]
 516 003e C180     		strh	r1, [r0, #6]	@ movhi
 374:Lib/ssc_app/src/el9800appl.c ****             *pTmpData++ = SWAPWORD(((UINT16 *)&sAIInputs)[5]);
 517              		.loc 1 374 13 is_stmt 1 view .LVU143
 518              	.LVL49:
 519              		.loc 1 374 25 is_stmt 0 view .LVU144
 520 0040 5989     		ldrh	r1, [r3, #10]
 521 0042 0181     		strh	r1, [r0, #8]	@ movhi
 375:Lib/ssc_app/src/el9800appl.c ****             *pTmpData++ = SWAPWORD(((UINT16 *)&sAIInputs)[6]);
 522              		.loc 1 375 13 is_stmt 1 view .LVU145
 523              	.LVL50:
 524              		.loc 1 375 25 is_stmt 0 view .LVU146
 525 0044 9989     		ldrh	r1, [r3, #12]
 526 0046 4181     		strh	r1, [r0, #10]	@ movhi
 376:Lib/ssc_app/src/el9800appl.c ****             *pTmpData++ = SWAPWORD(((UINT16 *)&sAIInputs)[7]);
 527              		.loc 1 376 13 is_stmt 1 view .LVU147
 528              	.LVL51:
 529              		.loc 1 376 25 is_stmt 0 view .LVU148
 530 0048 D989     		ldrh	r1, [r3, #14]
 531 004a 8181     		strh	r1, [r0, #12]	@ movhi
 377:Lib/ssc_app/src/el9800appl.c ****             *pTmpData++ = SWAPWORD(((UINT16 *)&sAIInputs)[8]);
 532              		.loc 1 377 13 is_stmt 1 view .LVU149
 533              	.LVL52:
 534              		.loc 1 377 25 is_stmt 0 view .LVU150
 535 004c 198A     		ldrh	r1, [r3, #16]
 536 004e C181     		strh	r1, [r0, #14]	@ movhi
 378:Lib/ssc_app/src/el9800appl.c ****             *pTmpData++ = SWAPWORD(((UINT16 *)&sAIInputs)[9]);
 537              		.loc 1 378 13 is_stmt 1 view .LVU151
 538              	.LVL53:
 539              		.loc 1 378 25 is_stmt 0 view .LVU152
ARM GAS  /tmp/ccf4hIfb.s 			page 18


 540 0050 598A     		ldrh	r1, [r3, #18]
 541 0052 0182     		strh	r1, [r0, #16]	@ movhi
 379:Lib/ssc_app/src/el9800appl.c ****             *pTmpData++ = SWAPWORD(((UINT16 *)&sAIInputs)[10]);
 542              		.loc 1 379 13 is_stmt 1 view .LVU153
 543              	.LVL54:
 544              		.loc 1 379 25 is_stmt 0 view .LVU154
 545 0054 998A     		ldrh	r1, [r3, #20]
 546 0056 4182     		strh	r1, [r0, #18]	@ movhi
 380:Lib/ssc_app/src/el9800appl.c ****             *pTmpData++ = SWAPWORD(((UINT16 *)&sAIInputs)[11]);
 547              		.loc 1 380 13 is_stmt 1 view .LVU155
 548              	.LVL55:
 549              		.loc 1 380 25 is_stmt 0 view .LVU156
 550 0058 D98A     		ldrh	r1, [r3, #22]
 551 005a 8182     		strh	r1, [r0, #20]	@ movhi
 381:Lib/ssc_app/src/el9800appl.c ****             *pTmpData++ = SWAPWORD(((UINT16 *)&sAIInputs)[12]);
 552              		.loc 1 381 13 is_stmt 1 view .LVU157
 553              	.LVL56:
 554              		.loc 1 381 25 is_stmt 0 view .LVU158
 555 005c 198B     		ldrh	r1, [r3, #24]
 556 005e C182     		strh	r1, [r0, #22]	@ movhi
 382:Lib/ssc_app/src/el9800appl.c ****             *pTmpData++ = SWAPWORD(((UINT16 *)&sAIInputs)[13]);
 557              		.loc 1 382 13 is_stmt 1 view .LVU159
 558              	.LVL57:
 559              		.loc 1 382 25 is_stmt 0 view .LVU160
 560 0060 598B     		ldrh	r1, [r3, #26]
 561 0062 0183     		strh	r1, [r0, #24]	@ movhi
 383:Lib/ssc_app/src/el9800appl.c ****             *pTmpData++ = SWAPWORD(((UINT16 *)&sAIInputs)[14]);
 562              		.loc 1 383 13 is_stmt 1 view .LVU161
 563              	.LVL58:
 564              		.loc 1 383 25 is_stmt 0 view .LVU162
 565 0064 998B     		ldrh	r1, [r3, #28]
 566 0066 4183     		strh	r1, [r0, #26]	@ movhi
 384:Lib/ssc_app/src/el9800appl.c ****             *pTmpData++ = SWAPWORD(((UINT16 *)&sAIInputs)[15]);
 567              		.loc 1 384 13 is_stmt 1 view .LVU163
 568              	.LVL59:
 569              		.loc 1 384 25 is_stmt 0 view .LVU164
 570 0068 D98B     		ldrh	r1, [r3, #30]
 571 006a 8183     		strh	r1, [r0, #28]	@ movhi
 385:Lib/ssc_app/src/el9800appl.c ****             *pTmpData++ = SWAPWORD(((UINT16 *)&sAIInputs)[16]);
 572              		.loc 1 385 13 is_stmt 1 view .LVU165
 573              	.LVL60:
 574              		.loc 1 385 25 is_stmt 0 view .LVU166
 575 006c 198C     		ldrh	r1, [r3, #32]
 576 006e C183     		strh	r1, [r0, #30]	@ movhi
 386:Lib/ssc_app/src/el9800appl.c ****             *pTmpData++ = SWAPWORD(((UINT16 *)&sAIInputs)[17]);
 577              		.loc 1 386 13 is_stmt 1 view .LVU167
 578              	.LVL61:
 579              		.loc 1 386 25 is_stmt 0 view .LVU168
 580 0070 598C     		ldrh	r1, [r3, #34]
 581 0072 0184     		strh	r1, [r0, #32]	@ movhi
 387:Lib/ssc_app/src/el9800appl.c ****             *pTmpData++ = SWAPWORD(((UINT16 *)&sAIInputs)[18]);
 582              		.loc 1 387 13 is_stmt 1 view .LVU169
 583              	.LVL62:
 584              		.loc 1 387 25 is_stmt 0 view .LVU170
 585 0074 998C     		ldrh	r1, [r3, #36]
 586 0076 4184     		strh	r1, [r0, #34]	@ movhi
 388:Lib/ssc_app/src/el9800appl.c ****             *pTmpData++ = SWAPWORD(((UINT16 *)&sAIInputs)[19]);
ARM GAS  /tmp/ccf4hIfb.s 			page 19


 587              		.loc 1 388 13 is_stmt 1 view .LVU171
 588              	.LVL63:
 589              		.loc 1 388 25 is_stmt 0 view .LVU172
 590 0078 D98C     		ldrh	r1, [r3, #38]
 591 007a 8184     		strh	r1, [r0, #36]	@ movhi
 389:Lib/ssc_app/src/el9800appl.c ****             *pTmpData++ = SWAPWORD(((UINT16 *)&sAIInputs)[20]);
 592              		.loc 1 389 13 is_stmt 1 view .LVU173
 593              	.LVL64:
 594              		.loc 1 389 25 is_stmt 0 view .LVU174
 595 007c 198D     		ldrh	r1, [r3, #40]
 596 007e C184     		strh	r1, [r0, #38]	@ movhi
 390:Lib/ssc_app/src/el9800appl.c ****             *pTmpData++ = SWAPWORD(((UINT16 *)&sAIInputs)[21]);
 597              		.loc 1 390 13 is_stmt 1 view .LVU175
 598              	.LVL65:
 599              		.loc 1 390 25 is_stmt 0 view .LVU176
 600 0080 598D     		ldrh	r1, [r3, #42]
 601 0082 0185     		strh	r1, [r0, #40]	@ movhi
 391:Lib/ssc_app/src/el9800appl.c ****             *pTmpData++ = SWAPWORD(((UINT16 *)&sAIInputs)[22]);
 602              		.loc 1 391 13 is_stmt 1 view .LVU177
 603              	.LVL66:
 604              		.loc 1 391 25 is_stmt 0 view .LVU178
 605 0084 998D     		ldrh	r1, [r3, #44]
 606 0086 4185     		strh	r1, [r0, #42]	@ movhi
 392:Lib/ssc_app/src/el9800appl.c ****             *pTmpData++ = SWAPWORD(((UINT16 *)&sAIInputs)[23]);
 607              		.loc 1 392 13 is_stmt 1 view .LVU179
 608              	.LVL67:
 609              		.loc 1 392 25 is_stmt 0 view .LVU180
 610 0088 D98D     		ldrh	r1, [r3, #46]
 611 008a 8185     		strh	r1, [r0, #44]	@ movhi
 393:Lib/ssc_app/src/el9800appl.c ****             *pTmpData++ = SWAPWORD(((UINT16 *)&sAIInputs)[24]);
 612              		.loc 1 393 13 is_stmt 1 view .LVU181
 613              	.LVL68:
 614              		.loc 1 393 25 is_stmt 0 view .LVU182
 615 008c 198E     		ldrh	r1, [r3, #48]
 616 008e C185     		strh	r1, [r0, #46]	@ movhi
 394:Lib/ssc_app/src/el9800appl.c ****             *pTmpData++ = SWAPWORD(((UINT16 *)&sAIInputs)[25]);
 617              		.loc 1 394 13 is_stmt 1 view .LVU183
 618              	.LVL69:
 619              		.loc 1 394 25 is_stmt 0 view .LVU184
 620 0090 598E     		ldrh	r1, [r3, #50]
 621 0092 0186     		strh	r1, [r0, #48]	@ movhi
 395:Lib/ssc_app/src/el9800appl.c ****             *pTmpData++ = SWAPWORD(((UINT16 *)&sAIInputs)[26]);
 622              		.loc 1 395 13 is_stmt 1 view .LVU185
 623              	.LVL70:
 624              		.loc 1 395 25 is_stmt 0 view .LVU186
 625 0094 998E     		ldrh	r1, [r3, #52]
 626 0096 4186     		strh	r1, [r0, #50]	@ movhi
 396:Lib/ssc_app/src/el9800appl.c ****             *pTmpData++ = SWAPWORD(((UINT16 *)&sAIInputs)[27]);
 627              		.loc 1 396 13 is_stmt 1 view .LVU187
 628              	.LVL71:
 629              		.loc 1 396 25 is_stmt 0 view .LVU188
 630 0098 D98E     		ldrh	r1, [r3, #54]
 631 009a 8186     		strh	r1, [r0, #52]	@ movhi
 397:Lib/ssc_app/src/el9800appl.c ****             *pTmpData++ = SWAPWORD(((UINT16 *)&sAIInputs)[28]);//
 632              		.loc 1 397 13 is_stmt 1 view .LVU189
 633              	.LVL72:
 634              		.loc 1 397 25 is_stmt 0 view .LVU190
ARM GAS  /tmp/ccf4hIfb.s 			page 20


 635 009c 198F     		ldrh	r1, [r3, #56]
 636 009e C186     		strh	r1, [r0, #54]	@ movhi
 398:Lib/ssc_app/src/el9800appl.c ****             
 399:Lib/ssc_app/src/el9800appl.c ****             *pTmpData++ = SWAPWORD(((UINT16 *)&sAIInputs)[29]);
 637              		.loc 1 399 13 is_stmt 1 view .LVU191
 638              	.LVL73:
 639              		.loc 1 399 25 is_stmt 0 view .LVU192
 640 00a0 598F     		ldrh	r1, [r3, #58]
 641 00a2 0187     		strh	r1, [r0, #56]	@ movhi
 400:Lib/ssc_app/src/el9800appl.c ****             *pTmpData++ = SWAPWORD(((UINT16 *)&sAIInputs)[30]);
 642              		.loc 1 400 13 is_stmt 1 view .LVU193
 643              	.LVL74:
 644              		.loc 1 400 25 is_stmt 0 view .LVU194
 645 00a4 998F     		ldrh	r1, [r3, #60]
 646 00a6 4187     		strh	r1, [r0, #58]	@ movhi
 401:Lib/ssc_app/src/el9800appl.c ****             *pTmpData++ = SWAPWORD(((UINT16 *)&sAIInputs)[31]);
 647              		.loc 1 401 13 is_stmt 1 view .LVU195
 648              	.LVL75:
 649              		.loc 1 401 25 is_stmt 0 view .LVU196
 650 00a8 D98F     		ldrh	r1, [r3, #62]
 651 00aa 8187     		strh	r1, [r0, #60]	@ movhi
 402:Lib/ssc_app/src/el9800appl.c ****             *pTmpData++ = SWAPWORD(((UINT16 *)&sAIInputs)[32]);
 652              		.loc 1 402 13 is_stmt 1 view .LVU197
 653              	.LVL76:
 654              		.loc 1 402 25 is_stmt 0 view .LVU198
 655 00ac B3F84010 		ldrh	r1, [r3, #64]
 656 00b0 C187     		strh	r1, [r0, #62]	@ movhi
 403:Lib/ssc_app/src/el9800appl.c ****             *pTmpData++ = SWAPWORD(((UINT16 *)&sAIInputs)[33]);
 657              		.loc 1 403 13 is_stmt 1 view .LVU199
 658              	.LVL77:
 659              		.loc 1 403 25 is_stmt 0 view .LVU200
 660 00b2 B3F84210 		ldrh	r1, [r3, #66]
 661 00b6 A0F84010 		strh	r1, [r0, #64]	@ movhi
 404:Lib/ssc_app/src/el9800appl.c ****             *pTmpData++ = SWAPWORD(((UINT16 *)&sAIInputs)[34]);
 662              		.loc 1 404 13 is_stmt 1 view .LVU201
 663              	.LVL78:
 664              		.loc 1 404 25 is_stmt 0 view .LVU202
 665 00ba B3F84410 		ldrh	r1, [r3, #68]
 666 00be A0F84210 		strh	r1, [r0, #66]	@ movhi
 405:Lib/ssc_app/src/el9800appl.c ****             *pTmpData++ = SWAPWORD(((UINT16 *)&sAIInputs)[35]);
 667              		.loc 1 405 13 is_stmt 1 view .LVU203
 668              	.LVL79:
 669              		.loc 1 405 25 is_stmt 0 view .LVU204
 670 00c2 B3F84610 		ldrh	r1, [r3, #70]
 671 00c6 A0F84410 		strh	r1, [r0, #68]	@ movhi
 406:Lib/ssc_app/src/el9800appl.c ****             *pTmpData++ = SWAPWORD(((UINT16 *)&sAIInputs)[36]);
 672              		.loc 1 406 13 is_stmt 1 view .LVU205
 673              	.LVL80:
 674              		.loc 1 406 25 is_stmt 0 view .LVU206
 675 00ca B3F84810 		ldrh	r1, [r3, #72]
 676 00ce A0F84610 		strh	r1, [r0, #70]	@ movhi
 407:Lib/ssc_app/src/el9800appl.c ****             *pTmpData++ = SWAPWORD(((UINT16 *)&sAIInputs)[37]);
 677              		.loc 1 407 13 is_stmt 1 view .LVU207
 678              	.LVL81:
 679              		.loc 1 407 25 is_stmt 0 view .LVU208
 680 00d2 B3F84A10 		ldrh	r1, [r3, #74]
 681 00d6 A0F84810 		strh	r1, [r0, #72]	@ movhi
ARM GAS  /tmp/ccf4hIfb.s 			page 21


 408:Lib/ssc_app/src/el9800appl.c ****             *pTmpData++ = SWAPWORD(((UINT16 *)&sAIInputs)[38]);
 682              		.loc 1 408 13 is_stmt 1 view .LVU209
 683              	.LVL82:
 684              		.loc 1 408 25 is_stmt 0 view .LVU210
 685 00da B3F84C10 		ldrh	r1, [r3, #76]
 686 00de A0F84A10 		strh	r1, [r0, #74]	@ movhi
 409:Lib/ssc_app/src/el9800appl.c ****             *pTmpData++ = SWAPWORD(((UINT16 *)&sAIInputs)[39]);
 687              		.loc 1 409 13 is_stmt 1 view .LVU211
 688              	.LVL83:
 689              		.loc 1 409 25 is_stmt 0 view .LVU212
 690 00e2 B3F84E10 		ldrh	r1, [r3, #78]
 691 00e6 A0F84C10 		strh	r1, [r0, #76]	@ movhi
 410:Lib/ssc_app/src/el9800appl.c ****             *pTmpData++ = SWAPWORD(((UINT16 *)&sAIInputs)[40]);
 692              		.loc 1 410 13 is_stmt 1 view .LVU213
 693              	.LVL84:
 694              		.loc 1 410 25 is_stmt 0 view .LVU214
 695 00ea B3F85030 		ldrh	r3, [r3, #80]
 696 00ee A0F84E30 		strh	r3, [r0, #78]	@ movhi
 411:Lib/ssc_app/src/el9800appl.c ****             break;
 697              		.loc 1 411 13 is_stmt 1 view .LVU215
 410:Lib/ssc_app/src/el9800appl.c ****             *pTmpData++ = SWAPWORD(((UINT16 *)&sAIInputs)[40]);
 698              		.loc 1 410 22 is_stmt 0 view .LVU216
 699 00f2 5030     		adds	r0, r0, #80
 700              	.LVL85:
 701              		.loc 1 411 13 view .LVU217
 702 00f4 8AE7     		b	.L30
 703              	.L32:
 412:Lib/ssc_app/src/el9800appl.c ****         }
 413:Lib/ssc_app/src/el9800appl.c ****     }
 414:Lib/ssc_app/src/el9800appl.c **** }
 704              		.loc 1 414 1 view .LVU218
 705 00f6 7047     		bx	lr
 706              	.L34:
 707              		.align	2
 708              	.L33:
 709 00f8 00000000 		.word	.LANCHOR2
 710 00fc 00000000 		.word	.LANCHOR1
 711 0100 00000000 		.word	.LANCHOR3
 712              		.cfi_endproc
 713              	.LFE142:
 715              		.section	.text.APPL_OutputMapping,"ax",%progbits
 716              		.align	1
 717              		.global	APPL_OutputMapping
 718              		.syntax unified
 719              		.thumb
 720              		.thumb_func
 722              	APPL_OutputMapping:
 723              	.LVL86:
 724              	.LFB143:
 415:Lib/ssc_app/src/el9800appl.c **** 
 416:Lib/ssc_app/src/el9800appl.c **** /////////////////////////////////////////////////////////////////////////////////////////
 417:Lib/ssc_app/src/el9800appl.c **** /**
 418:Lib/ssc_app/src/el9800appl.c **** \param      pData  pointer to output process data
 419:Lib/ssc_app/src/el9800appl.c **** 
 420:Lib/ssc_app/src/el9800appl.c **** \brief    This function will copies the outputs from the ESC memory to the local memory
 421:Lib/ssc_app/src/el9800appl.c ****             to the hardware
 422:Lib/ssc_app/src/el9800appl.c **** */
ARM GAS  /tmp/ccf4hIfb.s 			page 22


 423:Lib/ssc_app/src/el9800appl.c **** ///////////////////////////////////////////////////////////////////////////////////////
 424:Lib/ssc_app/src/el9800appl.c **** #if _STM32_IO4 && AL_EVENT_ENABLED
 425:Lib/ssc_app/src/el9800appl.c **** /* the pragma interrupt_level is used to tell the compiler that these functions will not
 426:Lib/ssc_app/src/el9800appl.c ****    be called at the same time from the main function and the interrupt routine */
 427:Lib/ssc_app/src/el9800appl.c **** #pragma interrupt_level 1
 428:Lib/ssc_app/src/el9800appl.c **** #endif
 429:Lib/ssc_app/src/el9800appl.c **** void APPL_OutputMapping(UINT16 *pData)
 430:Lib/ssc_app/src/el9800appl.c **** {
 725              		.loc 1 430 1 is_stmt 1 view -0
 726              		.cfi_startproc
 727              		@ args = 0, pretend = 0, frame = 0
 728              		@ frame_needed = 0, uses_anonymous_args = 0
 729              		@ link register save eliminated.
 431:Lib/ssc_app/src/el9800appl.c ****     UINT16 j = 0;
 730              		.loc 1 431 5 view .LVU220
 432:Lib/ssc_app/src/el9800appl.c ****     UINT16 *pTmpData = (UINT16 *)pData;
 731              		.loc 1 432 5 view .LVU221
 433:Lib/ssc_app/src/el9800appl.c **** 
 434:Lib/ssc_app/src/el9800appl.c ****     /* we go through all entries of the RxPDO Assign object to get the assigned RxPDOs */
 435:Lib/ssc_app/src/el9800appl.c ****     for (j = 0; j < sRxPDOassign.u16SubIndex0; j++)
 732              		.loc 1 435 5 view .LVU222
 733              		.loc 1 435 12 is_stmt 0 view .LVU223
 734 0000 0023     		movs	r3, #0
 735              		.loc 1 435 5 view .LVU224
 736 0002 01E0     		b	.L36
 737              	.LVL87:
 738              	.L37:
 739              		.loc 1 435 48 is_stmt 1 discriminator 2 view .LVU225
 740              		.loc 1 435 49 is_stmt 0 discriminator 2 view .LVU226
 741 0004 0133     		adds	r3, r3, #1
 742              	.LVL88:
 743              		.loc 1 435 49 discriminator 2 view .LVU227
 744 0006 9BB2     		uxth	r3, r3
 745              	.LVL89:
 746              	.L36:
 747              		.loc 1 435 17 is_stmt 1 discriminator 1 view .LVU228
 748              		.loc 1 435 33 is_stmt 0 discriminator 1 view .LVU229
 749 0008 384A     		ldr	r2, .L40
 750 000a 1288     		ldrh	r2, [r2]
 751              		.loc 1 435 5 discriminator 1 view .LVU230
 752 000c 9A42     		cmp	r2, r3
 753 000e 6CD9     		bls	.L39
 436:Lib/ssc_app/src/el9800appl.c ****     {
 437:Lib/ssc_app/src/el9800appl.c ****         switch (sRxPDOassign.aEntries[j])
 754              		.loc 1 437 9 is_stmt 1 view .LVU231
 755              		.loc 1 437 38 is_stmt 0 view .LVU232
 756 0010 364A     		ldr	r2, .L40
 757 0012 02EB4302 		add	r2, r2, r3, lsl #1
 758 0016 5188     		ldrh	r1, [r2, #2]
 759              		.loc 1 437 9 view .LVU233
 760 0018 41F20162 		movw	r2, #5633
 761 001c 9142     		cmp	r1, r2
 762 001e F1D1     		bne	.L37
 438:Lib/ssc_app/src/el9800appl.c ****         {
 439:Lib/ssc_app/src/el9800appl.c ****         /* RxPDO 2 */
 440:Lib/ssc_app/src/el9800appl.c ****         case 0x1601:
 441:Lib/ssc_app/src/el9800appl.c ****             ((UINT16 *)&sDOOutputs)[1] = SWAPWORD(*pTmpData);
ARM GAS  /tmp/ccf4hIfb.s 			page 23


 763              		.loc 1 441 13 is_stmt 1 view .LVU234
 764              		.loc 1 441 42 is_stmt 0 view .LVU235
 765 0020 0188     		ldrh	r1, [r0]
 766              		.loc 1 441 40 view .LVU236
 767 0022 334A     		ldr	r2, .L40+4
 768 0024 5180     		strh	r1, [r2, #2]	@ movhi
 442:Lib/ssc_app/src/el9800appl.c ****             ((UINT16 *)&sDOOutputs)[2] = (SWAPWORD(*pTmpData) >> 8 & 0xFF) | (SWAPWORD(*(pTmpData +
 769              		.loc 1 442 13 is_stmt 1 view .LVU237
 770              		.loc 1 442 79 is_stmt 0 view .LVU238
 771 0026 B0F802C0 		ldrh	ip, [r0, #2]
 772              		.loc 1 442 76 view .LVU239
 773 002a 090A     		lsrs	r1, r1, #8
 774 002c 41EA0C21 		orr	r1, r1, ip, lsl #8
 775              		.loc 1 442 40 view .LVU240
 776 0030 9180     		strh	r1, [r2, #4]	@ movhi
 443:Lib/ssc_app/src/el9800appl.c ****             ((UINT16 *)&sDOOutputs)[3] = (SWAPWORD(*(pTmpData + 1)) >> 8 & 0xFF) | (SWAPWORD(*(pTmp
 777              		.loc 1 443 13 is_stmt 1 view .LVU241
 778              		.loc 1 443 43 is_stmt 0 view .LVU242
 779 0032 4188     		ldrh	r1, [r0, #2]
 780              		.loc 1 443 85 view .LVU243
 781 0034 B0F804C0 		ldrh	ip, [r0, #4]
 782              		.loc 1 443 82 view .LVU244
 783 0038 090A     		lsrs	r1, r1, #8
 784 003a 41EA0C21 		orr	r1, r1, ip, lsl #8
 785              		.loc 1 443 40 view .LVU245
 786 003e D180     		strh	r1, [r2, #6]	@ movhi
 444:Lib/ssc_app/src/el9800appl.c ****             ((UINT16 *)&sDOOutputs)[4] = (SWAPWORD(*(pTmpData + 2)) >> 8 & 0xFF) | (SWAPWORD(*(pTmp
 787              		.loc 1 444 13 is_stmt 1 view .LVU246
 788              		.loc 1 444 43 is_stmt 0 view .LVU247
 789 0040 8188     		ldrh	r1, [r0, #4]
 790              		.loc 1 444 85 view .LVU248
 791 0042 B0F806C0 		ldrh	ip, [r0, #6]
 792              		.loc 1 444 82 view .LVU249
 793 0046 090A     		lsrs	r1, r1, #8
 794 0048 41EA0C21 		orr	r1, r1, ip, lsl #8
 795              		.loc 1 444 40 view .LVU250
 796 004c 1181     		strh	r1, [r2, #8]	@ movhi
 445:Lib/ssc_app/src/el9800appl.c ****             ((UINT16 *)&sDOOutputs)[5] = (SWAPWORD(*(pTmpData + 3)) >> 8 & 0xFF) | (SWAPWORD(*(pTmp
 797              		.loc 1 445 13 is_stmt 1 view .LVU251
 798              		.loc 1 445 43 is_stmt 0 view .LVU252
 799 004e C188     		ldrh	r1, [r0, #6]
 800              		.loc 1 445 85 view .LVU253
 801 0050 B0F808C0 		ldrh	ip, [r0, #8]
 802              		.loc 1 445 82 view .LVU254
 803 0054 090A     		lsrs	r1, r1, #8
 804 0056 41EA0C21 		orr	r1, r1, ip, lsl #8
 805              		.loc 1 445 40 view .LVU255
 806 005a 5181     		strh	r1, [r2, #10]	@ movhi
 446:Lib/ssc_app/src/el9800appl.c ****             ((UINT16 *)&sDOOutputs)[6] = (SWAPWORD(*(pTmpData + 4)) >> 8 & 0xFF) | (SWAPWORD(*(pTmp
 807              		.loc 1 446 13 is_stmt 1 view .LVU256
 808              		.loc 1 446 43 is_stmt 0 view .LVU257
 809 005c 0189     		ldrh	r1, [r0, #8]
 810              		.loc 1 446 85 view .LVU258
 811 005e B0F80AC0 		ldrh	ip, [r0, #10]
 812              		.loc 1 446 82 view .LVU259
 813 0062 090A     		lsrs	r1, r1, #8
 814 0064 41EA0C21 		orr	r1, r1, ip, lsl #8
ARM GAS  /tmp/ccf4hIfb.s 			page 24


 815              		.loc 1 446 40 view .LVU260
 816 0068 9181     		strh	r1, [r2, #12]	@ movhi
 447:Lib/ssc_app/src/el9800appl.c ****             ((UINT16 *)&sDOOutputs)[7] = (SWAPWORD(*(pTmpData + 5)) >> 8 & 0xFF) | (SWAPWORD(*(pTmp
 817              		.loc 1 447 13 is_stmt 1 view .LVU261
 818              		.loc 1 447 43 is_stmt 0 view .LVU262
 819 006a 4189     		ldrh	r1, [r0, #10]
 820              		.loc 1 447 85 view .LVU263
 821 006c B0F80CC0 		ldrh	ip, [r0, #12]
 822              		.loc 1 447 82 view .LVU264
 823 0070 090A     		lsrs	r1, r1, #8
 824 0072 41EA0C21 		orr	r1, r1, ip, lsl #8
 825              		.loc 1 447 40 view .LVU265
 826 0076 D181     		strh	r1, [r2, #14]	@ movhi
 448:Lib/ssc_app/src/el9800appl.c ****             ((UINT16 *)&sDOOutputs)[8] = (SWAPWORD(*(pTmpData + 6)) >> 8 & 0xFF) | (SWAPWORD(*(pTmp
 827              		.loc 1 448 13 is_stmt 1 view .LVU266
 828              		.loc 1 448 43 is_stmt 0 view .LVU267
 829 0078 8189     		ldrh	r1, [r0, #12]
 830              		.loc 1 448 85 view .LVU268
 831 007a B0F80EC0 		ldrh	ip, [r0, #14]
 832              		.loc 1 448 82 view .LVU269
 833 007e 090A     		lsrs	r1, r1, #8
 834 0080 41EA0C21 		orr	r1, r1, ip, lsl #8
 835              		.loc 1 448 40 view .LVU270
 836 0084 1182     		strh	r1, [r2, #16]	@ movhi
 449:Lib/ssc_app/src/el9800appl.c ****             ((UINT16 *)&sDOOutputs)[9] = (SWAPWORD(*(pTmpData + 7)) >> 8 & 0xFF) | (SWAPWORD(*(pTmp
 837              		.loc 1 449 13 is_stmt 1 view .LVU271
 838              		.loc 1 449 43 is_stmt 0 view .LVU272
 839 0086 C189     		ldrh	r1, [r0, #14]
 840              		.loc 1 449 85 view .LVU273
 841 0088 B0F810C0 		ldrh	ip, [r0, #16]
 842              		.loc 1 449 82 view .LVU274
 843 008c 090A     		lsrs	r1, r1, #8
 844 008e 41EA0C21 		orr	r1, r1, ip, lsl #8
 845              		.loc 1 449 40 view .LVU275
 846 0092 5182     		strh	r1, [r2, #18]	@ movhi
 450:Lib/ssc_app/src/el9800appl.c ****             ((UINT16 *)&sDOOutputs)[10] = (SWAPWORD(*(pTmpData + 8)) >> 8 & 0xFF) | (SWAPWORD(*(pTm
 847              		.loc 1 450 13 is_stmt 1 view .LVU276
 848              		.loc 1 450 44 is_stmt 0 view .LVU277
 849 0094 018A     		ldrh	r1, [r0, #16]
 850              		.loc 1 450 86 view .LVU278
 851 0096 B0F812C0 		ldrh	ip, [r0, #18]
 852              		.loc 1 450 83 view .LVU279
 853 009a 090A     		lsrs	r1, r1, #8
 854 009c 41EA0C21 		orr	r1, r1, ip, lsl #8
 855              		.loc 1 450 41 view .LVU280
 856 00a0 9182     		strh	r1, [r2, #20]	@ movhi
 451:Lib/ssc_app/src/el9800appl.c ****             ((UINT16 *)&sDOOutputs)[11] = (SWAPWORD(*(pTmpData + 9)) >> 8 & 0xFF) | (SWAPWORD(*(pTm
 857              		.loc 1 451 13 is_stmt 1 view .LVU281
 858              		.loc 1 451 44 is_stmt 0 view .LVU282
 859 00a2 418A     		ldrh	r1, [r0, #18]
 860              		.loc 1 451 86 view .LVU283
 861 00a4 B0F814C0 		ldrh	ip, [r0, #20]
 862              		.loc 1 451 83 view .LVU284
 863 00a8 090A     		lsrs	r1, r1, #8
 864 00aa 41EA0C21 		orr	r1, r1, ip, lsl #8
 865              		.loc 1 451 41 view .LVU285
 866 00ae D182     		strh	r1, [r2, #22]	@ movhi
ARM GAS  /tmp/ccf4hIfb.s 			page 25


 452:Lib/ssc_app/src/el9800appl.c ****             ((UINT16 *)&sDOOutputs)[12] = (SWAPWORD(*(pTmpData + 10)) >> 8 & 0xFF) | (SWAPWORD(*(pT
 867              		.loc 1 452 13 is_stmt 1 view .LVU286
 868              		.loc 1 452 44 is_stmt 0 view .LVU287
 869 00b0 818A     		ldrh	r1, [r0, #20]
 870              		.loc 1 452 87 view .LVU288
 871 00b2 B0F816C0 		ldrh	ip, [r0, #22]
 872              		.loc 1 452 84 view .LVU289
 873 00b6 090A     		lsrs	r1, r1, #8
 874 00b8 41EA0C21 		orr	r1, r1, ip, lsl #8
 875              		.loc 1 452 41 view .LVU290
 876 00bc 1183     		strh	r1, [r2, #24]	@ movhi
 453:Lib/ssc_app/src/el9800appl.c ****             ((UINT16 *)&sDOOutputs)[13] = (SWAPWORD(*(pTmpData + 11)) >> 8 & 0xFF) | (SWAPWORD(*(pT
 877              		.loc 1 453 13 is_stmt 1 view .LVU291
 878              		.loc 1 453 44 is_stmt 0 view .LVU292
 879 00be C18A     		ldrh	r1, [r0, #22]
 880              		.loc 1 453 87 view .LVU293
 881 00c0 B0F818C0 		ldrh	ip, [r0, #24]
 882              		.loc 1 453 84 view .LVU294
 883 00c4 090A     		lsrs	r1, r1, #8
 884 00c6 41EA0C21 		orr	r1, r1, ip, lsl #8
 885              		.loc 1 453 41 view .LVU295
 886 00ca 5183     		strh	r1, [r2, #26]	@ movhi
 454:Lib/ssc_app/src/el9800appl.c ****             ((UINT16 *)&sDOOutputs)[14] = (SWAPWORD(*(pTmpData + 12)) >> 8 & 0xFF) | (SWAPWORD(*(pT
 887              		.loc 1 454 13 is_stmt 1 view .LVU296
 888              		.loc 1 454 44 is_stmt 0 view .LVU297
 889 00cc 018B     		ldrh	r1, [r0, #24]
 890              		.loc 1 454 87 view .LVU298
 891 00ce B0F81AC0 		ldrh	ip, [r0, #26]
 892              		.loc 1 454 84 view .LVU299
 893 00d2 090A     		lsrs	r1, r1, #8
 894 00d4 41EA0C21 		orr	r1, r1, ip, lsl #8
 895              		.loc 1 454 41 view .LVU300
 896 00d8 9183     		strh	r1, [r2, #28]	@ movhi
 455:Lib/ssc_app/src/el9800appl.c ****             ((UINT16 *)&sDOOutputs)[15] = (SWAPWORD(*(pTmpData + 13)) >> 8 & 0xFF) | (SWAPWORD(*(pT
 897              		.loc 1 455 13 is_stmt 1 view .LVU301
 898              		.loc 1 455 44 is_stmt 0 view .LVU302
 899 00da 418B     		ldrh	r1, [r0, #26]
 900              		.loc 1 455 87 view .LVU303
 901 00dc B0F81CC0 		ldrh	ip, [r0, #28]
 902              		.loc 1 455 84 view .LVU304
 903 00e0 090A     		lsrs	r1, r1, #8
 904 00e2 41EA0C21 		orr	r1, r1, ip, lsl #8
 905              		.loc 1 455 41 view .LVU305
 906 00e6 D183     		strh	r1, [r2, #30]	@ movhi
 456:Lib/ssc_app/src/el9800appl.c ****             break;
 907              		.loc 1 456 13 is_stmt 1 view .LVU306
 908 00e8 8CE7     		b	.L37
 909              	.L39:
 457:Lib/ssc_app/src/el9800appl.c ****         }
 458:Lib/ssc_app/src/el9800appl.c ****     }
 459:Lib/ssc_app/src/el9800appl.c **** }
 910              		.loc 1 459 1 is_stmt 0 view .LVU307
 911 00ea 7047     		bx	lr
 912              	.L41:
 913              		.align	2
 914              	.L40:
 915 00ec 00000000 		.word	.LANCHOR0
ARM GAS  /tmp/ccf4hIfb.s 			page 26


 916 00f0 00000000 		.word	.LANCHOR4
 917              		.cfi_endproc
 918              	.LFE143:
 920              		.section	.text.APPL_Application,"ax",%progbits
 921              		.align	1
 922              		.global	APPL_Application
 923              		.syntax unified
 924              		.thumb
 925              		.thumb_func
 927              	APPL_Application:
 928              	.LFB144:
 460:Lib/ssc_app/src/el9800appl.c **** 
 461:Lib/ssc_app/src/el9800appl.c **** /////////////////////////////////////////////////////////////////////////////////////////
 462:Lib/ssc_app/src/el9800appl.c **** /**
 463:Lib/ssc_app/src/el9800appl.c **** \brief    This function will called from the synchronisation ISR
 464:Lib/ssc_app/src/el9800appl.c ****             or from the mainloop if no synchronisation is supported
 465:Lib/ssc_app/src/el9800appl.c **** */
 466:Lib/ssc_app/src/el9800appl.c **** ///////////////////////////////////////////////////////////////////////////////////////
 467:Lib/ssc_app/src/el9800appl.c **** 
 468:Lib/ssc_app/src/el9800appl.c **** #include <stdint.h>
 469:Lib/ssc_app/src/el9800appl.c **** //#include "bsp_usart.h"
 470:Lib/ssc_app/src/el9800appl.c **** //#include "motor_msg.h"
 471:Lib/ssc_app/src/el9800appl.c **** //#include "unitreeA1_cmd.h"
 472:Lib/ssc_app/src/el9800appl.c **** //#include "A1_control.h"
 473:Lib/ssc_app/src/el9800appl.c **** 
 474:Lib/ssc_app/src/el9800appl.c **** void APPL_Application(void)
 475:Lib/ssc_app/src/el9800appl.c **** {
 929              		.loc 1 475 1 is_stmt 1 view -0
 930              		.cfi_startproc
 931              		@ args = 0, pretend = 0, frame = 0
 932              		@ frame_needed = 0, uses_anonymous_args = 0
 933              		@ link register save eliminated.
 476:Lib/ssc_app/src/el9800appl.c ****     /*
 477:Lib/ssc_app/src/el9800appl.c ****     if (sDOOutputs.bLED1 != 0)
 478:Lib/ssc_app/src/el9800appl.c ****     {
 479:Lib/ssc_app/src/el9800appl.c ****         GPIO_SetBits(GPIOB, GPIO_Pin_15);
 480:Lib/ssc_app/src/el9800appl.c ****     }
 481:Lib/ssc_app/src/el9800appl.c ****     else
 482:Lib/ssc_app/src/el9800appl.c ****     {
 483:Lib/ssc_app/src/el9800appl.c ****         GPIO_ResetBits(GPIOB, GPIO_Pin_15);
 484:Lib/ssc_app/src/el9800appl.c ****     }
 485:Lib/ssc_app/src/el9800appl.c **** 
 486:Lib/ssc_app/src/el9800appl.c ****     if (sDOOutputs.bLED2 != 0)
 487:Lib/ssc_app/src/el9800appl.c ****     {
 488:Lib/ssc_app/src/el9800appl.c ****         GPIO_SetBits(GPIOB, GPIO_Pin_14);
 489:Lib/ssc_app/src/el9800appl.c ****     }
 490:Lib/ssc_app/src/el9800appl.c ****     else
 491:Lib/ssc_app/src/el9800appl.c ****     {
 492:Lib/ssc_app/src/el9800appl.c ****         GPIO_ResetBits(GPIOB, GPIO_Pin_14);
 493:Lib/ssc_app/src/el9800appl.c ****     }
 494:Lib/ssc_app/src/el9800appl.c **** 
 495:Lib/ssc_app/src/el9800appl.c ****     if (sDOOutputs.bLED3 != 0)
 496:Lib/ssc_app/src/el9800appl.c ****     {
 497:Lib/ssc_app/src/el9800appl.c ****         GPIO_SetBits(GPIOB, GPIO_Pin_13);
 498:Lib/ssc_app/src/el9800appl.c ****     }
 499:Lib/ssc_app/src/el9800appl.c ****     else
 500:Lib/ssc_app/src/el9800appl.c ****     {
ARM GAS  /tmp/ccf4hIfb.s 			page 27


 501:Lib/ssc_app/src/el9800appl.c ****         GPIO_ResetBits(GPIOB, GPIO_Pin_13);
 502:Lib/ssc_app/src/el9800appl.c ****     }
 503:Lib/ssc_app/src/el9800appl.c **** 
 504:Lib/ssc_app/src/el9800appl.c ****     Can1_TxMessage.StdId = sDOOutputs.can1_h0;
 505:Lib/ssc_app/src/el9800appl.c ****     Can1_TxMessage.ExtId = sDOOutputs.can1_h1;
 506:Lib/ssc_app/src/el9800appl.c ****     Can1_TxMessage.IDE = sDOOutputs.can1_h2;
 507:Lib/ssc_app/src/el9800appl.c ****     Can1_TxMessage.RTR = sDOOutputs.can1_h3;
 508:Lib/ssc_app/src/el9800appl.c ****     Can1_TxMessage.DLC = sDOOutputs.can1_h4;
 509:Lib/ssc_app/src/el9800appl.c **** 
 510:Lib/ssc_app/src/el9800appl.c ****     Can1_TxMessage.Data[0] = sDOOutputs.can1_d0;
 511:Lib/ssc_app/src/el9800appl.c ****     Can1_TxMessage.Data[1] = sDOOutputs.can1_d1;
 512:Lib/ssc_app/src/el9800appl.c ****     Can1_TxMessage.Data[2] = sDOOutputs.can1_d2;
 513:Lib/ssc_app/src/el9800appl.c ****     Can1_TxMessage.Data[3] = sDOOutputs.can1_d3;
 514:Lib/ssc_app/src/el9800appl.c ****     Can1_TxMessage.Data[4] = sDOOutputs.can1_d4;
 515:Lib/ssc_app/src/el9800appl.c ****     Can1_TxMessage.Data[5] = sDOOutputs.can1_d5;
 516:Lib/ssc_app/src/el9800appl.c ****     Can1_TxMessage.Data[6] = sDOOutputs.can1_d6;
 517:Lib/ssc_app/src/el9800appl.c ****     Can1_TxMessage.Data[7] = sDOOutputs.can1_d7;
 518:Lib/ssc_app/src/el9800appl.c **** 
 519:Lib/ssc_app/src/el9800appl.c ****     CAN_Transmit(CAN1, &Can1_TxMessage);
 520:Lib/ssc_app/src/el9800appl.c **** 
 521:Lib/ssc_app/src/el9800appl.c ****     Can2_TxMessage.StdId = sDOOutputs.can2_h0;
 522:Lib/ssc_app/src/el9800appl.c ****     Can2_TxMessage.ExtId = sDOOutputs.can2_h1;
 523:Lib/ssc_app/src/el9800appl.c ****     Can2_TxMessage.IDE = sDOOutputs.can2_h2;
 524:Lib/ssc_app/src/el9800appl.c ****     Can2_TxMessage.RTR = sDOOutputs.can2_h3;
 525:Lib/ssc_app/src/el9800appl.c ****     Can2_TxMessage.DLC = sDOOutputs.can2_h4;
 526:Lib/ssc_app/src/el9800appl.c **** 
 527:Lib/ssc_app/src/el9800appl.c ****     Can2_TxMessage.Data[0] = sDOOutputs.can2_d0;
 528:Lib/ssc_app/src/el9800appl.c ****     Can2_TxMessage.Data[1] = sDOOutputs.can2_d1;
 529:Lib/ssc_app/src/el9800appl.c ****     Can2_TxMessage.Data[2] = sDOOutputs.can2_d2;
 530:Lib/ssc_app/src/el9800appl.c ****     Can2_TxMessage.Data[3] = sDOOutputs.can2_d3;
 531:Lib/ssc_app/src/el9800appl.c ****     Can2_TxMessage.Data[4] = sDOOutputs.can2_d4;
 532:Lib/ssc_app/src/el9800appl.c ****     Can2_TxMessage.Data[5] = sDOOutputs.can2_d5;
 533:Lib/ssc_app/src/el9800appl.c ****     Can2_TxMessage.Data[6] = sDOOutputs.can2_d6;
 534:Lib/ssc_app/src/el9800appl.c ****     Can2_TxMessage.Data[7] = sDOOutputs.can2_d7;
 535:Lib/ssc_app/src/el9800appl.c **** 
 536:Lib/ssc_app/src/el9800appl.c ****     CAN_Transmit(CAN2, &Can2_TxMessage);
 537:Lib/ssc_app/src/el9800appl.c **** 
 538:Lib/ssc_app/src/el9800appl.c ****     sDIInputs.bSwitch1 = 0;
 539:Lib/ssc_app/src/el9800appl.c ****     sDIInputs.bSwitch2 = 0;
 540:Lib/ssc_app/src/el9800appl.c ****     sDIInputs.bSwitch3 = 0;
 541:Lib/ssc_app/src/el9800appl.c ****     sDIInputs.bSwitch4 = 0;
 542:Lib/ssc_app/src/el9800appl.c ****     sDIInputs.bSwitch5 = 0;
 543:Lib/ssc_app/src/el9800appl.c ****     sDIInputs.bSwitch6 = 0;
 544:Lib/ssc_app/src/el9800appl.c ****     sDIInputs.bSwitch7 = 0;
 545:Lib/ssc_app/src/el9800appl.c ****     sDIInputs.bSwitch8 = 0;
 546:Lib/ssc_app/src/el9800appl.c ****     */
 547:Lib/ssc_app/src/el9800appl.c **** 
 548:Lib/ssc_app/src/el9800appl.c ****     /* start the conversion of the A/D converter */
 549:Lib/ssc_app/src/el9800appl.c ****     //		while(!(ADC_GetFlagStatus(ADC1, ADC_FLAG_EOC)==SET));
 550:Lib/ssc_app/src/el9800appl.c **** 
 551:Lib/ssc_app/src/el9800appl.c ****     /*
 552:Lib/ssc_app/src/el9800appl.c ****     sAIInputs.i16Analoginput = 0;
 553:Lib/ssc_app/src/el9800appl.c **** 
 554:Lib/ssc_app/src/el9800appl.c ****     sAIInputs.can1_h0 = Can1_RxMessage.StdId;
 555:Lib/ssc_app/src/el9800appl.c ****     sAIInputs.can1_h1 = Can1_RxMessage.ExtId;
 556:Lib/ssc_app/src/el9800appl.c ****     sAIInputs.can1_h2 = Can1_RxMessage.IDE;
 557:Lib/ssc_app/src/el9800appl.c ****     sAIInputs.can1_h3 = Can1_RxMessage.RTR;
ARM GAS  /tmp/ccf4hIfb.s 			page 28


 558:Lib/ssc_app/src/el9800appl.c ****     sAIInputs.can1_h4 = Can1_RxMessage.DLC;
 559:Lib/ssc_app/src/el9800appl.c **** 
 560:Lib/ssc_app/src/el9800appl.c ****     sAIInputs.can1_d0 = Can1_RxMessage.Data[0];
 561:Lib/ssc_app/src/el9800appl.c ****     sAIInputs.can1_d1 = Can1_RxMessage.Data[1];
 562:Lib/ssc_app/src/el9800appl.c ****     sAIInputs.can1_d2 = Can1_RxMessage.Data[2];
 563:Lib/ssc_app/src/el9800appl.c ****     sAIInputs.can1_d3 = Can1_RxMessage.Data[3];
 564:Lib/ssc_app/src/el9800appl.c ****     sAIInputs.can1_d4 = Can1_RxMessage.Data[4];
 565:Lib/ssc_app/src/el9800appl.c ****     sAIInputs.can1_d5 = Can1_RxMessage.Data[5];
 566:Lib/ssc_app/src/el9800appl.c ****     sAIInputs.can1_d6 = Can1_RxMessage.Data[6];
 567:Lib/ssc_app/src/el9800appl.c ****     sAIInputs.can1_d7 = Can1_RxMessage.Data[7];
 568:Lib/ssc_app/src/el9800appl.c **** 
 569:Lib/ssc_app/src/el9800appl.c ****     sAIInputs.can2_h0 = Can2_RxMessage.StdId;
 570:Lib/ssc_app/src/el9800appl.c ****     sAIInputs.can2_h1 = Can2_RxMessage.ExtId;
 571:Lib/ssc_app/src/el9800appl.c ****     sAIInputs.can2_h2 = Can2_RxMessage.IDE;
 572:Lib/ssc_app/src/el9800appl.c ****     sAIInputs.can2_h3 = Can2_RxMessage.RTR;
 573:Lib/ssc_app/src/el9800appl.c ****     sAIInputs.can2_h4 = Can2_RxMessage.DLC;
 574:Lib/ssc_app/src/el9800appl.c **** 
 575:Lib/ssc_app/src/el9800appl.c ****     sAIInputs.can2_d0 = Can2_RxMessage.Data[0];
 576:Lib/ssc_app/src/el9800appl.c ****     sAIInputs.can2_d1 = Can2_RxMessage.Data[1];
 577:Lib/ssc_app/src/el9800appl.c ****     sAIInputs.can2_d2 = Can2_RxMessage.Data[2];
 578:Lib/ssc_app/src/el9800appl.c ****     sAIInputs.can2_d3 = Can2_RxMessage.Data[3];
 579:Lib/ssc_app/src/el9800appl.c ****     sAIInputs.can2_d4 = Can2_RxMessage.Data[4];
 580:Lib/ssc_app/src/el9800appl.c ****     sAIInputs.can2_d5 = Can2_RxMessage.Data[5];
 581:Lib/ssc_app/src/el9800appl.c ****     sAIInputs.can2_d6 = Can2_RxMessage.Data[6];
 582:Lib/ssc_app/src/el9800appl.c ****     sAIInputs.can2_d7 = Can2_RxMessage.Data[7];
 583:Lib/ssc_app/src/el9800appl.c ****     */
 584:Lib/ssc_app/src/el9800appl.c **** 
 585:Lib/ssc_app/src/el9800appl.c ****     //modfiy_cmd();
 586:Lib/ssc_app/src/el9800appl.c ****     //unitreeA1_rxtx(&huart1);
 587:Lib/ssc_app/src/el9800appl.c ****     
 588:Lib/ssc_app/src/el9800appl.c **** 
 589:Lib/ssc_app/src/el9800appl.c ****     /* we toggle the TxPDO Toggle after updating the data of the corresponding TxPDO */
 590:Lib/ssc_app/src/el9800appl.c ****     sAIInputs.bTxPDOToggle ^= 1;
 934              		.loc 1 590 5 view .LVU309
 935              		.loc 1 590 28 is_stmt 0 view .LVU310
 936 0000 0C49     		ldr	r1, .L45
 937 0002 CB78     		ldrb	r3, [r1, #3]	@ zero_extendqisi2
 938 0004 C3F3C012 		ubfx	r2, r3, #7, #1
 939 0008 82F00102 		eor	r2, r2, #1
 940 000c 62F3C713 		bfi	r3, r2, #7, #1
 941 0010 CB70     		strb	r3, [r1, #3]
 591:Lib/ssc_app/src/el9800appl.c **** 
 592:Lib/ssc_app/src/el9800appl.c ****     /* we simulate a problem of the analog input, if the Switch4 is on in this example,
 593:Lib/ssc_app/src/el9800appl.c ****        in this case the TxPDO State has to set to indicate the problem to the master */
 594:Lib/ssc_app/src/el9800appl.c ****     if (sDIInputs.bSwitch4)
 942              		.loc 1 594 5 is_stmt 1 view .LVU311
 943              		.loc 1 594 9 is_stmt 0 view .LVU312
 944 0012 094B     		ldr	r3, .L45+4
 945 0014 9B78     		ldrb	r3, [r3, #2]	@ zero_extendqisi2
 946              		.loc 1 594 8 view .LVU313
 947 0016 13F0080F 		tst	r3, #8
 948 001a 04D0     		beq	.L43
 595:Lib/ssc_app/src/el9800appl.c ****         sAIInputs.bTxPDOState = 1;
 949              		.loc 1 595 9 is_stmt 1 view .LVU314
 950              		.loc 1 595 31 is_stmt 0 view .LVU315
 951 001c CB78     		ldrb	r3, [r1, #3]	@ zero_extendqisi2
 952 001e 43F04003 		orr	r3, r3, #64
ARM GAS  /tmp/ccf4hIfb.s 			page 29


 953 0022 CB70     		strb	r3, [r1, #3]
 954 0024 7047     		bx	lr
 955              	.L43:
 596:Lib/ssc_app/src/el9800appl.c ****     else
 597:Lib/ssc_app/src/el9800appl.c ****         sAIInputs.bTxPDOState = 0;
 956              		.loc 1 597 9 is_stmt 1 view .LVU316
 957              		.loc 1 597 31 is_stmt 0 view .LVU317
 958 0026 034B     		ldr	r3, .L45
 959 0028 DA78     		ldrb	r2, [r3, #3]	@ zero_extendqisi2
 960 002a 6FF38612 		bfc	r2, #6, #1
 961 002e DA70     		strb	r2, [r3, #3]
 598:Lib/ssc_app/src/el9800appl.c **** }
 962              		.loc 1 598 1 view .LVU318
 963 0030 7047     		bx	lr
 964              	.L46:
 965 0032 00BF     		.align	2
 966              	.L45:
 967 0034 00000000 		.word	.LANCHOR3
 968 0038 00000000 		.word	.LANCHOR2
 969              		.cfi_endproc
 970              	.LFE144:
 972              		.section	.text.ReadObject0x1802,"ax",%progbits
 973              		.align	1
 974              		.global	ReadObject0x1802
 975              		.syntax unified
 976              		.thumb
 977              		.thumb_func
 979              	ReadObject0x1802:
 980              	.LVL90:
 981              	.LFB145:
 599:Lib/ssc_app/src/el9800appl.c **** 
 600:Lib/ssc_app/src/el9800appl.c **** /////////////////////////////////////////////////////////////////////////////////////////
 601:Lib/ssc_app/src/el9800appl.c **** /**
 602:Lib/ssc_app/src/el9800appl.c ****  \param     index               index of the requested object.
 603:Lib/ssc_app/src/el9800appl.c ****  \param     subindex            subindex of the requested object.
 604:Lib/ssc_app/src/el9800appl.c ****  \param     objSize             size of the requested object data, calculated with OBJ_GetObjectLen
 605:Lib/ssc_app/src/el9800appl.c ****  \param     pData               Pointer to the buffer where the data can be copied to
 606:Lib/ssc_app/src/el9800appl.c ****  \param     bCompleteAccess     Indicates if a complete read of all subindices of the
 607:Lib/ssc_app/src/el9800appl.c ****                                 object shall be done or not
 608:Lib/ssc_app/src/el9800appl.c **** 
 609:Lib/ssc_app/src/el9800appl.c ****  \return    ABORTIDX_XXX
 610:Lib/ssc_app/src/el9800appl.c **** 
 611:Lib/ssc_app/src/el9800appl.c ****  \brief     Handles SDO read requests to TxPDO Parameter
 612:Lib/ssc_app/src/el9800appl.c **** */
 613:Lib/ssc_app/src/el9800appl.c **** ///////////////////////////////////////////////////////////////////////////////////////
 614:Lib/ssc_app/src/el9800appl.c **** UINT8 ReadObject0x1802(UINT16 index, UINT8 subindex, UINT32 dataSize, UINT16 MBXMEM *pData, UINT8 b
 615:Lib/ssc_app/src/el9800appl.c **** {
 982              		.loc 1 615 1 is_stmt 1 view -0
 983              		.cfi_startproc
 984              		@ args = 4, pretend = 0, frame = 0
 985              		@ frame_needed = 0, uses_anonymous_args = 0
 986              		.loc 1 615 1 is_stmt 0 view .LVU320
 987 0000 10B5     		push	{r4, lr}
 988              		.cfi_def_cfa_offset 8
 989              		.cfi_offset 4, -8
 990              		.cfi_offset 14, -4
 991 0002 9DF80840 		ldrb	r4, [sp, #8]	@ zero_extendqisi2
ARM GAS  /tmp/ccf4hIfb.s 			page 30


 616:Lib/ssc_app/src/el9800appl.c **** 
 617:Lib/ssc_app/src/el9800appl.c ****     if (bCompleteAccess)
 992              		.loc 1 617 5 is_stmt 1 view .LVU321
 993              		.loc 1 617 8 is_stmt 0 view .LVU322
 994 0006 34BB     		cbnz	r4, .L52
 618:Lib/ssc_app/src/el9800appl.c ****         return ABORTIDX_UNSUPPORTED_ACCESS;
 619:Lib/ssc_app/src/el9800appl.c **** 
 620:Lib/ssc_app/src/el9800appl.c ****     if (subindex == 0)
 995              		.loc 1 620 5 is_stmt 1 view .LVU323
 996              		.loc 1 620 8 is_stmt 0 view .LVU324
 997 0008 21B9     		cbnz	r1, .L49
 621:Lib/ssc_app/src/el9800appl.c ****     {
 622:Lib/ssc_app/src/el9800appl.c ****         *pData = TxPDO1802Subindex0;
 998              		.loc 1 622 9 is_stmt 1 view .LVU325
 999              		.loc 1 622 16 is_stmt 0 view .LVU326
 1000 000a 154A     		ldr	r2, .L59
 1001              	.LVL91:
 1002              		.loc 1 622 16 view .LVU327
 1003 000c 1288     		ldrh	r2, [r2]
 1004 000e 1A80     		strh	r2, [r3]	@ movhi
 623:Lib/ssc_app/src/el9800appl.c ****     }
 624:Lib/ssc_app/src/el9800appl.c ****     else if (subindex == 6)
 625:Lib/ssc_app/src/el9800appl.c ****     {
 626:Lib/ssc_app/src/el9800appl.c ****         /*clear destination buffer (no excluded TxPDO set)*/
 627:Lib/ssc_app/src/el9800appl.c ****         if (dataSize > 0)
 628:Lib/ssc_app/src/el9800appl.c ****             MBXMEMSET(pData, 0x00, dataSize);
 629:Lib/ssc_app/src/el9800appl.c ****     }
 630:Lib/ssc_app/src/el9800appl.c ****     else if (subindex == 7)
 631:Lib/ssc_app/src/el9800appl.c ****     {
 632:Lib/ssc_app/src/el9800appl.c ****         /*min size is one Byte*/
 633:Lib/ssc_app/src/el9800appl.c ****         UINT8 *pu8Data = (UINT8 *)pData;
 634:Lib/ssc_app/src/el9800appl.c **** 
 635:Lib/ssc_app/src/el9800appl.c ****         // Reset Buffer
 636:Lib/ssc_app/src/el9800appl.c ****         *pu8Data = 0;
 637:Lib/ssc_app/src/el9800appl.c **** 
 638:Lib/ssc_app/src/el9800appl.c ****         *pu8Data = sAIInputs.bTxPDOState;
 639:Lib/ssc_app/src/el9800appl.c ****     }
 640:Lib/ssc_app/src/el9800appl.c ****     else if (subindex == 9)
 641:Lib/ssc_app/src/el9800appl.c ****     {
 642:Lib/ssc_app/src/el9800appl.c ****         /*min size is one Byte*/
 643:Lib/ssc_app/src/el9800appl.c ****         UINT8 *pu8Data = (UINT8 *)pData;
 644:Lib/ssc_app/src/el9800appl.c **** 
 645:Lib/ssc_app/src/el9800appl.c ****         // Reset Buffer
 646:Lib/ssc_app/src/el9800appl.c ****         *pu8Data = 0;
 647:Lib/ssc_app/src/el9800appl.c **** 
 648:Lib/ssc_app/src/el9800appl.c ****         *pu8Data = sAIInputs.bTxPDOToggle;
 649:Lib/ssc_app/src/el9800appl.c ****     }
 650:Lib/ssc_app/src/el9800appl.c ****     else
 651:Lib/ssc_app/src/el9800appl.c ****         return ABORTIDX_SUBINDEX_NOT_EXISTING;
 652:Lib/ssc_app/src/el9800appl.c **** 
 653:Lib/ssc_app/src/el9800appl.c ****     return 0;
 1005              		.loc 1 653 12 view .LVU328
 1006 0010 0846     		mov	r0, r1
 1007              	.LVL92:
 1008              	.L48:
 654:Lib/ssc_app/src/el9800appl.c **** }
 1009              		.loc 1 654 1 view .LVU329
ARM GAS  /tmp/ccf4hIfb.s 			page 31


 1010 0012 10BD     		pop	{r4, pc}
 1011              	.LVL93:
 1012              	.L49:
 624:Lib/ssc_app/src/el9800appl.c ****     {
 1013              		.loc 1 624 10 is_stmt 1 view .LVU330
 624:Lib/ssc_app/src/el9800appl.c ****     {
 1014              		.loc 1 624 13 is_stmt 0 view .LVU331
 1015 0014 0629     		cmp	r1, #6
 1016 0016 0CD0     		beq	.L56
 630:Lib/ssc_app/src/el9800appl.c ****     {
 1017              		.loc 1 630 10 is_stmt 1 view .LVU332
 630:Lib/ssc_app/src/el9800appl.c ****     {
 1018              		.loc 1 630 13 is_stmt 0 view .LVU333
 1019 0018 0729     		cmp	r1, #7
 1020 001a 13D0     		beq	.L57
 640:Lib/ssc_app/src/el9800appl.c ****     {
 1021              		.loc 1 640 10 is_stmt 1 view .LVU334
 640:Lib/ssc_app/src/el9800appl.c ****     {
 1022              		.loc 1 640 13 is_stmt 0 view .LVU335
 1023 001c 0929     		cmp	r1, #9
 1024 001e 1CD1     		bne	.L54
 1025              	.LBB2:
 643:Lib/ssc_app/src/el9800appl.c **** 
 1026              		.loc 1 643 9 is_stmt 1 view .LVU336
 1027              	.LVL94:
 646:Lib/ssc_app/src/el9800appl.c **** 
 1028              		.loc 1 646 9 view .LVU337
 646:Lib/ssc_app/src/el9800appl.c **** 
 1029              		.loc 1 646 18 is_stmt 0 view .LVU338
 1030 0020 0022     		movs	r2, #0
 1031              	.LVL95:
 646:Lib/ssc_app/src/el9800appl.c **** 
 1032              		.loc 1 646 18 view .LVU339
 1033 0022 1A70     		strb	r2, [r3]
 648:Lib/ssc_app/src/el9800appl.c ****     }
 1034              		.loc 1 648 9 is_stmt 1 view .LVU340
 648:Lib/ssc_app/src/el9800appl.c ****     }
 1035              		.loc 1 648 29 is_stmt 0 view .LVU341
 1036 0024 0F4A     		ldr	r2, .L59+4
 1037 0026 D278     		ldrb	r2, [r2, #3]	@ zero_extendqisi2
 1038 0028 C2F3C012 		ubfx	r2, r2, #7, #1
 648:Lib/ssc_app/src/el9800appl.c ****     }
 1039              		.loc 1 648 18 view .LVU342
 1040 002c 1A70     		strb	r2, [r3]
 1041              	.LBE2:
 653:Lib/ssc_app/src/el9800appl.c **** }
 1042              		.loc 1 653 12 view .LVU343
 1043 002e 2046     		mov	r0, r4
 1044              	.LVL96:
 653:Lib/ssc_app/src/el9800appl.c **** }
 1045              		.loc 1 653 12 view .LVU344
 1046 0030 EFE7     		b	.L48
 1047              	.LVL97:
 1048              	.L56:
 627:Lib/ssc_app/src/el9800appl.c ****             MBXMEMSET(pData, 0x00, dataSize);
 1049              		.loc 1 627 9 is_stmt 1 view .LVU345
 627:Lib/ssc_app/src/el9800appl.c ****             MBXMEMSET(pData, 0x00, dataSize);
ARM GAS  /tmp/ccf4hIfb.s 			page 32


 1050              		.loc 1 627 12 is_stmt 0 view .LVU346
 1051 0032 0AB9     		cbnz	r2, .L58
 653:Lib/ssc_app/src/el9800appl.c **** }
 1052              		.loc 1 653 12 view .LVU347
 1053 0034 2046     		mov	r0, r4
 1054              	.LVL98:
 653:Lib/ssc_app/src/el9800appl.c **** }
 1055              		.loc 1 653 12 view .LVU348
 1056 0036 ECE7     		b	.L48
 1057              	.LVL99:
 1058              	.L58:
 628:Lib/ssc_app/src/el9800appl.c ****     }
 1059              		.loc 1 628 13 is_stmt 1 view .LVU349
 1060 0038 0021     		movs	r1, #0
 1061              	.LVL100:
 628:Lib/ssc_app/src/el9800appl.c ****     }
 1062              		.loc 1 628 13 is_stmt 0 view .LVU350
 1063 003a 1846     		mov	r0, r3
 1064              	.LVL101:
 628:Lib/ssc_app/src/el9800appl.c ****     }
 1065              		.loc 1 628 13 view .LVU351
 1066 003c FFF7FEFF 		bl	memset
 1067              	.LVL102:
 653:Lib/ssc_app/src/el9800appl.c **** }
 1068              		.loc 1 653 12 view .LVU352
 1069 0040 2046     		mov	r0, r4
 1070 0042 E6E7     		b	.L48
 1071              	.LVL103:
 1072              	.L57:
 1073              	.LBB3:
 633:Lib/ssc_app/src/el9800appl.c **** 
 1074              		.loc 1 633 9 is_stmt 1 view .LVU353
 636:Lib/ssc_app/src/el9800appl.c **** 
 1075              		.loc 1 636 9 view .LVU354
 636:Lib/ssc_app/src/el9800appl.c **** 
 1076              		.loc 1 636 18 is_stmt 0 view .LVU355
 1077 0044 0022     		movs	r2, #0
 1078              	.LVL104:
 636:Lib/ssc_app/src/el9800appl.c **** 
 1079              		.loc 1 636 18 view .LVU356
 1080 0046 1A70     		strb	r2, [r3]
 638:Lib/ssc_app/src/el9800appl.c ****     }
 1081              		.loc 1 638 9 is_stmt 1 view .LVU357
 638:Lib/ssc_app/src/el9800appl.c ****     }
 1082              		.loc 1 638 29 is_stmt 0 view .LVU358
 1083 0048 064A     		ldr	r2, .L59+4
 1084 004a D278     		ldrb	r2, [r2, #3]	@ zero_extendqisi2
 1085 004c C2F38012 		ubfx	r2, r2, #6, #1
 638:Lib/ssc_app/src/el9800appl.c ****     }
 1086              		.loc 1 638 18 view .LVU359
 1087 0050 1A70     		strb	r2, [r3]
 1088              	.LBE3:
 653:Lib/ssc_app/src/el9800appl.c **** }
 1089              		.loc 1 653 12 view .LVU360
 1090 0052 2046     		mov	r0, r4
 1091              	.LVL105:
 653:Lib/ssc_app/src/el9800appl.c **** }
ARM GAS  /tmp/ccf4hIfb.s 			page 33


 1092              		.loc 1 653 12 view .LVU361
 1093 0054 DDE7     		b	.L48
 1094              	.LVL106:
 1095              	.L52:
 618:Lib/ssc_app/src/el9800appl.c **** 
 1096              		.loc 1 618 16 view .LVU362
 1097 0056 0520     		movs	r0, #5
 1098              	.LVL107:
 618:Lib/ssc_app/src/el9800appl.c **** 
 1099              		.loc 1 618 16 view .LVU363
 1100 0058 DBE7     		b	.L48
 1101              	.LVL108:
 1102              	.L54:
 651:Lib/ssc_app/src/el9800appl.c **** 
 1103              		.loc 1 651 16 view .LVU364
 1104 005a 1120     		movs	r0, #17
 1105              	.LVL109:
 651:Lib/ssc_app/src/el9800appl.c **** 
 1106              		.loc 1 651 16 view .LVU365
 1107 005c D9E7     		b	.L48
 1108              	.L60:
 1109 005e 00BF     		.align	2
 1110              	.L59:
 1111 0060 00000000 		.word	.LANCHOR5
 1112 0064 00000000 		.word	.LANCHOR3
 1113              		.cfi_endproc
 1114              	.LFE145:
 1116              		.global	times
 1117              		.global	sModulelist
 1118              		.global	sModulardeviceprofile
 1119              		.global	sAISettings
 1120              		.global	sDOOutputs
 1121              		.global	sAIInputs
 1122              		.global	sDIInputs
 1123              		.global	sTxPDOassign
 1124              		.global	sRxPDOassign
 1125              		.global	sAITxPDOMap
 1126              		.global	sDITxPDOMap
 1127              		.global	TxPDO1802Subindex0
 1128              		.global	sDORxPDOMap
 1129              		.section	.data.TxPDO1802Subindex0,"aw"
 1130              		.align	1
 1131              		.set	.LANCHOR5,. + 0
 1134              	TxPDO1802Subindex0:
 1135 0000 0900     		.short	9
 1136              		.section	.data.sAIInputs,"aw"
 1137              		.align	2
 1138              		.set	.LANCHOR3,. + 0
 1141              	sAIInputs:
 1142 0000 3400     		.short	52
 1143 0002 00       		.byte	0
 1144 0003 00       		.byte	0
 1145 0004 FF7F     		.short	32767
 1146 0006 0000     		.short	0
 1147 0008 00       		.byte	0
 1148 0009 00       		.byte	0
 1149 000a 00       		.byte	0
ARM GAS  /tmp/ccf4hIfb.s 			page 34


 1150 000b 00       		.byte	0
 1151 000c 00       		.byte	0
 1152 000d 00       		.byte	0
 1153 000e 00       		.byte	0
 1154 000f 00       		.byte	0
 1155 0010 00       		.byte	0
 1156 0011 00       		.byte	0
 1157 0012 00       		.byte	0
 1158 0013 00       		.byte	0
 1159 0014 0000     		.short	0
 1160 0016 00       		.byte	0
 1161 0017 00       		.byte	0
 1162 0018 00       		.byte	0
 1163 0019 00       		.byte	0
 1164 001a 00       		.byte	0
 1165 001b 00       		.byte	0
 1166 001c 00       		.byte	0
 1167 001d 00       		.byte	0
 1168 001e 00       		.byte	0
 1169 001f 00       		.byte	0
 1170 0020 00       		.byte	0
 1171 0021 00       		.byte	0
 1172 0022 00       		.byte	0
 1173 0023 00       		.byte	0
 1174 0024 0000     		.short	0
 1175 0026 0000     		.short	0
 1176 0028 00000000 		.word	0
 1177 002c 00000000 		.word	0
 1178 0030 00000000 		.word	0
 1179 0034 00000000 		.word	0
 1180 0038 0000     		.short	0
 1181 003a 0000     		.space	2
 1182              		.section	.data.sAISettings,"aw"
 1183              		.align	2
 1186              	sAISettings:
 1187 0000 1400     		.short	20
 1188 0002 00       		.byte	0
 1189 0003 00       		.byte	0
 1190 0004 0000     		.short	0
 1191 0006 0000     		.space	2
 1192 0008 00000000 		.word	0
 1193 000c 0000     		.short	0
 1194 000e 0000     		.short	0
 1195              		.section	.data.sAITxPDOMap,"aw"
 1196              		.align	2
 1199              	sAITxPDOMap:
 1200 0000 2B00     		.short	43
 1201 0002 0000     		.space	2
 1202 0004 01012060 		.word	1612710145
 1203 0008 01022060 		.word	1612710401
 1204 000c 02032060 		.word	1612710658
 1205 0010 02052060 		.word	1612711170
 1206 0014 08000000 		.word	8
 1207 0018 01070218 		.word	402786049
 1208 001c 01090218 		.word	402786561
 1209 0020 10112060 		.word	1612714256
 1210 0024 10122060 		.word	1612714512
ARM GAS  /tmp/ccf4hIfb.s 			page 35


 1211 0028 08132060 		.word	1612714760
 1212 002c 08142060 		.word	1612715016
 1213 0030 08152060 		.word	1612715272
 1214 0034 08162060 		.word	1612715528
 1215 0038 08172060 		.word	1612715784
 1216 003c 08182060 		.word	1612716040
 1217 0040 08192060 		.word	1612716296
 1218 0044 08202060 		.word	1612718088
 1219 0048 08212060 		.word	1612718344
 1220 004c 08222060 		.word	1612718600
 1221 0050 08232060 		.word	1612718856
 1222 0054 08242060 		.word	1612719112
 1223 0058 10252060 		.word	1612719376
 1224 005c 08262060 		.word	1612719624
 1225 0060 08272060 		.word	1612719880
 1226 0064 08282060 		.word	1612720136
 1227 0068 08292060 		.word	1612720392
 1228 006c 08302060 		.word	1612722184
 1229 0070 08312060 		.word	1612722440
 1230 0074 08322060 		.word	1612722696
 1231 0078 08332060 		.word	1612722952
 1232 007c 08342060 		.word	1612723208
 1233 0080 08352060 		.word	1612723464
 1234 0084 08362060 		.word	1612723720
 1235 0088 08372060 		.word	1612723976
 1236 008c 08382060 		.word	1612724232
 1237 0090 08392060 		.word	1612724488
 1238 0094 10402060 		.word	1612726288
 1239 0098 10412060 		.word	1612726544
 1240 009c 20422060 		.word	1612726816
 1241 00a0 20432060 		.word	1612727072
 1242 00a4 20442060 		.word	1612727328
 1243 00a8 20452060 		.word	1612727584
 1244 00ac 10462060 		.word	1612727824
 1245              		.section	.data.sDIInputs,"aw"
 1246              		.align	2
 1247              		.set	.LANCHOR2,. + 0
 1250              	sDIInputs:
 1251 0000 0800     		.short	8
 1252 0002 00       		.byte	0
 1253 0003 00       		.byte	0
 1254              		.section	.data.sDITxPDOMap,"aw"
 1255              		.align	2
 1258              	sDITxPDOMap:
 1259 0000 0900     		.short	9
 1260 0002 0000     		.space	2
 1261 0004 01010060 		.word	1610612993
 1262 0008 01020060 		.word	1610613249
 1263 000c 01030060 		.word	1610613505
 1264 0010 01040060 		.word	1610613761
 1265 0014 01050060 		.word	1610614017
 1266 0018 01060060 		.word	1610614273
 1267 001c 01070060 		.word	1610614529
 1268 0020 01080060 		.word	1610614785
 1269 0024 08000000 		.word	8
 1270              		.section	.data.sDOOutputs,"aw"
 1271              		.align	2
ARM GAS  /tmp/ccf4hIfb.s 			page 36


 1272              		.set	.LANCHOR4,. + 0
 1275              	sDOOutputs:
 1276 0000 2300     		.short	35
 1277 0002 00       		.byte	0
 1278 0003 00       		.space	1
 1279 0004 0000     		.short	0
 1280 0006 00       		.byte	0
 1281 0007 00       		.byte	0
 1282 0008 00       		.byte	0
 1283 0009 00       		.byte	0
 1284 000a 00       		.byte	0
 1285 000b 00       		.byte	0
 1286 000c 00       		.byte	0
 1287 000d 00       		.byte	0
 1288 000e 00       		.byte	0
 1289 000f 00       		.byte	0
 1290 0010 00       		.byte	0
 1291 0011 00       		.byte	0
 1292 0012 0000     		.short	0
 1293 0014 00       		.byte	0
 1294 0015 00       		.byte	0
 1295 0016 00       		.byte	0
 1296 0017 00       		.byte	0
 1297 0018 00       		.byte	0
 1298 0019 00       		.byte	0
 1299 001a 00       		.byte	0
 1300 001b 00       		.byte	0
 1301 001c 00       		.byte	0
 1302 001d 00       		.byte	0
 1303 001e 00       		.byte	0
 1304 001f 00       		.byte	0
 1305 0020 00       		.byte	0
 1306 0021 00       		.space	1
 1307              		.section	.data.sDORxPDOMap,"aw"
 1308              		.align	2
 1311              	sDORxPDOMap:
 1312 0000 2300     		.short	35
 1313 0002 0000     		.space	2
 1314 0004 01011070 		.word	1880097025
 1315 0008 01021070 		.word	1880097281
 1316 000c 01031070 		.word	1880097537
 1317 0010 01041070 		.word	1880097793
 1318 0014 01051070 		.word	1880098049
 1319 0018 01061070 		.word	1880098305
 1320 001c 01071070 		.word	1880098561
 1321 0020 01081070 		.word	1880098817
 1322 0024 10091070 		.word	1880099088
 1323 0028 08101070 		.word	1880100872
 1324 002c 08111070 		.word	1880101128
 1325 0030 08121070 		.word	1880101384
 1326 0034 08131070 		.word	1880101640
 1327 0038 08141070 		.word	1880101896
 1328 003c 08151070 		.word	1880102152
 1329 0040 08161070 		.word	1880102408
 1330 0044 08171070 		.word	1880102664
 1331 0048 08181070 		.word	1880102920
 1332 004c 08191070 		.word	1880103176
ARM GAS  /tmp/ccf4hIfb.s 			page 37


 1333 0050 08201070 		.word	1880104968
 1334 0054 08211070 		.word	1880105224
 1335 0058 10221070 		.word	1880105488
 1336 005c 08231070 		.word	1880105736
 1337 0060 08241070 		.word	1880105992
 1338 0064 08251070 		.word	1880106248
 1339 0068 08261070 		.word	1880106504
 1340 006c 08271070 		.word	1880106760
 1341 0070 08281070 		.word	1880107016
 1342 0074 08291070 		.word	1880107272
 1343 0078 08301070 		.word	1880109064
 1344 007c 08311070 		.word	1880109320
 1345 0080 08321070 		.word	1880109576
 1346 0084 08331070 		.word	1880109832
 1347 0088 08341070 		.word	1880110088
 1348 008c 08341070 		.word	1880110088
 1349              		.section	.data.sModulardeviceprofile,"aw"
 1350              		.align	2
 1353              	sModulardeviceprofile:
 1354 0000 0200     		.short	2
 1355 0002 1000     		.short	16
 1356 0004 0300     		.short	3
 1357              		.section	.data.sModulelist,"aw"
 1358              		.align	2
 1361              	sModulelist:
 1362 0000 0300     		.short	3
 1363 0002 0000     		.space	2
 1364 0004 64000000 		.word	100
 1365 0008 C8000000 		.word	200
 1366 000c 2C010000 		.word	300
 1367              		.section	.data.sRxPDOassign,"aw"
 1368              		.align	2
 1369              		.set	.LANCHOR0,. + 0
 1372              	sRxPDOassign:
 1373 0000 0100     		.short	1
 1374 0002 0116     		.short	5633
 1375              		.section	.data.sTxPDOassign,"aw"
 1376              		.align	2
 1377              		.set	.LANCHOR1,. + 0
 1380              	sTxPDOassign:
 1381 0000 0200     		.short	2
 1382 0002 001A     		.short	6656
 1383 0004 021A     		.short	6658
 1384              		.section	.data.times,"aw"
 1385              		.align	2
 1388              	times:
 1389 0000 00000001 		.word	16777216
 1390              		.text
 1391              	.Letext0:
 1392              		.file 2 "/usr/share/gcc-arm-none-eabi-10.3-2021.10/arm-none-eabi/include/machine/_default_types.h"
 1393              		.file 3 "/usr/share/gcc-arm-none-eabi-10.3-2021.10/arm-none-eabi/include/sys/_stdint.h"
 1394              		.file 4 "Lib/ssc/include/sdoserv.h"
 1395              		.file 5 "Lib/ssc/include/objdef.h"
 1396              		.file 6 "Lib/ssc_app/include/el9800appl.h"
 1397              		.file 7 "<built-in>"
ARM GAS  /tmp/ccf4hIfb.s 			page 38

