ARM GAS  /tmp/ccUpCQGL.s 			page 1


   1              		.cpu cortex-m4
   2              		.arch armv7e-m
   3              		.fpu fpv4-sp-d16
   4              		.eabi_attribute 27, 1
   5              		.eabi_attribute 28, 1
   6              		.eabi_attribute 20, 1
   7              		.eabi_attribute 21, 1
   8              		.eabi_attribute 23, 3
   9              		.eabi_attribute 24, 1
  10              		.eabi_attribute 25, 1
  11              		.eabi_attribute 26, 1
  12              		.eabi_attribute 30, 1
  13              		.eabi_attribute 34, 1
  14              		.eabi_attribute 18, 4
  15              		.file	"stm32f4xx_hal_gpio.c"
  16              		.text
  17              	.Ltext0:
  18              		.cfi_sections	.debug_frame
  19              		.section	.text.HAL_GPIO_Init,"ax",%progbits
  20              		.align	1
  21              		.global	HAL_GPIO_Init
  22              		.syntax unified
  23              		.thumb
  24              		.thumb_func
  26              	HAL_GPIO_Init:
  27              	.LVL0:
  28              	.LFB134:
  29              		.file 1 "Drivers/STM32F4xx_HAL_Driver/Src/stm32f4xx_hal_gpio.c"
   1:Drivers/STM32F4xx_HAL_Driver/Src/stm32f4xx_hal_gpio.c **** /**
   2:Drivers/STM32F4xx_HAL_Driver/Src/stm32f4xx_hal_gpio.c ****   ******************************************************************************
   3:Drivers/STM32F4xx_HAL_Driver/Src/stm32f4xx_hal_gpio.c ****   * @file    stm32f4xx_hal_gpio.c
   4:Drivers/STM32F4xx_HAL_Driver/Src/stm32f4xx_hal_gpio.c ****   * @author  MCD Application Team
   5:Drivers/STM32F4xx_HAL_Driver/Src/stm32f4xx_hal_gpio.c ****   * @brief   GPIO HAL module driver.
   6:Drivers/STM32F4xx_HAL_Driver/Src/stm32f4xx_hal_gpio.c ****   *          This file provides firmware functions to manage the following 
   7:Drivers/STM32F4xx_HAL_Driver/Src/stm32f4xx_hal_gpio.c ****   *          functionalities of the General Purpose Input/Output (GPIO) peripheral:
   8:Drivers/STM32F4xx_HAL_Driver/Src/stm32f4xx_hal_gpio.c ****   *           + Initialization and de-initialization functions
   9:Drivers/STM32F4xx_HAL_Driver/Src/stm32f4xx_hal_gpio.c ****   *           + IO operation functions
  10:Drivers/STM32F4xx_HAL_Driver/Src/stm32f4xx_hal_gpio.c ****   *
  11:Drivers/STM32F4xx_HAL_Driver/Src/stm32f4xx_hal_gpio.c ****   ******************************************************************************
  12:Drivers/STM32F4xx_HAL_Driver/Src/stm32f4xx_hal_gpio.c ****   * @attention
  13:Drivers/STM32F4xx_HAL_Driver/Src/stm32f4xx_hal_gpio.c ****   *
  14:Drivers/STM32F4xx_HAL_Driver/Src/stm32f4xx_hal_gpio.c ****   * Copyright (c) 2017 STMicroelectronics.
  15:Drivers/STM32F4xx_HAL_Driver/Src/stm32f4xx_hal_gpio.c ****   * All rights reserved.
  16:Drivers/STM32F4xx_HAL_Driver/Src/stm32f4xx_hal_gpio.c ****   *
  17:Drivers/STM32F4xx_HAL_Driver/Src/stm32f4xx_hal_gpio.c ****   * This software is licensed under terms that can be found in the LICENSE file
  18:Drivers/STM32F4xx_HAL_Driver/Src/stm32f4xx_hal_gpio.c ****   * in the root directory of this software component.
  19:Drivers/STM32F4xx_HAL_Driver/Src/stm32f4xx_hal_gpio.c ****   * If no LICENSE file comes with this software, it is provided AS-IS.
  20:Drivers/STM32F4xx_HAL_Driver/Src/stm32f4xx_hal_gpio.c ****   *
  21:Drivers/STM32F4xx_HAL_Driver/Src/stm32f4xx_hal_gpio.c ****   ******************************************************************************
  22:Drivers/STM32F4xx_HAL_Driver/Src/stm32f4xx_hal_gpio.c ****   @verbatim
  23:Drivers/STM32F4xx_HAL_Driver/Src/stm32f4xx_hal_gpio.c ****   ==============================================================================
  24:Drivers/STM32F4xx_HAL_Driver/Src/stm32f4xx_hal_gpio.c ****                     ##### GPIO Peripheral features #####
  25:Drivers/STM32F4xx_HAL_Driver/Src/stm32f4xx_hal_gpio.c ****   ==============================================================================
  26:Drivers/STM32F4xx_HAL_Driver/Src/stm32f4xx_hal_gpio.c ****   [..] 
  27:Drivers/STM32F4xx_HAL_Driver/Src/stm32f4xx_hal_gpio.c ****   Subject to the specific hardware characteristics of each I/O port listed in the datasheet, each
  28:Drivers/STM32F4xx_HAL_Driver/Src/stm32f4xx_hal_gpio.c ****   port bit of the General Purpose IO (GPIO) Ports, can be individually configured by software
  29:Drivers/STM32F4xx_HAL_Driver/Src/stm32f4xx_hal_gpio.c ****   in several modes:
ARM GAS  /tmp/ccUpCQGL.s 			page 2


  30:Drivers/STM32F4xx_HAL_Driver/Src/stm32f4xx_hal_gpio.c ****   (+) Input mode 
  31:Drivers/STM32F4xx_HAL_Driver/Src/stm32f4xx_hal_gpio.c ****   (+) Analog mode
  32:Drivers/STM32F4xx_HAL_Driver/Src/stm32f4xx_hal_gpio.c ****   (+) Output mode
  33:Drivers/STM32F4xx_HAL_Driver/Src/stm32f4xx_hal_gpio.c ****   (+) Alternate function mode
  34:Drivers/STM32F4xx_HAL_Driver/Src/stm32f4xx_hal_gpio.c ****   (+) External interrupt/event lines
  35:Drivers/STM32F4xx_HAL_Driver/Src/stm32f4xx_hal_gpio.c **** 
  36:Drivers/STM32F4xx_HAL_Driver/Src/stm32f4xx_hal_gpio.c ****   [..]  
  37:Drivers/STM32F4xx_HAL_Driver/Src/stm32f4xx_hal_gpio.c ****   During and just after reset, the alternate functions and external interrupt  
  38:Drivers/STM32F4xx_HAL_Driver/Src/stm32f4xx_hal_gpio.c ****   lines are not active and the I/O ports are configured in input floating mode.
  39:Drivers/STM32F4xx_HAL_Driver/Src/stm32f4xx_hal_gpio.c ****   
  40:Drivers/STM32F4xx_HAL_Driver/Src/stm32f4xx_hal_gpio.c ****   [..]   
  41:Drivers/STM32F4xx_HAL_Driver/Src/stm32f4xx_hal_gpio.c ****   All GPIO pins have weak internal pull-up and pull-down resistors, which can be 
  42:Drivers/STM32F4xx_HAL_Driver/Src/stm32f4xx_hal_gpio.c ****   activated or not.
  43:Drivers/STM32F4xx_HAL_Driver/Src/stm32f4xx_hal_gpio.c **** 
  44:Drivers/STM32F4xx_HAL_Driver/Src/stm32f4xx_hal_gpio.c ****   [..]
  45:Drivers/STM32F4xx_HAL_Driver/Src/stm32f4xx_hal_gpio.c ****   In Output or Alternate mode, each IO can be configured on open-drain or push-pull
  46:Drivers/STM32F4xx_HAL_Driver/Src/stm32f4xx_hal_gpio.c ****   type and the IO speed can be selected depending on the VDD value.
  47:Drivers/STM32F4xx_HAL_Driver/Src/stm32f4xx_hal_gpio.c **** 
  48:Drivers/STM32F4xx_HAL_Driver/Src/stm32f4xx_hal_gpio.c ****   [..]  
  49:Drivers/STM32F4xx_HAL_Driver/Src/stm32f4xx_hal_gpio.c ****   All ports have external interrupt/event capability. To use external interrupt 
  50:Drivers/STM32F4xx_HAL_Driver/Src/stm32f4xx_hal_gpio.c ****   lines, the port must be configured in input mode. All available GPIO pins are 
  51:Drivers/STM32F4xx_HAL_Driver/Src/stm32f4xx_hal_gpio.c ****   connected to the 16 external interrupt/event lines from EXTI0 to EXTI15.
  52:Drivers/STM32F4xx_HAL_Driver/Src/stm32f4xx_hal_gpio.c ****   
  53:Drivers/STM32F4xx_HAL_Driver/Src/stm32f4xx_hal_gpio.c ****   [..]
  54:Drivers/STM32F4xx_HAL_Driver/Src/stm32f4xx_hal_gpio.c ****   The external interrupt/event controller consists of up to 23 edge detectors 
  55:Drivers/STM32F4xx_HAL_Driver/Src/stm32f4xx_hal_gpio.c ****   (16 lines are connected to GPIO) for generating event/interrupt requests (each 
  56:Drivers/STM32F4xx_HAL_Driver/Src/stm32f4xx_hal_gpio.c ****   input line can be independently configured to select the type (interrupt or event) 
  57:Drivers/STM32F4xx_HAL_Driver/Src/stm32f4xx_hal_gpio.c ****   and the corresponding trigger event (rising or falling or both). Each line can 
  58:Drivers/STM32F4xx_HAL_Driver/Src/stm32f4xx_hal_gpio.c ****   also be masked independently. 
  59:Drivers/STM32F4xx_HAL_Driver/Src/stm32f4xx_hal_gpio.c **** 
  60:Drivers/STM32F4xx_HAL_Driver/Src/stm32f4xx_hal_gpio.c ****                      ##### How to use this driver #####
  61:Drivers/STM32F4xx_HAL_Driver/Src/stm32f4xx_hal_gpio.c ****   ==============================================================================  
  62:Drivers/STM32F4xx_HAL_Driver/Src/stm32f4xx_hal_gpio.c ****   [..]
  63:Drivers/STM32F4xx_HAL_Driver/Src/stm32f4xx_hal_gpio.c ****     (#) Enable the GPIO AHB clock using the following function: __HAL_RCC_GPIOx_CLK_ENABLE(). 
  64:Drivers/STM32F4xx_HAL_Driver/Src/stm32f4xx_hal_gpio.c **** 
  65:Drivers/STM32F4xx_HAL_Driver/Src/stm32f4xx_hal_gpio.c ****     (#) Configure the GPIO pin(s) using HAL_GPIO_Init().
  66:Drivers/STM32F4xx_HAL_Driver/Src/stm32f4xx_hal_gpio.c ****         (++) Configure the IO mode using "Mode" member from GPIO_InitTypeDef structure
  67:Drivers/STM32F4xx_HAL_Driver/Src/stm32f4xx_hal_gpio.c ****         (++) Activate Pull-up, Pull-down resistor using "Pull" member from GPIO_InitTypeDef 
  68:Drivers/STM32F4xx_HAL_Driver/Src/stm32f4xx_hal_gpio.c ****              structure.
  69:Drivers/STM32F4xx_HAL_Driver/Src/stm32f4xx_hal_gpio.c ****         (++) In case of Output or alternate function mode selection: the speed is 
  70:Drivers/STM32F4xx_HAL_Driver/Src/stm32f4xx_hal_gpio.c ****              configured through "Speed" member from GPIO_InitTypeDef structure.
  71:Drivers/STM32F4xx_HAL_Driver/Src/stm32f4xx_hal_gpio.c ****         (++) In alternate mode is selection, the alternate function connected to the IO
  72:Drivers/STM32F4xx_HAL_Driver/Src/stm32f4xx_hal_gpio.c ****              is configured through "Alternate" member from GPIO_InitTypeDef structure.
  73:Drivers/STM32F4xx_HAL_Driver/Src/stm32f4xx_hal_gpio.c ****         (++) Analog mode is required when a pin is to be used as ADC channel 
  74:Drivers/STM32F4xx_HAL_Driver/Src/stm32f4xx_hal_gpio.c ****              or DAC output.
  75:Drivers/STM32F4xx_HAL_Driver/Src/stm32f4xx_hal_gpio.c ****         (++) In case of external interrupt/event selection the "Mode" member from 
  76:Drivers/STM32F4xx_HAL_Driver/Src/stm32f4xx_hal_gpio.c ****              GPIO_InitTypeDef structure select the type (interrupt or event) and 
  77:Drivers/STM32F4xx_HAL_Driver/Src/stm32f4xx_hal_gpio.c ****              the corresponding trigger event (rising or falling or both).
  78:Drivers/STM32F4xx_HAL_Driver/Src/stm32f4xx_hal_gpio.c **** 
  79:Drivers/STM32F4xx_HAL_Driver/Src/stm32f4xx_hal_gpio.c ****     (#) In case of external interrupt/event mode selection, configure NVIC IRQ priority 
  80:Drivers/STM32F4xx_HAL_Driver/Src/stm32f4xx_hal_gpio.c ****         mapped to the EXTI line using HAL_NVIC_SetPriority() and enable it using
  81:Drivers/STM32F4xx_HAL_Driver/Src/stm32f4xx_hal_gpio.c ****         HAL_NVIC_EnableIRQ().
  82:Drivers/STM32F4xx_HAL_Driver/Src/stm32f4xx_hal_gpio.c ****          
  83:Drivers/STM32F4xx_HAL_Driver/Src/stm32f4xx_hal_gpio.c ****     (#) To get the level of a pin configured in input mode use HAL_GPIO_ReadPin().
  84:Drivers/STM32F4xx_HAL_Driver/Src/stm32f4xx_hal_gpio.c ****             
  85:Drivers/STM32F4xx_HAL_Driver/Src/stm32f4xx_hal_gpio.c ****     (#) To set/reset the level of a pin configured in output mode use 
  86:Drivers/STM32F4xx_HAL_Driver/Src/stm32f4xx_hal_gpio.c ****         HAL_GPIO_WritePin()/HAL_GPIO_TogglePin().
ARM GAS  /tmp/ccUpCQGL.s 			page 3


  87:Drivers/STM32F4xx_HAL_Driver/Src/stm32f4xx_hal_gpio.c ****     
  88:Drivers/STM32F4xx_HAL_Driver/Src/stm32f4xx_hal_gpio.c ****     (#) To lock pin configuration until next reset use HAL_GPIO_LockPin().
  89:Drivers/STM32F4xx_HAL_Driver/Src/stm32f4xx_hal_gpio.c **** 
  90:Drivers/STM32F4xx_HAL_Driver/Src/stm32f4xx_hal_gpio.c ****                  
  91:Drivers/STM32F4xx_HAL_Driver/Src/stm32f4xx_hal_gpio.c ****     (#) During and just after reset, the alternate functions are not 
  92:Drivers/STM32F4xx_HAL_Driver/Src/stm32f4xx_hal_gpio.c ****         active and the GPIO pins are configured in input floating mode (except JTAG
  93:Drivers/STM32F4xx_HAL_Driver/Src/stm32f4xx_hal_gpio.c ****         pins).
  94:Drivers/STM32F4xx_HAL_Driver/Src/stm32f4xx_hal_gpio.c ****   
  95:Drivers/STM32F4xx_HAL_Driver/Src/stm32f4xx_hal_gpio.c ****     (#) The LSE oscillator pins OSC32_IN and OSC32_OUT can be used as general purpose 
  96:Drivers/STM32F4xx_HAL_Driver/Src/stm32f4xx_hal_gpio.c ****         (PC14 and PC15, respectively) when the LSE oscillator is off. The LSE has 
  97:Drivers/STM32F4xx_HAL_Driver/Src/stm32f4xx_hal_gpio.c ****         priority over the GPIO function.
  98:Drivers/STM32F4xx_HAL_Driver/Src/stm32f4xx_hal_gpio.c ****   
  99:Drivers/STM32F4xx_HAL_Driver/Src/stm32f4xx_hal_gpio.c ****     (#) The HSE oscillator pins OSC_IN/OSC_OUT can be used as 
 100:Drivers/STM32F4xx_HAL_Driver/Src/stm32f4xx_hal_gpio.c ****         general purpose PH0 and PH1, respectively, when the HSE oscillator is off. 
 101:Drivers/STM32F4xx_HAL_Driver/Src/stm32f4xx_hal_gpio.c ****         The HSE has priority over the GPIO function.
 102:Drivers/STM32F4xx_HAL_Driver/Src/stm32f4xx_hal_gpio.c ****   
 103:Drivers/STM32F4xx_HAL_Driver/Src/stm32f4xx_hal_gpio.c ****   @endverbatim
 104:Drivers/STM32F4xx_HAL_Driver/Src/stm32f4xx_hal_gpio.c ****   ******************************************************************************
 105:Drivers/STM32F4xx_HAL_Driver/Src/stm32f4xx_hal_gpio.c ****   */ 
 106:Drivers/STM32F4xx_HAL_Driver/Src/stm32f4xx_hal_gpio.c **** 
 107:Drivers/STM32F4xx_HAL_Driver/Src/stm32f4xx_hal_gpio.c **** /* Includes ------------------------------------------------------------------*/
 108:Drivers/STM32F4xx_HAL_Driver/Src/stm32f4xx_hal_gpio.c **** #include "stm32f4xx_hal.h"
 109:Drivers/STM32F4xx_HAL_Driver/Src/stm32f4xx_hal_gpio.c **** 
 110:Drivers/STM32F4xx_HAL_Driver/Src/stm32f4xx_hal_gpio.c **** /** @addtogroup STM32F4xx_HAL_Driver
 111:Drivers/STM32F4xx_HAL_Driver/Src/stm32f4xx_hal_gpio.c ****   * @{
 112:Drivers/STM32F4xx_HAL_Driver/Src/stm32f4xx_hal_gpio.c ****   */
 113:Drivers/STM32F4xx_HAL_Driver/Src/stm32f4xx_hal_gpio.c **** 
 114:Drivers/STM32F4xx_HAL_Driver/Src/stm32f4xx_hal_gpio.c **** /** @defgroup GPIO GPIO
 115:Drivers/STM32F4xx_HAL_Driver/Src/stm32f4xx_hal_gpio.c ****   * @brief GPIO HAL module driver
 116:Drivers/STM32F4xx_HAL_Driver/Src/stm32f4xx_hal_gpio.c ****   * @{
 117:Drivers/STM32F4xx_HAL_Driver/Src/stm32f4xx_hal_gpio.c ****   */
 118:Drivers/STM32F4xx_HAL_Driver/Src/stm32f4xx_hal_gpio.c **** 
 119:Drivers/STM32F4xx_HAL_Driver/Src/stm32f4xx_hal_gpio.c **** #ifdef HAL_GPIO_MODULE_ENABLED
 120:Drivers/STM32F4xx_HAL_Driver/Src/stm32f4xx_hal_gpio.c **** 
 121:Drivers/STM32F4xx_HAL_Driver/Src/stm32f4xx_hal_gpio.c **** /* Private typedef -----------------------------------------------------------*/
 122:Drivers/STM32F4xx_HAL_Driver/Src/stm32f4xx_hal_gpio.c **** /* Private define ------------------------------------------------------------*/
 123:Drivers/STM32F4xx_HAL_Driver/Src/stm32f4xx_hal_gpio.c **** /** @addtogroup GPIO_Private_Constants GPIO Private Constants
 124:Drivers/STM32F4xx_HAL_Driver/Src/stm32f4xx_hal_gpio.c ****   * @{
 125:Drivers/STM32F4xx_HAL_Driver/Src/stm32f4xx_hal_gpio.c ****   */
 126:Drivers/STM32F4xx_HAL_Driver/Src/stm32f4xx_hal_gpio.c **** 
 127:Drivers/STM32F4xx_HAL_Driver/Src/stm32f4xx_hal_gpio.c **** #define GPIO_NUMBER           16U
 128:Drivers/STM32F4xx_HAL_Driver/Src/stm32f4xx_hal_gpio.c **** /**
 129:Drivers/STM32F4xx_HAL_Driver/Src/stm32f4xx_hal_gpio.c ****   * @}
 130:Drivers/STM32F4xx_HAL_Driver/Src/stm32f4xx_hal_gpio.c ****   */
 131:Drivers/STM32F4xx_HAL_Driver/Src/stm32f4xx_hal_gpio.c **** /* Private macro -------------------------------------------------------------*/
 132:Drivers/STM32F4xx_HAL_Driver/Src/stm32f4xx_hal_gpio.c **** /* Private variables ---------------------------------------------------------*/
 133:Drivers/STM32F4xx_HAL_Driver/Src/stm32f4xx_hal_gpio.c **** /* Private function prototypes -----------------------------------------------*/
 134:Drivers/STM32F4xx_HAL_Driver/Src/stm32f4xx_hal_gpio.c **** /* Private functions ---------------------------------------------------------*/
 135:Drivers/STM32F4xx_HAL_Driver/Src/stm32f4xx_hal_gpio.c **** /* Exported functions --------------------------------------------------------*/
 136:Drivers/STM32F4xx_HAL_Driver/Src/stm32f4xx_hal_gpio.c **** /** @defgroup GPIO_Exported_Functions GPIO Exported Functions
 137:Drivers/STM32F4xx_HAL_Driver/Src/stm32f4xx_hal_gpio.c ****   * @{
 138:Drivers/STM32F4xx_HAL_Driver/Src/stm32f4xx_hal_gpio.c ****   */
 139:Drivers/STM32F4xx_HAL_Driver/Src/stm32f4xx_hal_gpio.c **** 
 140:Drivers/STM32F4xx_HAL_Driver/Src/stm32f4xx_hal_gpio.c **** /** @defgroup GPIO_Exported_Functions_Group1 Initialization and de-initialization functions
 141:Drivers/STM32F4xx_HAL_Driver/Src/stm32f4xx_hal_gpio.c ****   *  @brief    Initialization and Configuration functions
 142:Drivers/STM32F4xx_HAL_Driver/Src/stm32f4xx_hal_gpio.c ****   *
 143:Drivers/STM32F4xx_HAL_Driver/Src/stm32f4xx_hal_gpio.c **** @verbatim    
ARM GAS  /tmp/ccUpCQGL.s 			page 4


 144:Drivers/STM32F4xx_HAL_Driver/Src/stm32f4xx_hal_gpio.c ****  ===============================================================================
 145:Drivers/STM32F4xx_HAL_Driver/Src/stm32f4xx_hal_gpio.c ****               ##### Initialization and de-initialization functions #####
 146:Drivers/STM32F4xx_HAL_Driver/Src/stm32f4xx_hal_gpio.c ****  ===============================================================================
 147:Drivers/STM32F4xx_HAL_Driver/Src/stm32f4xx_hal_gpio.c ****   [..]
 148:Drivers/STM32F4xx_HAL_Driver/Src/stm32f4xx_hal_gpio.c ****     This section provides functions allowing to initialize and de-initialize the GPIOs
 149:Drivers/STM32F4xx_HAL_Driver/Src/stm32f4xx_hal_gpio.c ****     to be ready for use.
 150:Drivers/STM32F4xx_HAL_Driver/Src/stm32f4xx_hal_gpio.c ****  
 151:Drivers/STM32F4xx_HAL_Driver/Src/stm32f4xx_hal_gpio.c **** @endverbatim
 152:Drivers/STM32F4xx_HAL_Driver/Src/stm32f4xx_hal_gpio.c ****   * @{
 153:Drivers/STM32F4xx_HAL_Driver/Src/stm32f4xx_hal_gpio.c ****   */
 154:Drivers/STM32F4xx_HAL_Driver/Src/stm32f4xx_hal_gpio.c **** 
 155:Drivers/STM32F4xx_HAL_Driver/Src/stm32f4xx_hal_gpio.c **** 
 156:Drivers/STM32F4xx_HAL_Driver/Src/stm32f4xx_hal_gpio.c **** /**
 157:Drivers/STM32F4xx_HAL_Driver/Src/stm32f4xx_hal_gpio.c ****   * @brief  Initializes the GPIOx peripheral according to the specified parameters in the GPIO_Init
 158:Drivers/STM32F4xx_HAL_Driver/Src/stm32f4xx_hal_gpio.c ****   * @param  GPIOx where x can be (A..K) to select the GPIO peripheral for STM32F429X device or
 159:Drivers/STM32F4xx_HAL_Driver/Src/stm32f4xx_hal_gpio.c ****   *                      x can be (A..I) to select the GPIO peripheral for STM32F40XX and STM32F427
 160:Drivers/STM32F4xx_HAL_Driver/Src/stm32f4xx_hal_gpio.c ****   * @param  GPIO_Init pointer to a GPIO_InitTypeDef structure that contains
 161:Drivers/STM32F4xx_HAL_Driver/Src/stm32f4xx_hal_gpio.c ****   *         the configuration information for the specified GPIO peripheral.
 162:Drivers/STM32F4xx_HAL_Driver/Src/stm32f4xx_hal_gpio.c ****   * @retval None
 163:Drivers/STM32F4xx_HAL_Driver/Src/stm32f4xx_hal_gpio.c ****   */
 164:Drivers/STM32F4xx_HAL_Driver/Src/stm32f4xx_hal_gpio.c **** void HAL_GPIO_Init(GPIO_TypeDef  *GPIOx, GPIO_InitTypeDef *GPIO_Init)
 165:Drivers/STM32F4xx_HAL_Driver/Src/stm32f4xx_hal_gpio.c **** {
  30              		.loc 1 165 1 view -0
  31              		.cfi_startproc
  32              		@ args = 0, pretend = 0, frame = 8
  33              		@ frame_needed = 0, uses_anonymous_args = 0
 166:Drivers/STM32F4xx_HAL_Driver/Src/stm32f4xx_hal_gpio.c ****   uint32_t position;
  34              		.loc 1 166 3 view .LVU1
 167:Drivers/STM32F4xx_HAL_Driver/Src/stm32f4xx_hal_gpio.c ****   uint32_t ioposition = 0x00U;
  35              		.loc 1 167 3 view .LVU2
 168:Drivers/STM32F4xx_HAL_Driver/Src/stm32f4xx_hal_gpio.c ****   uint32_t iocurrent = 0x00U;
  36              		.loc 1 168 3 view .LVU3
 169:Drivers/STM32F4xx_HAL_Driver/Src/stm32f4xx_hal_gpio.c ****   uint32_t temp = 0x00U;
  37              		.loc 1 169 3 view .LVU4
 170:Drivers/STM32F4xx_HAL_Driver/Src/stm32f4xx_hal_gpio.c **** 
 171:Drivers/STM32F4xx_HAL_Driver/Src/stm32f4xx_hal_gpio.c ****   /* Check the parameters */
 172:Drivers/STM32F4xx_HAL_Driver/Src/stm32f4xx_hal_gpio.c ****   assert_param(IS_GPIO_ALL_INSTANCE(GPIOx));
  38              		.loc 1 172 3 view .LVU5
 173:Drivers/STM32F4xx_HAL_Driver/Src/stm32f4xx_hal_gpio.c ****   assert_param(IS_GPIO_PIN(GPIO_Init->Pin));
  39              		.loc 1 173 3 view .LVU6
 174:Drivers/STM32F4xx_HAL_Driver/Src/stm32f4xx_hal_gpio.c ****   assert_param(IS_GPIO_MODE(GPIO_Init->Mode));
  40              		.loc 1 174 3 view .LVU7
 175:Drivers/STM32F4xx_HAL_Driver/Src/stm32f4xx_hal_gpio.c **** 
 176:Drivers/STM32F4xx_HAL_Driver/Src/stm32f4xx_hal_gpio.c ****   /* Configure the port pins */
 177:Drivers/STM32F4xx_HAL_Driver/Src/stm32f4xx_hal_gpio.c ****   for(position = 0U; position < GPIO_NUMBER; position++)
  41              		.loc 1 177 3 view .LVU8
  42              		.loc 1 177 16 is_stmt 0 view .LVU9
  43 0000 0023     		movs	r3, #0
  44              	.LVL1:
  45              		.loc 1 177 22 is_stmt 1 view .LVU10
  46              		.loc 1 177 3 is_stmt 0 view .LVU11
  47 0002 0F2B     		cmp	r3, #15
  48 0004 00F2F180 		bhi	.L26
 165:Drivers/STM32F4xx_HAL_Driver/Src/stm32f4xx_hal_gpio.c ****   uint32_t position;
  49              		.loc 1 165 1 view .LVU12
  50 0008 70B5     		push	{r4, r5, r6, lr}
  51              		.cfi_def_cfa_offset 16
ARM GAS  /tmp/ccUpCQGL.s 			page 5


  52              		.cfi_offset 4, -16
  53              		.cfi_offset 5, -12
  54              		.cfi_offset 6, -8
  55              		.cfi_offset 14, -4
  56 000a 82B0     		sub	sp, sp, #8
  57              		.cfi_def_cfa_offset 24
  58 000c 61E0     		b	.L12
  59              	.LVL2:
  60              	.L28:
 178:Drivers/STM32F4xx_HAL_Driver/Src/stm32f4xx_hal_gpio.c ****   {
 179:Drivers/STM32F4xx_HAL_Driver/Src/stm32f4xx_hal_gpio.c ****     /* Get the IO position */
 180:Drivers/STM32F4xx_HAL_Driver/Src/stm32f4xx_hal_gpio.c ****     ioposition = 0x01U << position;
 181:Drivers/STM32F4xx_HAL_Driver/Src/stm32f4xx_hal_gpio.c ****     /* Get the current IO position */
 182:Drivers/STM32F4xx_HAL_Driver/Src/stm32f4xx_hal_gpio.c ****     iocurrent = (uint32_t)(GPIO_Init->Pin) & ioposition;
 183:Drivers/STM32F4xx_HAL_Driver/Src/stm32f4xx_hal_gpio.c **** 
 184:Drivers/STM32F4xx_HAL_Driver/Src/stm32f4xx_hal_gpio.c ****     if(iocurrent == ioposition)
 185:Drivers/STM32F4xx_HAL_Driver/Src/stm32f4xx_hal_gpio.c ****     {
 186:Drivers/STM32F4xx_HAL_Driver/Src/stm32f4xx_hal_gpio.c ****       /*--------------------- GPIO Mode Configuration ------------------------*/
 187:Drivers/STM32F4xx_HAL_Driver/Src/stm32f4xx_hal_gpio.c ****       /* In case of Output or Alternate function mode selection */
 188:Drivers/STM32F4xx_HAL_Driver/Src/stm32f4xx_hal_gpio.c ****       if(((GPIO_Init->Mode & GPIO_MODE) == MODE_OUTPUT) || \
 189:Drivers/STM32F4xx_HAL_Driver/Src/stm32f4xx_hal_gpio.c ****           (GPIO_Init->Mode & GPIO_MODE) == MODE_AF)
 190:Drivers/STM32F4xx_HAL_Driver/Src/stm32f4xx_hal_gpio.c ****       {
 191:Drivers/STM32F4xx_HAL_Driver/Src/stm32f4xx_hal_gpio.c ****         /* Check the Speed parameter */
 192:Drivers/STM32F4xx_HAL_Driver/Src/stm32f4xx_hal_gpio.c ****         assert_param(IS_GPIO_SPEED(GPIO_Init->Speed));
  61              		.loc 1 192 9 is_stmt 1 view .LVU13
 193:Drivers/STM32F4xx_HAL_Driver/Src/stm32f4xx_hal_gpio.c ****         /* Configure the IO Speed */
 194:Drivers/STM32F4xx_HAL_Driver/Src/stm32f4xx_hal_gpio.c ****         temp = GPIOx->OSPEEDR; 
  62              		.loc 1 194 9 view .LVU14
  63              		.loc 1 194 14 is_stmt 0 view .LVU15
  64 000e 8568     		ldr	r5, [r0, #8]
  65              	.LVL3:
 195:Drivers/STM32F4xx_HAL_Driver/Src/stm32f4xx_hal_gpio.c ****         temp &= ~(GPIO_OSPEEDER_OSPEEDR0 << (position * 2U));
  66              		.loc 1 195 9 is_stmt 1 view .LVU16
  67              		.loc 1 195 55 is_stmt 0 view .LVU17
  68 0010 5E00     		lsls	r6, r3, #1
  69              		.loc 1 195 42 view .LVU18
  70 0012 0324     		movs	r4, #3
  71 0014 B440     		lsls	r4, r4, r6
  72              		.loc 1 195 14 view .LVU19
  73 0016 25EA0405 		bic	r5, r5, r4
  74              	.LVL4:
 196:Drivers/STM32F4xx_HAL_Driver/Src/stm32f4xx_hal_gpio.c ****         temp |= (GPIO_Init->Speed << (position * 2U));
  75              		.loc 1 196 9 is_stmt 1 view .LVU20
  76              		.loc 1 196 27 is_stmt 0 view .LVU21
  77 001a CC68     		ldr	r4, [r1, #12]
  78              		.loc 1 196 35 view .LVU22
  79 001c B440     		lsls	r4, r4, r6
  80              		.loc 1 196 14 view .LVU23
  81 001e 2C43     		orrs	r4, r4, r5
  82              	.LVL5:
 197:Drivers/STM32F4xx_HAL_Driver/Src/stm32f4xx_hal_gpio.c ****         GPIOx->OSPEEDR = temp;
  83              		.loc 1 197 9 is_stmt 1 view .LVU24
  84              		.loc 1 197 24 is_stmt 0 view .LVU25
  85 0020 8460     		str	r4, [r0, #8]
 198:Drivers/STM32F4xx_HAL_Driver/Src/stm32f4xx_hal_gpio.c **** 
 199:Drivers/STM32F4xx_HAL_Driver/Src/stm32f4xx_hal_gpio.c ****         /* Configure the IO Output Type */
 200:Drivers/STM32F4xx_HAL_Driver/Src/stm32f4xx_hal_gpio.c ****         temp = GPIOx->OTYPER;
ARM GAS  /tmp/ccUpCQGL.s 			page 6


  86              		.loc 1 200 9 is_stmt 1 view .LVU26
  87              		.loc 1 200 14 is_stmt 0 view .LVU27
  88 0022 4568     		ldr	r5, [r0, #4]
  89              	.LVL6:
 201:Drivers/STM32F4xx_HAL_Driver/Src/stm32f4xx_hal_gpio.c ****         temp &= ~(GPIO_OTYPER_OT_0 << position) ;
  90              		.loc 1 201 9 is_stmt 1 view .LVU28
  91              		.loc 1 201 14 is_stmt 0 view .LVU29
  92 0024 25EA0205 		bic	r5, r5, r2
  93              	.LVL7:
 202:Drivers/STM32F4xx_HAL_Driver/Src/stm32f4xx_hal_gpio.c ****         temp |= (((GPIO_Init->Mode & OUTPUT_TYPE) >> OUTPUT_TYPE_Pos) << position);
  94              		.loc 1 202 9 is_stmt 1 view .LVU30
  95              		.loc 1 202 29 is_stmt 0 view .LVU31
  96 0028 4C68     		ldr	r4, [r1, #4]
  97              		.loc 1 202 51 view .LVU32
  98 002a C4F30012 		ubfx	r2, r4, #4, #1
  99              	.LVL8:
 100              		.loc 1 202 71 view .LVU33
 101 002e 9A40     		lsls	r2, r2, r3
 102              		.loc 1 202 14 view .LVU34
 103 0030 2A43     		orrs	r2, r2, r5
 104              	.LVL9:
 203:Drivers/STM32F4xx_HAL_Driver/Src/stm32f4xx_hal_gpio.c ****         GPIOx->OTYPER = temp;
 105              		.loc 1 203 9 is_stmt 1 view .LVU35
 106              		.loc 1 203 23 is_stmt 0 view .LVU36
 107 0032 4260     		str	r2, [r0, #4]
 108 0034 5BE0     		b	.L4
 109              	.LVL10:
 110              	.L29:
 204:Drivers/STM32F4xx_HAL_Driver/Src/stm32f4xx_hal_gpio.c ****        }
 205:Drivers/STM32F4xx_HAL_Driver/Src/stm32f4xx_hal_gpio.c **** 
 206:Drivers/STM32F4xx_HAL_Driver/Src/stm32f4xx_hal_gpio.c ****       if((GPIO_Init->Mode & GPIO_MODE) != MODE_ANALOG)
 207:Drivers/STM32F4xx_HAL_Driver/Src/stm32f4xx_hal_gpio.c ****       {
 208:Drivers/STM32F4xx_HAL_Driver/Src/stm32f4xx_hal_gpio.c ****         /* Check the parameters */
 209:Drivers/STM32F4xx_HAL_Driver/Src/stm32f4xx_hal_gpio.c ****         assert_param(IS_GPIO_PULL(GPIO_Init->Pull));
 210:Drivers/STM32F4xx_HAL_Driver/Src/stm32f4xx_hal_gpio.c ****         
 211:Drivers/STM32F4xx_HAL_Driver/Src/stm32f4xx_hal_gpio.c ****         /* Activate the Pull-up or Pull down resistor for the current IO */
 212:Drivers/STM32F4xx_HAL_Driver/Src/stm32f4xx_hal_gpio.c ****         temp = GPIOx->PUPDR;
 213:Drivers/STM32F4xx_HAL_Driver/Src/stm32f4xx_hal_gpio.c ****         temp &= ~(GPIO_PUPDR_PUPDR0 << (position * 2U));
 214:Drivers/STM32F4xx_HAL_Driver/Src/stm32f4xx_hal_gpio.c ****         temp |= ((GPIO_Init->Pull) << (position * 2U));
 215:Drivers/STM32F4xx_HAL_Driver/Src/stm32f4xx_hal_gpio.c ****         GPIOx->PUPDR = temp;
 216:Drivers/STM32F4xx_HAL_Driver/Src/stm32f4xx_hal_gpio.c ****       }
 217:Drivers/STM32F4xx_HAL_Driver/Src/stm32f4xx_hal_gpio.c **** 
 218:Drivers/STM32F4xx_HAL_Driver/Src/stm32f4xx_hal_gpio.c ****       /* In case of Alternate function mode selection */
 219:Drivers/STM32F4xx_HAL_Driver/Src/stm32f4xx_hal_gpio.c ****       if((GPIO_Init->Mode & GPIO_MODE) == MODE_AF)
 220:Drivers/STM32F4xx_HAL_Driver/Src/stm32f4xx_hal_gpio.c ****       {
 221:Drivers/STM32F4xx_HAL_Driver/Src/stm32f4xx_hal_gpio.c ****         /* Check the Alternate function parameter */
 222:Drivers/STM32F4xx_HAL_Driver/Src/stm32f4xx_hal_gpio.c ****         assert_param(IS_GPIO_AF(GPIO_Init->Alternate));
 111              		.loc 1 222 9 is_stmt 1 view .LVU37
 223:Drivers/STM32F4xx_HAL_Driver/Src/stm32f4xx_hal_gpio.c ****         /* Configure Alternate function mapped with the current IO */
 224:Drivers/STM32F4xx_HAL_Driver/Src/stm32f4xx_hal_gpio.c ****         temp = GPIOx->AFR[position >> 3U];
 112              		.loc 1 224 9 view .LVU38
 113              		.loc 1 224 36 is_stmt 0 view .LVU39
 114 0036 DC08     		lsrs	r4, r3, #3
 115              		.loc 1 224 14 view .LVU40
 116 0038 0834     		adds	r4, r4, #8
 117 003a 50F82460 		ldr	r6, [r0, r4, lsl #2]
 118              	.LVL11:
ARM GAS  /tmp/ccUpCQGL.s 			page 7


 225:Drivers/STM32F4xx_HAL_Driver/Src/stm32f4xx_hal_gpio.c ****         temp &= ~(0xFU << ((uint32_t)(position & 0x07U) * 4U)) ;
 119              		.loc 1 225 9 is_stmt 1 view .LVU41
 120              		.loc 1 225 28 is_stmt 0 view .LVU42
 121 003e 03F00702 		and	r2, r3, #7
 122              		.loc 1 225 57 view .LVU43
 123 0042 9500     		lsls	r5, r2, #2
 124              		.loc 1 225 24 view .LVU44
 125 0044 0F22     		movs	r2, #15
 126 0046 AA40     		lsls	r2, r2, r5
 127              		.loc 1 225 14 view .LVU45
 128 0048 26EA020E 		bic	lr, r6, r2
 129              	.LVL12:
 226:Drivers/STM32F4xx_HAL_Driver/Src/stm32f4xx_hal_gpio.c ****         temp |= ((uint32_t)(GPIO_Init->Alternate) << (((uint32_t)position & 0x07U) * 4U));
 130              		.loc 1 226 9 is_stmt 1 view .LVU46
 131              		.loc 1 226 38 is_stmt 0 view .LVU47
 132 004c 0A69     		ldr	r2, [r1, #16]
 133              		.loc 1 226 51 view .LVU48
 134 004e AA40     		lsls	r2, r2, r5
 135              		.loc 1 226 14 view .LVU49
 136 0050 42EA0E02 		orr	r2, r2, lr
 137              	.LVL13:
 227:Drivers/STM32F4xx_HAL_Driver/Src/stm32f4xx_hal_gpio.c ****         GPIOx->AFR[position >> 3U] = temp;
 138              		.loc 1 227 9 is_stmt 1 view .LVU50
 139              		.loc 1 227 36 is_stmt 0 view .LVU51
 140 0054 40F82420 		str	r2, [r0, r4, lsl #2]
 141 0058 5DE0     		b	.L6
 142              	.LVL14:
 143              	.L30:
 228:Drivers/STM32F4xx_HAL_Driver/Src/stm32f4xx_hal_gpio.c ****       }
 229:Drivers/STM32F4xx_HAL_Driver/Src/stm32f4xx_hal_gpio.c **** 
 230:Drivers/STM32F4xx_HAL_Driver/Src/stm32f4xx_hal_gpio.c ****       /* Configure IO Direction mode (Input, Output, Alternate or Analog) */
 231:Drivers/STM32F4xx_HAL_Driver/Src/stm32f4xx_hal_gpio.c ****       temp = GPIOx->MODER;
 232:Drivers/STM32F4xx_HAL_Driver/Src/stm32f4xx_hal_gpio.c ****       temp &= ~(GPIO_MODER_MODER0 << (position * 2U));
 233:Drivers/STM32F4xx_HAL_Driver/Src/stm32f4xx_hal_gpio.c ****       temp |= ((GPIO_Init->Mode & GPIO_MODE) << (position * 2U));
 234:Drivers/STM32F4xx_HAL_Driver/Src/stm32f4xx_hal_gpio.c ****       GPIOx->MODER = temp;
 235:Drivers/STM32F4xx_HAL_Driver/Src/stm32f4xx_hal_gpio.c **** 
 236:Drivers/STM32F4xx_HAL_Driver/Src/stm32f4xx_hal_gpio.c ****       /*--------------------- EXTI Mode Configuration ------------------------*/
 237:Drivers/STM32F4xx_HAL_Driver/Src/stm32f4xx_hal_gpio.c ****       /* Configure the External Interrupt or event for the current IO */
 238:Drivers/STM32F4xx_HAL_Driver/Src/stm32f4xx_hal_gpio.c ****       if((GPIO_Init->Mode & EXTI_MODE) != 0x00U)
 239:Drivers/STM32F4xx_HAL_Driver/Src/stm32f4xx_hal_gpio.c ****       {
 240:Drivers/STM32F4xx_HAL_Driver/Src/stm32f4xx_hal_gpio.c ****         /* Enable SYSCFG Clock */
 241:Drivers/STM32F4xx_HAL_Driver/Src/stm32f4xx_hal_gpio.c ****         __HAL_RCC_SYSCFG_CLK_ENABLE();
 242:Drivers/STM32F4xx_HAL_Driver/Src/stm32f4xx_hal_gpio.c **** 
 243:Drivers/STM32F4xx_HAL_Driver/Src/stm32f4xx_hal_gpio.c ****         temp = SYSCFG->EXTICR[position >> 2U];
 244:Drivers/STM32F4xx_HAL_Driver/Src/stm32f4xx_hal_gpio.c ****         temp &= ~(0x0FU << (4U * (position & 0x03U)));
 245:Drivers/STM32F4xx_HAL_Driver/Src/stm32f4xx_hal_gpio.c ****         temp |= ((uint32_t)(GPIO_GET_INDEX(GPIOx)) << (4U * (position & 0x03U)));
 144              		.loc 1 245 29 view .LVU52
 145 005a 0922     		movs	r2, #9
 146 005c 00E0     		b	.L7
 147              	.L13:
 148              		.loc 1 245 18 view .LVU53
 149 005e 0022     		movs	r2, #0
 150              	.L7:
 151              		.loc 1 245 52 discriminator 40 view .LVU54
 152 0060 02FA0EF2 		lsl	r2, r2, lr
 153              		.loc 1 245 14 discriminator 40 view .LVU55
 154 0064 2A43     		orrs	r2, r2, r5
ARM GAS  /tmp/ccUpCQGL.s 			page 8


 155              	.LVL15:
 246:Drivers/STM32F4xx_HAL_Driver/Src/stm32f4xx_hal_gpio.c ****         SYSCFG->EXTICR[position >> 2U] = temp;
 156              		.loc 1 246 9 is_stmt 1 discriminator 40 view .LVU56
 157              		.loc 1 246 40 is_stmt 0 discriminator 40 view .LVU57
 158 0066 0234     		adds	r4, r4, #2
 159 0068 604D     		ldr	r5, .L31
 160 006a 45F82420 		str	r2, [r5, r4, lsl #2]
 247:Drivers/STM32F4xx_HAL_Driver/Src/stm32f4xx_hal_gpio.c **** 
 248:Drivers/STM32F4xx_HAL_Driver/Src/stm32f4xx_hal_gpio.c ****         /* Clear Rising Falling edge configuration */
 249:Drivers/STM32F4xx_HAL_Driver/Src/stm32f4xx_hal_gpio.c ****         temp = EXTI->RTSR;
 161              		.loc 1 249 9 is_stmt 1 discriminator 40 view .LVU58
 162              		.loc 1 249 14 is_stmt 0 discriminator 40 view .LVU59
 163 006e 604A     		ldr	r2, .L31+4
 164              	.LVL16:
 165              		.loc 1 249 14 discriminator 40 view .LVU60
 166 0070 9468     		ldr	r4, [r2, #8]
 167              	.LVL17:
 250:Drivers/STM32F4xx_HAL_Driver/Src/stm32f4xx_hal_gpio.c ****         temp &= ~((uint32_t)iocurrent);
 168              		.loc 1 250 9 is_stmt 1 discriminator 40 view .LVU61
 169              		.loc 1 250 17 is_stmt 0 discriminator 40 view .LVU62
 170 0072 6FEA0C02 		mvn	r2, ip
 171              		.loc 1 250 14 discriminator 40 view .LVU63
 172 0076 24EA0C05 		bic	r5, r4, ip
 173              	.LVL18:
 251:Drivers/STM32F4xx_HAL_Driver/Src/stm32f4xx_hal_gpio.c ****         if((GPIO_Init->Mode & TRIGGER_RISING) != 0x00U)
 174              		.loc 1 251 9 is_stmt 1 discriminator 40 view .LVU64
 175              		.loc 1 251 22 is_stmt 0 discriminator 40 view .LVU65
 176 007a 4E68     		ldr	r6, [r1, #4]
 177              		.loc 1 251 11 discriminator 40 view .LVU66
 178 007c 16F4801F 		tst	r6, #1048576
 179 0080 01D0     		beq	.L8
 252:Drivers/STM32F4xx_HAL_Driver/Src/stm32f4xx_hal_gpio.c ****         {
 253:Drivers/STM32F4xx_HAL_Driver/Src/stm32f4xx_hal_gpio.c ****           temp |= iocurrent;
 180              		.loc 1 253 11 is_stmt 1 view .LVU67
 181              		.loc 1 253 16 is_stmt 0 view .LVU68
 182 0082 4CEA0405 		orr	r5, ip, r4
 183              	.LVL19:
 184              	.L8:
 254:Drivers/STM32F4xx_HAL_Driver/Src/stm32f4xx_hal_gpio.c ****         }
 255:Drivers/STM32F4xx_HAL_Driver/Src/stm32f4xx_hal_gpio.c ****         EXTI->RTSR = temp;
 185              		.loc 1 255 9 is_stmt 1 view .LVU69
 186              		.loc 1 255 20 is_stmt 0 view .LVU70
 187 0086 5A4C     		ldr	r4, .L31+4
 188 0088 A560     		str	r5, [r4, #8]
 256:Drivers/STM32F4xx_HAL_Driver/Src/stm32f4xx_hal_gpio.c **** 
 257:Drivers/STM32F4xx_HAL_Driver/Src/stm32f4xx_hal_gpio.c ****         temp = EXTI->FTSR;
 189              		.loc 1 257 9 is_stmt 1 view .LVU71
 190              		.loc 1 257 14 is_stmt 0 view .LVU72
 191 008a E468     		ldr	r4, [r4, #12]
 192              	.LVL20:
 258:Drivers/STM32F4xx_HAL_Driver/Src/stm32f4xx_hal_gpio.c ****         temp &= ~((uint32_t)iocurrent);
 193              		.loc 1 258 9 is_stmt 1 view .LVU73
 194              		.loc 1 258 14 is_stmt 0 view .LVU74
 195 008c 02EA0405 		and	r5, r2, r4
 196              	.LVL21:
 259:Drivers/STM32F4xx_HAL_Driver/Src/stm32f4xx_hal_gpio.c ****         if((GPIO_Init->Mode & TRIGGER_FALLING) != 0x00U)
 197              		.loc 1 259 9 is_stmt 1 view .LVU75
ARM GAS  /tmp/ccUpCQGL.s 			page 9


 198              		.loc 1 259 22 is_stmt 0 view .LVU76
 199 0090 4E68     		ldr	r6, [r1, #4]
 200              		.loc 1 259 11 view .LVU77
 201 0092 16F4001F 		tst	r6, #2097152
 202 0096 01D0     		beq	.L9
 260:Drivers/STM32F4xx_HAL_Driver/Src/stm32f4xx_hal_gpio.c ****         {
 261:Drivers/STM32F4xx_HAL_Driver/Src/stm32f4xx_hal_gpio.c ****           temp |= iocurrent;
 203              		.loc 1 261 11 is_stmt 1 view .LVU78
 204              		.loc 1 261 16 is_stmt 0 view .LVU79
 205 0098 4CEA0405 		orr	r5, ip, r4
 206              	.LVL22:
 207              	.L9:
 262:Drivers/STM32F4xx_HAL_Driver/Src/stm32f4xx_hal_gpio.c ****         }
 263:Drivers/STM32F4xx_HAL_Driver/Src/stm32f4xx_hal_gpio.c ****         EXTI->FTSR = temp;
 208              		.loc 1 263 9 is_stmt 1 view .LVU80
 209              		.loc 1 263 20 is_stmt 0 view .LVU81
 210 009c 544C     		ldr	r4, .L31+4
 211 009e E560     		str	r5, [r4, #12]
 264:Drivers/STM32F4xx_HAL_Driver/Src/stm32f4xx_hal_gpio.c **** 
 265:Drivers/STM32F4xx_HAL_Driver/Src/stm32f4xx_hal_gpio.c ****         temp = EXTI->EMR;
 212              		.loc 1 265 9 is_stmt 1 view .LVU82
 213              		.loc 1 265 14 is_stmt 0 view .LVU83
 214 00a0 6468     		ldr	r4, [r4, #4]
 215              	.LVL23:
 266:Drivers/STM32F4xx_HAL_Driver/Src/stm32f4xx_hal_gpio.c ****         temp &= ~((uint32_t)iocurrent);
 216              		.loc 1 266 9 is_stmt 1 view .LVU84
 217              		.loc 1 266 14 is_stmt 0 view .LVU85
 218 00a2 02EA0405 		and	r5, r2, r4
 219              	.LVL24:
 267:Drivers/STM32F4xx_HAL_Driver/Src/stm32f4xx_hal_gpio.c ****         if((GPIO_Init->Mode & EXTI_EVT) != 0x00U)
 220              		.loc 1 267 9 is_stmt 1 view .LVU86
 221              		.loc 1 267 22 is_stmt 0 view .LVU87
 222 00a6 4E68     		ldr	r6, [r1, #4]
 223              		.loc 1 267 11 view .LVU88
 224 00a8 16F4003F 		tst	r6, #131072
 225 00ac 01D0     		beq	.L10
 268:Drivers/STM32F4xx_HAL_Driver/Src/stm32f4xx_hal_gpio.c ****         {
 269:Drivers/STM32F4xx_HAL_Driver/Src/stm32f4xx_hal_gpio.c ****           temp |= iocurrent;
 226              		.loc 1 269 11 is_stmt 1 view .LVU89
 227              		.loc 1 269 16 is_stmt 0 view .LVU90
 228 00ae 4CEA0405 		orr	r5, ip, r4
 229              	.LVL25:
 230              	.L10:
 270:Drivers/STM32F4xx_HAL_Driver/Src/stm32f4xx_hal_gpio.c ****         }
 271:Drivers/STM32F4xx_HAL_Driver/Src/stm32f4xx_hal_gpio.c ****         EXTI->EMR = temp;
 231              		.loc 1 271 9 is_stmt 1 view .LVU91
 232              		.loc 1 271 19 is_stmt 0 view .LVU92
 233 00b2 4F4C     		ldr	r4, .L31+4
 234 00b4 6560     		str	r5, [r4, #4]
 272:Drivers/STM32F4xx_HAL_Driver/Src/stm32f4xx_hal_gpio.c **** 
 273:Drivers/STM32F4xx_HAL_Driver/Src/stm32f4xx_hal_gpio.c ****         /* Clear EXTI line configuration */
 274:Drivers/STM32F4xx_HAL_Driver/Src/stm32f4xx_hal_gpio.c ****         temp = EXTI->IMR;
 235              		.loc 1 274 9 is_stmt 1 view .LVU93
 236              		.loc 1 274 14 is_stmt 0 view .LVU94
 237 00b6 2468     		ldr	r4, [r4]
 238              	.LVL26:
 275:Drivers/STM32F4xx_HAL_Driver/Src/stm32f4xx_hal_gpio.c ****         temp &= ~((uint32_t)iocurrent);
ARM GAS  /tmp/ccUpCQGL.s 			page 10


 239              		.loc 1 275 9 is_stmt 1 view .LVU95
 240              		.loc 1 275 14 is_stmt 0 view .LVU96
 241 00b8 2240     		ands	r2, r2, r4
 242              	.LVL27:
 276:Drivers/STM32F4xx_HAL_Driver/Src/stm32f4xx_hal_gpio.c ****         if((GPIO_Init->Mode & EXTI_IT) != 0x00U)
 243              		.loc 1 276 9 is_stmt 1 view .LVU97
 244              		.loc 1 276 22 is_stmt 0 view .LVU98
 245 00ba 4D68     		ldr	r5, [r1, #4]
 246              		.loc 1 276 11 view .LVU99
 247 00bc 15F4803F 		tst	r5, #65536
 248 00c0 01D0     		beq	.L11
 277:Drivers/STM32F4xx_HAL_Driver/Src/stm32f4xx_hal_gpio.c ****         {
 278:Drivers/STM32F4xx_HAL_Driver/Src/stm32f4xx_hal_gpio.c ****           temp |= iocurrent;
 249              		.loc 1 278 11 is_stmt 1 view .LVU100
 250              		.loc 1 278 16 is_stmt 0 view .LVU101
 251 00c2 4CEA0402 		orr	r2, ip, r4
 252              	.LVL28:
 253              	.L11:
 279:Drivers/STM32F4xx_HAL_Driver/Src/stm32f4xx_hal_gpio.c ****         }
 280:Drivers/STM32F4xx_HAL_Driver/Src/stm32f4xx_hal_gpio.c ****         EXTI->IMR = temp;
 254              		.loc 1 280 9 is_stmt 1 view .LVU102
 255              		.loc 1 280 19 is_stmt 0 view .LVU103
 256 00c6 4A4C     		ldr	r4, .L31+4
 257 00c8 2260     		str	r2, [r4]
 258              	.LVL29:
 259              	.L3:
 177:Drivers/STM32F4xx_HAL_Driver/Src/stm32f4xx_hal_gpio.c ****   {
 260              		.loc 1 177 46 is_stmt 1 discriminator 2 view .LVU104
 177:Drivers/STM32F4xx_HAL_Driver/Src/stm32f4xx_hal_gpio.c ****   {
 261              		.loc 1 177 54 is_stmt 0 discriminator 2 view .LVU105
 262 00ca 0133     		adds	r3, r3, #1
 263              	.LVL30:
 177:Drivers/STM32F4xx_HAL_Driver/Src/stm32f4xx_hal_gpio.c ****   {
 264              		.loc 1 177 22 is_stmt 1 discriminator 2 view .LVU106
 177:Drivers/STM32F4xx_HAL_Driver/Src/stm32f4xx_hal_gpio.c ****   {
 265              		.loc 1 177 3 is_stmt 0 discriminator 2 view .LVU107
 266 00cc 0F2B     		cmp	r3, #15
 267 00ce 00F28A80 		bhi	.L27
 268              	.LVL31:
 269              	.L12:
 180:Drivers/STM32F4xx_HAL_Driver/Src/stm32f4xx_hal_gpio.c ****     /* Get the current IO position */
 270              		.loc 1 180 5 is_stmt 1 view .LVU108
 180:Drivers/STM32F4xx_HAL_Driver/Src/stm32f4xx_hal_gpio.c ****     /* Get the current IO position */
 271              		.loc 1 180 16 is_stmt 0 view .LVU109
 272 00d2 0122     		movs	r2, #1
 273 00d4 9A40     		lsls	r2, r2, r3
 274              	.LVL32:
 182:Drivers/STM32F4xx_HAL_Driver/Src/stm32f4xx_hal_gpio.c **** 
 275              		.loc 1 182 5 is_stmt 1 view .LVU110
 182:Drivers/STM32F4xx_HAL_Driver/Src/stm32f4xx_hal_gpio.c **** 
 276              		.loc 1 182 37 is_stmt 0 view .LVU111
 277 00d6 0C68     		ldr	r4, [r1]
 182:Drivers/STM32F4xx_HAL_Driver/Src/stm32f4xx_hal_gpio.c **** 
 278              		.loc 1 182 15 view .LVU112
 279 00d8 04EA020C 		and	ip, r4, r2
 280              	.LVL33:
 184:Drivers/STM32F4xx_HAL_Driver/Src/stm32f4xx_hal_gpio.c ****     {
ARM GAS  /tmp/ccUpCQGL.s 			page 11


 281              		.loc 1 184 5 is_stmt 1 view .LVU113
 184:Drivers/STM32F4xx_HAL_Driver/Src/stm32f4xx_hal_gpio.c ****     {
 282              		.loc 1 184 7 is_stmt 0 view .LVU114
 283 00dc 32EA0404 		bics	r4, r2, r4
 284 00e0 F3D1     		bne	.L3
 188:Drivers/STM32F4xx_HAL_Driver/Src/stm32f4xx_hal_gpio.c ****           (GPIO_Init->Mode & GPIO_MODE) == MODE_AF)
 285              		.loc 1 188 7 is_stmt 1 view .LVU115
 188:Drivers/STM32F4xx_HAL_Driver/Src/stm32f4xx_hal_gpio.c ****           (GPIO_Init->Mode & GPIO_MODE) == MODE_AF)
 286              		.loc 1 188 21 is_stmt 0 view .LVU116
 287 00e2 4C68     		ldr	r4, [r1, #4]
 188:Drivers/STM32F4xx_HAL_Driver/Src/stm32f4xx_hal_gpio.c ****           (GPIO_Init->Mode & GPIO_MODE) == MODE_AF)
 288              		.loc 1 188 28 view .LVU117
 289 00e4 04F00304 		and	r4, r4, #3
 188:Drivers/STM32F4xx_HAL_Driver/Src/stm32f4xx_hal_gpio.c ****           (GPIO_Init->Mode & GPIO_MODE) == MODE_AF)
 290              		.loc 1 188 57 view .LVU118
 291 00e8 013C     		subs	r4, r4, #1
 188:Drivers/STM32F4xx_HAL_Driver/Src/stm32f4xx_hal_gpio.c ****           (GPIO_Init->Mode & GPIO_MODE) == MODE_AF)
 292              		.loc 1 188 9 view .LVU119
 293 00ea 012C     		cmp	r4, #1
 294 00ec 8FD9     		bls	.L28
 295              	.LVL34:
 296              	.L4:
 206:Drivers/STM32F4xx_HAL_Driver/Src/stm32f4xx_hal_gpio.c ****       {
 297              		.loc 1 206 7 is_stmt 1 view .LVU120
 206:Drivers/STM32F4xx_HAL_Driver/Src/stm32f4xx_hal_gpio.c ****       {
 298              		.loc 1 206 20 is_stmt 0 view .LVU121
 299 00ee 4A68     		ldr	r2, [r1, #4]
 206:Drivers/STM32F4xx_HAL_Driver/Src/stm32f4xx_hal_gpio.c ****       {
 300              		.loc 1 206 27 view .LVU122
 301 00f0 02F00302 		and	r2, r2, #3
 206:Drivers/STM32F4xx_HAL_Driver/Src/stm32f4xx_hal_gpio.c ****       {
 302              		.loc 1 206 9 view .LVU123
 303 00f4 032A     		cmp	r2, #3
 304 00f6 09D0     		beq	.L5
 209:Drivers/STM32F4xx_HAL_Driver/Src/stm32f4xx_hal_gpio.c ****         
 305              		.loc 1 209 9 is_stmt 1 view .LVU124
 212:Drivers/STM32F4xx_HAL_Driver/Src/stm32f4xx_hal_gpio.c ****         temp &= ~(GPIO_PUPDR_PUPDR0 << (position * 2U));
 306              		.loc 1 212 9 view .LVU125
 212:Drivers/STM32F4xx_HAL_Driver/Src/stm32f4xx_hal_gpio.c ****         temp &= ~(GPIO_PUPDR_PUPDR0 << (position * 2U));
 307              		.loc 1 212 14 is_stmt 0 view .LVU126
 308 00f8 C468     		ldr	r4, [r0, #12]
 309              	.LVL35:
 213:Drivers/STM32F4xx_HAL_Driver/Src/stm32f4xx_hal_gpio.c ****         temp |= ((GPIO_Init->Pull) << (position * 2U));
 310              		.loc 1 213 9 is_stmt 1 view .LVU127
 213:Drivers/STM32F4xx_HAL_Driver/Src/stm32f4xx_hal_gpio.c ****         temp |= ((GPIO_Init->Pull) << (position * 2U));
 311              		.loc 1 213 50 is_stmt 0 view .LVU128
 312 00fa 5D00     		lsls	r5, r3, #1
 213:Drivers/STM32F4xx_HAL_Driver/Src/stm32f4xx_hal_gpio.c ****         temp |= ((GPIO_Init->Pull) << (position * 2U));
 313              		.loc 1 213 37 view .LVU129
 314 00fc 0322     		movs	r2, #3
 315 00fe AA40     		lsls	r2, r2, r5
 213:Drivers/STM32F4xx_HAL_Driver/Src/stm32f4xx_hal_gpio.c ****         temp |= ((GPIO_Init->Pull) << (position * 2U));
 316              		.loc 1 213 14 view .LVU130
 317 0100 24EA0204 		bic	r4, r4, r2
 318              	.LVL36:
 214:Drivers/STM32F4xx_HAL_Driver/Src/stm32f4xx_hal_gpio.c ****         GPIOx->PUPDR = temp;
 319              		.loc 1 214 9 is_stmt 1 view .LVU131
ARM GAS  /tmp/ccUpCQGL.s 			page 12


 214:Drivers/STM32F4xx_HAL_Driver/Src/stm32f4xx_hal_gpio.c ****         GPIOx->PUPDR = temp;
 320              		.loc 1 214 28 is_stmt 0 view .LVU132
 321 0104 8A68     		ldr	r2, [r1, #8]
 214:Drivers/STM32F4xx_HAL_Driver/Src/stm32f4xx_hal_gpio.c ****         GPIOx->PUPDR = temp;
 322              		.loc 1 214 36 view .LVU133
 323 0106 AA40     		lsls	r2, r2, r5
 214:Drivers/STM32F4xx_HAL_Driver/Src/stm32f4xx_hal_gpio.c ****         GPIOx->PUPDR = temp;
 324              		.loc 1 214 14 view .LVU134
 325 0108 2243     		orrs	r2, r2, r4
 326              	.LVL37:
 215:Drivers/STM32F4xx_HAL_Driver/Src/stm32f4xx_hal_gpio.c ****       }
 327              		.loc 1 215 9 is_stmt 1 view .LVU135
 215:Drivers/STM32F4xx_HAL_Driver/Src/stm32f4xx_hal_gpio.c ****       }
 328              		.loc 1 215 22 is_stmt 0 view .LVU136
 329 010a C260     		str	r2, [r0, #12]
 330              	.LVL38:
 331              	.L5:
 219:Drivers/STM32F4xx_HAL_Driver/Src/stm32f4xx_hal_gpio.c ****       {
 332              		.loc 1 219 7 is_stmt 1 view .LVU137
 219:Drivers/STM32F4xx_HAL_Driver/Src/stm32f4xx_hal_gpio.c ****       {
 333              		.loc 1 219 20 is_stmt 0 view .LVU138
 334 010c 4A68     		ldr	r2, [r1, #4]
 219:Drivers/STM32F4xx_HAL_Driver/Src/stm32f4xx_hal_gpio.c ****       {
 335              		.loc 1 219 27 view .LVU139
 336 010e 02F00302 		and	r2, r2, #3
 219:Drivers/STM32F4xx_HAL_Driver/Src/stm32f4xx_hal_gpio.c ****       {
 337              		.loc 1 219 9 view .LVU140
 338 0112 022A     		cmp	r2, #2
 339 0114 8FD0     		beq	.L29
 340              	.L6:
 231:Drivers/STM32F4xx_HAL_Driver/Src/stm32f4xx_hal_gpio.c ****       temp &= ~(GPIO_MODER_MODER0 << (position * 2U));
 341              		.loc 1 231 7 is_stmt 1 view .LVU141
 231:Drivers/STM32F4xx_HAL_Driver/Src/stm32f4xx_hal_gpio.c ****       temp &= ~(GPIO_MODER_MODER0 << (position * 2U));
 342              		.loc 1 231 12 is_stmt 0 view .LVU142
 343 0116 0468     		ldr	r4, [r0]
 344              	.LVL39:
 232:Drivers/STM32F4xx_HAL_Driver/Src/stm32f4xx_hal_gpio.c ****       temp |= ((GPIO_Init->Mode & GPIO_MODE) << (position * 2U));
 345              		.loc 1 232 7 is_stmt 1 view .LVU143
 232:Drivers/STM32F4xx_HAL_Driver/Src/stm32f4xx_hal_gpio.c ****       temp |= ((GPIO_Init->Mode & GPIO_MODE) << (position * 2U));
 346              		.loc 1 232 48 is_stmt 0 view .LVU144
 347 0118 4FEA430E 		lsl	lr, r3, #1
 232:Drivers/STM32F4xx_HAL_Driver/Src/stm32f4xx_hal_gpio.c ****       temp |= ((GPIO_Init->Mode & GPIO_MODE) << (position * 2U));
 348              		.loc 1 232 35 view .LVU145
 349 011c 0322     		movs	r2, #3
 350 011e 02FA0EF2 		lsl	r2, r2, lr
 232:Drivers/STM32F4xx_HAL_Driver/Src/stm32f4xx_hal_gpio.c ****       temp |= ((GPIO_Init->Mode & GPIO_MODE) << (position * 2U));
 351              		.loc 1 232 12 view .LVU146
 352 0122 24EA0204 		bic	r4, r4, r2
 353              	.LVL40:
 233:Drivers/STM32F4xx_HAL_Driver/Src/stm32f4xx_hal_gpio.c ****       GPIOx->MODER = temp;
 354              		.loc 1 233 7 is_stmt 1 view .LVU147
 233:Drivers/STM32F4xx_HAL_Driver/Src/stm32f4xx_hal_gpio.c ****       GPIOx->MODER = temp;
 355              		.loc 1 233 26 is_stmt 0 view .LVU148
 356 0126 4A68     		ldr	r2, [r1, #4]
 233:Drivers/STM32F4xx_HAL_Driver/Src/stm32f4xx_hal_gpio.c ****       GPIOx->MODER = temp;
 357              		.loc 1 233 33 view .LVU149
 358 0128 02F00302 		and	r2, r2, #3
ARM GAS  /tmp/ccUpCQGL.s 			page 13


 233:Drivers/STM32F4xx_HAL_Driver/Src/stm32f4xx_hal_gpio.c ****       GPIOx->MODER = temp;
 359              		.loc 1 233 46 view .LVU150
 360 012c 02FA0EF2 		lsl	r2, r2, lr
 233:Drivers/STM32F4xx_HAL_Driver/Src/stm32f4xx_hal_gpio.c ****       GPIOx->MODER = temp;
 361              		.loc 1 233 12 view .LVU151
 362 0130 2243     		orrs	r2, r2, r4
 363              	.LVL41:
 234:Drivers/STM32F4xx_HAL_Driver/Src/stm32f4xx_hal_gpio.c **** 
 364              		.loc 1 234 7 is_stmt 1 view .LVU152
 234:Drivers/STM32F4xx_HAL_Driver/Src/stm32f4xx_hal_gpio.c **** 
 365              		.loc 1 234 20 is_stmt 0 view .LVU153
 366 0132 0260     		str	r2, [r0]
 238:Drivers/STM32F4xx_HAL_Driver/Src/stm32f4xx_hal_gpio.c ****       {
 367              		.loc 1 238 7 is_stmt 1 view .LVU154
 238:Drivers/STM32F4xx_HAL_Driver/Src/stm32f4xx_hal_gpio.c ****       {
 368              		.loc 1 238 20 is_stmt 0 view .LVU155
 369 0134 4A68     		ldr	r2, [r1, #4]
 370              	.LVL42:
 238:Drivers/STM32F4xx_HAL_Driver/Src/stm32f4xx_hal_gpio.c ****       {
 371              		.loc 1 238 9 view .LVU156
 372 0136 12F4403F 		tst	r2, #196608
 373 013a C6D0     		beq	.L3
 241:Drivers/STM32F4xx_HAL_Driver/Src/stm32f4xx_hal_gpio.c **** 
 374              		.loc 1 241 9 is_stmt 1 view .LVU157
 375              	.LBB2:
 241:Drivers/STM32F4xx_HAL_Driver/Src/stm32f4xx_hal_gpio.c **** 
 376              		.loc 1 241 9 view .LVU158
 377 013c 0022     		movs	r2, #0
 378 013e 0192     		str	r2, [sp, #4]
 379              	.LVL43:
 241:Drivers/STM32F4xx_HAL_Driver/Src/stm32f4xx_hal_gpio.c **** 
 380              		.loc 1 241 9 view .LVU159
 381 0140 2C4A     		ldr	r2, .L31+8
 382 0142 546C     		ldr	r4, [r2, #68]
 383 0144 44F48044 		orr	r4, r4, #16384
 384 0148 5464     		str	r4, [r2, #68]
 241:Drivers/STM32F4xx_HAL_Driver/Src/stm32f4xx_hal_gpio.c **** 
 385              		.loc 1 241 9 view .LVU160
 386 014a 526C     		ldr	r2, [r2, #68]
 387 014c 02F48042 		and	r2, r2, #16384
 388 0150 0192     		str	r2, [sp, #4]
 241:Drivers/STM32F4xx_HAL_Driver/Src/stm32f4xx_hal_gpio.c **** 
 389              		.loc 1 241 9 view .LVU161
 390 0152 019A     		ldr	r2, [sp, #4]
 391              	.LBE2:
 241:Drivers/STM32F4xx_HAL_Driver/Src/stm32f4xx_hal_gpio.c **** 
 392              		.loc 1 241 9 view .LVU162
 243:Drivers/STM32F4xx_HAL_Driver/Src/stm32f4xx_hal_gpio.c ****         temp &= ~(0x0FU << (4U * (position & 0x03U)));
 393              		.loc 1 243 9 view .LVU163
 243:Drivers/STM32F4xx_HAL_Driver/Src/stm32f4xx_hal_gpio.c ****         temp &= ~(0x0FU << (4U * (position & 0x03U)));
 394              		.loc 1 243 40 is_stmt 0 view .LVU164
 395 0154 9C08     		lsrs	r4, r3, #2
 243:Drivers/STM32F4xx_HAL_Driver/Src/stm32f4xx_hal_gpio.c ****         temp &= ~(0x0FU << (4U * (position & 0x03U)));
 396              		.loc 1 243 14 view .LVU165
 397 0156 A51C     		adds	r5, r4, #2
 398 0158 244A     		ldr	r2, .L31
 399 015a 52F82550 		ldr	r5, [r2, r5, lsl #2]
ARM GAS  /tmp/ccUpCQGL.s 			page 14


 400              	.LVL44:
 244:Drivers/STM32F4xx_HAL_Driver/Src/stm32f4xx_hal_gpio.c ****         temp |= ((uint32_t)(GPIO_GET_INDEX(GPIOx)) << (4U * (position & 0x03U)));
 401              		.loc 1 244 9 is_stmt 1 view .LVU166
 244:Drivers/STM32F4xx_HAL_Driver/Src/stm32f4xx_hal_gpio.c ****         temp |= ((uint32_t)(GPIO_GET_INDEX(GPIOx)) << (4U * (position & 0x03U)));
 402              		.loc 1 244 44 is_stmt 0 view .LVU167
 403 015e 03F00302 		and	r2, r3, #3
 244:Drivers/STM32F4xx_HAL_Driver/Src/stm32f4xx_hal_gpio.c ****         temp |= ((uint32_t)(GPIO_GET_INDEX(GPIOx)) << (4U * (position & 0x03U)));
 404              		.loc 1 244 32 view .LVU168
 405 0162 4FEA820E 		lsl	lr, r2, #2
 244:Drivers/STM32F4xx_HAL_Driver/Src/stm32f4xx_hal_gpio.c ****         temp |= ((uint32_t)(GPIO_GET_INDEX(GPIOx)) << (4U * (position & 0x03U)));
 406              		.loc 1 244 25 view .LVU169
 407 0166 0F22     		movs	r2, #15
 408 0168 02FA0EF2 		lsl	r2, r2, lr
 244:Drivers/STM32F4xx_HAL_Driver/Src/stm32f4xx_hal_gpio.c ****         temp |= ((uint32_t)(GPIO_GET_INDEX(GPIOx)) << (4U * (position & 0x03U)));
 409              		.loc 1 244 14 view .LVU170
 410 016c 25EA0205 		bic	r5, r5, r2
 411              	.LVL45:
 245:Drivers/STM32F4xx_HAL_Driver/Src/stm32f4xx_hal_gpio.c ****         SYSCFG->EXTICR[position >> 2U] = temp;
 412              		.loc 1 245 9 is_stmt 1 view .LVU171
 245:Drivers/STM32F4xx_HAL_Driver/Src/stm32f4xx_hal_gpio.c ****         SYSCFG->EXTICR[position >> 2U] = temp;
 413              		.loc 1 245 18 is_stmt 0 view .LVU172
 414 0170 214A     		ldr	r2, .L31+12
 415 0172 9042     		cmp	r0, r2
 416 0174 3FF473AF 		beq	.L13
 245:Drivers/STM32F4xx_HAL_Driver/Src/stm32f4xx_hal_gpio.c ****         SYSCFG->EXTICR[position >> 2U] = temp;
 417              		.loc 1 245 29 discriminator 1 view .LVU173
 418 0178 02F58062 		add	r2, r2, #1024
 419 017c 9042     		cmp	r0, r2
 420 017e 22D0     		beq	.L14
 245:Drivers/STM32F4xx_HAL_Driver/Src/stm32f4xx_hal_gpio.c ****         SYSCFG->EXTICR[position >> 2U] = temp;
 421              		.loc 1 245 29 discriminator 3 view .LVU174
 422 0180 02F58062 		add	r2, r2, #1024
 423 0184 9042     		cmp	r0, r2
 424 0186 20D0     		beq	.L15
 245:Drivers/STM32F4xx_HAL_Driver/Src/stm32f4xx_hal_gpio.c ****         SYSCFG->EXTICR[position >> 2U] = temp;
 425              		.loc 1 245 29 discriminator 5 view .LVU175
 426 0188 02F58062 		add	r2, r2, #1024
 427 018c 9042     		cmp	r0, r2
 428 018e 1ED0     		beq	.L16
 245:Drivers/STM32F4xx_HAL_Driver/Src/stm32f4xx_hal_gpio.c ****         SYSCFG->EXTICR[position >> 2U] = temp;
 429              		.loc 1 245 29 discriminator 7 view .LVU176
 430 0190 02F58062 		add	r2, r2, #1024
 431 0194 9042     		cmp	r0, r2
 432 0196 1CD0     		beq	.L17
 245:Drivers/STM32F4xx_HAL_Driver/Src/stm32f4xx_hal_gpio.c ****         SYSCFG->EXTICR[position >> 2U] = temp;
 433              		.loc 1 245 29 discriminator 9 view .LVU177
 434 0198 02F58062 		add	r2, r2, #1024
 435 019c 9042     		cmp	r0, r2
 436 019e 1AD0     		beq	.L18
 245:Drivers/STM32F4xx_HAL_Driver/Src/stm32f4xx_hal_gpio.c ****         SYSCFG->EXTICR[position >> 2U] = temp;
 437              		.loc 1 245 29 discriminator 11 view .LVU178
 438 01a0 02F58062 		add	r2, r2, #1024
 439 01a4 9042     		cmp	r0, r2
 440 01a6 18D0     		beq	.L19
 245:Drivers/STM32F4xx_HAL_Driver/Src/stm32f4xx_hal_gpio.c ****         SYSCFG->EXTICR[position >> 2U] = temp;
 441              		.loc 1 245 29 discriminator 13 view .LVU179
 442 01a8 02F58062 		add	r2, r2, #1024
ARM GAS  /tmp/ccUpCQGL.s 			page 15


 443 01ac 9042     		cmp	r0, r2
 444 01ae 16D0     		beq	.L20
 245:Drivers/STM32F4xx_HAL_Driver/Src/stm32f4xx_hal_gpio.c ****         SYSCFG->EXTICR[position >> 2U] = temp;
 445              		.loc 1 245 29 discriminator 15 view .LVU180
 446 01b0 02F58062 		add	r2, r2, #1024
 447 01b4 9042     		cmp	r0, r2
 448 01b6 14D0     		beq	.L21
 245:Drivers/STM32F4xx_HAL_Driver/Src/stm32f4xx_hal_gpio.c ****         SYSCFG->EXTICR[position >> 2U] = temp;
 449              		.loc 1 245 29 discriminator 17 view .LVU181
 450 01b8 02F58062 		add	r2, r2, #1024
 451 01bc 9042     		cmp	r0, r2
 452 01be 3FF44CAF 		beq	.L30
 245:Drivers/STM32F4xx_HAL_Driver/Src/stm32f4xx_hal_gpio.c ****         SYSCFG->EXTICR[position >> 2U] = temp;
 453              		.loc 1 245 29 view .LVU182
 454 01c2 0A22     		movs	r2, #10
 455 01c4 4CE7     		b	.L7
 456              	.L14:
 457 01c6 0122     		movs	r2, #1
 458              	.LVL46:
 245:Drivers/STM32F4xx_HAL_Driver/Src/stm32f4xx_hal_gpio.c ****         SYSCFG->EXTICR[position >> 2U] = temp;
 459              		.loc 1 245 29 view .LVU183
 460 01c8 4AE7     		b	.L7
 461              	.LVL47:
 462              	.L15:
 245:Drivers/STM32F4xx_HAL_Driver/Src/stm32f4xx_hal_gpio.c ****         SYSCFG->EXTICR[position >> 2U] = temp;
 463              		.loc 1 245 29 view .LVU184
 464 01ca 0222     		movs	r2, #2
 465 01cc 48E7     		b	.L7
 466              	.L16:
 467 01ce 0322     		movs	r2, #3
 468 01d0 46E7     		b	.L7
 469              	.L17:
 470 01d2 0422     		movs	r2, #4
 471 01d4 44E7     		b	.L7
 472              	.L18:
 473 01d6 0522     		movs	r2, #5
 474 01d8 42E7     		b	.L7
 475              	.L19:
 476 01da 0622     		movs	r2, #6
 477 01dc 40E7     		b	.L7
 478              	.L20:
 479 01de 0722     		movs	r2, #7
 480 01e0 3EE7     		b	.L7
 481              	.L21:
 482 01e2 0822     		movs	r2, #8
 483 01e4 3CE7     		b	.L7
 484              	.LVL48:
 485              	.L27:
 281:Drivers/STM32F4xx_HAL_Driver/Src/stm32f4xx_hal_gpio.c ****       }
 282:Drivers/STM32F4xx_HAL_Driver/Src/stm32f4xx_hal_gpio.c ****     }
 283:Drivers/STM32F4xx_HAL_Driver/Src/stm32f4xx_hal_gpio.c ****   }
 284:Drivers/STM32F4xx_HAL_Driver/Src/stm32f4xx_hal_gpio.c **** }
 486              		.loc 1 284 1 view .LVU185
 487 01e6 02B0     		add	sp, sp, #8
 488              		.cfi_def_cfa_offset 16
 489              		@ sp needed
 490 01e8 70BD     		pop	{r4, r5, r6, pc}
ARM GAS  /tmp/ccUpCQGL.s 			page 16


 491              	.LVL49:
 492              	.L26:
 493              		.cfi_def_cfa_offset 0
 494              		.cfi_restore 4
 495              		.cfi_restore 5
 496              		.cfi_restore 6
 497              		.cfi_restore 14
 498              		.loc 1 284 1 view .LVU186
 499 01ea 7047     		bx	lr
 500              	.L32:
 501              		.align	2
 502              	.L31:
 503 01ec 00380140 		.word	1073821696
 504 01f0 003C0140 		.word	1073822720
 505 01f4 00380240 		.word	1073887232
 506 01f8 00000240 		.word	1073872896
 507              		.cfi_endproc
 508              	.LFE134:
 510              		.section	.text.HAL_GPIO_DeInit,"ax",%progbits
 511              		.align	1
 512              		.global	HAL_GPIO_DeInit
 513              		.syntax unified
 514              		.thumb
 515              		.thumb_func
 517              	HAL_GPIO_DeInit:
 518              	.LVL50:
 519              	.LFB135:
 285:Drivers/STM32F4xx_HAL_Driver/Src/stm32f4xx_hal_gpio.c **** 
 286:Drivers/STM32F4xx_HAL_Driver/Src/stm32f4xx_hal_gpio.c **** /**
 287:Drivers/STM32F4xx_HAL_Driver/Src/stm32f4xx_hal_gpio.c ****   * @brief  De-initializes the GPIOx peripheral registers to their default reset values.
 288:Drivers/STM32F4xx_HAL_Driver/Src/stm32f4xx_hal_gpio.c ****   * @param  GPIOx where x can be (A..K) to select the GPIO peripheral for STM32F429X device or
 289:Drivers/STM32F4xx_HAL_Driver/Src/stm32f4xx_hal_gpio.c ****   *                      x can be (A..I) to select the GPIO peripheral for STM32F40XX and STM32F427
 290:Drivers/STM32F4xx_HAL_Driver/Src/stm32f4xx_hal_gpio.c ****   * @param  GPIO_Pin specifies the port bit to be written.
 291:Drivers/STM32F4xx_HAL_Driver/Src/stm32f4xx_hal_gpio.c ****   *          This parameter can be one of GPIO_PIN_x where x can be (0..15).
 292:Drivers/STM32F4xx_HAL_Driver/Src/stm32f4xx_hal_gpio.c ****   * @retval None
 293:Drivers/STM32F4xx_HAL_Driver/Src/stm32f4xx_hal_gpio.c ****   */
 294:Drivers/STM32F4xx_HAL_Driver/Src/stm32f4xx_hal_gpio.c **** void HAL_GPIO_DeInit(GPIO_TypeDef  *GPIOx, uint32_t GPIO_Pin)
 295:Drivers/STM32F4xx_HAL_Driver/Src/stm32f4xx_hal_gpio.c **** {
 520              		.loc 1 295 1 is_stmt 1 view -0
 521              		.cfi_startproc
 522              		@ args = 0, pretend = 0, frame = 0
 523              		@ frame_needed = 0, uses_anonymous_args = 0
 296:Drivers/STM32F4xx_HAL_Driver/Src/stm32f4xx_hal_gpio.c ****   uint32_t position;
 524              		.loc 1 296 3 view .LVU188
 297:Drivers/STM32F4xx_HAL_Driver/Src/stm32f4xx_hal_gpio.c ****   uint32_t ioposition = 0x00U;
 525              		.loc 1 297 3 view .LVU189
 298:Drivers/STM32F4xx_HAL_Driver/Src/stm32f4xx_hal_gpio.c ****   uint32_t iocurrent = 0x00U;
 526              		.loc 1 298 3 view .LVU190
 299:Drivers/STM32F4xx_HAL_Driver/Src/stm32f4xx_hal_gpio.c ****   uint32_t tmp = 0x00U;
 527              		.loc 1 299 3 view .LVU191
 300:Drivers/STM32F4xx_HAL_Driver/Src/stm32f4xx_hal_gpio.c **** 
 301:Drivers/STM32F4xx_HAL_Driver/Src/stm32f4xx_hal_gpio.c ****   /* Check the parameters */
 302:Drivers/STM32F4xx_HAL_Driver/Src/stm32f4xx_hal_gpio.c ****   assert_param(IS_GPIO_ALL_INSTANCE(GPIOx));
 528              		.loc 1 302 3 view .LVU192
 303:Drivers/STM32F4xx_HAL_Driver/Src/stm32f4xx_hal_gpio.c ****   
 304:Drivers/STM32F4xx_HAL_Driver/Src/stm32f4xx_hal_gpio.c ****   /* Configure the port pins */
 305:Drivers/STM32F4xx_HAL_Driver/Src/stm32f4xx_hal_gpio.c ****   for(position = 0U; position < GPIO_NUMBER; position++)
ARM GAS  /tmp/ccUpCQGL.s 			page 17


 529              		.loc 1 305 3 view .LVU193
 530              		.loc 1 305 16 is_stmt 0 view .LVU194
 531 0000 0023     		movs	r3, #0
 532              	.LVL51:
 533              		.loc 1 305 22 is_stmt 1 view .LVU195
 534              		.loc 1 305 3 is_stmt 0 view .LVU196
 535 0002 0F2B     		cmp	r3, #15
 536 0004 00F29B80 		bhi	.L52
 295:Drivers/STM32F4xx_HAL_Driver/Src/stm32f4xx_hal_gpio.c ****   uint32_t position;
 537              		.loc 1 295 1 view .LVU197
 538 0008 F0B5     		push	{r4, r5, r6, r7, lr}
 539              		.cfi_def_cfa_offset 20
 540              		.cfi_offset 4, -20
 541              		.cfi_offset 5, -16
 542              		.cfi_offset 6, -12
 543              		.cfi_offset 7, -8
 544              		.cfi_offset 14, -4
 545 000a 2DE0     		b	.L38
 546              	.LVL52:
 547              	.L55:
 306:Drivers/STM32F4xx_HAL_Driver/Src/stm32f4xx_hal_gpio.c ****   {
 307:Drivers/STM32F4xx_HAL_Driver/Src/stm32f4xx_hal_gpio.c ****     /* Get the IO position */
 308:Drivers/STM32F4xx_HAL_Driver/Src/stm32f4xx_hal_gpio.c ****     ioposition = 0x01U << position;
 309:Drivers/STM32F4xx_HAL_Driver/Src/stm32f4xx_hal_gpio.c ****     /* Get the current IO position */
 310:Drivers/STM32F4xx_HAL_Driver/Src/stm32f4xx_hal_gpio.c ****     iocurrent = (GPIO_Pin) & ioposition;
 311:Drivers/STM32F4xx_HAL_Driver/Src/stm32f4xx_hal_gpio.c **** 
 312:Drivers/STM32F4xx_HAL_Driver/Src/stm32f4xx_hal_gpio.c ****     if(iocurrent == ioposition)
 313:Drivers/STM32F4xx_HAL_Driver/Src/stm32f4xx_hal_gpio.c ****     {
 314:Drivers/STM32F4xx_HAL_Driver/Src/stm32f4xx_hal_gpio.c ****       /*------------------------- EXTI Mode Configuration --------------------*/
 315:Drivers/STM32F4xx_HAL_Driver/Src/stm32f4xx_hal_gpio.c ****       tmp = SYSCFG->EXTICR[position >> 2U];
 316:Drivers/STM32F4xx_HAL_Driver/Src/stm32f4xx_hal_gpio.c ****       tmp &= (0x0FU << (4U * (position & 0x03U)));
 317:Drivers/STM32F4xx_HAL_Driver/Src/stm32f4xx_hal_gpio.c ****       if(tmp == ((uint32_t)(GPIO_GET_INDEX(GPIOx)) << (4U * (position & 0x03U))))
 548              		.loc 1 317 29 view .LVU198
 549 000c 0925     		movs	r5, #9
 550 000e 00E0     		b	.L36
 551              	.L39:
 552              		.loc 1 317 18 view .LVU199
 553 0010 0025     		movs	r5, #0
 554              	.L36:
 555              		.loc 1 317 52 discriminator 40 view .LVU200
 556 0012 05FA0CFC 		lsl	ip, r5, ip
 557              		.loc 1 317 9 discriminator 40 view .LVU201
 558 0016 A445     		cmp	ip, r4
 559 0018 75D0     		beq	.L53
 560              	.LVL53:
 561              	.L37:
 318:Drivers/STM32F4xx_HAL_Driver/Src/stm32f4xx_hal_gpio.c ****       {
 319:Drivers/STM32F4xx_HAL_Driver/Src/stm32f4xx_hal_gpio.c ****         /* Clear EXTI line configuration */
 320:Drivers/STM32F4xx_HAL_Driver/Src/stm32f4xx_hal_gpio.c ****         EXTI->IMR &= ~((uint32_t)iocurrent);
 321:Drivers/STM32F4xx_HAL_Driver/Src/stm32f4xx_hal_gpio.c ****         EXTI->EMR &= ~((uint32_t)iocurrent);
 322:Drivers/STM32F4xx_HAL_Driver/Src/stm32f4xx_hal_gpio.c ****         
 323:Drivers/STM32F4xx_HAL_Driver/Src/stm32f4xx_hal_gpio.c ****         /* Clear Rising Falling edge configuration */
 324:Drivers/STM32F4xx_HAL_Driver/Src/stm32f4xx_hal_gpio.c ****         EXTI->FTSR &= ~((uint32_t)iocurrent);
 325:Drivers/STM32F4xx_HAL_Driver/Src/stm32f4xx_hal_gpio.c ****         EXTI->RTSR &= ~((uint32_t)iocurrent);
 326:Drivers/STM32F4xx_HAL_Driver/Src/stm32f4xx_hal_gpio.c **** 
 327:Drivers/STM32F4xx_HAL_Driver/Src/stm32f4xx_hal_gpio.c ****         /* Configure the External Interrupt or event for the current IO */
 328:Drivers/STM32F4xx_HAL_Driver/Src/stm32f4xx_hal_gpio.c ****         tmp = 0x0FU << (4U * (position & 0x03U));
ARM GAS  /tmp/ccUpCQGL.s 			page 18


 329:Drivers/STM32F4xx_HAL_Driver/Src/stm32f4xx_hal_gpio.c ****         SYSCFG->EXTICR[position >> 2U] &= ~tmp;
 330:Drivers/STM32F4xx_HAL_Driver/Src/stm32f4xx_hal_gpio.c ****       }
 331:Drivers/STM32F4xx_HAL_Driver/Src/stm32f4xx_hal_gpio.c **** 
 332:Drivers/STM32F4xx_HAL_Driver/Src/stm32f4xx_hal_gpio.c ****       /*------------------------- GPIO Mode Configuration --------------------*/
 333:Drivers/STM32F4xx_HAL_Driver/Src/stm32f4xx_hal_gpio.c ****       /* Configure IO Direction in Input Floating Mode */
 334:Drivers/STM32F4xx_HAL_Driver/Src/stm32f4xx_hal_gpio.c ****       GPIOx->MODER &= ~(GPIO_MODER_MODER0 << (position * 2U));
 562              		.loc 1 334 7 is_stmt 1 view .LVU202
 563              		.loc 1 334 20 is_stmt 0 view .LVU203
 564 001a 0468     		ldr	r4, [r0]
 565              		.loc 1 334 56 view .LVU204
 566 001c 5D00     		lsls	r5, r3, #1
 567              		.loc 1 334 43 view .LVU205
 568 001e 4FF0030C 		mov	ip, #3
 569 0022 0CFA05FC 		lsl	ip, ip, r5
 570              		.loc 1 334 20 view .LVU206
 571 0026 24EA0C04 		bic	r4, r4, ip
 572 002a 0460     		str	r4, [r0]
 335:Drivers/STM32F4xx_HAL_Driver/Src/stm32f4xx_hal_gpio.c **** 
 336:Drivers/STM32F4xx_HAL_Driver/Src/stm32f4xx_hal_gpio.c ****       /* Configure the default Alternate Function in current IO */
 337:Drivers/STM32F4xx_HAL_Driver/Src/stm32f4xx_hal_gpio.c ****       GPIOx->AFR[position >> 3U] &= ~(0xFU << ((uint32_t)(position & 0x07U) * 4U)) ;
 573              		.loc 1 337 7 is_stmt 1 view .LVU207
 574              		.loc 1 337 34 is_stmt 0 view .LVU208
 575 002c 4FEAD30E 		lsr	lr, r3, #3
 576 0030 0EF1080E 		add	lr, lr, #8
 577 0034 50F82E40 		ldr	r4, [r0, lr, lsl #2]
 578              		.loc 1 337 48 view .LVU209
 579 0038 03F00705 		and	r5, r3, #7
 580              		.loc 1 337 77 view .LVU210
 581 003c AE00     		lsls	r6, r5, #2
 582              		.loc 1 337 44 view .LVU211
 583 003e 0F25     		movs	r5, #15
 584 0040 B540     		lsls	r5, r5, r6
 585              		.loc 1 337 34 view .LVU212
 586 0042 24EA0504 		bic	r4, r4, r5
 587 0046 40F82E40 		str	r4, [r0, lr, lsl #2]
 338:Drivers/STM32F4xx_HAL_Driver/Src/stm32f4xx_hal_gpio.c **** 
 339:Drivers/STM32F4xx_HAL_Driver/Src/stm32f4xx_hal_gpio.c ****       /* Deactivate the Pull-up and Pull-down resistor for the current IO */
 340:Drivers/STM32F4xx_HAL_Driver/Src/stm32f4xx_hal_gpio.c ****       GPIOx->PUPDR &= ~(GPIO_PUPDR_PUPDR0 << (position * 2U));
 588              		.loc 1 340 7 is_stmt 1 view .LVU213
 589              		.loc 1 340 20 is_stmt 0 view .LVU214
 590 004a C468     		ldr	r4, [r0, #12]
 591 004c 24EA0C04 		bic	r4, r4, ip
 592 0050 C460     		str	r4, [r0, #12]
 341:Drivers/STM32F4xx_HAL_Driver/Src/stm32f4xx_hal_gpio.c **** 
 342:Drivers/STM32F4xx_HAL_Driver/Src/stm32f4xx_hal_gpio.c ****       /* Configure the default value IO Output Type */
 343:Drivers/STM32F4xx_HAL_Driver/Src/stm32f4xx_hal_gpio.c ****       GPIOx->OTYPER  &= ~(GPIO_OTYPER_OT_0 << position) ;
 593              		.loc 1 343 7 is_stmt 1 view .LVU215
 594              		.loc 1 343 22 is_stmt 0 view .LVU216
 595 0052 4468     		ldr	r4, [r0, #4]
 596 0054 24EA0202 		bic	r2, r4, r2
 597              	.LVL54:
 598              		.loc 1 343 22 view .LVU217
 599 0058 4260     		str	r2, [r0, #4]
 344:Drivers/STM32F4xx_HAL_Driver/Src/stm32f4xx_hal_gpio.c **** 
 345:Drivers/STM32F4xx_HAL_Driver/Src/stm32f4xx_hal_gpio.c ****       /* Configure the default value for IO Speed */
 346:Drivers/STM32F4xx_HAL_Driver/Src/stm32f4xx_hal_gpio.c ****       GPIOx->OSPEEDR &= ~(GPIO_OSPEEDER_OSPEEDR0 << (position * 2U));
 600              		.loc 1 346 7 is_stmt 1 view .LVU218
ARM GAS  /tmp/ccUpCQGL.s 			page 19


 601              		.loc 1 346 22 is_stmt 0 view .LVU219
 602 005a 8268     		ldr	r2, [r0, #8]
 603 005c 22EA0C02 		bic	r2, r2, ip
 604 0060 8260     		str	r2, [r0, #8]
 605              	.L35:
 305:Drivers/STM32F4xx_HAL_Driver/Src/stm32f4xx_hal_gpio.c ****   {
 606              		.loc 1 305 46 is_stmt 1 discriminator 2 view .LVU220
 305:Drivers/STM32F4xx_HAL_Driver/Src/stm32f4xx_hal_gpio.c ****   {
 607              		.loc 1 305 54 is_stmt 0 discriminator 2 view .LVU221
 608 0062 0133     		adds	r3, r3, #1
 609              	.LVL55:
 305:Drivers/STM32F4xx_HAL_Driver/Src/stm32f4xx_hal_gpio.c ****   {
 610              		.loc 1 305 22 is_stmt 1 discriminator 2 view .LVU222
 305:Drivers/STM32F4xx_HAL_Driver/Src/stm32f4xx_hal_gpio.c ****   {
 611              		.loc 1 305 3 is_stmt 0 discriminator 2 view .LVU223
 612 0064 0F2B     		cmp	r3, #15
 613 0066 69D8     		bhi	.L54
 614              	.LVL56:
 615              	.L38:
 308:Drivers/STM32F4xx_HAL_Driver/Src/stm32f4xx_hal_gpio.c ****     /* Get the current IO position */
 616              		.loc 1 308 5 is_stmt 1 view .LVU224
 308:Drivers/STM32F4xx_HAL_Driver/Src/stm32f4xx_hal_gpio.c ****     /* Get the current IO position */
 617              		.loc 1 308 16 is_stmt 0 view .LVU225
 618 0068 0122     		movs	r2, #1
 619 006a 9A40     		lsls	r2, r2, r3
 620              	.LVL57:
 310:Drivers/STM32F4xx_HAL_Driver/Src/stm32f4xx_hal_gpio.c **** 
 621              		.loc 1 310 5 is_stmt 1 view .LVU226
 310:Drivers/STM32F4xx_HAL_Driver/Src/stm32f4xx_hal_gpio.c **** 
 622              		.loc 1 310 15 is_stmt 0 view .LVU227
 623 006c 02EA0106 		and	r6, r2, r1
 624              	.LVL58:
 312:Drivers/STM32F4xx_HAL_Driver/Src/stm32f4xx_hal_gpio.c ****     {
 625              		.loc 1 312 5 is_stmt 1 view .LVU228
 312:Drivers/STM32F4xx_HAL_Driver/Src/stm32f4xx_hal_gpio.c ****     {
 626              		.loc 1 312 7 is_stmt 0 view .LVU229
 627 0070 32EA0104 		bics	r4, r2, r1
 628 0074 F5D1     		bne	.L35
 315:Drivers/STM32F4xx_HAL_Driver/Src/stm32f4xx_hal_gpio.c ****       tmp &= (0x0FU << (4U * (position & 0x03U)));
 629              		.loc 1 315 7 is_stmt 1 view .LVU230
 315:Drivers/STM32F4xx_HAL_Driver/Src/stm32f4xx_hal_gpio.c ****       tmp &= (0x0FU << (4U * (position & 0x03U)));
 630              		.loc 1 315 37 is_stmt 0 view .LVU231
 631 0076 4FEA930E 		lsr	lr, r3, #2
 315:Drivers/STM32F4xx_HAL_Driver/Src/stm32f4xx_hal_gpio.c ****       tmp &= (0x0FU << (4U * (position & 0x03U)));
 632              		.loc 1 315 11 view .LVU232
 633 007a 0EF10205 		add	r5, lr, #2
 634 007e 304C     		ldr	r4, .L56
 635 0080 54F82540 		ldr	r4, [r4, r5, lsl #2]
 636              	.LVL59:
 316:Drivers/STM32F4xx_HAL_Driver/Src/stm32f4xx_hal_gpio.c ****       if(tmp == ((uint32_t)(GPIO_GET_INDEX(GPIOx)) << (4U * (position & 0x03U))))
 637              		.loc 1 316 7 is_stmt 1 view .LVU233
 316:Drivers/STM32F4xx_HAL_Driver/Src/stm32f4xx_hal_gpio.c ****       if(tmp == ((uint32_t)(GPIO_GET_INDEX(GPIOx)) << (4U * (position & 0x03U))))
 638              		.loc 1 316 40 is_stmt 0 view .LVU234
 639 0084 03F0030C 		and	ip, r3, #3
 316:Drivers/STM32F4xx_HAL_Driver/Src/stm32f4xx_hal_gpio.c ****       if(tmp == ((uint32_t)(GPIO_GET_INDEX(GPIOx)) << (4U * (position & 0x03U))))
 640              		.loc 1 316 28 view .LVU235
 641 0088 4FEA8C0C 		lsl	ip, ip, #2
ARM GAS  /tmp/ccUpCQGL.s 			page 20


 316:Drivers/STM32F4xx_HAL_Driver/Src/stm32f4xx_hal_gpio.c ****       if(tmp == ((uint32_t)(GPIO_GET_INDEX(GPIOx)) << (4U * (position & 0x03U))))
 642              		.loc 1 316 21 view .LVU236
 643 008c 0F25     		movs	r5, #15
 644 008e 05FA0CF7 		lsl	r7, r5, ip
 316:Drivers/STM32F4xx_HAL_Driver/Src/stm32f4xx_hal_gpio.c ****       if(tmp == ((uint32_t)(GPIO_GET_INDEX(GPIOx)) << (4U * (position & 0x03U))))
 645              		.loc 1 316 11 view .LVU237
 646 0092 3C40     		ands	r4, r4, r7
 647              	.LVL60:
 317:Drivers/STM32F4xx_HAL_Driver/Src/stm32f4xx_hal_gpio.c ****       {
 648              		.loc 1 317 7 is_stmt 1 view .LVU238
 317:Drivers/STM32F4xx_HAL_Driver/Src/stm32f4xx_hal_gpio.c ****       {
 649              		.loc 1 317 18 is_stmt 0 view .LVU239
 650 0094 2B4D     		ldr	r5, .L56+4
 651 0096 A842     		cmp	r0, r5
 652 0098 BAD0     		beq	.L39
 317:Drivers/STM32F4xx_HAL_Driver/Src/stm32f4xx_hal_gpio.c ****       {
 653              		.loc 1 317 29 discriminator 1 view .LVU240
 654 009a 05F58065 		add	r5, r5, #1024
 655 009e A842     		cmp	r0, r5
 656 00a0 21D0     		beq	.L40
 317:Drivers/STM32F4xx_HAL_Driver/Src/stm32f4xx_hal_gpio.c ****       {
 657              		.loc 1 317 29 discriminator 3 view .LVU241
 658 00a2 05F58065 		add	r5, r5, #1024
 659 00a6 A842     		cmp	r0, r5
 660 00a8 1FD0     		beq	.L41
 317:Drivers/STM32F4xx_HAL_Driver/Src/stm32f4xx_hal_gpio.c ****       {
 661              		.loc 1 317 29 discriminator 5 view .LVU242
 662 00aa 05F58065 		add	r5, r5, #1024
 663 00ae A842     		cmp	r0, r5
 664 00b0 1DD0     		beq	.L42
 317:Drivers/STM32F4xx_HAL_Driver/Src/stm32f4xx_hal_gpio.c ****       {
 665              		.loc 1 317 29 discriminator 7 view .LVU243
 666 00b2 05F58065 		add	r5, r5, #1024
 667 00b6 A842     		cmp	r0, r5
 668 00b8 1BD0     		beq	.L43
 317:Drivers/STM32F4xx_HAL_Driver/Src/stm32f4xx_hal_gpio.c ****       {
 669              		.loc 1 317 29 discriminator 9 view .LVU244
 670 00ba 05F58065 		add	r5, r5, #1024
 671 00be A842     		cmp	r0, r5
 672 00c0 19D0     		beq	.L44
 317:Drivers/STM32F4xx_HAL_Driver/Src/stm32f4xx_hal_gpio.c ****       {
 673              		.loc 1 317 29 discriminator 11 view .LVU245
 674 00c2 05F58065 		add	r5, r5, #1024
 675 00c6 A842     		cmp	r0, r5
 676 00c8 17D0     		beq	.L45
 317:Drivers/STM32F4xx_HAL_Driver/Src/stm32f4xx_hal_gpio.c ****       {
 677              		.loc 1 317 29 discriminator 13 view .LVU246
 678 00ca 05F58065 		add	r5, r5, #1024
 679 00ce A842     		cmp	r0, r5
 680 00d0 15D0     		beq	.L46
 317:Drivers/STM32F4xx_HAL_Driver/Src/stm32f4xx_hal_gpio.c ****       {
 681              		.loc 1 317 29 discriminator 15 view .LVU247
 682 00d2 05F58065 		add	r5, r5, #1024
 683 00d6 A842     		cmp	r0, r5
 684 00d8 13D0     		beq	.L47
 317:Drivers/STM32F4xx_HAL_Driver/Src/stm32f4xx_hal_gpio.c ****       {
 685              		.loc 1 317 29 discriminator 17 view .LVU248
ARM GAS  /tmp/ccUpCQGL.s 			page 21


 686 00da 05F58065 		add	r5, r5, #1024
 687 00de A842     		cmp	r0, r5
 688 00e0 94D0     		beq	.L55
 317:Drivers/STM32F4xx_HAL_Driver/Src/stm32f4xx_hal_gpio.c ****       {
 689              		.loc 1 317 29 view .LVU249
 690 00e2 0A25     		movs	r5, #10
 691 00e4 95E7     		b	.L36
 692              	.L40:
 693 00e6 0125     		movs	r5, #1
 694 00e8 93E7     		b	.L36
 695              	.L41:
 696 00ea 0225     		movs	r5, #2
 697 00ec 91E7     		b	.L36
 698              	.L42:
 699 00ee 0325     		movs	r5, #3
 700 00f0 8FE7     		b	.L36
 701              	.L43:
 702 00f2 0425     		movs	r5, #4
 703 00f4 8DE7     		b	.L36
 704              	.L44:
 705 00f6 0525     		movs	r5, #5
 706 00f8 8BE7     		b	.L36
 707              	.L45:
 708 00fa 0625     		movs	r5, #6
 709 00fc 89E7     		b	.L36
 710              	.L46:
 711 00fe 0725     		movs	r5, #7
 712 0100 87E7     		b	.L36
 713              	.L47:
 714 0102 0825     		movs	r5, #8
 715 0104 85E7     		b	.L36
 716              	.L53:
 320:Drivers/STM32F4xx_HAL_Driver/Src/stm32f4xx_hal_gpio.c ****         EXTI->EMR &= ~((uint32_t)iocurrent);
 717              		.loc 1 320 9 is_stmt 1 view .LVU250
 320:Drivers/STM32F4xx_HAL_Driver/Src/stm32f4xx_hal_gpio.c ****         EXTI->EMR &= ~((uint32_t)iocurrent);
 718              		.loc 1 320 19 is_stmt 0 view .LVU251
 719 0106 104C     		ldr	r4, .L56+8
 720              	.LVL61:
 320:Drivers/STM32F4xx_HAL_Driver/Src/stm32f4xx_hal_gpio.c ****         EXTI->EMR &= ~((uint32_t)iocurrent);
 721              		.loc 1 320 19 view .LVU252
 722 0108 2568     		ldr	r5, [r4]
 723 010a 25EA0605 		bic	r5, r5, r6
 724 010e 2560     		str	r5, [r4]
 321:Drivers/STM32F4xx_HAL_Driver/Src/stm32f4xx_hal_gpio.c ****         
 725              		.loc 1 321 9 is_stmt 1 view .LVU253
 321:Drivers/STM32F4xx_HAL_Driver/Src/stm32f4xx_hal_gpio.c ****         
 726              		.loc 1 321 19 is_stmt 0 view .LVU254
 727 0110 6568     		ldr	r5, [r4, #4]
 728 0112 25EA0605 		bic	r5, r5, r6
 729 0116 6560     		str	r5, [r4, #4]
 324:Drivers/STM32F4xx_HAL_Driver/Src/stm32f4xx_hal_gpio.c ****         EXTI->RTSR &= ~((uint32_t)iocurrent);
 730              		.loc 1 324 9 is_stmt 1 view .LVU255
 324:Drivers/STM32F4xx_HAL_Driver/Src/stm32f4xx_hal_gpio.c ****         EXTI->RTSR &= ~((uint32_t)iocurrent);
 731              		.loc 1 324 20 is_stmt 0 view .LVU256
 732 0118 E568     		ldr	r5, [r4, #12]
 733 011a 25EA0605 		bic	r5, r5, r6
 734 011e E560     		str	r5, [r4, #12]
ARM GAS  /tmp/ccUpCQGL.s 			page 22


 325:Drivers/STM32F4xx_HAL_Driver/Src/stm32f4xx_hal_gpio.c **** 
 735              		.loc 1 325 9 is_stmt 1 view .LVU257
 325:Drivers/STM32F4xx_HAL_Driver/Src/stm32f4xx_hal_gpio.c **** 
 736              		.loc 1 325 20 is_stmt 0 view .LVU258
 737 0120 A568     		ldr	r5, [r4, #8]
 738 0122 25EA0606 		bic	r6, r5, r6
 739              	.LVL62:
 325:Drivers/STM32F4xx_HAL_Driver/Src/stm32f4xx_hal_gpio.c **** 
 740              		.loc 1 325 20 view .LVU259
 741 0126 A660     		str	r6, [r4, #8]
 328:Drivers/STM32F4xx_HAL_Driver/Src/stm32f4xx_hal_gpio.c ****         SYSCFG->EXTICR[position >> 2U] &= ~tmp;
 742              		.loc 1 328 9 is_stmt 1 view .LVU260
 743              	.LVL63:
 329:Drivers/STM32F4xx_HAL_Driver/Src/stm32f4xx_hal_gpio.c ****       }
 744              		.loc 1 329 9 view .LVU261
 329:Drivers/STM32F4xx_HAL_Driver/Src/stm32f4xx_hal_gpio.c ****       }
 745              		.loc 1 329 40 is_stmt 0 view .LVU262
 746 0128 054E     		ldr	r6, .L56
 747 012a 0EF10204 		add	r4, lr, #2
 748 012e 56F82450 		ldr	r5, [r6, r4, lsl #2]
 749 0132 25EA0705 		bic	r5, r5, r7
 750 0136 46F82450 		str	r5, [r6, r4, lsl #2]
 751 013a 6EE7     		b	.L37
 752              	.LVL64:
 753              	.L54:
 347:Drivers/STM32F4xx_HAL_Driver/Src/stm32f4xx_hal_gpio.c ****     }
 348:Drivers/STM32F4xx_HAL_Driver/Src/stm32f4xx_hal_gpio.c ****   }
 349:Drivers/STM32F4xx_HAL_Driver/Src/stm32f4xx_hal_gpio.c **** }
 754              		.loc 1 349 1 view .LVU263
 755 013c F0BD     		pop	{r4, r5, r6, r7, pc}
 756              	.LVL65:
 757              	.L52:
 758              		.cfi_def_cfa_offset 0
 759              		.cfi_restore 4
 760              		.cfi_restore 5
 761              		.cfi_restore 6
 762              		.cfi_restore 7
 763              		.cfi_restore 14
 764              		.loc 1 349 1 view .LVU264
 765 013e 7047     		bx	lr
 766              	.L57:
 767              		.align	2
 768              	.L56:
 769 0140 00380140 		.word	1073821696
 770 0144 00000240 		.word	1073872896
 771 0148 003C0140 		.word	1073822720
 772              		.cfi_endproc
 773              	.LFE135:
 775              		.section	.text.HAL_GPIO_ReadPin,"ax",%progbits
 776              		.align	1
 777              		.global	HAL_GPIO_ReadPin
 778              		.syntax unified
 779              		.thumb
 780              		.thumb_func
 782              	HAL_GPIO_ReadPin:
 783              	.LVL66:
 784              	.LFB136:
ARM GAS  /tmp/ccUpCQGL.s 			page 23


 350:Drivers/STM32F4xx_HAL_Driver/Src/stm32f4xx_hal_gpio.c **** 
 351:Drivers/STM32F4xx_HAL_Driver/Src/stm32f4xx_hal_gpio.c **** /**
 352:Drivers/STM32F4xx_HAL_Driver/Src/stm32f4xx_hal_gpio.c ****   * @}
 353:Drivers/STM32F4xx_HAL_Driver/Src/stm32f4xx_hal_gpio.c ****   */
 354:Drivers/STM32F4xx_HAL_Driver/Src/stm32f4xx_hal_gpio.c **** 
 355:Drivers/STM32F4xx_HAL_Driver/Src/stm32f4xx_hal_gpio.c **** /** @defgroup GPIO_Exported_Functions_Group2 IO operation functions 
 356:Drivers/STM32F4xx_HAL_Driver/Src/stm32f4xx_hal_gpio.c ****   *  @brief   GPIO Read and Write
 357:Drivers/STM32F4xx_HAL_Driver/Src/stm32f4xx_hal_gpio.c ****   *
 358:Drivers/STM32F4xx_HAL_Driver/Src/stm32f4xx_hal_gpio.c **** @verbatim
 359:Drivers/STM32F4xx_HAL_Driver/Src/stm32f4xx_hal_gpio.c ****  ===============================================================================
 360:Drivers/STM32F4xx_HAL_Driver/Src/stm32f4xx_hal_gpio.c ****                        ##### IO operation functions #####
 361:Drivers/STM32F4xx_HAL_Driver/Src/stm32f4xx_hal_gpio.c ****  ===============================================================================
 362:Drivers/STM32F4xx_HAL_Driver/Src/stm32f4xx_hal_gpio.c **** 
 363:Drivers/STM32F4xx_HAL_Driver/Src/stm32f4xx_hal_gpio.c **** @endverbatim
 364:Drivers/STM32F4xx_HAL_Driver/Src/stm32f4xx_hal_gpio.c ****   * @{
 365:Drivers/STM32F4xx_HAL_Driver/Src/stm32f4xx_hal_gpio.c ****   */
 366:Drivers/STM32F4xx_HAL_Driver/Src/stm32f4xx_hal_gpio.c **** 
 367:Drivers/STM32F4xx_HAL_Driver/Src/stm32f4xx_hal_gpio.c **** /**
 368:Drivers/STM32F4xx_HAL_Driver/Src/stm32f4xx_hal_gpio.c ****   * @brief  Reads the specified input port pin.
 369:Drivers/STM32F4xx_HAL_Driver/Src/stm32f4xx_hal_gpio.c ****   * @param  GPIOx where x can be (A..K) to select the GPIO peripheral for STM32F429X device or
 370:Drivers/STM32F4xx_HAL_Driver/Src/stm32f4xx_hal_gpio.c ****   *                      x can be (A..I) to select the GPIO peripheral for STM32F40XX and STM32F427
 371:Drivers/STM32F4xx_HAL_Driver/Src/stm32f4xx_hal_gpio.c ****   * @param  GPIO_Pin specifies the port bit to read.
 372:Drivers/STM32F4xx_HAL_Driver/Src/stm32f4xx_hal_gpio.c ****   *         This parameter can be GPIO_PIN_x where x can be (0..15).
 373:Drivers/STM32F4xx_HAL_Driver/Src/stm32f4xx_hal_gpio.c ****   * @retval The input port pin value.
 374:Drivers/STM32F4xx_HAL_Driver/Src/stm32f4xx_hal_gpio.c ****   */
 375:Drivers/STM32F4xx_HAL_Driver/Src/stm32f4xx_hal_gpio.c **** GPIO_PinState HAL_GPIO_ReadPin(GPIO_TypeDef* GPIOx, uint16_t GPIO_Pin)
 376:Drivers/STM32F4xx_HAL_Driver/Src/stm32f4xx_hal_gpio.c **** {
 785              		.loc 1 376 1 is_stmt 1 view -0
 786              		.cfi_startproc
 787              		@ args = 0, pretend = 0, frame = 0
 788              		@ frame_needed = 0, uses_anonymous_args = 0
 789              		@ link register save eliminated.
 377:Drivers/STM32F4xx_HAL_Driver/Src/stm32f4xx_hal_gpio.c ****   GPIO_PinState bitstatus;
 790              		.loc 1 377 3 view .LVU266
 378:Drivers/STM32F4xx_HAL_Driver/Src/stm32f4xx_hal_gpio.c **** 
 379:Drivers/STM32F4xx_HAL_Driver/Src/stm32f4xx_hal_gpio.c ****   /* Check the parameters */
 380:Drivers/STM32F4xx_HAL_Driver/Src/stm32f4xx_hal_gpio.c ****   assert_param(IS_GPIO_PIN(GPIO_Pin));
 791              		.loc 1 380 3 view .LVU267
 381:Drivers/STM32F4xx_HAL_Driver/Src/stm32f4xx_hal_gpio.c **** 
 382:Drivers/STM32F4xx_HAL_Driver/Src/stm32f4xx_hal_gpio.c ****   if((GPIOx->IDR & GPIO_Pin) != (uint32_t)GPIO_PIN_RESET)
 792              		.loc 1 382 3 view .LVU268
 793              		.loc 1 382 12 is_stmt 0 view .LVU269
 794 0000 0369     		ldr	r3, [r0, #16]
 795              		.loc 1 382 5 view .LVU270
 796 0002 1942     		tst	r1, r3
 797 0004 01D0     		beq	.L60
 383:Drivers/STM32F4xx_HAL_Driver/Src/stm32f4xx_hal_gpio.c ****   {
 384:Drivers/STM32F4xx_HAL_Driver/Src/stm32f4xx_hal_gpio.c ****     bitstatus = GPIO_PIN_SET;
 798              		.loc 1 384 15 view .LVU271
 799 0006 0120     		movs	r0, #1
 800              	.LVL67:
 801              		.loc 1 384 15 view .LVU272
 802 0008 7047     		bx	lr
 803              	.LVL68:
 804              	.L60:
 385:Drivers/STM32F4xx_HAL_Driver/Src/stm32f4xx_hal_gpio.c ****   }
 386:Drivers/STM32F4xx_HAL_Driver/Src/stm32f4xx_hal_gpio.c ****   else
ARM GAS  /tmp/ccUpCQGL.s 			page 24


 387:Drivers/STM32F4xx_HAL_Driver/Src/stm32f4xx_hal_gpio.c ****   {
 388:Drivers/STM32F4xx_HAL_Driver/Src/stm32f4xx_hal_gpio.c ****     bitstatus = GPIO_PIN_RESET;
 805              		.loc 1 388 15 view .LVU273
 806 000a 0020     		movs	r0, #0
 807              	.LVL69:
 389:Drivers/STM32F4xx_HAL_Driver/Src/stm32f4xx_hal_gpio.c ****   }
 390:Drivers/STM32F4xx_HAL_Driver/Src/stm32f4xx_hal_gpio.c ****   return bitstatus;
 808              		.loc 1 390 3 is_stmt 1 view .LVU274
 391:Drivers/STM32F4xx_HAL_Driver/Src/stm32f4xx_hal_gpio.c **** }
 809              		.loc 1 391 1 is_stmt 0 view .LVU275
 810 000c 7047     		bx	lr
 811              		.cfi_endproc
 812              	.LFE136:
 814              		.section	.text.HAL_GPIO_WritePin,"ax",%progbits
 815              		.align	1
 816              		.global	HAL_GPIO_WritePin
 817              		.syntax unified
 818              		.thumb
 819              		.thumb_func
 821              	HAL_GPIO_WritePin:
 822              	.LVL70:
 823              	.LFB137:
 392:Drivers/STM32F4xx_HAL_Driver/Src/stm32f4xx_hal_gpio.c **** 
 393:Drivers/STM32F4xx_HAL_Driver/Src/stm32f4xx_hal_gpio.c **** /**
 394:Drivers/STM32F4xx_HAL_Driver/Src/stm32f4xx_hal_gpio.c ****   * @brief  Sets or clears the selected data port bit.
 395:Drivers/STM32F4xx_HAL_Driver/Src/stm32f4xx_hal_gpio.c ****   *
 396:Drivers/STM32F4xx_HAL_Driver/Src/stm32f4xx_hal_gpio.c ****   * @note   This function uses GPIOx_BSRR register to allow atomic read/modify
 397:Drivers/STM32F4xx_HAL_Driver/Src/stm32f4xx_hal_gpio.c ****   *         accesses. In this way, there is no risk of an IRQ occurring between
 398:Drivers/STM32F4xx_HAL_Driver/Src/stm32f4xx_hal_gpio.c ****   *         the read and the modify access.
 399:Drivers/STM32F4xx_HAL_Driver/Src/stm32f4xx_hal_gpio.c ****   *
 400:Drivers/STM32F4xx_HAL_Driver/Src/stm32f4xx_hal_gpio.c ****   * @param  GPIOx where x can be (A..K) to select the GPIO peripheral for STM32F429X device or
 401:Drivers/STM32F4xx_HAL_Driver/Src/stm32f4xx_hal_gpio.c ****   *                      x can be (A..I) to select the GPIO peripheral for STM32F40XX and STM32F427
 402:Drivers/STM32F4xx_HAL_Driver/Src/stm32f4xx_hal_gpio.c ****   * @param  GPIO_Pin specifies the port bit to be written.
 403:Drivers/STM32F4xx_HAL_Driver/Src/stm32f4xx_hal_gpio.c ****   *          This parameter can be one of GPIO_PIN_x where x can be (0..15).
 404:Drivers/STM32F4xx_HAL_Driver/Src/stm32f4xx_hal_gpio.c ****   * @param  PinState specifies the value to be written to the selected bit.
 405:Drivers/STM32F4xx_HAL_Driver/Src/stm32f4xx_hal_gpio.c ****   *          This parameter can be one of the GPIO_PinState enum values:
 406:Drivers/STM32F4xx_HAL_Driver/Src/stm32f4xx_hal_gpio.c ****   *            @arg GPIO_PIN_RESET: to clear the port pin
 407:Drivers/STM32F4xx_HAL_Driver/Src/stm32f4xx_hal_gpio.c ****   *            @arg GPIO_PIN_SET: to set the port pin
 408:Drivers/STM32F4xx_HAL_Driver/Src/stm32f4xx_hal_gpio.c ****   * @retval None
 409:Drivers/STM32F4xx_HAL_Driver/Src/stm32f4xx_hal_gpio.c ****   */
 410:Drivers/STM32F4xx_HAL_Driver/Src/stm32f4xx_hal_gpio.c **** void HAL_GPIO_WritePin(GPIO_TypeDef* GPIOx, uint16_t GPIO_Pin, GPIO_PinState PinState)
 411:Drivers/STM32F4xx_HAL_Driver/Src/stm32f4xx_hal_gpio.c **** {
 824              		.loc 1 411 1 is_stmt 1 view -0
 825              		.cfi_startproc
 826              		@ args = 0, pretend = 0, frame = 0
 827              		@ frame_needed = 0, uses_anonymous_args = 0
 828              		@ link register save eliminated.
 412:Drivers/STM32F4xx_HAL_Driver/Src/stm32f4xx_hal_gpio.c ****   /* Check the parameters */
 413:Drivers/STM32F4xx_HAL_Driver/Src/stm32f4xx_hal_gpio.c ****   assert_param(IS_GPIO_PIN(GPIO_Pin));
 829              		.loc 1 413 3 view .LVU277
 414:Drivers/STM32F4xx_HAL_Driver/Src/stm32f4xx_hal_gpio.c ****   assert_param(IS_GPIO_PIN_ACTION(PinState));
 830              		.loc 1 414 3 view .LVU278
 415:Drivers/STM32F4xx_HAL_Driver/Src/stm32f4xx_hal_gpio.c **** 
 416:Drivers/STM32F4xx_HAL_Driver/Src/stm32f4xx_hal_gpio.c ****   if(PinState != GPIO_PIN_RESET)
 831              		.loc 1 416 3 view .LVU279
 832              		.loc 1 416 5 is_stmt 0 view .LVU280
 833 0000 0AB1     		cbz	r2, .L62
ARM GAS  /tmp/ccUpCQGL.s 			page 25


 417:Drivers/STM32F4xx_HAL_Driver/Src/stm32f4xx_hal_gpio.c ****   {
 418:Drivers/STM32F4xx_HAL_Driver/Src/stm32f4xx_hal_gpio.c ****     GPIOx->BSRR = GPIO_Pin;
 834              		.loc 1 418 5 is_stmt 1 view .LVU281
 835              		.loc 1 418 17 is_stmt 0 view .LVU282
 836 0002 8161     		str	r1, [r0, #24]
 837 0004 7047     		bx	lr
 838              	.L62:
 419:Drivers/STM32F4xx_HAL_Driver/Src/stm32f4xx_hal_gpio.c ****   }
 420:Drivers/STM32F4xx_HAL_Driver/Src/stm32f4xx_hal_gpio.c ****   else
 421:Drivers/STM32F4xx_HAL_Driver/Src/stm32f4xx_hal_gpio.c ****   {
 422:Drivers/STM32F4xx_HAL_Driver/Src/stm32f4xx_hal_gpio.c ****     GPIOx->BSRR = (uint32_t)GPIO_Pin << 16U;
 839              		.loc 1 422 5 is_stmt 1 view .LVU283
 840              		.loc 1 422 38 is_stmt 0 view .LVU284
 841 0006 0904     		lsls	r1, r1, #16
 842              	.LVL71:
 843              		.loc 1 422 17 view .LVU285
 844 0008 8161     		str	r1, [r0, #24]
 423:Drivers/STM32F4xx_HAL_Driver/Src/stm32f4xx_hal_gpio.c ****   }
 424:Drivers/STM32F4xx_HAL_Driver/Src/stm32f4xx_hal_gpio.c **** }
 845              		.loc 1 424 1 view .LVU286
 846 000a 7047     		bx	lr
 847              		.cfi_endproc
 848              	.LFE137:
 850              		.section	.text.HAL_GPIO_TogglePin,"ax",%progbits
 851              		.align	1
 852              		.global	HAL_GPIO_TogglePin
 853              		.syntax unified
 854              		.thumb
 855              		.thumb_func
 857              	HAL_GPIO_TogglePin:
 858              	.LVL72:
 859              	.LFB138:
 425:Drivers/STM32F4xx_HAL_Driver/Src/stm32f4xx_hal_gpio.c **** 
 426:Drivers/STM32F4xx_HAL_Driver/Src/stm32f4xx_hal_gpio.c **** /**
 427:Drivers/STM32F4xx_HAL_Driver/Src/stm32f4xx_hal_gpio.c ****   * @brief  Toggles the specified GPIO pins.
 428:Drivers/STM32F4xx_HAL_Driver/Src/stm32f4xx_hal_gpio.c ****   * @param  GPIOx Where x can be (A..K) to select the GPIO peripheral for STM32F429X device or
 429:Drivers/STM32F4xx_HAL_Driver/Src/stm32f4xx_hal_gpio.c ****   *                      x can be (A..I) to select the GPIO peripheral for STM32F40XX and STM32F427
 430:Drivers/STM32F4xx_HAL_Driver/Src/stm32f4xx_hal_gpio.c ****   * @param  GPIO_Pin Specifies the pins to be toggled.
 431:Drivers/STM32F4xx_HAL_Driver/Src/stm32f4xx_hal_gpio.c ****   * @retval None
 432:Drivers/STM32F4xx_HAL_Driver/Src/stm32f4xx_hal_gpio.c ****   */
 433:Drivers/STM32F4xx_HAL_Driver/Src/stm32f4xx_hal_gpio.c **** void HAL_GPIO_TogglePin(GPIO_TypeDef* GPIOx, uint16_t GPIO_Pin)
 434:Drivers/STM32F4xx_HAL_Driver/Src/stm32f4xx_hal_gpio.c **** {
 860              		.loc 1 434 1 is_stmt 1 view -0
 861              		.cfi_startproc
 862              		@ args = 0, pretend = 0, frame = 0
 863              		@ frame_needed = 0, uses_anonymous_args = 0
 864              		@ link register save eliminated.
 435:Drivers/STM32F4xx_HAL_Driver/Src/stm32f4xx_hal_gpio.c ****   uint32_t odr;
 865              		.loc 1 435 3 view .LVU288
 436:Drivers/STM32F4xx_HAL_Driver/Src/stm32f4xx_hal_gpio.c **** 
 437:Drivers/STM32F4xx_HAL_Driver/Src/stm32f4xx_hal_gpio.c ****   /* Check the parameters */
 438:Drivers/STM32F4xx_HAL_Driver/Src/stm32f4xx_hal_gpio.c ****   assert_param(IS_GPIO_PIN(GPIO_Pin));
 866              		.loc 1 438 3 view .LVU289
 439:Drivers/STM32F4xx_HAL_Driver/Src/stm32f4xx_hal_gpio.c **** 
 440:Drivers/STM32F4xx_HAL_Driver/Src/stm32f4xx_hal_gpio.c ****   /* get current Output Data Register value */
 441:Drivers/STM32F4xx_HAL_Driver/Src/stm32f4xx_hal_gpio.c ****   odr = GPIOx->ODR;
 867              		.loc 1 441 3 view .LVU290
ARM GAS  /tmp/ccUpCQGL.s 			page 26


 868              		.loc 1 441 7 is_stmt 0 view .LVU291
 869 0000 4369     		ldr	r3, [r0, #20]
 870              	.LVL73:
 442:Drivers/STM32F4xx_HAL_Driver/Src/stm32f4xx_hal_gpio.c **** 
 443:Drivers/STM32F4xx_HAL_Driver/Src/stm32f4xx_hal_gpio.c ****   /* Set selected pins that were at low level, and reset ones that were high */
 444:Drivers/STM32F4xx_HAL_Driver/Src/stm32f4xx_hal_gpio.c ****   GPIOx->BSRR = ((odr & GPIO_Pin) << GPIO_NUMBER) | (~odr & GPIO_Pin);
 871              		.loc 1 444 3 is_stmt 1 view .LVU292
 872              		.loc 1 444 23 is_stmt 0 view .LVU293
 873 0002 01EA0302 		and	r2, r1, r3
 874              		.loc 1 444 59 view .LVU294
 875 0006 21EA0301 		bic	r1, r1, r3
 876              	.LVL74:
 877              		.loc 1 444 51 view .LVU295
 878 000a 41EA0241 		orr	r1, r1, r2, lsl #16
 879              		.loc 1 444 15 view .LVU296
 880 000e 8161     		str	r1, [r0, #24]
 445:Drivers/STM32F4xx_HAL_Driver/Src/stm32f4xx_hal_gpio.c **** }
 881              		.loc 1 445 1 view .LVU297
 882 0010 7047     		bx	lr
 883              		.cfi_endproc
 884              	.LFE138:
 886              		.section	.text.HAL_GPIO_LockPin,"ax",%progbits
 887              		.align	1
 888              		.global	HAL_GPIO_LockPin
 889              		.syntax unified
 890              		.thumb
 891              		.thumb_func
 893              	HAL_GPIO_LockPin:
 894              	.LVL75:
 895              	.LFB139:
 446:Drivers/STM32F4xx_HAL_Driver/Src/stm32f4xx_hal_gpio.c **** 
 447:Drivers/STM32F4xx_HAL_Driver/Src/stm32f4xx_hal_gpio.c **** /**
 448:Drivers/STM32F4xx_HAL_Driver/Src/stm32f4xx_hal_gpio.c ****   * @brief  Locks GPIO Pins configuration registers.
 449:Drivers/STM32F4xx_HAL_Driver/Src/stm32f4xx_hal_gpio.c ****   * @note   The locked registers are GPIOx_MODER, GPIOx_OTYPER, GPIOx_OSPEEDR,
 450:Drivers/STM32F4xx_HAL_Driver/Src/stm32f4xx_hal_gpio.c ****   *         GPIOx_PUPDR, GPIOx_AFRL and GPIOx_AFRH.
 451:Drivers/STM32F4xx_HAL_Driver/Src/stm32f4xx_hal_gpio.c ****   * @note   The configuration of the locked GPIO pins can no longer be modified
 452:Drivers/STM32F4xx_HAL_Driver/Src/stm32f4xx_hal_gpio.c ****   *         until the next reset.
 453:Drivers/STM32F4xx_HAL_Driver/Src/stm32f4xx_hal_gpio.c ****   * @param  GPIOx where x can be (A..F) to select the GPIO peripheral for STM32F4 family
 454:Drivers/STM32F4xx_HAL_Driver/Src/stm32f4xx_hal_gpio.c ****   * @param  GPIO_Pin specifies the port bit to be locked.
 455:Drivers/STM32F4xx_HAL_Driver/Src/stm32f4xx_hal_gpio.c ****   *         This parameter can be any combination of GPIO_PIN_x where x can be (0..15).
 456:Drivers/STM32F4xx_HAL_Driver/Src/stm32f4xx_hal_gpio.c ****   * @retval None
 457:Drivers/STM32F4xx_HAL_Driver/Src/stm32f4xx_hal_gpio.c ****   */
 458:Drivers/STM32F4xx_HAL_Driver/Src/stm32f4xx_hal_gpio.c **** HAL_StatusTypeDef HAL_GPIO_LockPin(GPIO_TypeDef* GPIOx, uint16_t GPIO_Pin)
 459:Drivers/STM32F4xx_HAL_Driver/Src/stm32f4xx_hal_gpio.c **** {
 896              		.loc 1 459 1 is_stmt 1 view -0
 897              		.cfi_startproc
 898              		@ args = 0, pretend = 0, frame = 8
 899              		@ frame_needed = 0, uses_anonymous_args = 0
 900              		@ link register save eliminated.
 901              		.loc 1 459 1 is_stmt 0 view .LVU299
 902 0000 82B0     		sub	sp, sp, #8
 903              		.cfi_def_cfa_offset 8
 460:Drivers/STM32F4xx_HAL_Driver/Src/stm32f4xx_hal_gpio.c ****   __IO uint32_t tmp = GPIO_LCKR_LCKK;
 904              		.loc 1 460 3 is_stmt 1 view .LVU300
 905              		.loc 1 460 17 is_stmt 0 view .LVU301
 906 0002 4FF48033 		mov	r3, #65536
 907 0006 0193     		str	r3, [sp, #4]
ARM GAS  /tmp/ccUpCQGL.s 			page 27


 461:Drivers/STM32F4xx_HAL_Driver/Src/stm32f4xx_hal_gpio.c **** 
 462:Drivers/STM32F4xx_HAL_Driver/Src/stm32f4xx_hal_gpio.c ****   /* Check the parameters */
 463:Drivers/STM32F4xx_HAL_Driver/Src/stm32f4xx_hal_gpio.c ****   assert_param(IS_GPIO_PIN(GPIO_Pin));
 908              		.loc 1 463 3 is_stmt 1 view .LVU302
 464:Drivers/STM32F4xx_HAL_Driver/Src/stm32f4xx_hal_gpio.c **** 
 465:Drivers/STM32F4xx_HAL_Driver/Src/stm32f4xx_hal_gpio.c ****   /* Apply lock key write sequence */
 466:Drivers/STM32F4xx_HAL_Driver/Src/stm32f4xx_hal_gpio.c ****   tmp |= GPIO_Pin;
 909              		.loc 1 466 3 view .LVU303
 910              		.loc 1 466 7 is_stmt 0 view .LVU304
 911 0008 019B     		ldr	r3, [sp, #4]
 912 000a 0B43     		orrs	r3, r3, r1
 913 000c 0193     		str	r3, [sp, #4]
 467:Drivers/STM32F4xx_HAL_Driver/Src/stm32f4xx_hal_gpio.c ****   /* Set LCKx bit(s): LCKK='1' + LCK[15-0] */
 468:Drivers/STM32F4xx_HAL_Driver/Src/stm32f4xx_hal_gpio.c ****   GPIOx->LCKR = tmp;
 914              		.loc 1 468 3 is_stmt 1 view .LVU305
 915              		.loc 1 468 15 is_stmt 0 view .LVU306
 916 000e 019B     		ldr	r3, [sp, #4]
 917 0010 C361     		str	r3, [r0, #28]
 469:Drivers/STM32F4xx_HAL_Driver/Src/stm32f4xx_hal_gpio.c ****   /* Reset LCKx bit(s): LCKK='0' + LCK[15-0] */
 470:Drivers/STM32F4xx_HAL_Driver/Src/stm32f4xx_hal_gpio.c ****   GPIOx->LCKR = GPIO_Pin;
 918              		.loc 1 470 3 is_stmt 1 view .LVU307
 919              		.loc 1 470 15 is_stmt 0 view .LVU308
 920 0012 C161     		str	r1, [r0, #28]
 471:Drivers/STM32F4xx_HAL_Driver/Src/stm32f4xx_hal_gpio.c ****   /* Set LCKx bit(s): LCKK='1' + LCK[15-0] */
 472:Drivers/STM32F4xx_HAL_Driver/Src/stm32f4xx_hal_gpio.c ****   GPIOx->LCKR = tmp;
 921              		.loc 1 472 3 is_stmt 1 view .LVU309
 922              		.loc 1 472 15 is_stmt 0 view .LVU310
 923 0014 019B     		ldr	r3, [sp, #4]
 924 0016 C361     		str	r3, [r0, #28]
 473:Drivers/STM32F4xx_HAL_Driver/Src/stm32f4xx_hal_gpio.c ****   /* Read LCKR register. This read is mandatory to complete key lock sequence */
 474:Drivers/STM32F4xx_HAL_Driver/Src/stm32f4xx_hal_gpio.c ****   tmp = GPIOx->LCKR;
 925              		.loc 1 474 3 is_stmt 1 view .LVU311
 926              		.loc 1 474 14 is_stmt 0 view .LVU312
 927 0018 C369     		ldr	r3, [r0, #28]
 928              		.loc 1 474 7 view .LVU313
 929 001a 0193     		str	r3, [sp, #4]
 475:Drivers/STM32F4xx_HAL_Driver/Src/stm32f4xx_hal_gpio.c **** 
 476:Drivers/STM32F4xx_HAL_Driver/Src/stm32f4xx_hal_gpio.c ****   /* Read again in order to confirm lock is active */
 477:Drivers/STM32F4xx_HAL_Driver/Src/stm32f4xx_hal_gpio.c ****  if((GPIOx->LCKR & GPIO_LCKR_LCKK) != RESET)
 930              		.loc 1 477 2 is_stmt 1 view .LVU314
 931              		.loc 1 477 11 is_stmt 0 view .LVU315
 932 001c C369     		ldr	r3, [r0, #28]
 933              		.loc 1 477 4 view .LVU316
 934 001e 13F4803F 		tst	r3, #65536
 935 0022 02D0     		beq	.L67
 478:Drivers/STM32F4xx_HAL_Driver/Src/stm32f4xx_hal_gpio.c ****   {
 479:Drivers/STM32F4xx_HAL_Driver/Src/stm32f4xx_hal_gpio.c ****     return HAL_OK;
 936              		.loc 1 479 12 view .LVU317
 937 0024 0020     		movs	r0, #0
 938              	.LVL76:
 939              	.L66:
 480:Drivers/STM32F4xx_HAL_Driver/Src/stm32f4xx_hal_gpio.c ****   }
 481:Drivers/STM32F4xx_HAL_Driver/Src/stm32f4xx_hal_gpio.c ****   else
 482:Drivers/STM32F4xx_HAL_Driver/Src/stm32f4xx_hal_gpio.c ****   {
 483:Drivers/STM32F4xx_HAL_Driver/Src/stm32f4xx_hal_gpio.c ****     return HAL_ERROR;
 484:Drivers/STM32F4xx_HAL_Driver/Src/stm32f4xx_hal_gpio.c ****   }
 485:Drivers/STM32F4xx_HAL_Driver/Src/stm32f4xx_hal_gpio.c **** }
ARM GAS  /tmp/ccUpCQGL.s 			page 28


 940              		.loc 1 485 1 view .LVU318
 941 0026 02B0     		add	sp, sp, #8
 942              		.cfi_remember_state
 943              		.cfi_def_cfa_offset 0
 944              		@ sp needed
 945 0028 7047     		bx	lr
 946              	.LVL77:
 947              	.L67:
 948              		.cfi_restore_state
 483:Drivers/STM32F4xx_HAL_Driver/Src/stm32f4xx_hal_gpio.c ****   }
 949              		.loc 1 483 12 view .LVU319
 950 002a 0120     		movs	r0, #1
 951              	.LVL78:
 483:Drivers/STM32F4xx_HAL_Driver/Src/stm32f4xx_hal_gpio.c ****   }
 952              		.loc 1 483 12 view .LVU320
 953 002c FBE7     		b	.L66
 954              		.cfi_endproc
 955              	.LFE139:
 957              		.section	.text.HAL_GPIO_EXTI_Callback,"ax",%progbits
 958              		.align	1
 959              		.weak	HAL_GPIO_EXTI_Callback
 960              		.syntax unified
 961              		.thumb
 962              		.thumb_func
 964              	HAL_GPIO_EXTI_Callback:
 965              	.LVL79:
 966              	.LFB141:
 486:Drivers/STM32F4xx_HAL_Driver/Src/stm32f4xx_hal_gpio.c **** 
 487:Drivers/STM32F4xx_HAL_Driver/Src/stm32f4xx_hal_gpio.c **** /**
 488:Drivers/STM32F4xx_HAL_Driver/Src/stm32f4xx_hal_gpio.c ****   * @brief  This function handles EXTI interrupt request.
 489:Drivers/STM32F4xx_HAL_Driver/Src/stm32f4xx_hal_gpio.c ****   * @param  GPIO_Pin Specifies the pins connected EXTI line
 490:Drivers/STM32F4xx_HAL_Driver/Src/stm32f4xx_hal_gpio.c ****   * @retval None
 491:Drivers/STM32F4xx_HAL_Driver/Src/stm32f4xx_hal_gpio.c ****   */
 492:Drivers/STM32F4xx_HAL_Driver/Src/stm32f4xx_hal_gpio.c **** void HAL_GPIO_EXTI_IRQHandler(uint16_t GPIO_Pin)
 493:Drivers/STM32F4xx_HAL_Driver/Src/stm32f4xx_hal_gpio.c **** {
 494:Drivers/STM32F4xx_HAL_Driver/Src/stm32f4xx_hal_gpio.c ****   /* EXTI line interrupt detected */
 495:Drivers/STM32F4xx_HAL_Driver/Src/stm32f4xx_hal_gpio.c ****   if(__HAL_GPIO_EXTI_GET_IT(GPIO_Pin) != RESET)
 496:Drivers/STM32F4xx_HAL_Driver/Src/stm32f4xx_hal_gpio.c ****   {
 497:Drivers/STM32F4xx_HAL_Driver/Src/stm32f4xx_hal_gpio.c ****     __HAL_GPIO_EXTI_CLEAR_IT(GPIO_Pin);
 498:Drivers/STM32F4xx_HAL_Driver/Src/stm32f4xx_hal_gpio.c ****     HAL_GPIO_EXTI_Callback(GPIO_Pin);
 499:Drivers/STM32F4xx_HAL_Driver/Src/stm32f4xx_hal_gpio.c ****   }
 500:Drivers/STM32F4xx_HAL_Driver/Src/stm32f4xx_hal_gpio.c **** }
 501:Drivers/STM32F4xx_HAL_Driver/Src/stm32f4xx_hal_gpio.c **** 
 502:Drivers/STM32F4xx_HAL_Driver/Src/stm32f4xx_hal_gpio.c **** /**
 503:Drivers/STM32F4xx_HAL_Driver/Src/stm32f4xx_hal_gpio.c ****   * @brief  EXTI line detection callbacks.
 504:Drivers/STM32F4xx_HAL_Driver/Src/stm32f4xx_hal_gpio.c ****   * @param  GPIO_Pin Specifies the pins connected EXTI line
 505:Drivers/STM32F4xx_HAL_Driver/Src/stm32f4xx_hal_gpio.c ****   * @retval None
 506:Drivers/STM32F4xx_HAL_Driver/Src/stm32f4xx_hal_gpio.c ****   */
 507:Drivers/STM32F4xx_HAL_Driver/Src/stm32f4xx_hal_gpio.c **** __weak void HAL_GPIO_EXTI_Callback(uint16_t GPIO_Pin)
 508:Drivers/STM32F4xx_HAL_Driver/Src/stm32f4xx_hal_gpio.c **** {
 967              		.loc 1 508 1 is_stmt 1 view -0
 968              		.cfi_startproc
 969              		@ args = 0, pretend = 0, frame = 0
 970              		@ frame_needed = 0, uses_anonymous_args = 0
 971              		@ link register save eliminated.
 509:Drivers/STM32F4xx_HAL_Driver/Src/stm32f4xx_hal_gpio.c ****   /* Prevent unused argument(s) compilation warning */
 510:Drivers/STM32F4xx_HAL_Driver/Src/stm32f4xx_hal_gpio.c ****   UNUSED(GPIO_Pin);
ARM GAS  /tmp/ccUpCQGL.s 			page 29


 972              		.loc 1 510 3 view .LVU322
 511:Drivers/STM32F4xx_HAL_Driver/Src/stm32f4xx_hal_gpio.c ****   /* NOTE: This function Should not be modified, when the callback is needed,
 512:Drivers/STM32F4xx_HAL_Driver/Src/stm32f4xx_hal_gpio.c ****            the HAL_GPIO_EXTI_Callback could be implemented in the user file
 513:Drivers/STM32F4xx_HAL_Driver/Src/stm32f4xx_hal_gpio.c ****    */
 514:Drivers/STM32F4xx_HAL_Driver/Src/stm32f4xx_hal_gpio.c **** }
 973              		.loc 1 514 1 is_stmt 0 view .LVU323
 974 0000 7047     		bx	lr
 975              		.cfi_endproc
 976              	.LFE141:
 978              		.section	.text.HAL_GPIO_EXTI_IRQHandler,"ax",%progbits
 979              		.align	1
 980              		.global	HAL_GPIO_EXTI_IRQHandler
 981              		.syntax unified
 982              		.thumb
 983              		.thumb_func
 985              	HAL_GPIO_EXTI_IRQHandler:
 986              	.LVL80:
 987              	.LFB140:
 493:Drivers/STM32F4xx_HAL_Driver/Src/stm32f4xx_hal_gpio.c ****   /* EXTI line interrupt detected */
 988              		.loc 1 493 1 is_stmt 1 view -0
 989              		.cfi_startproc
 990              		@ args = 0, pretend = 0, frame = 0
 991              		@ frame_needed = 0, uses_anonymous_args = 0
 493:Drivers/STM32F4xx_HAL_Driver/Src/stm32f4xx_hal_gpio.c ****   /* EXTI line interrupt detected */
 992              		.loc 1 493 1 is_stmt 0 view .LVU325
 993 0000 08B5     		push	{r3, lr}
 994              		.cfi_def_cfa_offset 8
 995              		.cfi_offset 3, -8
 996              		.cfi_offset 14, -4
 495:Drivers/STM32F4xx_HAL_Driver/Src/stm32f4xx_hal_gpio.c ****   {
 997              		.loc 1 495 3 is_stmt 1 view .LVU326
 495:Drivers/STM32F4xx_HAL_Driver/Src/stm32f4xx_hal_gpio.c ****   {
 998              		.loc 1 495 6 is_stmt 0 view .LVU327
 999 0002 054B     		ldr	r3, .L74
 1000 0004 5B69     		ldr	r3, [r3, #20]
 495:Drivers/STM32F4xx_HAL_Driver/Src/stm32f4xx_hal_gpio.c ****   {
 1001              		.loc 1 495 5 view .LVU328
 1002 0006 0342     		tst	r3, r0
 1003 0008 00D1     		bne	.L73
 1004              	.LVL81:
 1005              	.L70:
 500:Drivers/STM32F4xx_HAL_Driver/Src/stm32f4xx_hal_gpio.c **** 
 1006              		.loc 1 500 1 view .LVU329
 1007 000a 08BD     		pop	{r3, pc}
 1008              	.LVL82:
 1009              	.L73:
 497:Drivers/STM32F4xx_HAL_Driver/Src/stm32f4xx_hal_gpio.c ****     HAL_GPIO_EXTI_Callback(GPIO_Pin);
 1010              		.loc 1 497 5 is_stmt 1 view .LVU330
 1011 000c 024B     		ldr	r3, .L74
 1012 000e 5861     		str	r0, [r3, #20]
 498:Drivers/STM32F4xx_HAL_Driver/Src/stm32f4xx_hal_gpio.c ****   }
 1013              		.loc 1 498 5 view .LVU331
 1014 0010 FFF7FEFF 		bl	HAL_GPIO_EXTI_Callback
 1015              	.LVL83:
 500:Drivers/STM32F4xx_HAL_Driver/Src/stm32f4xx_hal_gpio.c **** 
 1016              		.loc 1 500 1 is_stmt 0 view .LVU332
 1017 0014 F9E7     		b	.L70
ARM GAS  /tmp/ccUpCQGL.s 			page 30


 1018              	.L75:
 1019 0016 00BF     		.align	2
 1020              	.L74:
 1021 0018 003C0140 		.word	1073822720
 1022              		.cfi_endproc
 1023              	.LFE140:
 1025              		.text
 1026              	.Letext0:
 1027              		.file 2 "/usr/share/gcc-arm-none-eabi-10.3-2021.10/arm-none-eabi/include/machine/_default_types.h"
 1028              		.file 3 "/usr/share/gcc-arm-none-eabi-10.3-2021.10/arm-none-eabi/include/sys/_stdint.h"
 1029              		.file 4 "Drivers/CMSIS/Device/ST/STM32F4xx/Include/stm32f427xx.h"
 1030              		.file 5 "Drivers/CMSIS/Device/ST/STM32F4xx/Include/stm32f4xx.h"
 1031              		.file 6 "Drivers/STM32F4xx_HAL_Driver/Inc/stm32f4xx_hal_def.h"
 1032              		.file 7 "Drivers/STM32F4xx_HAL_Driver/Inc/stm32f4xx_hal_gpio.h"
ARM GAS  /tmp/ccUpCQGL.s 			page 31

