ARM GAS  /tmp/ccU7mrs4.s 			page 1


   1              		.cpu cortex-m4
   2              		.arch armv7e-m
   3              		.fpu fpv4-sp-d16
   4              		.eabi_attribute 27, 1
   5              		.eabi_attribute 28, 1
   6              		.eabi_attribute 20, 1
   7              		.eabi_attribute 21, 1
   8              		.eabi_attribute 23, 3
   9              		.eabi_attribute 24, 1
  10              		.eabi_attribute 25, 1
  11              		.eabi_attribute 26, 1
  12              		.eabi_attribute 30, 1
  13              		.eabi_attribute 34, 1
  14              		.eabi_attribute 18, 4
  15              		.file	"el9800appl.c"
  16              		.text
  17              	.Ltext0:
  18              		.cfi_sections	.debug_frame
  19              		.section	.text.APPL_AckErrorInd,"ax",%progbits
  20              		.align	1
  21              		.global	APPL_AckErrorInd
  22              		.syntax unified
  23              		.thumb
  24              		.thumb_func
  26              	APPL_AckErrorInd:
  27              	.LVL0:
  28              	.LFB123:
  29              		.file 1 "Lib/ssc_app/src/el9800appl.c"
   1:Lib/ssc_app/src/el9800appl.c **** // ############################################################
   2:Lib/ssc_app/src/el9800appl.c **** // ÔøΩÔøΩÔøΩÔøΩÔøΩÔøΩ÷ªÔøΩÔøΩ—ßœ∞ πÔøΩ√£ÔøΩŒ¥ÔøΩÔøΩÔøΩÔøΩÔøΩÔøΩÔøΩÔøΩÔøΩ…£ÔøΩÔøΩÔøΩÔøΩÔøΩÔøΩÔøΩÔøΩÔ
   3:Lib/ssc_app/src/el9800appl.c **** // ÔøΩÔøΩ»®ÔøΩÔøΩÔøΩ–£ÔøΩÔøΩÔøΩÔøΩÔøΩÿæÔøΩ
   4:Lib/ssc_app/src/el9800appl.c **** // EtherCATÔøΩÔøΩ’æ—ßœ∞ÔøΩÔøΩ
   5:Lib/ssc_app/src/el9800appl.c **** // AuthorÔøΩÔøΩÕ¢ÔøΩÔøΩÔøΩÔøΩÔøΩÔøΩÔøΩÔøΩÔøΩ
   6:Lib/ssc_app/src/el9800appl.c **** // ÔøΩ‘±ÔøΩÔøΩÔøΩÔøΩÔøΩ: https://shop461235811.taobao.com/
   7:Lib/ssc_app/src/el9800appl.c **** // ÔøΩ“µƒ≤ÔøΩÔøΩÕ£ÔøΩhttps://blog.csdn.net/zhandouhu/article/category/9455918
   8:Lib/ssc_app/src/el9800appl.c **** // ############################################################
   9:Lib/ssc_app/src/el9800appl.c **** /**
  10:Lib/ssc_app/src/el9800appl.c **** \addtogroup EL9800Appl EL9800 application
  11:Lib/ssc_app/src/el9800appl.c **** @{
  12:Lib/ssc_app/src/el9800appl.c **** */
  13:Lib/ssc_app/src/el9800appl.c **** 
  14:Lib/ssc_app/src/el9800appl.c **** /**
  15:Lib/ssc_app/src/el9800appl.c **** \file el9800appl.c
  16:Lib/ssc_app/src/el9800appl.c **** \author EthercatSSC@beckhoff.com
  17:Lib/ssc_app/src/el9800appl.c **** \brief Implementation
  18:Lib/ssc_app/src/el9800appl.c **** 
  19:Lib/ssc_app/src/el9800appl.c **** \version 5.11
  20:Lib/ssc_app/src/el9800appl.c **** 
  21:Lib/ssc_app/src/el9800appl.c **** <br>Changes to version V5.10:<br>
  22:Lib/ssc_app/src/el9800appl.c **** V5.11 ECAT11: create application interface function pointer, add eeprom emulation interface functio
  23:Lib/ssc_app/src/el9800appl.c **** V5.11 EL9800 1: reset outputs on fallback from OP state<br>
  24:Lib/ssc_app/src/el9800appl.c **** <br>Changes to version V5.01:<br>
  25:Lib/ssc_app/src/el9800appl.c **** V5.10 ECAT6: Add "USE_DEFAULT_MAIN" to enable or disable the main function<br>
  26:Lib/ssc_app/src/el9800appl.c **** <br>Changes to version V5.0:<br>
  27:Lib/ssc_app/src/el9800appl.c **** V5.01 EL9800 2: Add TxPdo Parameter object 0x1802<br>
  28:Lib/ssc_app/src/el9800appl.c **** <br>Changes to version V4.30:<br>
  29:Lib/ssc_app/src/el9800appl.c **** V4.50 ECAT2: Create generic application interface functions. Documentation in Application Note ET93
ARM GAS  /tmp/ccU7mrs4.s 			page 2


  30:Lib/ssc_app/src/el9800appl.c **** V4.50 COE2: Handle invalid PDO assign values.<br>
  31:Lib/ssc_app/src/el9800appl.c **** V4.30 : create file
  32:Lib/ssc_app/src/el9800appl.c **** */
  33:Lib/ssc_app/src/el9800appl.c **** 
  34:Lib/ssc_app/src/el9800appl.c **** /*-----------------------------------------------------------------------------------------
  35:Lib/ssc_app/src/el9800appl.c **** ------
  36:Lib/ssc_app/src/el9800appl.c **** ------    Includes
  37:Lib/ssc_app/src/el9800appl.c **** ------
  38:Lib/ssc_app/src/el9800appl.c **** -----------------------------------------------------------------------------------------*/
  39:Lib/ssc_app/src/el9800appl.c **** #include "ecat_def.h"
  40:Lib/ssc_app/src/el9800appl.c **** 
  41:Lib/ssc_app/src/el9800appl.c **** #if EL9800_APPLICATION
  42:Lib/ssc_app/src/el9800appl.c **** 
  43:Lib/ssc_app/src/el9800appl.c **** /* ECATCHANGE_START(V5.11) ECAT11*/
  44:Lib/ssc_app/src/el9800appl.c **** #include "applInterface.h"
  45:Lib/ssc_app/src/el9800appl.c **** /* ECATCHANGE_END(V5.11) ECAT11*/
  46:Lib/ssc_app/src/el9800appl.c **** 
  47:Lib/ssc_app/src/el9800appl.c **** // #include "el9800hw.h"
  48:Lib/ssc_app/src/el9800appl.c **** 
  49:Lib/ssc_app/src/el9800appl.c **** #define _EVALBOARD_
  50:Lib/ssc_app/src/el9800appl.c **** #include "el9800appl.h"
  51:Lib/ssc_app/src/el9800appl.c **** #undef _EVALBOARD_
  52:Lib/ssc_app/src/el9800appl.c **** 
  53:Lib/ssc_app/src/el9800appl.c **** #if MCI_HW
  54:Lib/ssc_app/src/el9800appl.c **** #include "mcihw.h"
  55:Lib/ssc_app/src/el9800appl.c **** #endif
  56:Lib/ssc_app/src/el9800appl.c **** #if EL9800_HW
  57:Lib/ssc_app/src/el9800appl.c **** #include "el9800hw.h"
  58:Lib/ssc_app/src/el9800appl.c **** #endif
  59:Lib/ssc_app/src/el9800appl.c **** /*--------------------------------------------------------------------------------------
  60:Lib/ssc_app/src/el9800appl.c **** ------
  61:Lib/ssc_app/src/el9800appl.c **** ------    local types and defines
  62:Lib/ssc_app/src/el9800appl.c **** ------
  63:Lib/ssc_app/src/el9800appl.c **** --------------------------------------------------------------------------------------*/
  64:Lib/ssc_app/src/el9800appl.c **** 
  65:Lib/ssc_app/src/el9800appl.c **** /*-----------------------------------------------------------------------------------------
  66:Lib/ssc_app/src/el9800appl.c **** ------
  67:Lib/ssc_app/src/el9800appl.c **** ------    local variables and constants
  68:Lib/ssc_app/src/el9800appl.c **** ------
  69:Lib/ssc_app/src/el9800appl.c **** -----------------------------------------------------------------------------------------*/
  70:Lib/ssc_app/src/el9800appl.c **** 
  71:Lib/ssc_app/src/el9800appl.c **** /*-----------------------------------------------------------------------------------------
  72:Lib/ssc_app/src/el9800appl.c **** ------
  73:Lib/ssc_app/src/el9800appl.c **** ------    application specific functions
  74:Lib/ssc_app/src/el9800appl.c **** ------
  75:Lib/ssc_app/src/el9800appl.c **** -----------------------------------------------------------------------------------------*/
  76:Lib/ssc_app/src/el9800appl.c **** 
  77:Lib/ssc_app/src/el9800appl.c **** /*-----------------------------------------------------------------------------------------
  78:Lib/ssc_app/src/el9800appl.c **** ------
  79:Lib/ssc_app/src/el9800appl.c **** ------    generic functions
  80:Lib/ssc_app/src/el9800appl.c **** ------
  81:Lib/ssc_app/src/el9800appl.c **** -----------------------------------------------------------------------------------------*/
  82:Lib/ssc_app/src/el9800appl.c **** 
  83:Lib/ssc_app/src/el9800appl.c **** /////////////////////////////////////////////////////////////////////////////////////////
  84:Lib/ssc_app/src/el9800appl.c **** /**
  85:Lib/ssc_app/src/el9800appl.c ****  \brief    The function is called when an error state was acknowledged by the master
  86:Lib/ssc_app/src/el9800appl.c **** 
ARM GAS  /tmp/ccU7mrs4.s 			page 3


  87:Lib/ssc_app/src/el9800appl.c **** */
  88:Lib/ssc_app/src/el9800appl.c **** ///////////////////////////////////////////////////////////////////////////////////////
  89:Lib/ssc_app/src/el9800appl.c **** 
  90:Lib/ssc_app/src/el9800appl.c **** void APPL_AckErrorInd(UINT16 stateTrans)
  91:Lib/ssc_app/src/el9800appl.c **** {
  30              		.loc 1 91 1 view -0
  31              		.cfi_startproc
  32              		@ args = 0, pretend = 0, frame = 0
  33              		@ frame_needed = 0, uses_anonymous_args = 0
  34              		@ link register save eliminated.
  92:Lib/ssc_app/src/el9800appl.c **** }
  35              		.loc 1 92 1 view .LVU1
  36 0000 7047     		bx	lr
  37              		.cfi_endproc
  38              	.LFE123:
  40              		.section	.text.APPL_StartMailboxHandler,"ax",%progbits
  41              		.align	1
  42              		.global	APPL_StartMailboxHandler
  43              		.syntax unified
  44              		.thumb
  45              		.thumb_func
  47              	APPL_StartMailboxHandler:
  48              	.LFB124:
  93:Lib/ssc_app/src/el9800appl.c **** 
  94:Lib/ssc_app/src/el9800appl.c **** /////////////////////////////////////////////////////////////////////////////////////////
  95:Lib/ssc_app/src/el9800appl.c **** /**
  96:Lib/ssc_app/src/el9800appl.c ****  \return    AL Status Code (see ecatslv.h ALSTATUSCODE_....)
  97:Lib/ssc_app/src/el9800appl.c **** 
  98:Lib/ssc_app/src/el9800appl.c ****  \brief    The function is called in the state transition from INIT to PREOP when
  99:Lib/ssc_app/src/el9800appl.c ****            all general settings were checked to start the mailbox handler. This function
 100:Lib/ssc_app/src/el9800appl.c ****            informs the application about the state transition, the application can refuse
 101:Lib/ssc_app/src/el9800appl.c ****            the state transition when returning an AL Status error code.
 102:Lib/ssc_app/src/el9800appl.c ****            The return code NOERROR_INWORK can be used, if the application cannot confirm
 103:Lib/ssc_app/src/el9800appl.c ****            the state transition immediately, in that case the application need to be complete
 104:Lib/ssc_app/src/el9800appl.c ****            the transition by calling ECAT_StateChange.
 105:Lib/ssc_app/src/el9800appl.c **** 
 106:Lib/ssc_app/src/el9800appl.c **** */
 107:Lib/ssc_app/src/el9800appl.c **** ///////////////////////////////////////////////////////////////////////////////////////
 108:Lib/ssc_app/src/el9800appl.c **** 
 109:Lib/ssc_app/src/el9800appl.c **** UINT16 APPL_StartMailboxHandler(void)
 110:Lib/ssc_app/src/el9800appl.c **** {
  49              		.loc 1 110 1 view -0
  50              		.cfi_startproc
  51              		@ args = 0, pretend = 0, frame = 0
  52              		@ frame_needed = 0, uses_anonymous_args = 0
  53              		@ link register save eliminated.
 111:Lib/ssc_app/src/el9800appl.c ****     return ALSTATUSCODE_NOERROR;
  54              		.loc 1 111 5 view .LVU3
 112:Lib/ssc_app/src/el9800appl.c **** }
  55              		.loc 1 112 1 is_stmt 0 view .LVU4
  56 0000 0020     		movs	r0, #0
  57 0002 7047     		bx	lr
  58              		.cfi_endproc
  59              	.LFE124:
  61              		.section	.text.APPL_StopMailboxHandler,"ax",%progbits
  62              		.align	1
  63              		.global	APPL_StopMailboxHandler
ARM GAS  /tmp/ccU7mrs4.s 			page 4


  64              		.syntax unified
  65              		.thumb
  66              		.thumb_func
  68              	APPL_StopMailboxHandler:
  69              	.LFB125:
 113:Lib/ssc_app/src/el9800appl.c **** 
 114:Lib/ssc_app/src/el9800appl.c **** /////////////////////////////////////////////////////////////////////////////////////////
 115:Lib/ssc_app/src/el9800appl.c **** /**
 116:Lib/ssc_app/src/el9800appl.c ****  \return     0, NOERROR_INWORK
 117:Lib/ssc_app/src/el9800appl.c **** 
 118:Lib/ssc_app/src/el9800appl.c ****  \brief    The function is called in the state transition from PREEOP to INIT
 119:Lib/ssc_app/src/el9800appl.c ****              to stop the mailbox handler. This functions informs the application
 120:Lib/ssc_app/src/el9800appl.c ****              about the state transition, the application cannot refuse
 121:Lib/ssc_app/src/el9800appl.c ****              the state transition.
 122:Lib/ssc_app/src/el9800appl.c **** 
 123:Lib/ssc_app/src/el9800appl.c **** */
 124:Lib/ssc_app/src/el9800appl.c **** ///////////////////////////////////////////////////////////////////////////////////////
 125:Lib/ssc_app/src/el9800appl.c **** 
 126:Lib/ssc_app/src/el9800appl.c **** UINT16 APPL_StopMailboxHandler(void)
 127:Lib/ssc_app/src/el9800appl.c **** {
  70              		.loc 1 127 1 is_stmt 1 view -0
  71              		.cfi_startproc
  72              		@ args = 0, pretend = 0, frame = 0
  73              		@ frame_needed = 0, uses_anonymous_args = 0
  74              		@ link register save eliminated.
 128:Lib/ssc_app/src/el9800appl.c ****     return ALSTATUSCODE_NOERROR;
  75              		.loc 1 128 5 view .LVU6
 129:Lib/ssc_app/src/el9800appl.c **** }
  76              		.loc 1 129 1 is_stmt 0 view .LVU7
  77 0000 0020     		movs	r0, #0
  78 0002 7047     		bx	lr
  79              		.cfi_endproc
  80              	.LFE125:
  82              		.section	.text.APPL_StartInputHandler,"ax",%progbits
  83              		.align	1
  84              		.global	APPL_StartInputHandler
  85              		.syntax unified
  86              		.thumb
  87              		.thumb_func
  89              	APPL_StartInputHandler:
  90              	.LVL1:
  91              	.LFB126:
 130:Lib/ssc_app/src/el9800appl.c **** 
 131:Lib/ssc_app/src/el9800appl.c **** /////////////////////////////////////////////////////////////////////////////////////////
 132:Lib/ssc_app/src/el9800appl.c **** /**
 133:Lib/ssc_app/src/el9800appl.c ****  \param    pIntMask    pointer to the AL Event Mask which will be written to the AL event Mask
 134:Lib/ssc_app/src/el9800appl.c ****                         register (0x204) when this function is succeeded. The event mask can be ada
 135:Lib/ssc_app/src/el9800appl.c ****                         in this function
 136:Lib/ssc_app/src/el9800appl.c ****  \return    AL Status Code (see ecatslv.h ALSTATUSCODE_....)
 137:Lib/ssc_app/src/el9800appl.c **** 
 138:Lib/ssc_app/src/el9800appl.c ****  \brief    The function is called in the state transition from PREOP to SAFEOP when
 139:Lib/ssc_app/src/el9800appl.c ****              all general settings were checked to start the input handler. This function
 140:Lib/ssc_app/src/el9800appl.c ****              informs the application about the state transition, the application can refuse
 141:Lib/ssc_app/src/el9800appl.c ****              the state transition when returning an AL Status error code.
 142:Lib/ssc_app/src/el9800appl.c ****             The return code NOERROR_INWORK can be used, if the application cannot confirm
 143:Lib/ssc_app/src/el9800appl.c ****             the state transition immediately, in that case the application need to be complete
 144:Lib/ssc_app/src/el9800appl.c ****             the transition by calling ECAT_StateChange.
ARM GAS  /tmp/ccU7mrs4.s 			page 5


 145:Lib/ssc_app/src/el9800appl.c **** */
 146:Lib/ssc_app/src/el9800appl.c **** ///////////////////////////////////////////////////////////////////////////////////////
 147:Lib/ssc_app/src/el9800appl.c **** 
 148:Lib/ssc_app/src/el9800appl.c **** UINT16 APPL_StartInputHandler(UINT16 *pIntMask)
 149:Lib/ssc_app/src/el9800appl.c **** {
  92              		.loc 1 149 1 is_stmt 1 view -0
  93              		.cfi_startproc
  94              		@ args = 0, pretend = 0, frame = 0
  95              		@ frame_needed = 0, uses_anonymous_args = 0
  96              		@ link register save eliminated.
 150:Lib/ssc_app/src/el9800appl.c ****     return ALSTATUSCODE_NOERROR;
  97              		.loc 1 150 5 view .LVU9
 151:Lib/ssc_app/src/el9800appl.c **** }
  98              		.loc 1 151 1 is_stmt 0 view .LVU10
  99 0000 0020     		movs	r0, #0
 100              	.LVL2:
 101              		.loc 1 151 1 view .LVU11
 102 0002 7047     		bx	lr
 103              		.cfi_endproc
 104              	.LFE126:
 106              		.section	.text.APPL_StopInputHandler,"ax",%progbits
 107              		.align	1
 108              		.global	APPL_StopInputHandler
 109              		.syntax unified
 110              		.thumb
 111              		.thumb_func
 113              	APPL_StopInputHandler:
 114              	.LFB127:
 152:Lib/ssc_app/src/el9800appl.c **** 
 153:Lib/ssc_app/src/el9800appl.c **** /////////////////////////////////////////////////////////////////////////////////////////
 154:Lib/ssc_app/src/el9800appl.c **** /**
 155:Lib/ssc_app/src/el9800appl.c ****  \return     0, NOERROR_INWORK
 156:Lib/ssc_app/src/el9800appl.c **** 
 157:Lib/ssc_app/src/el9800appl.c ****  \brief    The function is called in the state transition from SAFEOP to PREEOP
 158:Lib/ssc_app/src/el9800appl.c ****              to stop the input handler. This functions informs the application
 159:Lib/ssc_app/src/el9800appl.c ****              about the state transition, the application cannot refuse
 160:Lib/ssc_app/src/el9800appl.c ****              the state transition.
 161:Lib/ssc_app/src/el9800appl.c **** 
 162:Lib/ssc_app/src/el9800appl.c **** */
 163:Lib/ssc_app/src/el9800appl.c **** ///////////////////////////////////////////////////////////////////////////////////////
 164:Lib/ssc_app/src/el9800appl.c **** 
 165:Lib/ssc_app/src/el9800appl.c **** UINT16 APPL_StopInputHandler(void)
 166:Lib/ssc_app/src/el9800appl.c **** {
 115              		.loc 1 166 1 is_stmt 1 view -0
 116              		.cfi_startproc
 117              		@ args = 0, pretend = 0, frame = 0
 118              		@ frame_needed = 0, uses_anonymous_args = 0
 119              		@ link register save eliminated.
 167:Lib/ssc_app/src/el9800appl.c ****     return ALSTATUSCODE_NOERROR;
 120              		.loc 1 167 5 view .LVU13
 168:Lib/ssc_app/src/el9800appl.c **** }
 121              		.loc 1 168 1 is_stmt 0 view .LVU14
 122 0000 0020     		movs	r0, #0
 123 0002 7047     		bx	lr
 124              		.cfi_endproc
 125              	.LFE127:
 127              		.section	.text.APPL_StartOutputHandler,"ax",%progbits
ARM GAS  /tmp/ccU7mrs4.s 			page 6


 128              		.align	1
 129              		.global	APPL_StartOutputHandler
 130              		.syntax unified
 131              		.thumb
 132              		.thumb_func
 134              	APPL_StartOutputHandler:
 135              	.LFB128:
 169:Lib/ssc_app/src/el9800appl.c **** 
 170:Lib/ssc_app/src/el9800appl.c **** /////////////////////////////////////////////////////////////////////////////////////////
 171:Lib/ssc_app/src/el9800appl.c **** /**
 172:Lib/ssc_app/src/el9800appl.c ****  \return    AL Status Code (see ecatslv.h ALSTATUSCODE_....)
 173:Lib/ssc_app/src/el9800appl.c **** 
 174:Lib/ssc_app/src/el9800appl.c ****  \brief    The function is called in the state transition from SAFEOP to OP when
 175:Lib/ssc_app/src/el9800appl.c ****              all general settings were checked to start the output handler. This function
 176:Lib/ssc_app/src/el9800appl.c ****              informs the application about the state transition, the application can refuse
 177:Lib/ssc_app/src/el9800appl.c ****              the state transition when returning an AL Status error code.
 178:Lib/ssc_app/src/el9800appl.c ****            The return code NOERROR_INWORK can be used, if the application cannot confirm
 179:Lib/ssc_app/src/el9800appl.c ****            the state transition immediately, in that case the application need to be complete
 180:Lib/ssc_app/src/el9800appl.c ****            the transition by calling ECAT_StateChange.
 181:Lib/ssc_app/src/el9800appl.c **** */
 182:Lib/ssc_app/src/el9800appl.c **** ///////////////////////////////////////////////////////////////////////////////////////
 183:Lib/ssc_app/src/el9800appl.c **** 
 184:Lib/ssc_app/src/el9800appl.c **** UINT16 APPL_StartOutputHandler(void)
 185:Lib/ssc_app/src/el9800appl.c **** {
 136              		.loc 1 185 1 is_stmt 1 view -0
 137              		.cfi_startproc
 138              		@ args = 0, pretend = 0, frame = 0
 139              		@ frame_needed = 0, uses_anonymous_args = 0
 140              		@ link register save eliminated.
 186:Lib/ssc_app/src/el9800appl.c ****     return ALSTATUSCODE_NOERROR;
 141              		.loc 1 186 5 view .LVU16
 187:Lib/ssc_app/src/el9800appl.c **** }
 142              		.loc 1 187 1 is_stmt 0 view .LVU17
 143 0000 0020     		movs	r0, #0
 144 0002 7047     		bx	lr
 145              		.cfi_endproc
 146              	.LFE128:
 148              		.section	.text.APPL_StopOutputHandler,"ax",%progbits
 149              		.align	1
 150              		.global	APPL_StopOutputHandler
 151              		.syntax unified
 152              		.thumb
 153              		.thumb_func
 155              	APPL_StopOutputHandler:
 156              	.LFB129:
 188:Lib/ssc_app/src/el9800appl.c **** 
 189:Lib/ssc_app/src/el9800appl.c **** /////////////////////////////////////////////////////////////////////////////////////////
 190:Lib/ssc_app/src/el9800appl.c **** /**
 191:Lib/ssc_app/src/el9800appl.c ****  \return     0, NOERROR_INWORK
 192:Lib/ssc_app/src/el9800appl.c **** 
 193:Lib/ssc_app/src/el9800appl.c ****  \brief    The function is called in the state transition from OP to SAFEOP
 194:Lib/ssc_app/src/el9800appl.c ****              to stop the output handler. This functions informs the application
 195:Lib/ssc_app/src/el9800appl.c ****              about the state transition, the application cannot refuse
 196:Lib/ssc_app/src/el9800appl.c ****              the state transition.
 197:Lib/ssc_app/src/el9800appl.c **** 
 198:Lib/ssc_app/src/el9800appl.c **** */
 199:Lib/ssc_app/src/el9800appl.c **** ///////////////////////////////////////////////////////////////////////////////////////
ARM GAS  /tmp/ccU7mrs4.s 			page 7


 200:Lib/ssc_app/src/el9800appl.c **** 
 201:Lib/ssc_app/src/el9800appl.c **** #include "bsp_led.h"
 202:Lib/ssc_app/src/el9800appl.c **** 
 203:Lib/ssc_app/src/el9800appl.c **** extern CanTxMsg Can1_TxMessage; // ÂèëÈÄÅÁºìÂÜ≤Âå∫
 204:Lib/ssc_app/src/el9800appl.c **** extern CanRxMsg Can1_RxMessage; // Êé•Êî∂ÁºìÂÜ≤Âå∫
 205:Lib/ssc_app/src/el9800appl.c **** 
 206:Lib/ssc_app/src/el9800appl.c **** extern CanTxMsg Can2_TxMessage; // ÂèëÈÄÅÁºìÂÜ≤Âå∫
 207:Lib/ssc_app/src/el9800appl.c **** extern CanRxMsg Can2_RxMessage; // Êé•Êî∂ÁºìÂÜ≤Âå∫
 208:Lib/ssc_app/src/el9800appl.c **** 
 209:Lib/ssc_app/src/el9800appl.c **** UINT16 APPL_StopOutputHandler(void)
 210:Lib/ssc_app/src/el9800appl.c **** {
 157              		.loc 1 210 1 is_stmt 1 view -0
 158              		.cfi_startproc
 159              		@ args = 0, pretend = 0, frame = 0
 160              		@ frame_needed = 0, uses_anonymous_args = 0
 161              		@ link register save eliminated.
 211:Lib/ssc_app/src/el9800appl.c ****     /*ECATCHANGE_START(V5.11) EL9800 1*/
 212:Lib/ssc_app/src/el9800appl.c ****     sDOOutputs.bLED1 = 0;
 162              		.loc 1 212 5 view .LVU19
 163              		.loc 1 212 22 is_stmt 0 view .LVU20
 164 0000 1F4B     		ldr	r3, .L8
 165 0002 9A78     		ldrb	r2, [r3, #2]	@ zero_extendqisi2
 166 0004 6FF30002 		bfc	r2, #0, #1
 167 0008 9A70     		strb	r2, [r3, #2]
 213:Lib/ssc_app/src/el9800appl.c ****     sDOOutputs.bLED2 = 0;
 168              		.loc 1 213 5 is_stmt 1 view .LVU21
 169              		.loc 1 213 22 is_stmt 0 view .LVU22
 170 000a D2B2     		uxtb	r2, r2
 171 000c 6FF34102 		bfc	r2, #1, #1
 172 0010 9A70     		strb	r2, [r3, #2]
 214:Lib/ssc_app/src/el9800appl.c ****     sDOOutputs.bLED3 = 0;
 173              		.loc 1 214 5 is_stmt 1 view .LVU23
 174              		.loc 1 214 22 is_stmt 0 view .LVU24
 175 0012 D2B2     		uxtb	r2, r2
 176 0014 6FF38202 		bfc	r2, #2, #1
 177 0018 9A70     		strb	r2, [r3, #2]
 215:Lib/ssc_app/src/el9800appl.c ****     sDOOutputs.bLED4 = 0;
 178              		.loc 1 215 5 is_stmt 1 view .LVU25
 179              		.loc 1 215 22 is_stmt 0 view .LVU26
 180 001a D2B2     		uxtb	r2, r2
 181 001c 6FF3C302 		bfc	r2, #3, #1
 182 0020 9A70     		strb	r2, [r3, #2]
 216:Lib/ssc_app/src/el9800appl.c ****     sDOOutputs.bLED5 = 0;
 183              		.loc 1 216 5 is_stmt 1 view .LVU27
 184              		.loc 1 216 22 is_stmt 0 view .LVU28
 185 0022 D2B2     		uxtb	r2, r2
 186 0024 6FF30412 		bfc	r2, #4, #1
 187 0028 9A70     		strb	r2, [r3, #2]
 217:Lib/ssc_app/src/el9800appl.c ****     sDOOutputs.bLED7 = 0;
 188              		.loc 1 217 5 is_stmt 1 view .LVU29
 189              		.loc 1 217 22 is_stmt 0 view .LVU30
 190 002a D2B2     		uxtb	r2, r2
 191 002c 6FF38612 		bfc	r2, #6, #1
 192 0030 9A70     		strb	r2, [r3, #2]
 218:Lib/ssc_app/src/el9800appl.c ****     sDOOutputs.bLED6 = 0;
 193              		.loc 1 218 5 is_stmt 1 view .LVU31
 194              		.loc 1 218 22 is_stmt 0 view .LVU32
ARM GAS  /tmp/ccU7mrs4.s 			page 8


 195 0032 D2B2     		uxtb	r2, r2
 196 0034 6FF34512 		bfc	r2, #5, #1
 197 0038 9A70     		strb	r2, [r3, #2]
 219:Lib/ssc_app/src/el9800appl.c ****     sDOOutputs.bLED8 = 0;
 198              		.loc 1 219 5 is_stmt 1 view .LVU33
 199              		.loc 1 219 22 is_stmt 0 view .LVU34
 200 003a D2B2     		uxtb	r2, r2
 201 003c 6FF3C712 		bfc	r2, #7, #1
 202 0040 9A70     		strb	r2, [r3, #2]
 220:Lib/ssc_app/src/el9800appl.c **** 
 221:Lib/ssc_app/src/el9800appl.c ****     Can1_TxMessage.StdId = 0;
 203              		.loc 1 221 5 is_stmt 1 view .LVU35
 204              		.loc 1 221 26 is_stmt 0 view .LVU36
 205 0042 104B     		ldr	r3, .L8+4
 206 0044 0020     		movs	r0, #0
 207 0046 1860     		str	r0, [r3]
 222:Lib/ssc_app/src/el9800appl.c ****     Can1_TxMessage.ExtId = 0;
 208              		.loc 1 222 5 is_stmt 1 view .LVU37
 209              		.loc 1 222 26 is_stmt 0 view .LVU38
 210 0048 5860     		str	r0, [r3, #4]
 223:Lib/ssc_app/src/el9800appl.c ****     Can1_TxMessage.IDE = 0;
 211              		.loc 1 223 5 is_stmt 1 view .LVU39
 212              		.loc 1 223 24 is_stmt 0 view .LVU40
 213 004a 1872     		strb	r0, [r3, #8]
 224:Lib/ssc_app/src/el9800appl.c ****     Can1_TxMessage.RTR = 0;
 214              		.loc 1 224 5 is_stmt 1 view .LVU41
 215              		.loc 1 224 24 is_stmt 0 view .LVU42
 216 004c 5872     		strb	r0, [r3, #9]
 225:Lib/ssc_app/src/el9800appl.c ****     Can1_TxMessage.DLC = 0;
 217              		.loc 1 225 5 is_stmt 1 view .LVU43
 218              		.loc 1 225 24 is_stmt 0 view .LVU44
 219 004e 9872     		strb	r0, [r3, #10]
 226:Lib/ssc_app/src/el9800appl.c **** 
 227:Lib/ssc_app/src/el9800appl.c ****     Can1_TxMessage.Data[0] = 0;
 220              		.loc 1 227 5 is_stmt 1 view .LVU45
 221              		.loc 1 227 28 is_stmt 0 view .LVU46
 222 0050 D872     		strb	r0, [r3, #11]
 228:Lib/ssc_app/src/el9800appl.c ****     Can1_TxMessage.Data[1] = 0;
 223              		.loc 1 228 5 is_stmt 1 view .LVU47
 224              		.loc 1 228 28 is_stmt 0 view .LVU48
 225 0052 1873     		strb	r0, [r3, #12]
 229:Lib/ssc_app/src/el9800appl.c ****     Can1_TxMessage.Data[2] = 0;
 226              		.loc 1 229 5 is_stmt 1 view .LVU49
 227              		.loc 1 229 28 is_stmt 0 view .LVU50
 228 0054 5873     		strb	r0, [r3, #13]
 230:Lib/ssc_app/src/el9800appl.c ****     Can1_TxMessage.Data[3] = 0;
 229              		.loc 1 230 5 is_stmt 1 view .LVU51
 230              		.loc 1 230 28 is_stmt 0 view .LVU52
 231 0056 9873     		strb	r0, [r3, #14]
 231:Lib/ssc_app/src/el9800appl.c ****     Can1_TxMessage.Data[4] = 0;
 232              		.loc 1 231 5 is_stmt 1 view .LVU53
 233              		.loc 1 231 28 is_stmt 0 view .LVU54
 234 0058 D873     		strb	r0, [r3, #15]
 232:Lib/ssc_app/src/el9800appl.c ****     Can1_TxMessage.Data[5] = 0;
 235              		.loc 1 232 5 is_stmt 1 view .LVU55
 236              		.loc 1 232 28 is_stmt 0 view .LVU56
 237 005a 1874     		strb	r0, [r3, #16]
ARM GAS  /tmp/ccU7mrs4.s 			page 9


 233:Lib/ssc_app/src/el9800appl.c ****     Can1_TxMessage.Data[6] = 0;
 238              		.loc 1 233 5 is_stmt 1 view .LVU57
 239              		.loc 1 233 28 is_stmt 0 view .LVU58
 240 005c 5874     		strb	r0, [r3, #17]
 234:Lib/ssc_app/src/el9800appl.c ****     Can1_TxMessage.Data[7] = 0;
 241              		.loc 1 234 5 is_stmt 1 view .LVU59
 242              		.loc 1 234 28 is_stmt 0 view .LVU60
 243 005e 9874     		strb	r0, [r3, #18]
 235:Lib/ssc_app/src/el9800appl.c **** 
 236:Lib/ssc_app/src/el9800appl.c ****     Can2_TxMessage.StdId = 0;
 244              		.loc 1 236 5 is_stmt 1 view .LVU61
 245              		.loc 1 236 26 is_stmt 0 view .LVU62
 246 0060 094B     		ldr	r3, .L8+8
 247 0062 1860     		str	r0, [r3]
 237:Lib/ssc_app/src/el9800appl.c ****     Can2_TxMessage.ExtId = 0;
 248              		.loc 1 237 5 is_stmt 1 view .LVU63
 249              		.loc 1 237 26 is_stmt 0 view .LVU64
 250 0064 5860     		str	r0, [r3, #4]
 238:Lib/ssc_app/src/el9800appl.c ****     Can2_TxMessage.IDE = 0;
 251              		.loc 1 238 5 is_stmt 1 view .LVU65
 252              		.loc 1 238 24 is_stmt 0 view .LVU66
 253 0066 1872     		strb	r0, [r3, #8]
 239:Lib/ssc_app/src/el9800appl.c ****     Can2_TxMessage.RTR = 0;
 254              		.loc 1 239 5 is_stmt 1 view .LVU67
 255              		.loc 1 239 24 is_stmt 0 view .LVU68
 256 0068 5872     		strb	r0, [r3, #9]
 240:Lib/ssc_app/src/el9800appl.c ****     Can2_TxMessage.DLC = 0;
 257              		.loc 1 240 5 is_stmt 1 view .LVU69
 258              		.loc 1 240 24 is_stmt 0 view .LVU70
 259 006a 9872     		strb	r0, [r3, #10]
 241:Lib/ssc_app/src/el9800appl.c **** 
 242:Lib/ssc_app/src/el9800appl.c ****     Can2_TxMessage.Data[0] = 0;
 260              		.loc 1 242 5 is_stmt 1 view .LVU71
 261              		.loc 1 242 28 is_stmt 0 view .LVU72
 262 006c D872     		strb	r0, [r3, #11]
 243:Lib/ssc_app/src/el9800appl.c ****     Can2_TxMessage.Data[1] = 0;
 263              		.loc 1 243 5 is_stmt 1 view .LVU73
 264              		.loc 1 243 28 is_stmt 0 view .LVU74
 265 006e 1873     		strb	r0, [r3, #12]
 244:Lib/ssc_app/src/el9800appl.c ****     Can2_TxMessage.Data[2] = 0;
 266              		.loc 1 244 5 is_stmt 1 view .LVU75
 267              		.loc 1 244 28 is_stmt 0 view .LVU76
 268 0070 5873     		strb	r0, [r3, #13]
 245:Lib/ssc_app/src/el9800appl.c ****     Can2_TxMessage.Data[3] = 0;
 269              		.loc 1 245 5 is_stmt 1 view .LVU77
 270              		.loc 1 245 28 is_stmt 0 view .LVU78
 271 0072 9873     		strb	r0, [r3, #14]
 246:Lib/ssc_app/src/el9800appl.c ****     Can2_TxMessage.Data[4] = 0;
 272              		.loc 1 246 5 is_stmt 1 view .LVU79
 273              		.loc 1 246 28 is_stmt 0 view .LVU80
 274 0074 D873     		strb	r0, [r3, #15]
 247:Lib/ssc_app/src/el9800appl.c ****     Can2_TxMessage.Data[5] = 0;
 275              		.loc 1 247 5 is_stmt 1 view .LVU81
 276              		.loc 1 247 28 is_stmt 0 view .LVU82
 277 0076 1874     		strb	r0, [r3, #16]
 248:Lib/ssc_app/src/el9800appl.c ****     Can2_TxMessage.Data[6] = 0;
 278              		.loc 1 248 5 is_stmt 1 view .LVU83
ARM GAS  /tmp/ccU7mrs4.s 			page 10


 279              		.loc 1 248 28 is_stmt 0 view .LVU84
 280 0078 5874     		strb	r0, [r3, #17]
 249:Lib/ssc_app/src/el9800appl.c ****     Can2_TxMessage.Data[7] = 0;
 281              		.loc 1 249 5 is_stmt 1 view .LVU85
 282              		.loc 1 249 28 is_stmt 0 view .LVU86
 283 007a 9874     		strb	r0, [r3, #18]
 250:Lib/ssc_app/src/el9800appl.c **** 
 251:Lib/ssc_app/src/el9800appl.c ****     /*ECATCHANGE_END(V5.11) EL9800 1*/
 252:Lib/ssc_app/src/el9800appl.c ****     return ALSTATUSCODE_NOERROR;
 284              		.loc 1 252 5 is_stmt 1 view .LVU87
 253:Lib/ssc_app/src/el9800appl.c **** }
 285              		.loc 1 253 1 is_stmt 0 view .LVU88
 286 007c 7047     		bx	lr
 287              	.L9:
 288 007e 00BF     		.align	2
 289              	.L8:
 290 0080 00000000 		.word	.LANCHOR0
 291 0084 00000000 		.word	Can1_TxMessage
 292 0088 00000000 		.word	Can2_TxMessage
 293              		.cfi_endproc
 294              	.LFE129:
 296              		.section	.text.APPL_GenerateMapping,"ax",%progbits
 297              		.align	1
 298              		.global	APPL_GenerateMapping
 299              		.syntax unified
 300              		.thumb
 301              		.thumb_func
 303              	APPL_GenerateMapping:
 304              	.LVL3:
 305              	.LFB130:
 254:Lib/ssc_app/src/el9800appl.c **** 
 255:Lib/ssc_app/src/el9800appl.c **** /////////////////////////////////////////////////////////////////////////////////////////
 256:Lib/ssc_app/src/el9800appl.c **** /**
 257:Lib/ssc_app/src/el9800appl.c **** \return     0(ALSTATUSCODE_NOERROR), NOERROR_INWORK
 258:Lib/ssc_app/src/el9800appl.c **** \param      pInputSize  pointer to save the input process data length
 259:Lib/ssc_app/src/el9800appl.c **** \param      pOutputSize  pointer to save the output process data length
 260:Lib/ssc_app/src/el9800appl.c **** 
 261:Lib/ssc_app/src/el9800appl.c **** \brief    This function calculates the process data sizes from the actual SM-PDO-Assign
 262:Lib/ssc_app/src/el9800appl.c ****             and PDO mapping
 263:Lib/ssc_app/src/el9800appl.c **** */
 264:Lib/ssc_app/src/el9800appl.c **** ///////////////////////////////////////////////////////////////////////////////////////
 265:Lib/ssc_app/src/el9800appl.c **** UINT16 APPL_GenerateMapping(UINT16 *pInputSize, UINT16 *pOutputSize)
 266:Lib/ssc_app/src/el9800appl.c **** {
 306              		.loc 1 266 1 is_stmt 1 view -0
 307              		.cfi_startproc
 308              		@ args = 0, pretend = 0, frame = 8
 309              		@ frame_needed = 0, uses_anonymous_args = 0
 310              		.loc 1 266 1 is_stmt 0 view .LVU90
 311 0000 2DE9F04F 		push	{r4, r5, r6, r7, r8, r9, r10, fp, lr}
 312              		.cfi_def_cfa_offset 36
 313              		.cfi_offset 4, -36
 314              		.cfi_offset 5, -32
 315              		.cfi_offset 6, -28
 316              		.cfi_offset 7, -24
 317              		.cfi_offset 8, -20
 318              		.cfi_offset 9, -16
 319              		.cfi_offset 10, -12
ARM GAS  /tmp/ccU7mrs4.s 			page 11


 320              		.cfi_offset 11, -8
 321              		.cfi_offset 14, -4
 322 0004 83B0     		sub	sp, sp, #12
 323              		.cfi_def_cfa_offset 48
 324 0006 0090     		str	r0, [sp]
 325 0008 0191     		str	r1, [sp, #4]
 267:Lib/ssc_app/src/el9800appl.c **** #if COE_SUPPORTED
 268:Lib/ssc_app/src/el9800appl.c ****     UINT16 result = ALSTATUSCODE_NOERROR;
 326              		.loc 1 268 5 is_stmt 1 view .LVU91
 327              	.LVL4:
 269:Lib/ssc_app/src/el9800appl.c ****     UINT16 PDOAssignEntryCnt = 0;
 328              		.loc 1 269 5 view .LVU92
 270:Lib/ssc_app/src/el9800appl.c ****     OBJCONST TOBJECT OBJMEM *pPDO = NULL;
 329              		.loc 1 270 5 view .LVU93
 271:Lib/ssc_app/src/el9800appl.c ****     UINT16 PDOSubindex0 = 0;
 330              		.loc 1 271 5 view .LVU94
 272:Lib/ssc_app/src/el9800appl.c ****     UINT32 *pPDOEntry = NULL;
 331              		.loc 1 272 5 view .LVU95
 273:Lib/ssc_app/src/el9800appl.c ****     UINT16 PDOEntryCnt = 0;
 332              		.loc 1 273 5 view .LVU96
 274:Lib/ssc_app/src/el9800appl.c ****     UINT16 InputSize = 0;
 333              		.loc 1 274 5 view .LVU97
 275:Lib/ssc_app/src/el9800appl.c ****     UINT16 OutputSize = 0;
 334              		.loc 1 275 5 view .LVU98
 276:Lib/ssc_app/src/el9800appl.c **** 
 277:Lib/ssc_app/src/el9800appl.c ****     /*Scan object 0x1C12 RXPDO assign*/
 278:Lib/ssc_app/src/el9800appl.c ****     for (PDOAssignEntryCnt = 0; PDOAssignEntryCnt < sRxPDOassign.u16SubIndex0; PDOAssignEntryCnt++)
 335              		.loc 1 278 5 view .LVU99
 275:Lib/ssc_app/src/el9800appl.c ****     UINT16 OutputSize = 0;
 336              		.loc 1 275 12 is_stmt 0 view .LVU100
 337 000a 0026     		movs	r6, #0
 338              		.loc 1 278 28 view .LVU101
 339 000c B046     		mov	r8, r6
 340              		.loc 1 278 5 view .LVU102
 341 000e 14E0     		b	.L11
 342              	.LVL5:
 343              	.L14:
 279:Lib/ssc_app/src/el9800appl.c ****     {
 280:Lib/ssc_app/src/el9800appl.c ****         pPDO = OBJ_GetObjectHandle(sRxPDOassign.aEntries[PDOAssignEntryCnt]);
 281:Lib/ssc_app/src/el9800appl.c ****         if (pPDO != NULL)
 282:Lib/ssc_app/src/el9800appl.c ****         {
 283:Lib/ssc_app/src/el9800appl.c ****             PDOSubindex0 = *((UINT16 *)pPDO->pVarPtr);
 284:Lib/ssc_app/src/el9800appl.c ****             for (PDOEntryCnt = 0; PDOEntryCnt < PDOSubindex0; PDOEntryCnt++)
 285:Lib/ssc_app/src/el9800appl.c ****             {
 286:Lib/ssc_app/src/el9800appl.c ****                 //				result = *(UINT8 *)pPDO->pVarPtr;
 287:Lib/ssc_app/src/el9800appl.c ****                 //				result=(OBJ_GetEntryOffset((PDOEntryCnt+1),pPDO)>>3);
 288:Lib/ssc_app/src/el9800appl.c ****                 pPDOEntry = (UINT32 *)((UINT8 *)pPDO->pVarPtr + (OBJ_GetEntryOffset((PDOEntryCnt + 
 344              		.loc 1 288 17 is_stmt 1 discriminator 3 view .LVU103
 345              		.loc 1 288 53 is_stmt 0 discriminator 3 view .LVU104
 346 0010 D5F81890 		ldr	r9, [r5, #24]
 347              		.loc 1 288 66 discriminator 3 view .LVU105
 348 0014 601C     		adds	r0, r4, #1
 349 0016 2946     		mov	r1, r5
 350 0018 C0B2     		uxtb	r0, r0
 351 001a FFF7FEFF 		bl	OBJ_GetEntryOffset
 352              	.LVL6:
 353              		.loc 1 288 110 discriminator 3 view .LVU106
ARM GAS  /tmp/ccU7mrs4.s 			page 12


 354 001e C0F3CF00 		ubfx	r0, r0, #3, #16
 355              	.LVL7:
 289:Lib/ssc_app/src/el9800appl.c ****                 // we increment the expected output size depending on the mapped Entry
 290:Lib/ssc_app/src/el9800appl.c ****                 OutputSize += (UINT16)((*pPDOEntry) & 0xFF);
 356              		.loc 1 290 17 is_stmt 1 discriminator 3 view .LVU107
 357              		.loc 1 290 31 is_stmt 0 discriminator 3 view .LVU108
 358 0022 19F80030 		ldrb	r3, [r9, r0]	@ zero_extendqisi2
 359              		.loc 1 290 28 discriminator 3 view .LVU109
 360 0026 3344     		add	r3, r3, r6
 361 0028 9EB2     		uxth	r6, r3
 362              	.LVL8:
 284:Lib/ssc_app/src/el9800appl.c ****             {
 363              		.loc 1 284 63 is_stmt 1 discriminator 3 view .LVU110
 284:Lib/ssc_app/src/el9800appl.c ****             {
 364              		.loc 1 284 74 is_stmt 0 discriminator 3 view .LVU111
 365 002a 0134     		adds	r4, r4, #1
 366              	.LVL9:
 284:Lib/ssc_app/src/el9800appl.c ****             {
 367              		.loc 1 284 74 discriminator 3 view .LVU112
 368 002c A4B2     		uxth	r4, r4
 369              	.LVL10:
 370              	.L13:
 284:Lib/ssc_app/src/el9800appl.c ****             {
 371              		.loc 1 284 35 is_stmt 1 discriminator 1 view .LVU113
 284:Lib/ssc_app/src/el9800appl.c ****             {
 372              		.loc 1 284 13 is_stmt 0 discriminator 1 view .LVU114
 373 002e BC42     		cmp	r4, r7
 374 0030 EED3     		bcc	.L14
 278:Lib/ssc_app/src/el9800appl.c ****     {
 375              		.loc 1 278 80 is_stmt 1 discriminator 2 view .LVU115
 278:Lib/ssc_app/src/el9800appl.c ****     {
 376              		.loc 1 278 97 is_stmt 0 discriminator 2 view .LVU116
 377 0032 08F10108 		add	r8, r8, #1
 378              	.LVL11:
 278:Lib/ssc_app/src/el9800appl.c ****     {
 379              		.loc 1 278 97 discriminator 2 view .LVU117
 380 0036 1FFA88F8 		uxth	r8, r8
 381              	.LVL12:
 382              	.L11:
 278:Lib/ssc_app/src/el9800appl.c ****     {
 383              		.loc 1 278 33 is_stmt 1 discriminator 1 view .LVU118
 278:Lib/ssc_app/src/el9800appl.c ****     {
 384              		.loc 1 278 65 is_stmt 0 discriminator 1 view .LVU119
 385 003a 2A4B     		ldr	r3, .L26
 386 003c 1B88     		ldrh	r3, [r3]
 278:Lib/ssc_app/src/el9800appl.c ****     {
 387              		.loc 1 278 5 discriminator 1 view .LVU120
 388 003e 4345     		cmp	r3, r8
 389 0040 0BD9     		bls	.L25
 280:Lib/ssc_app/src/el9800appl.c ****         if (pPDO != NULL)
 390              		.loc 1 280 9 is_stmt 1 view .LVU121
 280:Lib/ssc_app/src/el9800appl.c ****         if (pPDO != NULL)
 391              		.loc 1 280 16 is_stmt 0 view .LVU122
 392 0042 284B     		ldr	r3, .L26
 393 0044 03EB4803 		add	r3, r3, r8, lsl #1
 394 0048 5888     		ldrh	r0, [r3, #2]
 395 004a FFF7FEFF 		bl	OBJ_GetObjectHandle
ARM GAS  /tmp/ccU7mrs4.s 			page 13


 396              	.LVL13:
 281:Lib/ssc_app/src/el9800appl.c ****         {
 397              		.loc 1 281 9 is_stmt 1 view .LVU123
 281:Lib/ssc_app/src/el9800appl.c ****         {
 398              		.loc 1 281 12 is_stmt 0 view .LVU124
 399 004e 0546     		mov	r5, r0
 400 0050 C0B1     		cbz	r0, .L21
 283:Lib/ssc_app/src/el9800appl.c ****             for (PDOEntryCnt = 0; PDOEntryCnt < PDOSubindex0; PDOEntryCnt++)
 401              		.loc 1 283 13 is_stmt 1 view .LVU125
 283:Lib/ssc_app/src/el9800appl.c ****             for (PDOEntryCnt = 0; PDOEntryCnt < PDOSubindex0; PDOEntryCnt++)
 402              		.loc 1 283 44 is_stmt 0 view .LVU126
 403 0052 8369     		ldr	r3, [r0, #24]
 283:Lib/ssc_app/src/el9800appl.c ****             for (PDOEntryCnt = 0; PDOEntryCnt < PDOSubindex0; PDOEntryCnt++)
 404              		.loc 1 283 26 view .LVU127
 405 0054 1F88     		ldrh	r7, [r3]
 406              	.LVL14:
 284:Lib/ssc_app/src/el9800appl.c ****             {
 407              		.loc 1 284 13 is_stmt 1 view .LVU128
 284:Lib/ssc_app/src/el9800appl.c ****             {
 408              		.loc 1 284 30 is_stmt 0 view .LVU129
 409 0056 0024     		movs	r4, #0
 284:Lib/ssc_app/src/el9800appl.c ****             {
 410              		.loc 1 284 13 view .LVU130
 411 0058 E9E7     		b	.L13
 412              	.LVL15:
 413              	.L25:
 268:Lib/ssc_app/src/el9800appl.c ****     UINT16 PDOAssignEntryCnt = 0;
 414              		.loc 1 268 12 view .LVU131
 415 005a 4FF0000B 		mov	fp, #0
 416              	.LVL16:
 417              	.L12:
 291:Lib/ssc_app/src/el9800appl.c ****             }
 292:Lib/ssc_app/src/el9800appl.c ****         }
 293:Lib/ssc_app/src/el9800appl.c ****         else
 294:Lib/ssc_app/src/el9800appl.c ****         {
 295:Lib/ssc_app/src/el9800appl.c ****             /*assigned PDO was not found in object dictionary. return invalid mapping*/
 296:Lib/ssc_app/src/el9800appl.c ****             OutputSize = 0;
 297:Lib/ssc_app/src/el9800appl.c ****             result = ALSTATUSCODE_INVALIDOUTPUTMAPPING;
 298:Lib/ssc_app/src/el9800appl.c ****             break;
 299:Lib/ssc_app/src/el9800appl.c ****         }
 300:Lib/ssc_app/src/el9800appl.c ****     }
 301:Lib/ssc_app/src/el9800appl.c **** 
 302:Lib/ssc_app/src/el9800appl.c ****     OutputSize = (OutputSize + 7) >> 3;
 418              		.loc 1 302 5 is_stmt 1 view .LVU132
 419              		.loc 1 302 30 is_stmt 0 view .LVU133
 420 005e F31D     		adds	r3, r6, #7
 421              		.loc 1 302 16 view .LVU134
 422 0060 C3F3CF08 		ubfx	r8, r3, #3, #16
 423              	.LVL17:
 303:Lib/ssc_app/src/el9800appl.c **** 
 304:Lib/ssc_app/src/el9800appl.c ****     if (result == 0)
 424              		.loc 1 304 5 is_stmt 1 view .LVU135
 425              		.loc 1 304 8 is_stmt 0 view .LVU136
 426 0064 BBF1000F 		cmp	fp, #0
 427 0068 34D0     		beq	.L22
 274:Lib/ssc_app/src/el9800appl.c ****     UINT16 OutputSize = 0;
 428              		.loc 1 274 12 view .LVU137
ARM GAS  /tmp/ccU7mrs4.s 			page 14


 429 006a 0027     		movs	r7, #0
 430              	.LVL18:
 431              	.L17:
 305:Lib/ssc_app/src/el9800appl.c ****     {
 306:Lib/ssc_app/src/el9800appl.c ****         /*Scan Object 0x1C13 TXPDO assign*/
 307:Lib/ssc_app/src/el9800appl.c ****         for (PDOAssignEntryCnt = 0; PDOAssignEntryCnt < sTxPDOassign.u16SubIndex0; PDOAssignEntryCn
 308:Lib/ssc_app/src/el9800appl.c ****         {
 309:Lib/ssc_app/src/el9800appl.c ****             pPDO = OBJ_GetObjectHandle(sTxPDOassign.aEntries[PDOAssignEntryCnt]);
 310:Lib/ssc_app/src/el9800appl.c ****             if (pPDO != NULL)
 311:Lib/ssc_app/src/el9800appl.c ****             {
 312:Lib/ssc_app/src/el9800appl.c ****                 PDOSubindex0 = *((UINT16 *)pPDO->pVarPtr);
 313:Lib/ssc_app/src/el9800appl.c ****                 for (PDOEntryCnt = 0; PDOEntryCnt < PDOSubindex0; PDOEntryCnt++)
 314:Lib/ssc_app/src/el9800appl.c ****                 {
 315:Lib/ssc_app/src/el9800appl.c ****                     pPDOEntry = (UINT32 *)((UINT8 *)pPDO->pVarPtr + (OBJ_GetEntryOffset((PDOEntryCn
 316:Lib/ssc_app/src/el9800appl.c ****                     // we increment the expected output size depending on the mapped Entry
 317:Lib/ssc_app/src/el9800appl.c ****                     InputSize += (UINT16)((*pPDOEntry) & 0xFF);
 318:Lib/ssc_app/src/el9800appl.c ****                 }
 319:Lib/ssc_app/src/el9800appl.c ****             }
 320:Lib/ssc_app/src/el9800appl.c ****             else
 321:Lib/ssc_app/src/el9800appl.c ****             {
 322:Lib/ssc_app/src/el9800appl.c ****                 /*assigned PDO was not found in object dictionary. return invalid mapping*/
 323:Lib/ssc_app/src/el9800appl.c ****                 InputSize = 0;
 324:Lib/ssc_app/src/el9800appl.c ****                 result = ALSTATUSCODE_INVALIDINPUTMAPPING;
 325:Lib/ssc_app/src/el9800appl.c ****                 break;
 326:Lib/ssc_app/src/el9800appl.c ****             }
 327:Lib/ssc_app/src/el9800appl.c ****         }
 328:Lib/ssc_app/src/el9800appl.c ****     }
 329:Lib/ssc_app/src/el9800appl.c ****     InputSize = (InputSize + 7) >> 3;
 432              		.loc 1 329 5 is_stmt 1 view .LVU138
 433              		.loc 1 329 28 is_stmt 0 view .LVU139
 434 006c FB1D     		adds	r3, r7, #7
 435              		.loc 1 329 15 view .LVU140
 436 006e C3F3CF03 		ubfx	r3, r3, #3, #16
 437              	.LVL19:
 330:Lib/ssc_app/src/el9800appl.c **** 
 331:Lib/ssc_app/src/el9800appl.c ****     *pInputSize = InputSize;
 438              		.loc 1 331 5 is_stmt 1 view .LVU141
 439              		.loc 1 331 17 is_stmt 0 view .LVU142
 440 0072 009A     		ldr	r2, [sp]
 441 0074 1380     		strh	r3, [r2]	@ movhi
 332:Lib/ssc_app/src/el9800appl.c ****     *pOutputSize = OutputSize;
 442              		.loc 1 332 5 is_stmt 1 view .LVU143
 443              		.loc 1 332 18 is_stmt 0 view .LVU144
 444 0076 019B     		ldr	r3, [sp, #4]
 445              	.LVL20:
 446              		.loc 1 332 18 view .LVU145
 447 0078 A3F80080 		strh	r8, [r3]	@ movhi
 448              	.LVL21:
 333:Lib/ssc_app/src/el9800appl.c ****     return result;
 449              		.loc 1 333 5 is_stmt 1 view .LVU146
 334:Lib/ssc_app/src/el9800appl.c **** #else
 335:Lib/ssc_app/src/el9800appl.c ****     *pInputSize = 6;
 336:Lib/ssc_app/src/el9800appl.c ****     *pOutputSize = 2;
 337:Lib/ssc_app/src/el9800appl.c ****     return ALSTATUSCODE_NOERROR;
 338:Lib/ssc_app/src/el9800appl.c **** #endif
 339:Lib/ssc_app/src/el9800appl.c **** }
 450              		.loc 1 339 1 is_stmt 0 view .LVU147
ARM GAS  /tmp/ccU7mrs4.s 			page 15


 451 007c 5846     		mov	r0, fp
 452 007e 03B0     		add	sp, sp, #12
 453              		.cfi_remember_state
 454              		.cfi_def_cfa_offset 36
 455              	.LVL22:
 456              		.loc 1 339 1 view .LVU148
 457              		@ sp needed
 458 0080 BDE8F08F 		pop	{r4, r5, r6, r7, r8, r9, r10, fp, pc}
 459              	.LVL23:
 460              	.L21:
 461              		.cfi_restore_state
 296:Lib/ssc_app/src/el9800appl.c ****             result = ALSTATUSCODE_INVALIDOUTPUTMAPPING;
 462              		.loc 1 296 24 view .LVU149
 463 0084 0026     		movs	r6, #0
 464              	.LVL24:
 297:Lib/ssc_app/src/el9800appl.c ****             break;
 465              		.loc 1 297 20 view .LVU150
 466 0086 4FF0250B 		mov	fp, #37
 467 008a E8E7     		b	.L12
 468              	.LVL25:
 469              	.L19:
 315:Lib/ssc_app/src/el9800appl.c ****                     // we increment the expected output size depending on the mapped Entry
 470              		.loc 1 315 21 is_stmt 1 discriminator 3 view .LVU151
 315:Lib/ssc_app/src/el9800appl.c ****                     // we increment the expected output size depending on the mapped Entry
 471              		.loc 1 315 57 is_stmt 0 discriminator 3 view .LVU152
 472 008c B569     		ldr	r5, [r6, #24]
 315:Lib/ssc_app/src/el9800appl.c ****                     // we increment the expected output size depending on the mapped Entry
 473              		.loc 1 315 70 discriminator 3 view .LVU153
 474 008e 601C     		adds	r0, r4, #1
 475 0090 3146     		mov	r1, r6
 476 0092 C0B2     		uxtb	r0, r0
 477 0094 FFF7FEFF 		bl	OBJ_GetEntryOffset
 478              	.LVL26:
 315:Lib/ssc_app/src/el9800appl.c ****                     // we increment the expected output size depending on the mapped Entry
 479              		.loc 1 315 114 discriminator 3 view .LVU154
 480 0098 C0F3CF00 		ubfx	r0, r0, #3, #16
 481              	.LVL27:
 317:Lib/ssc_app/src/el9800appl.c ****                 }
 482              		.loc 1 317 21 is_stmt 1 discriminator 3 view .LVU155
 317:Lib/ssc_app/src/el9800appl.c ****                 }
 483              		.loc 1 317 34 is_stmt 0 discriminator 3 view .LVU156
 484 009c 2B5C     		ldrb	r3, [r5, r0]	@ zero_extendqisi2
 317:Lib/ssc_app/src/el9800appl.c ****                 }
 485              		.loc 1 317 31 discriminator 3 view .LVU157
 486 009e 1F44     		add	r7, r7, r3
 487              	.LVL28:
 317:Lib/ssc_app/src/el9800appl.c ****                 }
 488              		.loc 1 317 31 discriminator 3 view .LVU158
 489 00a0 BFB2     		uxth	r7, r7
 490              	.LVL29:
 313:Lib/ssc_app/src/el9800appl.c ****                 {
 491              		.loc 1 313 67 is_stmt 1 discriminator 3 view .LVU159
 313:Lib/ssc_app/src/el9800appl.c ****                 {
 492              		.loc 1 313 78 is_stmt 0 discriminator 3 view .LVU160
 493 00a2 0134     		adds	r4, r4, #1
 494              	.LVL30:
 313:Lib/ssc_app/src/el9800appl.c ****                 {
ARM GAS  /tmp/ccU7mrs4.s 			page 16


 495              		.loc 1 313 78 discriminator 3 view .LVU161
 496 00a4 A4B2     		uxth	r4, r4
 497              	.LVL31:
 498              	.L18:
 313:Lib/ssc_app/src/el9800appl.c ****                 {
 499              		.loc 1 313 39 is_stmt 1 discriminator 1 view .LVU162
 313:Lib/ssc_app/src/el9800appl.c ****                 {
 500              		.loc 1 313 17 is_stmt 0 discriminator 1 view .LVU163
 501 00a6 4C45     		cmp	r4, r9
 502 00a8 F0D3     		bcc	.L19
 307:Lib/ssc_app/src/el9800appl.c ****         {
 503              		.loc 1 307 84 is_stmt 1 discriminator 2 view .LVU164
 307:Lib/ssc_app/src/el9800appl.c ****         {
 504              		.loc 1 307 101 is_stmt 0 discriminator 2 view .LVU165
 505 00aa 0AF1010A 		add	r10, r10, #1
 506              	.LVL32:
 307:Lib/ssc_app/src/el9800appl.c ****         {
 507              		.loc 1 307 101 discriminator 2 view .LVU166
 508 00ae 1FFA8AFA 		uxth	r10, r10
 509              	.LVL33:
 510              	.L16:
 307:Lib/ssc_app/src/el9800appl.c ****         {
 511              		.loc 1 307 37 is_stmt 1 discriminator 1 view .LVU167
 307:Lib/ssc_app/src/el9800appl.c ****         {
 512              		.loc 1 307 69 is_stmt 0 discriminator 1 view .LVU168
 513 00b2 0D4B     		ldr	r3, .L26+4
 514 00b4 1B88     		ldrh	r3, [r3]
 307:Lib/ssc_app/src/el9800appl.c ****         {
 515              		.loc 1 307 9 discriminator 1 view .LVU169
 516 00b6 5345     		cmp	r3, r10
 517 00b8 D8D9     		bls	.L17
 309:Lib/ssc_app/src/el9800appl.c ****             if (pPDO != NULL)
 518              		.loc 1 309 13 is_stmt 1 view .LVU170
 309:Lib/ssc_app/src/el9800appl.c ****             if (pPDO != NULL)
 519              		.loc 1 309 20 is_stmt 0 view .LVU171
 520 00ba 0B4B     		ldr	r3, .L26+4
 521 00bc 03EB4A03 		add	r3, r3, r10, lsl #1
 522 00c0 5888     		ldrh	r0, [r3, #2]
 523 00c2 FFF7FEFF 		bl	OBJ_GetObjectHandle
 524              	.LVL34:
 310:Lib/ssc_app/src/el9800appl.c ****             {
 525              		.loc 1 310 13 is_stmt 1 view .LVU172
 310:Lib/ssc_app/src/el9800appl.c ****             {
 526              		.loc 1 310 16 is_stmt 0 view .LVU173
 527 00c6 0646     		mov	r6, r0
 528 00c8 38B1     		cbz	r0, .L23
 312:Lib/ssc_app/src/el9800appl.c ****                 for (PDOEntryCnt = 0; PDOEntryCnt < PDOSubindex0; PDOEntryCnt++)
 529              		.loc 1 312 17 is_stmt 1 view .LVU174
 312:Lib/ssc_app/src/el9800appl.c ****                 for (PDOEntryCnt = 0; PDOEntryCnt < PDOSubindex0; PDOEntryCnt++)
 530              		.loc 1 312 48 is_stmt 0 view .LVU175
 531 00ca 8369     		ldr	r3, [r0, #24]
 312:Lib/ssc_app/src/el9800appl.c ****                 for (PDOEntryCnt = 0; PDOEntryCnt < PDOSubindex0; PDOEntryCnt++)
 532              		.loc 1 312 30 view .LVU176
 533 00cc B3F80090 		ldrh	r9, [r3]
 534              	.LVL35:
 313:Lib/ssc_app/src/el9800appl.c ****                 {
 535              		.loc 1 313 17 is_stmt 1 view .LVU177
ARM GAS  /tmp/ccU7mrs4.s 			page 17


 313:Lib/ssc_app/src/el9800appl.c ****                 {
 536              		.loc 1 313 34 is_stmt 0 view .LVU178
 537 00d0 5C46     		mov	r4, fp
 313:Lib/ssc_app/src/el9800appl.c ****                 {
 538              		.loc 1 313 17 view .LVU179
 539 00d2 E8E7     		b	.L18
 540              	.LVL36:
 541              	.L22:
 274:Lib/ssc_app/src/el9800appl.c ****     UINT16 OutputSize = 0;
 542              		.loc 1 274 12 view .LVU180
 543 00d4 5F46     		mov	r7, fp
 307:Lib/ssc_app/src/el9800appl.c ****         {
 544              		.loc 1 307 32 view .LVU181
 545 00d6 DA46     		mov	r10, fp
 546 00d8 EBE7     		b	.L16
 547              	.LVL37:
 548              	.L23:
 323:Lib/ssc_app/src/el9800appl.c ****                 result = ALSTATUSCODE_INVALIDINPUTMAPPING;
 549              		.loc 1 323 27 view .LVU182
 550 00da 5F46     		mov	r7, fp
 551              	.LVL38:
 324:Lib/ssc_app/src/el9800appl.c ****                 break;
 552              		.loc 1 324 24 view .LVU183
 553 00dc 4FF0240B 		mov	fp, #36
 554              	.LVL39:
 324:Lib/ssc_app/src/el9800appl.c ****                 break;
 555              		.loc 1 324 24 view .LVU184
 556 00e0 C4E7     		b	.L17
 557              	.L27:
 558 00e2 00BF     		.align	2
 559              	.L26:
 560 00e4 00000000 		.word	.LANCHOR1
 561 00e8 00000000 		.word	.LANCHOR2
 562              		.cfi_endproc
 563              	.LFE130:
 565              		.section	.text.APPL_InputMapping,"ax",%progbits
 566              		.align	1
 567              		.global	APPL_InputMapping
 568              		.syntax unified
 569              		.thumb
 570              		.thumb_func
 572              	APPL_InputMapping:
 573              	.LVL40:
 574              	.LFB131:
 340:Lib/ssc_app/src/el9800appl.c **** 
 341:Lib/ssc_app/src/el9800appl.c **** /////////////////////////////////////////////////////////////////////////////////////////
 342:Lib/ssc_app/src/el9800appl.c **** /**
 343:Lib/ssc_app/src/el9800appl.c **** \param      pData  pointer to input process data
 344:Lib/ssc_app/src/el9800appl.c **** \brief      This function will copies the inputs from the local memory to the ESC memory
 345:Lib/ssc_app/src/el9800appl.c ****             to the hardware
 346:Lib/ssc_app/src/el9800appl.c **** */
 347:Lib/ssc_app/src/el9800appl.c **** ///////////////////////////////////////////////////////////////////////////////////////
 348:Lib/ssc_app/src/el9800appl.c **** #if _STM32_IO4 && AL_EVENT_ENABLED
 349:Lib/ssc_app/src/el9800appl.c **** /* the pragma interrupt_level is used to tell the compiler that these functions will not
 350:Lib/ssc_app/src/el9800appl.c ****    be called at the same time from the main function and the interrupt routine */
 351:Lib/ssc_app/src/el9800appl.c **** #pragma interrupt_level 1
 352:Lib/ssc_app/src/el9800appl.c **** #endif
ARM GAS  /tmp/ccU7mrs4.s 			page 18


 353:Lib/ssc_app/src/el9800appl.c **** void APPL_InputMapping(UINT16 *pData)
 354:Lib/ssc_app/src/el9800appl.c **** {
 575              		.loc 1 354 1 is_stmt 1 view -0
 576              		.cfi_startproc
 577              		@ args = 0, pretend = 0, frame = 0
 578              		@ frame_needed = 0, uses_anonymous_args = 0
 579              		@ link register save eliminated.
 355:Lib/ssc_app/src/el9800appl.c ****     UINT16 j = 0;
 580              		.loc 1 355 5 view .LVU186
 356:Lib/ssc_app/src/el9800appl.c ****     UINT16 *pTmpData = (UINT16 *)pData;
 581              		.loc 1 356 5 view .LVU187
 357:Lib/ssc_app/src/el9800appl.c **** 
 358:Lib/ssc_app/src/el9800appl.c ****     /* we go through all entries of the TxPDO Assign object to get the assigned TxPDOs */
 359:Lib/ssc_app/src/el9800appl.c ****     for (j = 0; j < sTxPDOassign.u16SubIndex0; j++)
 582              		.loc 1 359 5 view .LVU188
 583              		.loc 1 359 12 is_stmt 0 view .LVU189
 584 0000 0022     		movs	r2, #0
 585              		.loc 1 359 5 view .LVU190
 586 0002 05E0     		b	.L29
 587              	.LVL41:
 588              	.L30:
 360:Lib/ssc_app/src/el9800appl.c ****     {
 361:Lib/ssc_app/src/el9800appl.c ****         switch (sTxPDOassign.aEntries[j])
 362:Lib/ssc_app/src/el9800appl.c ****         {
 363:Lib/ssc_app/src/el9800appl.c ****         /* TxPDO 1 */
 364:Lib/ssc_app/src/el9800appl.c ****         case 0x1A00:
 365:Lib/ssc_app/src/el9800appl.c ****             *pTmpData++ = SWAPWORD(((UINT16 *)&sDIInputs)[1]);
 589              		.loc 1 365 13 is_stmt 1 view .LVU191
 590              		.loc 1 365 25 is_stmt 0 view .LVU192
 591 0004 3C4B     		ldr	r3, .L35
 592 0006 5B88     		ldrh	r3, [r3, #2]
 593 0008 20F8023B 		strh	r3, [r0], #2	@ movhi
 594              	.LVL42:
 366:Lib/ssc_app/src/el9800appl.c ****             break;
 595              		.loc 1 366 13 is_stmt 1 view .LVU193
 596              	.L32:
 359:Lib/ssc_app/src/el9800appl.c ****     {
 597              		.loc 1 359 48 discriminator 2 view .LVU194
 359:Lib/ssc_app/src/el9800appl.c ****     {
 598              		.loc 1 359 49 is_stmt 0 discriminator 2 view .LVU195
 599 000c 0132     		adds	r2, r2, #1
 600              	.LVL43:
 359:Lib/ssc_app/src/el9800appl.c ****     {
 601              		.loc 1 359 49 discriminator 2 view .LVU196
 602 000e 92B2     		uxth	r2, r2
 603              	.LVL44:
 604              	.L29:
 359:Lib/ssc_app/src/el9800appl.c ****     {
 605              		.loc 1 359 17 is_stmt 1 discriminator 1 view .LVU197
 359:Lib/ssc_app/src/el9800appl.c ****     {
 606              		.loc 1 359 33 is_stmt 0 discriminator 1 view .LVU198
 607 0010 3A4B     		ldr	r3, .L35+4
 608 0012 1B88     		ldrh	r3, [r3]
 359:Lib/ssc_app/src/el9800appl.c ****     {
 609              		.loc 1 359 5 discriminator 1 view .LVU199
 610 0014 9342     		cmp	r3, r2
 611 0016 6ED9     		bls	.L34
ARM GAS  /tmp/ccU7mrs4.s 			page 19


 361:Lib/ssc_app/src/el9800appl.c ****         {
 612              		.loc 1 361 9 is_stmt 1 view .LVU200
 361:Lib/ssc_app/src/el9800appl.c ****         {
 613              		.loc 1 361 38 is_stmt 0 view .LVU201
 614 0018 384B     		ldr	r3, .L35+4
 615 001a 03EB4203 		add	r3, r3, r2, lsl #1
 616 001e 5B88     		ldrh	r3, [r3, #2]
 361:Lib/ssc_app/src/el9800appl.c ****         {
 617              		.loc 1 361 9 view .LVU202
 618 0020 B3F5D05F 		cmp	r3, #6656
 619 0024 EED0     		beq	.L30
 620 0026 41F60221 		movw	r1, #6658
 621 002a 8B42     		cmp	r3, r1
 622 002c EED1     		bne	.L32
 367:Lib/ssc_app/src/el9800appl.c ****         /* TxPDO 3 */
 368:Lib/ssc_app/src/el9800appl.c ****         case 0x1A02:
 369:Lib/ssc_app/src/el9800appl.c ****             *pTmpData++ = SWAPWORD(((UINT16 *)&sAIInputs)[1]);
 623              		.loc 1 369 13 is_stmt 1 view .LVU203
 624              	.LVL45:
 625              		.loc 1 369 25 is_stmt 0 view .LVU204
 626 002e 344B     		ldr	r3, .L35+8
 627 0030 5988     		ldrh	r1, [r3, #2]
 628 0032 0180     		strh	r1, [r0]	@ movhi
 370:Lib/ssc_app/src/el9800appl.c ****             *pTmpData++ = SWAPWORD(((UINT16 *)&sAIInputs)[2]);
 629              		.loc 1 370 13 is_stmt 1 view .LVU205
 630              	.LVL46:
 631              		.loc 1 370 25 is_stmt 0 view .LVU206
 632 0034 9988     		ldrh	r1, [r3, #4]
 633 0036 4180     		strh	r1, [r0, #2]	@ movhi
 371:Lib/ssc_app/src/el9800appl.c ****             *pTmpData++ = SWAPWORD(((UINT16 *)&sAIInputs)[3]);
 634              		.loc 1 371 13 is_stmt 1 view .LVU207
 635              	.LVL47:
 636              		.loc 1 371 25 is_stmt 0 view .LVU208
 637 0038 D988     		ldrh	r1, [r3, #6]
 638 003a 8180     		strh	r1, [r0, #4]	@ movhi
 372:Lib/ssc_app/src/el9800appl.c ****             *pTmpData++ = SWAPWORD(((UINT16 *)&sAIInputs)[4]);
 639              		.loc 1 372 13 is_stmt 1 view .LVU209
 640              	.LVL48:
 641              		.loc 1 372 25 is_stmt 0 view .LVU210
 642 003c 1989     		ldrh	r1, [r3, #8]
 643 003e C180     		strh	r1, [r0, #6]	@ movhi
 373:Lib/ssc_app/src/el9800appl.c ****             *pTmpData++ = SWAPWORD(((UINT16 *)&sAIInputs)[5]);
 644              		.loc 1 373 13 is_stmt 1 view .LVU211
 645              	.LVL49:
 646              		.loc 1 373 25 is_stmt 0 view .LVU212
 647 0040 5989     		ldrh	r1, [r3, #10]
 648 0042 0181     		strh	r1, [r0, #8]	@ movhi
 374:Lib/ssc_app/src/el9800appl.c ****             *pTmpData++ = SWAPWORD(((UINT16 *)&sAIInputs)[6]);
 649              		.loc 1 374 13 is_stmt 1 view .LVU213
 650              	.LVL50:
 651              		.loc 1 374 25 is_stmt 0 view .LVU214
 652 0044 9989     		ldrh	r1, [r3, #12]
 653 0046 4181     		strh	r1, [r0, #10]	@ movhi
 375:Lib/ssc_app/src/el9800appl.c ****             *pTmpData++ = SWAPWORD(((UINT16 *)&sAIInputs)[7]);
 654              		.loc 1 375 13 is_stmt 1 view .LVU215
 655              	.LVL51:
 656              		.loc 1 375 25 is_stmt 0 view .LVU216
ARM GAS  /tmp/ccU7mrs4.s 			page 20


 657 0048 D989     		ldrh	r1, [r3, #14]
 658 004a 8181     		strh	r1, [r0, #12]	@ movhi
 376:Lib/ssc_app/src/el9800appl.c ****             *pTmpData++ = SWAPWORD(((UINT16 *)&sAIInputs)[8]);
 659              		.loc 1 376 13 is_stmt 1 view .LVU217
 660              	.LVL52:
 661              		.loc 1 376 25 is_stmt 0 view .LVU218
 662 004c 198A     		ldrh	r1, [r3, #16]
 663 004e C181     		strh	r1, [r0, #14]	@ movhi
 377:Lib/ssc_app/src/el9800appl.c ****             *pTmpData++ = SWAPWORD(((UINT16 *)&sAIInputs)[9]);
 664              		.loc 1 377 13 is_stmt 1 view .LVU219
 665              	.LVL53:
 666              		.loc 1 377 25 is_stmt 0 view .LVU220
 667 0050 598A     		ldrh	r1, [r3, #18]
 668 0052 0182     		strh	r1, [r0, #16]	@ movhi
 378:Lib/ssc_app/src/el9800appl.c ****             *pTmpData++ = SWAPWORD(((UINT16 *)&sAIInputs)[10]);
 669              		.loc 1 378 13 is_stmt 1 view .LVU221
 670              	.LVL54:
 671              		.loc 1 378 25 is_stmt 0 view .LVU222
 672 0054 998A     		ldrh	r1, [r3, #20]
 673 0056 4182     		strh	r1, [r0, #18]	@ movhi
 379:Lib/ssc_app/src/el9800appl.c ****             *pTmpData++ = SWAPWORD(((UINT16 *)&sAIInputs)[11]);
 674              		.loc 1 379 13 is_stmt 1 view .LVU223
 675              	.LVL55:
 676              		.loc 1 379 25 is_stmt 0 view .LVU224
 677 0058 D98A     		ldrh	r1, [r3, #22]
 678 005a 8182     		strh	r1, [r0, #20]	@ movhi
 380:Lib/ssc_app/src/el9800appl.c ****             *pTmpData++ = SWAPWORD(((UINT16 *)&sAIInputs)[12]);
 679              		.loc 1 380 13 is_stmt 1 view .LVU225
 680              	.LVL56:
 681              		.loc 1 380 25 is_stmt 0 view .LVU226
 682 005c 198B     		ldrh	r1, [r3, #24]
 683 005e C182     		strh	r1, [r0, #22]	@ movhi
 381:Lib/ssc_app/src/el9800appl.c ****             *pTmpData++ = SWAPWORD(((UINT16 *)&sAIInputs)[13]);
 684              		.loc 1 381 13 is_stmt 1 view .LVU227
 685              	.LVL57:
 686              		.loc 1 381 25 is_stmt 0 view .LVU228
 687 0060 598B     		ldrh	r1, [r3, #26]
 688 0062 0183     		strh	r1, [r0, #24]	@ movhi
 382:Lib/ssc_app/src/el9800appl.c ****             *pTmpData++ = SWAPWORD(((UINT16 *)&sAIInputs)[14]);
 689              		.loc 1 382 13 is_stmt 1 view .LVU229
 690              	.LVL58:
 691              		.loc 1 382 25 is_stmt 0 view .LVU230
 692 0064 998B     		ldrh	r1, [r3, #28]
 693 0066 4183     		strh	r1, [r0, #26]	@ movhi
 383:Lib/ssc_app/src/el9800appl.c ****             *pTmpData++ = SWAPWORD(((UINT16 *)&sAIInputs)[15]);
 694              		.loc 1 383 13 is_stmt 1 view .LVU231
 695              	.LVL59:
 696              		.loc 1 383 25 is_stmt 0 view .LVU232
 697 0068 D98B     		ldrh	r1, [r3, #30]
 698 006a 8183     		strh	r1, [r0, #28]	@ movhi
 384:Lib/ssc_app/src/el9800appl.c ****             *pTmpData++ = SWAPWORD(((UINT16 *)&sAIInputs)[16]);
 699              		.loc 1 384 13 is_stmt 1 view .LVU233
 700              	.LVL60:
 701              		.loc 1 384 25 is_stmt 0 view .LVU234
 702 006c 198C     		ldrh	r1, [r3, #32]
 703 006e C183     		strh	r1, [r0, #30]	@ movhi
 385:Lib/ssc_app/src/el9800appl.c ****             *pTmpData++ = SWAPWORD(((UINT16 *)&sAIInputs)[17]);
ARM GAS  /tmp/ccU7mrs4.s 			page 21


 704              		.loc 1 385 13 is_stmt 1 view .LVU235
 705              	.LVL61:
 706              		.loc 1 385 25 is_stmt 0 view .LVU236
 707 0070 598C     		ldrh	r1, [r3, #34]
 708 0072 0184     		strh	r1, [r0, #32]	@ movhi
 386:Lib/ssc_app/src/el9800appl.c ****             *pTmpData++ = SWAPWORD(((UINT16 *)&sAIInputs)[18]);
 709              		.loc 1 386 13 is_stmt 1 view .LVU237
 710              	.LVL62:
 711              		.loc 1 386 25 is_stmt 0 view .LVU238
 712 0074 998C     		ldrh	r1, [r3, #36]
 713 0076 4184     		strh	r1, [r0, #34]	@ movhi
 387:Lib/ssc_app/src/el9800appl.c ****             *pTmpData++ = SWAPWORD(((UINT16 *)&sAIInputs)[19]);
 714              		.loc 1 387 13 is_stmt 1 view .LVU239
 715              	.LVL63:
 716              		.loc 1 387 25 is_stmt 0 view .LVU240
 717 0078 D98C     		ldrh	r1, [r3, #38]
 718 007a 8184     		strh	r1, [r0, #36]	@ movhi
 388:Lib/ssc_app/src/el9800appl.c ****             *pTmpData++ = SWAPWORD(((UINT16 *)&sAIInputs)[20]);
 719              		.loc 1 388 13 is_stmt 1 view .LVU241
 720              	.LVL64:
 721              		.loc 1 388 25 is_stmt 0 view .LVU242
 722 007c 198D     		ldrh	r1, [r3, #40]
 723 007e C184     		strh	r1, [r0, #38]	@ movhi
 389:Lib/ssc_app/src/el9800appl.c ****             *pTmpData++ = SWAPWORD(((UINT16 *)&sAIInputs)[21]);
 724              		.loc 1 389 13 is_stmt 1 view .LVU243
 725              	.LVL65:
 726              		.loc 1 389 25 is_stmt 0 view .LVU244
 727 0080 598D     		ldrh	r1, [r3, #42]
 728 0082 0185     		strh	r1, [r0, #40]	@ movhi
 390:Lib/ssc_app/src/el9800appl.c ****             *pTmpData++ = SWAPWORD(((UINT16 *)&sAIInputs)[22]);
 729              		.loc 1 390 13 is_stmt 1 view .LVU245
 730              	.LVL66:
 731              		.loc 1 390 25 is_stmt 0 view .LVU246
 732 0084 998D     		ldrh	r1, [r3, #44]
 733 0086 4185     		strh	r1, [r0, #42]	@ movhi
 391:Lib/ssc_app/src/el9800appl.c ****             *pTmpData++ = SWAPWORD(((UINT16 *)&sAIInputs)[23]);
 734              		.loc 1 391 13 is_stmt 1 view .LVU247
 735              	.LVL67:
 736              		.loc 1 391 25 is_stmt 0 view .LVU248
 737 0088 D98D     		ldrh	r1, [r3, #46]
 738 008a 8185     		strh	r1, [r0, #44]	@ movhi
 392:Lib/ssc_app/src/el9800appl.c ****             *pTmpData++ = SWAPWORD(((UINT16 *)&sAIInputs)[24]);
 739              		.loc 1 392 13 is_stmt 1 view .LVU249
 740              	.LVL68:
 741              		.loc 1 392 25 is_stmt 0 view .LVU250
 742 008c 198E     		ldrh	r1, [r3, #48]
 743 008e C185     		strh	r1, [r0, #46]	@ movhi
 393:Lib/ssc_app/src/el9800appl.c ****             *pTmpData++ = SWAPWORD(((UINT16 *)&sAIInputs)[25]);
 744              		.loc 1 393 13 is_stmt 1 view .LVU251
 745              	.LVL69:
 746              		.loc 1 393 25 is_stmt 0 view .LVU252
 747 0090 598E     		ldrh	r1, [r3, #50]
 748 0092 0186     		strh	r1, [r0, #48]	@ movhi
 394:Lib/ssc_app/src/el9800appl.c ****             *pTmpData++ = SWAPWORD(((UINT16 *)&sAIInputs)[26]);
 749              		.loc 1 394 13 is_stmt 1 view .LVU253
 750              	.LVL70:
 751              		.loc 1 394 25 is_stmt 0 view .LVU254
ARM GAS  /tmp/ccU7mrs4.s 			page 22


 752 0094 998E     		ldrh	r1, [r3, #52]
 753 0096 4186     		strh	r1, [r0, #50]	@ movhi
 395:Lib/ssc_app/src/el9800appl.c ****             *pTmpData++ = SWAPWORD(((UINT16 *)&sAIInputs)[27]);
 754              		.loc 1 395 13 is_stmt 1 view .LVU255
 755              	.LVL71:
 756              		.loc 1 395 25 is_stmt 0 view .LVU256
 757 0098 D98E     		ldrh	r1, [r3, #54]
 758 009a 8186     		strh	r1, [r0, #52]	@ movhi
 396:Lib/ssc_app/src/el9800appl.c ****             *pTmpData++ = SWAPWORD(((UINT16 *)&sAIInputs)[28]);
 759              		.loc 1 396 13 is_stmt 1 view .LVU257
 760              	.LVL72:
 761              		.loc 1 396 25 is_stmt 0 view .LVU258
 762 009c 198F     		ldrh	r1, [r3, #56]
 763 009e C186     		strh	r1, [r0, #54]	@ movhi
 397:Lib/ssc_app/src/el9800appl.c **** 
 398:Lib/ssc_app/src/el9800appl.c ****             *pTmpData++ = SWAPWORD(((UINT16 *)&sAIInputs)[29]);
 764              		.loc 1 398 13 is_stmt 1 view .LVU259
 765              	.LVL73:
 766              		.loc 1 398 25 is_stmt 0 view .LVU260
 767 00a0 598F     		ldrh	r1, [r3, #58]
 768 00a2 0187     		strh	r1, [r0, #56]	@ movhi
 399:Lib/ssc_app/src/el9800appl.c ****             *pTmpData++ = SWAPWORD(((UINT16 *)&sAIInputs)[30]);
 769              		.loc 1 399 13 is_stmt 1 view .LVU261
 770              	.LVL74:
 771              		.loc 1 399 25 is_stmt 0 view .LVU262
 772 00a4 998F     		ldrh	r1, [r3, #60]
 773 00a6 4187     		strh	r1, [r0, #58]	@ movhi
 400:Lib/ssc_app/src/el9800appl.c ****             *pTmpData++ = SWAPWORD(((UINT16 *)&sAIInputs)[31]);
 774              		.loc 1 400 13 is_stmt 1 view .LVU263
 775              	.LVL75:
 776              		.loc 1 400 25 is_stmt 0 view .LVU264
 777 00a8 D98F     		ldrh	r1, [r3, #62]
 778 00aa 8187     		strh	r1, [r0, #60]	@ movhi
 401:Lib/ssc_app/src/el9800appl.c ****             *pTmpData++ = SWAPWORD(((UINT16 *)&sAIInputs)[32]);
 779              		.loc 1 401 13 is_stmt 1 view .LVU265
 780              	.LVL76:
 781              		.loc 1 401 25 is_stmt 0 view .LVU266
 782 00ac B3F84010 		ldrh	r1, [r3, #64]
 783 00b0 C187     		strh	r1, [r0, #62]	@ movhi
 402:Lib/ssc_app/src/el9800appl.c ****             *pTmpData++ = SWAPWORD(((UINT16 *)&sAIInputs)[33]);
 784              		.loc 1 402 13 is_stmt 1 view .LVU267
 785              	.LVL77:
 786              		.loc 1 402 25 is_stmt 0 view .LVU268
 787 00b2 B3F84210 		ldrh	r1, [r3, #66]
 788 00b6 A0F84010 		strh	r1, [r0, #64]	@ movhi
 403:Lib/ssc_app/src/el9800appl.c ****             *pTmpData++ = SWAPWORD(((UINT16 *)&sAIInputs)[34]);
 789              		.loc 1 403 13 is_stmt 1 view .LVU269
 790              	.LVL78:
 791              		.loc 1 403 25 is_stmt 0 view .LVU270
 792 00ba B3F84410 		ldrh	r1, [r3, #68]
 793 00be A0F84210 		strh	r1, [r0, #66]	@ movhi
 404:Lib/ssc_app/src/el9800appl.c ****             *pTmpData++ = SWAPWORD(((UINT16 *)&sAIInputs)[35]);
 794              		.loc 1 404 13 is_stmt 1 view .LVU271
 795              	.LVL79:
 796              		.loc 1 404 25 is_stmt 0 view .LVU272
 797 00c2 B3F84610 		ldrh	r1, [r3, #70]
 798 00c6 A0F84410 		strh	r1, [r0, #68]	@ movhi
ARM GAS  /tmp/ccU7mrs4.s 			page 23


 405:Lib/ssc_app/src/el9800appl.c ****             *pTmpData++ = SWAPWORD(((UINT16 *)&sAIInputs)[36]);
 799              		.loc 1 405 13 is_stmt 1 view .LVU273
 800              	.LVL80:
 801              		.loc 1 405 25 is_stmt 0 view .LVU274
 802 00ca B3F84810 		ldrh	r1, [r3, #72]
 803 00ce A0F84610 		strh	r1, [r0, #70]	@ movhi
 406:Lib/ssc_app/src/el9800appl.c ****             *pTmpData++ = SWAPWORD(((UINT16 *)&sAIInputs)[37]);
 804              		.loc 1 406 13 is_stmt 1 view .LVU275
 805              	.LVL81:
 806              		.loc 1 406 25 is_stmt 0 view .LVU276
 807 00d2 B3F84A10 		ldrh	r1, [r3, #74]
 808 00d6 A0F84810 		strh	r1, [r0, #72]	@ movhi
 407:Lib/ssc_app/src/el9800appl.c ****             *pTmpData++ = SWAPWORD(((UINT16 *)&sAIInputs)[38]);
 809              		.loc 1 407 13 is_stmt 1 view .LVU277
 810              	.LVL82:
 811              		.loc 1 407 25 is_stmt 0 view .LVU278
 812 00da B3F84C10 		ldrh	r1, [r3, #76]
 813 00de A0F84A10 		strh	r1, [r0, #74]	@ movhi
 408:Lib/ssc_app/src/el9800appl.c ****             *pTmpData++ = SWAPWORD(((UINT16 *)&sAIInputs)[39]);
 814              		.loc 1 408 13 is_stmt 1 view .LVU279
 815              	.LVL83:
 816              		.loc 1 408 25 is_stmt 0 view .LVU280
 817 00e2 B3F84E10 		ldrh	r1, [r3, #78]
 818 00e6 A0F84C10 		strh	r1, [r0, #76]	@ movhi
 409:Lib/ssc_app/src/el9800appl.c ****             *pTmpData++ = SWAPWORD(((UINT16 *)&sAIInputs)[40]);
 819              		.loc 1 409 13 is_stmt 1 view .LVU281
 820              	.LVL84:
 821              		.loc 1 409 25 is_stmt 0 view .LVU282
 822 00ea B3F85030 		ldrh	r3, [r3, #80]
 823 00ee A0F84E30 		strh	r3, [r0, #78]	@ movhi
 410:Lib/ssc_app/src/el9800appl.c ****             break;
 824              		.loc 1 410 13 is_stmt 1 view .LVU283
 409:Lib/ssc_app/src/el9800appl.c ****             *pTmpData++ = SWAPWORD(((UINT16 *)&sAIInputs)[40]);
 825              		.loc 1 409 22 is_stmt 0 view .LVU284
 826 00f2 5030     		adds	r0, r0, #80
 827              	.LVL85:
 828              		.loc 1 410 13 view .LVU285
 829 00f4 8AE7     		b	.L32
 830              	.L34:
 411:Lib/ssc_app/src/el9800appl.c ****         }
 412:Lib/ssc_app/src/el9800appl.c ****     }
 413:Lib/ssc_app/src/el9800appl.c **** }
 831              		.loc 1 413 1 view .LVU286
 832 00f6 7047     		bx	lr
 833              	.L36:
 834              		.align	2
 835              	.L35:
 836 00f8 00000000 		.word	.LANCHOR3
 837 00fc 00000000 		.word	.LANCHOR2
 838 0100 00000000 		.word	.LANCHOR4
 839              		.cfi_endproc
 840              	.LFE131:
 842              		.section	.text.APPL_OutputMapping,"ax",%progbits
 843              		.align	1
 844              		.global	APPL_OutputMapping
 845              		.syntax unified
 846              		.thumb
ARM GAS  /tmp/ccU7mrs4.s 			page 24


 847              		.thumb_func
 849              	APPL_OutputMapping:
 850              	.LVL86:
 851              	.LFB132:
 414:Lib/ssc_app/src/el9800appl.c **** 
 415:Lib/ssc_app/src/el9800appl.c **** /////////////////////////////////////////////////////////////////////////////////////////
 416:Lib/ssc_app/src/el9800appl.c **** /**
 417:Lib/ssc_app/src/el9800appl.c **** \param      pData  pointer to output process data
 418:Lib/ssc_app/src/el9800appl.c **** 
 419:Lib/ssc_app/src/el9800appl.c **** \brief    This function will copies the outputs from the ESC memory to the local memory
 420:Lib/ssc_app/src/el9800appl.c ****             to the hardware
 421:Lib/ssc_app/src/el9800appl.c **** */
 422:Lib/ssc_app/src/el9800appl.c **** ///////////////////////////////////////////////////////////////////////////////////////
 423:Lib/ssc_app/src/el9800appl.c **** #if _STM32_IO4 && AL_EVENT_ENABLED
 424:Lib/ssc_app/src/el9800appl.c **** /* the pragma interrupt_level is used to tell the compiler that these functions will not
 425:Lib/ssc_app/src/el9800appl.c ****    be called at the same time from the main function and the interrupt routine */
 426:Lib/ssc_app/src/el9800appl.c **** #pragma interrupt_level 1
 427:Lib/ssc_app/src/el9800appl.c **** #endif
 428:Lib/ssc_app/src/el9800appl.c **** void APPL_OutputMapping(UINT16 *pData)
 429:Lib/ssc_app/src/el9800appl.c **** {
 852              		.loc 1 429 1 is_stmt 1 view -0
 853              		.cfi_startproc
 854              		@ args = 0, pretend = 0, frame = 0
 855              		@ frame_needed = 0, uses_anonymous_args = 0
 856              		@ link register save eliminated.
 430:Lib/ssc_app/src/el9800appl.c ****     UINT16 j = 0;
 857              		.loc 1 430 5 view .LVU288
 431:Lib/ssc_app/src/el9800appl.c ****     UINT16 *pTmpData = (UINT16 *)pData;
 858              		.loc 1 431 5 view .LVU289
 432:Lib/ssc_app/src/el9800appl.c **** 
 433:Lib/ssc_app/src/el9800appl.c ****     /* we go through all entries of the RxPDO Assign object to get the assigned RxPDOs */
 434:Lib/ssc_app/src/el9800appl.c ****     for (j = 0; j < sRxPDOassign.u16SubIndex0; j++)
 859              		.loc 1 434 5 view .LVU290
 860              		.loc 1 434 12 is_stmt 0 view .LVU291
 861 0000 0022     		movs	r2, #0
 862              		.loc 1 434 5 view .LVU292
 863 0002 01E0     		b	.L38
 864              	.LVL87:
 865              	.L39:
 866              		.loc 1 434 48 is_stmt 1 discriminator 2 view .LVU293
 867              		.loc 1 434 49 is_stmt 0 discriminator 2 view .LVU294
 868 0004 0132     		adds	r2, r2, #1
 869              	.LVL88:
 870              		.loc 1 434 49 discriminator 2 view .LVU295
 871 0006 92B2     		uxth	r2, r2
 872              	.LVL89:
 873              	.L38:
 874              		.loc 1 434 17 is_stmt 1 discriminator 1 view .LVU296
 875              		.loc 1 434 33 is_stmt 0 discriminator 1 view .LVU297
 876 0008 464B     		ldr	r3, .L42
 877 000a 1B88     		ldrh	r3, [r3]
 878              		.loc 1 434 5 discriminator 1 view .LVU298
 879 000c 9342     		cmp	r3, r2
 880 000e 40F28880 		bls	.L41
 435:Lib/ssc_app/src/el9800appl.c ****     {
 436:Lib/ssc_app/src/el9800appl.c ****         switch (sRxPDOassign.aEntries[j])
 881              		.loc 1 436 9 is_stmt 1 view .LVU299
ARM GAS  /tmp/ccU7mrs4.s 			page 25


 882              		.loc 1 436 38 is_stmt 0 view .LVU300
 883 0012 444B     		ldr	r3, .L42
 884 0014 03EB4203 		add	r3, r3, r2, lsl #1
 885 0018 5988     		ldrh	r1, [r3, #2]
 886              		.loc 1 436 9 view .LVU301
 887 001a 41F20163 		movw	r3, #5633
 888 001e 9942     		cmp	r1, r3
 889 0020 F0D1     		bne	.L39
 437:Lib/ssc_app/src/el9800appl.c ****         {
 438:Lib/ssc_app/src/el9800appl.c ****         /* RxPDO 2 */
 439:Lib/ssc_app/src/el9800appl.c ****         case 0x1601:
 440:Lib/ssc_app/src/el9800appl.c ****             ((UINT16 *)&sDOOutputs)[1] = SWAPWORD(*pTmpData);
 890              		.loc 1 440 13 is_stmt 1 view .LVU302
 891              		.loc 1 440 42 is_stmt 0 view .LVU303
 892 0022 0188     		ldrh	r1, [r0]
 893              		.loc 1 440 40 view .LVU304
 894 0024 404B     		ldr	r3, .L42+4
 895 0026 5980     		strh	r1, [r3, #2]	@ movhi
 441:Lib/ssc_app/src/el9800appl.c ****             ((UINT16 *)&sDOOutputs)[2] = (SWAPWORD(*pTmpData) >> 8 & 0xFF) | (SWAPWORD(*(pTmpData +
 896              		.loc 1 441 13 is_stmt 1 view .LVU305
 897              		.loc 1 441 79 is_stmt 0 view .LVU306
 898 0028 B0F802C0 		ldrh	ip, [r0, #2]
 899              		.loc 1 441 76 view .LVU307
 900 002c 090A     		lsrs	r1, r1, #8
 901 002e 41EA0C21 		orr	r1, r1, ip, lsl #8
 902              		.loc 1 441 40 view .LVU308
 903 0032 9980     		strh	r1, [r3, #4]	@ movhi
 442:Lib/ssc_app/src/el9800appl.c ****             ((UINT16 *)&sDOOutputs)[3] = (SWAPWORD(*(pTmpData + 1)) >> 8 & 0xFF) | (SWAPWORD(*(pTmp
 904              		.loc 1 442 13 is_stmt 1 view .LVU309
 905              		.loc 1 442 43 is_stmt 0 view .LVU310
 906 0034 4188     		ldrh	r1, [r0, #2]
 907              		.loc 1 442 85 view .LVU311
 908 0036 B0F804C0 		ldrh	ip, [r0, #4]
 909              		.loc 1 442 82 view .LVU312
 910 003a 090A     		lsrs	r1, r1, #8
 911 003c 41EA0C21 		orr	r1, r1, ip, lsl #8
 912              		.loc 1 442 40 view .LVU313
 913 0040 D980     		strh	r1, [r3, #6]	@ movhi
 443:Lib/ssc_app/src/el9800appl.c ****             ((UINT16 *)&sDOOutputs)[4] = (SWAPWORD(*(pTmpData + 2)) >> 8 & 0xFF) | (SWAPWORD(*(pTmp
 914              		.loc 1 443 13 is_stmt 1 view .LVU314
 915              		.loc 1 443 43 is_stmt 0 view .LVU315
 916 0042 8188     		ldrh	r1, [r0, #4]
 917              		.loc 1 443 85 view .LVU316
 918 0044 B0F806C0 		ldrh	ip, [r0, #6]
 919              		.loc 1 443 82 view .LVU317
 920 0048 090A     		lsrs	r1, r1, #8
 921 004a 41EA0C21 		orr	r1, r1, ip, lsl #8
 922              		.loc 1 443 40 view .LVU318
 923 004e 1981     		strh	r1, [r3, #8]	@ movhi
 444:Lib/ssc_app/src/el9800appl.c ****             ((UINT16 *)&sDOOutputs)[5] = (SWAPWORD(*(pTmpData + 3)) >> 8 & 0xFF) | (SWAPWORD(*(pTmp
 924              		.loc 1 444 13 is_stmt 1 view .LVU319
 925              		.loc 1 444 43 is_stmt 0 view .LVU320
 926 0050 C188     		ldrh	r1, [r0, #6]
 927              		.loc 1 444 85 view .LVU321
 928 0052 B0F808C0 		ldrh	ip, [r0, #8]
 929              		.loc 1 444 82 view .LVU322
 930 0056 090A     		lsrs	r1, r1, #8
ARM GAS  /tmp/ccU7mrs4.s 			page 26


 931 0058 41EA0C21 		orr	r1, r1, ip, lsl #8
 932              		.loc 1 444 40 view .LVU323
 933 005c 5981     		strh	r1, [r3, #10]	@ movhi
 445:Lib/ssc_app/src/el9800appl.c ****             ((UINT16 *)&sDOOutputs)[6] = (SWAPWORD(*(pTmpData + 4)) >> 8 & 0xFF) | (SWAPWORD(*(pTmp
 934              		.loc 1 445 13 is_stmt 1 view .LVU324
 935              		.loc 1 445 43 is_stmt 0 view .LVU325
 936 005e 0189     		ldrh	r1, [r0, #8]
 937              		.loc 1 445 85 view .LVU326
 938 0060 B0F80AC0 		ldrh	ip, [r0, #10]
 939              		.loc 1 445 82 view .LVU327
 940 0064 090A     		lsrs	r1, r1, #8
 941 0066 41EA0C21 		orr	r1, r1, ip, lsl #8
 942              		.loc 1 445 40 view .LVU328
 943 006a 9981     		strh	r1, [r3, #12]	@ movhi
 446:Lib/ssc_app/src/el9800appl.c ****             ((UINT16 *)&sDOOutputs)[7] = (SWAPWORD(*(pTmpData + 5)) >> 8 & 0xFF) | (SWAPWORD(*(pTmp
 944              		.loc 1 446 13 is_stmt 1 view .LVU329
 945              		.loc 1 446 43 is_stmt 0 view .LVU330
 946 006c 4189     		ldrh	r1, [r0, #10]
 947              		.loc 1 446 85 view .LVU331
 948 006e B0F80CC0 		ldrh	ip, [r0, #12]
 949              		.loc 1 446 82 view .LVU332
 950 0072 090A     		lsrs	r1, r1, #8
 951 0074 41EA0C21 		orr	r1, r1, ip, lsl #8
 952              		.loc 1 446 40 view .LVU333
 953 0078 D981     		strh	r1, [r3, #14]	@ movhi
 447:Lib/ssc_app/src/el9800appl.c ****             ((UINT16 *)&sDOOutputs)[8] = (SWAPWORD(*(pTmpData + 6)) >> 8 & 0xFF) | (SWAPWORD(*(pTmp
 954              		.loc 1 447 13 is_stmt 1 view .LVU334
 955              		.loc 1 447 43 is_stmt 0 view .LVU335
 956 007a 8189     		ldrh	r1, [r0, #12]
 957              		.loc 1 447 85 view .LVU336
 958 007c B0F80EC0 		ldrh	ip, [r0, #14]
 959              		.loc 1 447 82 view .LVU337
 960 0080 090A     		lsrs	r1, r1, #8
 961 0082 41EA0C21 		orr	r1, r1, ip, lsl #8
 962              		.loc 1 447 40 view .LVU338
 963 0086 1982     		strh	r1, [r3, #16]	@ movhi
 448:Lib/ssc_app/src/el9800appl.c ****             ((UINT16 *)&sDOOutputs)[9] = (SWAPWORD(*(pTmpData + 7)) >> 8 & 0xFF) | (SWAPWORD(*(pTmp
 964              		.loc 1 448 13 is_stmt 1 view .LVU339
 965              		.loc 1 448 43 is_stmt 0 view .LVU340
 966 0088 C189     		ldrh	r1, [r0, #14]
 967              		.loc 1 448 85 view .LVU341
 968 008a B0F810C0 		ldrh	ip, [r0, #16]
 969              		.loc 1 448 82 view .LVU342
 970 008e 090A     		lsrs	r1, r1, #8
 971 0090 41EA0C21 		orr	r1, r1, ip, lsl #8
 972              		.loc 1 448 40 view .LVU343
 973 0094 5982     		strh	r1, [r3, #18]	@ movhi
 449:Lib/ssc_app/src/el9800appl.c ****             ((UINT16 *)&sDOOutputs)[10] = (SWAPWORD(*(pTmpData + 8)) >> 8 & 0xFF) | (SWAPWORD(*(pTm
 974              		.loc 1 449 13 is_stmt 1 view .LVU344
 975              		.loc 1 449 44 is_stmt 0 view .LVU345
 976 0096 018A     		ldrh	r1, [r0, #16]
 977              		.loc 1 449 86 view .LVU346
 978 0098 B0F812C0 		ldrh	ip, [r0, #18]
 979              		.loc 1 449 83 view .LVU347
 980 009c 090A     		lsrs	r1, r1, #8
 981 009e 41EA0C21 		orr	r1, r1, ip, lsl #8
 982              		.loc 1 449 41 view .LVU348
ARM GAS  /tmp/ccU7mrs4.s 			page 27


 983 00a2 9982     		strh	r1, [r3, #20]	@ movhi
 450:Lib/ssc_app/src/el9800appl.c ****             ((UINT16 *)&sDOOutputs)[11] = (SWAPWORD(*(pTmpData + 9)) >> 8 & 0xFF) | (SWAPWORD(*(pTm
 984              		.loc 1 450 13 is_stmt 1 view .LVU349
 985              		.loc 1 450 44 is_stmt 0 view .LVU350
 986 00a4 418A     		ldrh	r1, [r0, #18]
 987              		.loc 1 450 86 view .LVU351
 988 00a6 B0F814C0 		ldrh	ip, [r0, #20]
 989              		.loc 1 450 83 view .LVU352
 990 00aa 090A     		lsrs	r1, r1, #8
 991 00ac 41EA0C21 		orr	r1, r1, ip, lsl #8
 992              		.loc 1 450 41 view .LVU353
 993 00b0 D982     		strh	r1, [r3, #22]	@ movhi
 451:Lib/ssc_app/src/el9800appl.c ****             ((UINT16 *)&sDOOutputs)[12] = (SWAPWORD(*(pTmpData + 10)) >> 8 & 0xFF) | (SWAPWORD(*(pT
 994              		.loc 1 451 13 is_stmt 1 view .LVU354
 995              		.loc 1 451 44 is_stmt 0 view .LVU355
 996 00b2 818A     		ldrh	r1, [r0, #20]
 997              		.loc 1 451 87 view .LVU356
 998 00b4 B0F816C0 		ldrh	ip, [r0, #22]
 999              		.loc 1 451 84 view .LVU357
 1000 00b8 090A     		lsrs	r1, r1, #8
 1001 00ba 41EA0C21 		orr	r1, r1, ip, lsl #8
 1002              		.loc 1 451 41 view .LVU358
 1003 00be 1983     		strh	r1, [r3, #24]	@ movhi
 452:Lib/ssc_app/src/el9800appl.c ****             ((UINT16 *)&sDOOutputs)[13] = (SWAPWORD(*(pTmpData + 11)) >> 8 & 0xFF) | (SWAPWORD(*(pT
 1004              		.loc 1 452 13 is_stmt 1 view .LVU359
 1005              		.loc 1 452 44 is_stmt 0 view .LVU360
 1006 00c0 C18A     		ldrh	r1, [r0, #22]
 1007              		.loc 1 452 87 view .LVU361
 1008 00c2 B0F818C0 		ldrh	ip, [r0, #24]
 1009              		.loc 1 452 84 view .LVU362
 1010 00c6 090A     		lsrs	r1, r1, #8
 1011 00c8 41EA0C21 		orr	r1, r1, ip, lsl #8
 1012              		.loc 1 452 41 view .LVU363
 1013 00cc 5983     		strh	r1, [r3, #26]	@ movhi
 453:Lib/ssc_app/src/el9800appl.c ****             ((UINT16 *)&sDOOutputs)[14] = (SWAPWORD(*(pTmpData + 12)) >> 8 & 0xFF) | (SWAPWORD(*(pT
 1014              		.loc 1 453 13 is_stmt 1 view .LVU364
 1015              		.loc 1 453 44 is_stmt 0 view .LVU365
 1016 00ce 018B     		ldrh	r1, [r0, #24]
 1017              		.loc 1 453 87 view .LVU366
 1018 00d0 B0F81AC0 		ldrh	ip, [r0, #26]
 1019              		.loc 1 453 84 view .LVU367
 1020 00d4 090A     		lsrs	r1, r1, #8
 1021 00d6 41EA0C21 		orr	r1, r1, ip, lsl #8
 1022              		.loc 1 453 41 view .LVU368
 1023 00da 9983     		strh	r1, [r3, #28]	@ movhi
 454:Lib/ssc_app/src/el9800appl.c ****             ((UINT16 *)&sDOOutputs)[15] = (SWAPWORD(*(pTmpData + 13)) >> 8 & 0xFF) | (SWAPWORD(*(pT
 1024              		.loc 1 454 13 is_stmt 1 view .LVU369
 1025              		.loc 1 454 44 is_stmt 0 view .LVU370
 1026 00dc 418B     		ldrh	r1, [r0, #26]
 1027              		.loc 1 454 87 view .LVU371
 1028 00de B0F81CC0 		ldrh	ip, [r0, #28]
 1029              		.loc 1 454 84 view .LVU372
 1030 00e2 090A     		lsrs	r1, r1, #8
 1031 00e4 41EA0C21 		orr	r1, r1, ip, lsl #8
 1032              		.loc 1 454 41 view .LVU373
 1033 00e8 D983     		strh	r1, [r3, #30]	@ movhi
 455:Lib/ssc_app/src/el9800appl.c ****             ((UINT16 *)&sDOOutputs)[16] = (SWAPWORD(*(pTmpData + 14)) >> 8 & 0xFF);
ARM GAS  /tmp/ccU7mrs4.s 			page 28


 1034              		.loc 1 455 13 is_stmt 1 view .LVU374
 1035              		.loc 1 455 44 is_stmt 0 view .LVU375
 1036 00ea 818B     		ldrh	r1, [r0, #28]
 1037              		.loc 1 455 41 view .LVU376
 1038 00ec 090A     		lsrs	r1, r1, #8
 1039 00ee 1984     		strh	r1, [r3, #32]	@ movhi
 456:Lib/ssc_app/src/el9800appl.c ****             /*motor1*/
 457:Lib/ssc_app/src/el9800appl.c ****             ((UINT16 *)&sDOOutputs)[17] = SWAPWORD(*(pTmpData + 15));
 1040              		.loc 1 457 13 is_stmt 1 view .LVU377
 1041              		.loc 1 457 41 is_stmt 0 view .LVU378
 1042 00f0 C18B     		ldrh	r1, [r0, #30]
 1043 00f2 5984     		strh	r1, [r3, #34]	@ movhi
 458:Lib/ssc_app/src/el9800appl.c ****             ((UINT16 *)&sDOOutputs)[18] = SWAPWORD(*(pTmpData + 16));
 1044              		.loc 1 458 13 is_stmt 1 view .LVU379
 1045              		.loc 1 458 41 is_stmt 0 view .LVU380
 1046 00f4 018C     		ldrh	r1, [r0, #32]
 1047 00f6 9984     		strh	r1, [r3, #36]	@ movhi
 459:Lib/ssc_app/src/el9800appl.c ****             ((UINT16 *)&sDOOutputs)[19] = SWAPWORD(*(pTmpData + 17));
 1048              		.loc 1 459 13 is_stmt 1 view .LVU381
 1049              		.loc 1 459 41 is_stmt 0 view .LVU382
 1050 00f8 418C     		ldrh	r1, [r0, #34]
 1051 00fa D984     		strh	r1, [r3, #38]	@ movhi
 460:Lib/ssc_app/src/el9800appl.c ****             ((UINT16 *)&sDOOutputs)[20] = SWAPWORD(*(pTmpData + 18));
 1052              		.loc 1 460 13 is_stmt 1 view .LVU383
 1053              		.loc 1 460 41 is_stmt 0 view .LVU384
 1054 00fc 818C     		ldrh	r1, [r0, #36]
 1055 00fe 1985     		strh	r1, [r3, #40]	@ movhi
 461:Lib/ssc_app/src/el9800appl.c ****             ((UINT16 *)&sDOOutputs)[21] = SWAPWORD(*(pTmpData + 19));
 1056              		.loc 1 461 13 is_stmt 1 view .LVU385
 1057              		.loc 1 461 41 is_stmt 0 view .LVU386
 1058 0100 C18C     		ldrh	r1, [r0, #38]
 1059 0102 5985     		strh	r1, [r3, #42]	@ movhi
 462:Lib/ssc_app/src/el9800appl.c ****             ((UINT16 *)&sDOOutputs)[22] = SWAPWORD(*(pTmpData + 20));
 1060              		.loc 1 462 13 is_stmt 1 view .LVU387
 1061              		.loc 1 462 41 is_stmt 0 view .LVU388
 1062 0104 018D     		ldrh	r1, [r0, #40]
 1063 0106 9985     		strh	r1, [r3, #44]	@ movhi
 463:Lib/ssc_app/src/el9800appl.c ****             ((UINT16 *)&sDOOutputs)[23] = SWAPWORD(*(pTmpData + 21));
 1064              		.loc 1 463 13 is_stmt 1 view .LVU389
 1065              		.loc 1 463 41 is_stmt 0 view .LVU390
 1066 0108 418D     		ldrh	r1, [r0, #42]
 1067 010a D985     		strh	r1, [r3, #46]	@ movhi
 464:Lib/ssc_app/src/el9800appl.c ****             ((UINT16 *)&sDOOutputs)[24] = SWAPWORD(*(pTmpData + 22));
 1068              		.loc 1 464 13 is_stmt 1 view .LVU391
 1069              		.loc 1 464 41 is_stmt 0 view .LVU392
 1070 010c 818D     		ldrh	r1, [r0, #44]
 1071 010e 1986     		strh	r1, [r3, #48]	@ movhi
 465:Lib/ssc_app/src/el9800appl.c ****             ((UINT16 *)&sDOOutputs)[25] = SWAPWORD(*(pTmpData + 23));
 1072              		.loc 1 465 13 is_stmt 1 view .LVU393
 1073              		.loc 1 465 41 is_stmt 0 view .LVU394
 1074 0110 C18D     		ldrh	r1, [r0, #46]
 1075 0112 5986     		strh	r1, [r3, #50]	@ movhi
 466:Lib/ssc_app/src/el9800appl.c ****             ((UINT16 *)&sDOOutputs)[26] = SWAPWORD(*(pTmpData + 24));
 1076              		.loc 1 466 13 is_stmt 1 view .LVU395
 1077              		.loc 1 466 41 is_stmt 0 view .LVU396
 1078 0114 018E     		ldrh	r1, [r0, #48]
 1079 0116 9986     		strh	r1, [r3, #52]	@ movhi
ARM GAS  /tmp/ccU7mrs4.s 			page 29


 467:Lib/ssc_app/src/el9800appl.c ****             ((UINT16 *)&sDOOutputs)[27] = SWAPWORD(*(pTmpData + 25));
 1080              		.loc 1 467 13 is_stmt 1 view .LVU397
 1081              		.loc 1 467 41 is_stmt 0 view .LVU398
 1082 0118 418E     		ldrh	r1, [r0, #50]
 1083 011a D986     		strh	r1, [r3, #54]	@ movhi
 468:Lib/ssc_app/src/el9800appl.c ****             /*motor2*/
 469:Lib/ssc_app/src/el9800appl.c ****             ((UINT16 *)&sDOOutputs)[28] = SWAPWORD(*(pTmpData + 26));
 1084              		.loc 1 469 13 is_stmt 1 view .LVU399
 1085              		.loc 1 469 41 is_stmt 0 view .LVU400
 1086 011c 818E     		ldrh	r1, [r0, #52]
 1087 011e 1987     		strh	r1, [r3, #56]	@ movhi
 470:Lib/ssc_app/src/el9800appl.c ****             break;
 1088              		.loc 1 470 13 is_stmt 1 view .LVU401
 1089 0120 70E7     		b	.L39
 1090              	.L41:
 471:Lib/ssc_app/src/el9800appl.c ****         }
 472:Lib/ssc_app/src/el9800appl.c ****     }
 473:Lib/ssc_app/src/el9800appl.c **** }
 1091              		.loc 1 473 1 is_stmt 0 view .LVU402
 1092 0122 7047     		bx	lr
 1093              	.L43:
 1094              		.align	2
 1095              	.L42:
 1096 0124 00000000 		.word	.LANCHOR1
 1097 0128 00000000 		.word	.LANCHOR0
 1098              		.cfi_endproc
 1099              	.LFE132:
 1101              		.section	.text.APPL_Application,"ax",%progbits
 1102              		.align	1
 1103              		.global	APPL_Application
 1104              		.syntax unified
 1105              		.thumb
 1106              		.thumb_func
 1108              	APPL_Application:
 1109              	.LFB133:
 474:Lib/ssc_app/src/el9800appl.c **** 
 475:Lib/ssc_app/src/el9800appl.c **** /////////////////////////////////////////////////////////////////////////////////////////
 476:Lib/ssc_app/src/el9800appl.c **** /**
 477:Lib/ssc_app/src/el9800appl.c **** \brief    This function will called from the synchronisation ISR
 478:Lib/ssc_app/src/el9800appl.c ****             or from the mainloop if no synchronisation is supported
 479:Lib/ssc_app/src/el9800appl.c **** */
 480:Lib/ssc_app/src/el9800appl.c **** ///////////////////////////////////////////////////////////////////////////////////////
 481:Lib/ssc_app/src/el9800appl.c **** 
 482:Lib/ssc_app/src/el9800appl.c **** #include "spi2_bus.h"
 483:Lib/ssc_app/src/el9800appl.c **** 
 484:Lib/ssc_app/src/el9800appl.c **** uint8_t motormsg[40];
 485:Lib/ssc_app/src/el9800appl.c **** uint8_t motormsg_get[21];
 486:Lib/ssc_app/src/el9800appl.c **** uint8_t spi2_flag;
 487:Lib/ssc_app/src/el9800appl.c **** uint8_t call_flag;
 488:Lib/ssc_app/src/el9800appl.c **** uint8_t spi2_msg;
 489:Lib/ssc_app/src/el9800appl.c **** 
 490:Lib/ssc_app/src/el9800appl.c **** uint8_t rxbety = 0;
 491:Lib/ssc_app/src/el9800appl.c **** uint8_t txbety = 0xD2;
 492:Lib/ssc_app/src/el9800appl.c **** 
 493:Lib/ssc_app/src/el9800appl.c **** void APPL_Application(void)
 494:Lib/ssc_app/src/el9800appl.c **** {
 1110              		.loc 1 494 1 is_stmt 1 view -0
ARM GAS  /tmp/ccU7mrs4.s 			page 30


 1111              		.cfi_startproc
 1112              		@ args = 0, pretend = 0, frame = 0
 1113              		@ frame_needed = 0, uses_anonymous_args = 0
 1114 0000 10B5     		push	{r4, lr}
 1115              		.cfi_def_cfa_offset 8
 1116              		.cfi_offset 4, -8
 1117              		.cfi_offset 14, -4
 495:Lib/ssc_app/src/el9800appl.c ****     if (sDOOutputs.bLED1 != 0)
 1118              		.loc 1 495 5 view .LVU404
 1119              		.loc 1 495 26 is_stmt 0 view .LVU405
 1120 0002 974B     		ldr	r3, .L69
 1121 0004 9B78     		ldrb	r3, [r3, #2]	@ zero_extendqisi2
 1122              		.loc 1 495 8 view .LVU406
 1123 0006 13F0010F 		tst	r3, #1
 1124 000a 00F0E180 		beq	.L45
 496:Lib/ssc_app/src/el9800appl.c ****     {
 497:Lib/ssc_app/src/el9800appl.c ****         GPIO_SetBits(GPIOB, GPIO_Pin_15);
 1125              		.loc 1 497 9 is_stmt 1 view .LVU407
 1126 000e 4FF40041 		mov	r1, #32768
 1127 0012 9448     		ldr	r0, .L69+4
 1128 0014 FFF7FEFF 		bl	GPIO_SetBits
 1129              	.LVL90:
 1130              	.L46:
 498:Lib/ssc_app/src/el9800appl.c ****     }
 499:Lib/ssc_app/src/el9800appl.c ****     else
 500:Lib/ssc_app/src/el9800appl.c ****     {
 501:Lib/ssc_app/src/el9800appl.c ****         GPIO_ResetBits(GPIOB, GPIO_Pin_15);
 502:Lib/ssc_app/src/el9800appl.c ****     }
 503:Lib/ssc_app/src/el9800appl.c **** 
 504:Lib/ssc_app/src/el9800appl.c ****     if (sDOOutputs.bLED2 != 0)
 1131              		.loc 1 504 5 view .LVU408
 1132              		.loc 1 504 26 is_stmt 0 view .LVU409
 1133 0018 914B     		ldr	r3, .L69
 1134 001a 9B78     		ldrb	r3, [r3, #2]	@ zero_extendqisi2
 1135              		.loc 1 504 8 view .LVU410
 1136 001c 13F0020F 		tst	r3, #2
 1137 0020 00F0DC80 		beq	.L47
 505:Lib/ssc_app/src/el9800appl.c ****     {
 506:Lib/ssc_app/src/el9800appl.c ****         GPIO_SetBits(GPIOB, GPIO_Pin_14);
 1138              		.loc 1 506 9 is_stmt 1 view .LVU411
 1139 0024 4FF48041 		mov	r1, #16384
 1140 0028 8E48     		ldr	r0, .L69+4
 1141 002a FFF7FEFF 		bl	GPIO_SetBits
 1142              	.LVL91:
 1143              	.L48:
 507:Lib/ssc_app/src/el9800appl.c ****     }
 508:Lib/ssc_app/src/el9800appl.c ****     else
 509:Lib/ssc_app/src/el9800appl.c ****     {
 510:Lib/ssc_app/src/el9800appl.c ****         GPIO_ResetBits(GPIOB, GPIO_Pin_14);
 511:Lib/ssc_app/src/el9800appl.c ****     }
 512:Lib/ssc_app/src/el9800appl.c **** 
 513:Lib/ssc_app/src/el9800appl.c ****     if (sDOOutputs.bLED3 != 0)
 1144              		.loc 1 513 5 view .LVU412
 1145              		.loc 1 513 26 is_stmt 0 view .LVU413
 1146 002e 8C4B     		ldr	r3, .L69
 1147 0030 9B78     		ldrb	r3, [r3, #2]	@ zero_extendqisi2
 1148              		.loc 1 513 8 view .LVU414
ARM GAS  /tmp/ccU7mrs4.s 			page 31


 1149 0032 13F0040F 		tst	r3, #4
 1150 0036 00F0D780 		beq	.L49
 514:Lib/ssc_app/src/el9800appl.c ****     {
 515:Lib/ssc_app/src/el9800appl.c ****         GPIO_SetBits(GPIOB, GPIO_Pin_13);
 1151              		.loc 1 515 9 is_stmt 1 view .LVU415
 1152 003a 4FF40051 		mov	r1, #8192
 1153 003e 8948     		ldr	r0, .L69+4
 1154 0040 FFF7FEFF 		bl	GPIO_SetBits
 1155              	.LVL92:
 1156              	.L50:
 516:Lib/ssc_app/src/el9800appl.c ****     }
 517:Lib/ssc_app/src/el9800appl.c ****     else
 518:Lib/ssc_app/src/el9800appl.c ****     {
 519:Lib/ssc_app/src/el9800appl.c ****         GPIO_ResetBits(GPIOB, GPIO_Pin_13);
 520:Lib/ssc_app/src/el9800appl.c ****     }
 521:Lib/ssc_app/src/el9800appl.c **** 
 522:Lib/ssc_app/src/el9800appl.c ****     Can1_TxMessage.StdId = sDOOutputs.can1_h0;
 1157              		.loc 1 522 5 view .LVU416
 1158              		.loc 1 522 38 is_stmt 0 view .LVU417
 1159 0044 864C     		ldr	r4, .L69
 1160 0046 A388     		ldrh	r3, [r4, #4]
 1161              		.loc 1 522 26 view .LVU418
 1162 0048 8749     		ldr	r1, .L69+8
 1163 004a 0B60     		str	r3, [r1]
 523:Lib/ssc_app/src/el9800appl.c ****     Can1_TxMessage.ExtId = sDOOutputs.can1_h1;
 1164              		.loc 1 523 5 is_stmt 1 view .LVU419
 1165              		.loc 1 523 38 is_stmt 0 view .LVU420
 1166 004c A379     		ldrb	r3, [r4, #6]	@ zero_extendqisi2
 1167              		.loc 1 523 26 view .LVU421
 1168 004e 4B60     		str	r3, [r1, #4]
 524:Lib/ssc_app/src/el9800appl.c ****     Can1_TxMessage.IDE = sDOOutputs.can1_h2;
 1169              		.loc 1 524 5 is_stmt 1 view .LVU422
 1170              		.loc 1 524 36 is_stmt 0 view .LVU423
 1171 0050 E379     		ldrb	r3, [r4, #7]	@ zero_extendqisi2
 1172              		.loc 1 524 24 view .LVU424
 1173 0052 0B72     		strb	r3, [r1, #8]
 525:Lib/ssc_app/src/el9800appl.c ****     Can1_TxMessage.RTR = sDOOutputs.can1_h3;
 1174              		.loc 1 525 5 is_stmt 1 view .LVU425
 1175              		.loc 1 525 36 is_stmt 0 view .LVU426
 1176 0054 237A     		ldrb	r3, [r4, #8]	@ zero_extendqisi2
 1177              		.loc 1 525 24 view .LVU427
 1178 0056 4B72     		strb	r3, [r1, #9]
 526:Lib/ssc_app/src/el9800appl.c ****     Can1_TxMessage.DLC = sDOOutputs.can1_h4;
 1179              		.loc 1 526 5 is_stmt 1 view .LVU428
 1180              		.loc 1 526 36 is_stmt 0 view .LVU429
 1181 0058 637A     		ldrb	r3, [r4, #9]	@ zero_extendqisi2
 1182              		.loc 1 526 24 view .LVU430
 1183 005a 8B72     		strb	r3, [r1, #10]
 527:Lib/ssc_app/src/el9800appl.c **** 
 528:Lib/ssc_app/src/el9800appl.c ****     Can1_TxMessage.Data[0] = sDOOutputs.can1_d0;
 1184              		.loc 1 528 5 is_stmt 1 view .LVU431
 1185              		.loc 1 528 40 is_stmt 0 view .LVU432
 1186 005c A37A     		ldrb	r3, [r4, #10]	@ zero_extendqisi2
 1187              		.loc 1 528 28 view .LVU433
 1188 005e CB72     		strb	r3, [r1, #11]
 529:Lib/ssc_app/src/el9800appl.c ****     Can1_TxMessage.Data[1] = sDOOutputs.can1_d1;
 1189              		.loc 1 529 5 is_stmt 1 view .LVU434
ARM GAS  /tmp/ccU7mrs4.s 			page 32


 1190              		.loc 1 529 40 is_stmt 0 view .LVU435
 1191 0060 E37A     		ldrb	r3, [r4, #11]	@ zero_extendqisi2
 1192              		.loc 1 529 28 view .LVU436
 1193 0062 0B73     		strb	r3, [r1, #12]
 530:Lib/ssc_app/src/el9800appl.c ****     Can1_TxMessage.Data[2] = sDOOutputs.can1_d2;
 1194              		.loc 1 530 5 is_stmt 1 view .LVU437
 1195              		.loc 1 530 40 is_stmt 0 view .LVU438
 1196 0064 237B     		ldrb	r3, [r4, #12]	@ zero_extendqisi2
 1197              		.loc 1 530 28 view .LVU439
 1198 0066 4B73     		strb	r3, [r1, #13]
 531:Lib/ssc_app/src/el9800appl.c ****     Can1_TxMessage.Data[3] = sDOOutputs.can1_d3;
 1199              		.loc 1 531 5 is_stmt 1 view .LVU440
 1200              		.loc 1 531 40 is_stmt 0 view .LVU441
 1201 0068 637B     		ldrb	r3, [r4, #13]	@ zero_extendqisi2
 1202              		.loc 1 531 28 view .LVU442
 1203 006a 8B73     		strb	r3, [r1, #14]
 532:Lib/ssc_app/src/el9800appl.c ****     Can1_TxMessage.Data[4] = sDOOutputs.can1_d4;
 1204              		.loc 1 532 5 is_stmt 1 view .LVU443
 1205              		.loc 1 532 40 is_stmt 0 view .LVU444
 1206 006c A37B     		ldrb	r3, [r4, #14]	@ zero_extendqisi2
 1207              		.loc 1 532 28 view .LVU445
 1208 006e CB73     		strb	r3, [r1, #15]
 533:Lib/ssc_app/src/el9800appl.c ****     Can1_TxMessage.Data[5] = sDOOutputs.can1_d5;
 1209              		.loc 1 533 5 is_stmt 1 view .LVU446
 1210              		.loc 1 533 40 is_stmt 0 view .LVU447
 1211 0070 E37B     		ldrb	r3, [r4, #15]	@ zero_extendqisi2
 1212              		.loc 1 533 28 view .LVU448
 1213 0072 0B74     		strb	r3, [r1, #16]
 534:Lib/ssc_app/src/el9800appl.c ****     Can1_TxMessage.Data[6] = sDOOutputs.can1_d6;
 1214              		.loc 1 534 5 is_stmt 1 view .LVU449
 1215              		.loc 1 534 40 is_stmt 0 view .LVU450
 1216 0074 237C     		ldrb	r3, [r4, #16]	@ zero_extendqisi2
 1217              		.loc 1 534 28 view .LVU451
 1218 0076 4B74     		strb	r3, [r1, #17]
 535:Lib/ssc_app/src/el9800appl.c ****     Can1_TxMessage.Data[7] = sDOOutputs.can1_d7;
 1219              		.loc 1 535 5 is_stmt 1 view .LVU452
 1220              		.loc 1 535 40 is_stmt 0 view .LVU453
 1221 0078 637C     		ldrb	r3, [r4, #17]	@ zero_extendqisi2
 1222              		.loc 1 535 28 view .LVU454
 1223 007a 8B74     		strb	r3, [r1, #18]
 536:Lib/ssc_app/src/el9800appl.c **** 
 537:Lib/ssc_app/src/el9800appl.c ****     CAN_Transmit(CAN1, &Can1_TxMessage);
 1224              		.loc 1 537 5 is_stmt 1 view .LVU455
 1225 007c 7B48     		ldr	r0, .L69+12
 1226 007e FFF7FEFF 		bl	CAN_Transmit
 1227              	.LVL93:
 538:Lib/ssc_app/src/el9800appl.c **** 
 539:Lib/ssc_app/src/el9800appl.c ****     Can2_TxMessage.StdId = sDOOutputs.can2_h0;
 1228              		.loc 1 539 5 view .LVU456
 1229              		.loc 1 539 38 is_stmt 0 view .LVU457
 1230 0082 638A     		ldrh	r3, [r4, #18]
 1231              		.loc 1 539 26 view .LVU458
 1232 0084 7A49     		ldr	r1, .L69+16
 1233 0086 0B60     		str	r3, [r1]
 540:Lib/ssc_app/src/el9800appl.c ****     Can2_TxMessage.ExtId = sDOOutputs.can2_h1;
 1234              		.loc 1 540 5 is_stmt 1 view .LVU459
 1235              		.loc 1 540 38 is_stmt 0 view .LVU460
ARM GAS  /tmp/ccU7mrs4.s 			page 33


 1236 0088 237D     		ldrb	r3, [r4, #20]	@ zero_extendqisi2
 1237              		.loc 1 540 26 view .LVU461
 1238 008a 4B60     		str	r3, [r1, #4]
 541:Lib/ssc_app/src/el9800appl.c ****     Can2_TxMessage.IDE = sDOOutputs.can2_h2;
 1239              		.loc 1 541 5 is_stmt 1 view .LVU462
 1240              		.loc 1 541 36 is_stmt 0 view .LVU463
 1241 008c 637D     		ldrb	r3, [r4, #21]	@ zero_extendqisi2
 1242              		.loc 1 541 24 view .LVU464
 1243 008e 0B72     		strb	r3, [r1, #8]
 542:Lib/ssc_app/src/el9800appl.c ****     Can2_TxMessage.RTR = sDOOutputs.can2_h3;
 1244              		.loc 1 542 5 is_stmt 1 view .LVU465
 1245              		.loc 1 542 36 is_stmt 0 view .LVU466
 1246 0090 A37D     		ldrb	r3, [r4, #22]	@ zero_extendqisi2
 1247              		.loc 1 542 24 view .LVU467
 1248 0092 4B72     		strb	r3, [r1, #9]
 543:Lib/ssc_app/src/el9800appl.c ****     Can2_TxMessage.DLC = sDOOutputs.can2_h4;
 1249              		.loc 1 543 5 is_stmt 1 view .LVU468
 1250              		.loc 1 543 36 is_stmt 0 view .LVU469
 1251 0094 E37D     		ldrb	r3, [r4, #23]	@ zero_extendqisi2
 1252              		.loc 1 543 24 view .LVU470
 1253 0096 8B72     		strb	r3, [r1, #10]
 544:Lib/ssc_app/src/el9800appl.c **** 
 545:Lib/ssc_app/src/el9800appl.c ****     Can2_TxMessage.Data[0] = sDOOutputs.can2_d0;
 1254              		.loc 1 545 5 is_stmt 1 view .LVU471
 1255              		.loc 1 545 40 is_stmt 0 view .LVU472
 1256 0098 237E     		ldrb	r3, [r4, #24]	@ zero_extendqisi2
 1257              		.loc 1 545 28 view .LVU473
 1258 009a CB72     		strb	r3, [r1, #11]
 546:Lib/ssc_app/src/el9800appl.c ****     Can2_TxMessage.Data[1] = sDOOutputs.can2_d1;
 1259              		.loc 1 546 5 is_stmt 1 view .LVU474
 1260              		.loc 1 546 40 is_stmt 0 view .LVU475
 1261 009c 637E     		ldrb	r3, [r4, #25]	@ zero_extendqisi2
 1262              		.loc 1 546 28 view .LVU476
 1263 009e 0B73     		strb	r3, [r1, #12]
 547:Lib/ssc_app/src/el9800appl.c ****     Can2_TxMessage.Data[2] = sDOOutputs.can2_d2;
 1264              		.loc 1 547 5 is_stmt 1 view .LVU477
 1265              		.loc 1 547 40 is_stmt 0 view .LVU478
 1266 00a0 A37E     		ldrb	r3, [r4, #26]	@ zero_extendqisi2
 1267              		.loc 1 547 28 view .LVU479
 1268 00a2 4B73     		strb	r3, [r1, #13]
 548:Lib/ssc_app/src/el9800appl.c ****     Can2_TxMessage.Data[3] = sDOOutputs.can2_d3;
 1269              		.loc 1 548 5 is_stmt 1 view .LVU480
 1270              		.loc 1 548 40 is_stmt 0 view .LVU481
 1271 00a4 E37E     		ldrb	r3, [r4, #27]	@ zero_extendqisi2
 1272              		.loc 1 548 28 view .LVU482
 1273 00a6 8B73     		strb	r3, [r1, #14]
 549:Lib/ssc_app/src/el9800appl.c ****     Can2_TxMessage.Data[4] = sDOOutputs.can2_d4;
 1274              		.loc 1 549 5 is_stmt 1 view .LVU483
 1275              		.loc 1 549 40 is_stmt 0 view .LVU484
 1276 00a8 237F     		ldrb	r3, [r4, #28]	@ zero_extendqisi2
 1277              		.loc 1 549 28 view .LVU485
 1278 00aa CB73     		strb	r3, [r1, #15]
 550:Lib/ssc_app/src/el9800appl.c ****     Can2_TxMessage.Data[5] = sDOOutputs.can2_d5;
 1279              		.loc 1 550 5 is_stmt 1 view .LVU486
 1280              		.loc 1 550 40 is_stmt 0 view .LVU487
 1281 00ac 637F     		ldrb	r3, [r4, #29]	@ zero_extendqisi2
 1282              		.loc 1 550 28 view .LVU488
ARM GAS  /tmp/ccU7mrs4.s 			page 34


 1283 00ae 0B74     		strb	r3, [r1, #16]
 551:Lib/ssc_app/src/el9800appl.c ****     Can2_TxMessage.Data[6] = sDOOutputs.can2_d6;
 1284              		.loc 1 551 5 is_stmt 1 view .LVU489
 1285              		.loc 1 551 40 is_stmt 0 view .LVU490
 1286 00b0 A37F     		ldrb	r3, [r4, #30]	@ zero_extendqisi2
 1287              		.loc 1 551 28 view .LVU491
 1288 00b2 4B74     		strb	r3, [r1, #17]
 552:Lib/ssc_app/src/el9800appl.c ****     Can2_TxMessage.Data[7] = sDOOutputs.can2_d7;
 1289              		.loc 1 552 5 is_stmt 1 view .LVU492
 1290              		.loc 1 552 40 is_stmt 0 view .LVU493
 1291 00b4 E37F     		ldrb	r3, [r4, #31]	@ zero_extendqisi2
 1292              		.loc 1 552 28 view .LVU494
 1293 00b6 8B74     		strb	r3, [r1, #18]
 553:Lib/ssc_app/src/el9800appl.c **** 
 554:Lib/ssc_app/src/el9800appl.c ****     CAN_Transmit(CAN2, &Can2_TxMessage);
 1294              		.loc 1 554 5 is_stmt 1 view .LVU495
 1295 00b8 6E48     		ldr	r0, .L69+20
 1296 00ba FFF7FEFF 		bl	CAN_Transmit
 1297              	.LVL94:
 555:Lib/ssc_app/src/el9800appl.c **** 
 556:Lib/ssc_app/src/el9800appl.c ****     sDIInputs.bSwitch1 = 0;
 1298              		.loc 1 556 5 view .LVU496
 1299              		.loc 1 556 24 is_stmt 0 view .LVU497
 1300 00be 6E4B     		ldr	r3, .L69+24
 1301 00c0 9A78     		ldrb	r2, [r3, #2]	@ zero_extendqisi2
 1302 00c2 6FF30002 		bfc	r2, #0, #1
 1303 00c6 9A70     		strb	r2, [r3, #2]
 557:Lib/ssc_app/src/el9800appl.c ****     sDIInputs.bSwitch2 = 0;
 1304              		.loc 1 557 5 is_stmt 1 view .LVU498
 1305              		.loc 1 557 24 is_stmt 0 view .LVU499
 1306 00c8 D2B2     		uxtb	r2, r2
 1307 00ca 6FF34102 		bfc	r2, #1, #1
 1308 00ce 9A70     		strb	r2, [r3, #2]
 558:Lib/ssc_app/src/el9800appl.c ****     sDIInputs.bSwitch3 = 0;
 1309              		.loc 1 558 5 is_stmt 1 view .LVU500
 1310              		.loc 1 558 24 is_stmt 0 view .LVU501
 1311 00d0 D2B2     		uxtb	r2, r2
 1312 00d2 6FF38202 		bfc	r2, #2, #1
 1313 00d6 9A70     		strb	r2, [r3, #2]
 559:Lib/ssc_app/src/el9800appl.c ****     sDIInputs.bSwitch4 = 0;
 1314              		.loc 1 559 5 is_stmt 1 view .LVU502
 1315              		.loc 1 559 24 is_stmt 0 view .LVU503
 1316 00d8 D2B2     		uxtb	r2, r2
 1317 00da 6FF3C302 		bfc	r2, #3, #1
 1318 00de 9A70     		strb	r2, [r3, #2]
 560:Lib/ssc_app/src/el9800appl.c ****     sDIInputs.bSwitch5 = 0;
 1319              		.loc 1 560 5 is_stmt 1 view .LVU504
 1320              		.loc 1 560 24 is_stmt 0 view .LVU505
 1321 00e0 D2B2     		uxtb	r2, r2
 1322 00e2 6FF30412 		bfc	r2, #4, #1
 1323 00e6 9A70     		strb	r2, [r3, #2]
 561:Lib/ssc_app/src/el9800appl.c ****     sDIInputs.bSwitch6 = 0;
 1324              		.loc 1 561 5 is_stmt 1 view .LVU506
 1325              		.loc 1 561 24 is_stmt 0 view .LVU507
 1326 00e8 D2B2     		uxtb	r2, r2
 1327 00ea 6FF34512 		bfc	r2, #5, #1
 1328 00ee 9A70     		strb	r2, [r3, #2]
ARM GAS  /tmp/ccU7mrs4.s 			page 35


 562:Lib/ssc_app/src/el9800appl.c ****     sDIInputs.bSwitch7 = 0;
 1329              		.loc 1 562 5 is_stmt 1 view .LVU508
 1330              		.loc 1 562 24 is_stmt 0 view .LVU509
 1331 00f0 D2B2     		uxtb	r2, r2
 1332 00f2 6FF38612 		bfc	r2, #6, #1
 1333 00f6 9A70     		strb	r2, [r3, #2]
 563:Lib/ssc_app/src/el9800appl.c ****     sDIInputs.bSwitch8 = 0;
 1334              		.loc 1 563 5 is_stmt 1 view .LVU510
 1335              		.loc 1 563 24 is_stmt 0 view .LVU511
 1336 00f8 D2B2     		uxtb	r2, r2
 1337 00fa 6FF3C712 		bfc	r2, #7, #1
 1338 00fe 9A70     		strb	r2, [r3, #2]
 564:Lib/ssc_app/src/el9800appl.c **** 
 565:Lib/ssc_app/src/el9800appl.c ****     spi2_flag = 0;
 1339              		.loc 1 565 5 is_stmt 1 view .LVU512
 1340              		.loc 1 565 15 is_stmt 0 view .LVU513
 1341 0100 5E4B     		ldr	r3, .L69+28
 1342 0102 0022     		movs	r2, #0
 1343 0104 1A70     		strb	r2, [r3]
 566:Lib/ssc_app/src/el9800appl.c **** 
 567:Lib/ssc_app/src/el9800appl.c ****     if (call_flag == 0)
 1344              		.loc 1 567 5 is_stmt 1 view .LVU514
 1345              		.loc 1 567 19 is_stmt 0 view .LVU515
 1346 0106 5E4B     		ldr	r3, .L69+32
 1347 0108 1B78     		ldrb	r3, [r3]	@ zero_extendqisi2
 1348              		.loc 1 567 8 view .LVU516
 1349 010a 002B     		cmp	r3, #0
 1350 010c 72D0     		beq	.L65
 1351              	.L51:
 568:Lib/ssc_app/src/el9800appl.c ****     {
 569:Lib/ssc_app/src/el9800appl.c ****         spi2_w_cmd(0xD2);
 570:Lib/ssc_app/src/el9800appl.c ****         call_flag = 1;
 571:Lib/ssc_app/src/el9800appl.c ****     }
 572:Lib/ssc_app/src/el9800appl.c **** 
 573:Lib/ssc_app/src/el9800appl.c ****     spi2_flag = spi2_r_cmd();
 1352              		.loc 1 573 5 is_stmt 1 view .LVU517
 1353              		.loc 1 573 17 is_stmt 0 view .LVU518
 1354 010e FFF7FEFF 		bl	spi2_r_cmd
 1355              	.LVL95:
 1356              		.loc 1 573 15 view .LVU519
 1357 0112 C0B2     		uxtb	r0, r0
 1358 0114 594B     		ldr	r3, .L69+28
 1359 0116 1870     		strb	r0, [r3]
 574:Lib/ssc_app/src/el9800appl.c **** 
 575:Lib/ssc_app/src/el9800appl.c ****     // spi
 576:Lib/ssc_app/src/el9800appl.c ****     if (spi2_flag == 0xD2)
 1360              		.loc 1 576 5 is_stmt 1 view .LVU520
 1361              		.loc 1 576 8 is_stmt 0 view .LVU521
 1362 0118 D228     		cmp	r0, #210
 1363 011a 7CD0     		beq	.L66
 1364              	.L53:
 577:Lib/ssc_app/src/el9800appl.c ****     {
 578:Lib/ssc_app/src/el9800appl.c ****         for (int i = 0; i < 41; i++)
 579:Lib/ssc_app/src/el9800appl.c ****         {
 580:Lib/ssc_app/src/el9800appl.c ****             motormsg[i] = spi2_wr_cmd(0x01);
 581:Lib/ssc_app/src/el9800appl.c ****         }
 582:Lib/ssc_app/src/el9800appl.c **** 
ARM GAS  /tmp/ccU7mrs4.s 			page 36


 583:Lib/ssc_app/src/el9800appl.c ****         for (int i = 0; i < 21; i++)
 584:Lib/ssc_app/src/el9800appl.c ****         {
 585:Lib/ssc_app/src/el9800appl.c ****             if (motormsg[i] == 0xD2 && motormsg[i+1] == 0xFE)
 586:Lib/ssc_app/src/el9800appl.c ****             {
 587:Lib/ssc_app/src/el9800appl.c ****                 for (int j = 0; j < 21; j++)
 588:Lib/ssc_app/src/el9800appl.c ****                 {
 589:Lib/ssc_app/src/el9800appl.c ****                     motormsg_get[j] = motormsg[i + j];
 590:Lib/ssc_app/src/el9800appl.c ****                 }
 591:Lib/ssc_app/src/el9800appl.c ****                 GetMotorMsg(&motormsg_get[0]);
 592:Lib/ssc_app/src/el9800appl.c ****             }
 593:Lib/ssc_app/src/el9800appl.c ****         }
 594:Lib/ssc_app/src/el9800appl.c ****         call_flag = 0;
 595:Lib/ssc_app/src/el9800appl.c ****     }
 596:Lib/ssc_app/src/el9800appl.c **** 
 597:Lib/ssc_app/src/el9800appl.c ****     // uint8_t dummy = spi2_wr_cmd(0x01);
 598:Lib/ssc_app/src/el9800appl.c **** 
 599:Lib/ssc_app/src/el9800appl.c ****     /* start the conversion of the A/D converter */
 600:Lib/ssc_app/src/el9800appl.c ****     //		while(!(ADC_GetFlagStatus(ADC1, ADC_FLAG_EOC)==SET));
 601:Lib/ssc_app/src/el9800appl.c **** 
 602:Lib/ssc_app/src/el9800appl.c ****     sAIInputs.i16Analoginput = 0;
 1365              		.loc 1 602 5 is_stmt 1 view .LVU522
 1366              		.loc 1 602 30 is_stmt 0 view .LVU523
 1367 011c 594B     		ldr	r3, .L69+36
 1368 011e 0022     		movs	r2, #0
 1369 0120 9A80     		strh	r2, [r3, #4]	@ movhi
 603:Lib/ssc_app/src/el9800appl.c **** 
 604:Lib/ssc_app/src/el9800appl.c ****     sAIInputs.can1_h0 = Can1_RxMessage.StdId;
 1370              		.loc 1 604 5 is_stmt 1 view .LVU524
 1371              		.loc 1 604 39 is_stmt 0 view .LVU525
 1372 0122 594A     		ldr	r2, .L69+40
 1373 0124 1168     		ldr	r1, [r2]
 1374              		.loc 1 604 23 view .LVU526
 1375 0126 D980     		strh	r1, [r3, #6]	@ movhi
 605:Lib/ssc_app/src/el9800appl.c ****     sAIInputs.can1_h1 = Can1_RxMessage.ExtId;
 1376              		.loc 1 605 5 is_stmt 1 view .LVU527
 1377              		.loc 1 605 39 is_stmt 0 view .LVU528
 1378 0128 5168     		ldr	r1, [r2, #4]
 1379              		.loc 1 605 23 view .LVU529
 1380 012a 1972     		strb	r1, [r3, #8]
 606:Lib/ssc_app/src/el9800appl.c ****     sAIInputs.can1_h2 = Can1_RxMessage.IDE;
 1381              		.loc 1 606 5 is_stmt 1 view .LVU530
 1382              		.loc 1 606 39 is_stmt 0 view .LVU531
 1383 012c 117A     		ldrb	r1, [r2, #8]	@ zero_extendqisi2
 1384              		.loc 1 606 23 view .LVU532
 1385 012e 5972     		strb	r1, [r3, #9]
 607:Lib/ssc_app/src/el9800appl.c ****     sAIInputs.can1_h3 = Can1_RxMessage.RTR;
 1386              		.loc 1 607 5 is_stmt 1 view .LVU533
 1387              		.loc 1 607 39 is_stmt 0 view .LVU534
 1388 0130 517A     		ldrb	r1, [r2, #9]	@ zero_extendqisi2
 1389              		.loc 1 607 23 view .LVU535
 1390 0132 9972     		strb	r1, [r3, #10]
 608:Lib/ssc_app/src/el9800appl.c ****     sAIInputs.can1_h4 = Can1_RxMessage.DLC;
 1391              		.loc 1 608 5 is_stmt 1 view .LVU536
 1392              		.loc 1 608 39 is_stmt 0 view .LVU537
 1393 0134 917A     		ldrb	r1, [r2, #10]	@ zero_extendqisi2
 1394              		.loc 1 608 23 view .LVU538
 1395 0136 D972     		strb	r1, [r3, #11]
ARM GAS  /tmp/ccU7mrs4.s 			page 37


 609:Lib/ssc_app/src/el9800appl.c **** 
 610:Lib/ssc_app/src/el9800appl.c ****     sAIInputs.can1_d0 = Can1_RxMessage.Data[0];
 1396              		.loc 1 610 5 is_stmt 1 view .LVU539
 1397              		.loc 1 610 44 is_stmt 0 view .LVU540
 1398 0138 D17A     		ldrb	r1, [r2, #11]	@ zero_extendqisi2
 1399              		.loc 1 610 23 view .LVU541
 1400 013a 1973     		strb	r1, [r3, #12]
 611:Lib/ssc_app/src/el9800appl.c ****     sAIInputs.can1_d1 = Can1_RxMessage.Data[1];
 1401              		.loc 1 611 5 is_stmt 1 view .LVU542
 1402              		.loc 1 611 44 is_stmt 0 view .LVU543
 1403 013c 117B     		ldrb	r1, [r2, #12]	@ zero_extendqisi2
 1404              		.loc 1 611 23 view .LVU544
 1405 013e 5973     		strb	r1, [r3, #13]
 612:Lib/ssc_app/src/el9800appl.c ****     sAIInputs.can1_d2 = Can1_RxMessage.Data[2];
 1406              		.loc 1 612 5 is_stmt 1 view .LVU545
 1407              		.loc 1 612 44 is_stmt 0 view .LVU546
 1408 0140 517B     		ldrb	r1, [r2, #13]	@ zero_extendqisi2
 1409              		.loc 1 612 23 view .LVU547
 1410 0142 9973     		strb	r1, [r3, #14]
 613:Lib/ssc_app/src/el9800appl.c ****     sAIInputs.can1_d3 = Can1_RxMessage.Data[3];
 1411              		.loc 1 613 5 is_stmt 1 view .LVU548
 1412              		.loc 1 613 44 is_stmt 0 view .LVU549
 1413 0144 917B     		ldrb	r1, [r2, #14]	@ zero_extendqisi2
 1414              		.loc 1 613 23 view .LVU550
 1415 0146 D973     		strb	r1, [r3, #15]
 614:Lib/ssc_app/src/el9800appl.c ****     sAIInputs.can1_d4 = Can1_RxMessage.Data[4];
 1416              		.loc 1 614 5 is_stmt 1 view .LVU551
 1417              		.loc 1 614 44 is_stmt 0 view .LVU552
 1418 0148 D17B     		ldrb	r1, [r2, #15]	@ zero_extendqisi2
 1419              		.loc 1 614 23 view .LVU553
 1420 014a 1974     		strb	r1, [r3, #16]
 615:Lib/ssc_app/src/el9800appl.c ****     sAIInputs.can1_d5 = Can1_RxMessage.Data[5];
 1421              		.loc 1 615 5 is_stmt 1 view .LVU554
 1422              		.loc 1 615 44 is_stmt 0 view .LVU555
 1423 014c 117C     		ldrb	r1, [r2, #16]	@ zero_extendqisi2
 1424              		.loc 1 615 23 view .LVU556
 1425 014e 5974     		strb	r1, [r3, #17]
 616:Lib/ssc_app/src/el9800appl.c ****     sAIInputs.can1_d6 = Can1_RxMessage.Data[6];
 1426              		.loc 1 616 5 is_stmt 1 view .LVU557
 1427              		.loc 1 616 44 is_stmt 0 view .LVU558
 1428 0150 517C     		ldrb	r1, [r2, #17]	@ zero_extendqisi2
 1429              		.loc 1 616 23 view .LVU559
 1430 0152 9974     		strb	r1, [r3, #18]
 617:Lib/ssc_app/src/el9800appl.c ****     sAIInputs.can1_d7 = Can1_RxMessage.Data[7];
 1431              		.loc 1 617 5 is_stmt 1 view .LVU560
 1432              		.loc 1 617 44 is_stmt 0 view .LVU561
 1433 0154 927C     		ldrb	r2, [r2, #18]	@ zero_extendqisi2
 1434              		.loc 1 617 23 view .LVU562
 1435 0156 DA74     		strb	r2, [r3, #19]
 618:Lib/ssc_app/src/el9800appl.c **** 
 619:Lib/ssc_app/src/el9800appl.c ****     sAIInputs.can2_h0 = Can2_RxMessage.StdId;
 1436              		.loc 1 619 5 is_stmt 1 view .LVU563
 1437              		.loc 1 619 39 is_stmt 0 view .LVU564
 1438 0158 4C4A     		ldr	r2, .L69+44
 1439 015a 1168     		ldr	r1, [r2]
 1440              		.loc 1 619 23 view .LVU565
 1441 015c 9982     		strh	r1, [r3, #20]	@ movhi
ARM GAS  /tmp/ccU7mrs4.s 			page 38


 620:Lib/ssc_app/src/el9800appl.c ****     sAIInputs.can2_h1 = Can2_RxMessage.ExtId;
 1442              		.loc 1 620 5 is_stmt 1 view .LVU566
 1443              		.loc 1 620 39 is_stmt 0 view .LVU567
 1444 015e 5168     		ldr	r1, [r2, #4]
 1445              		.loc 1 620 23 view .LVU568
 1446 0160 9975     		strb	r1, [r3, #22]
 621:Lib/ssc_app/src/el9800appl.c ****     sAIInputs.can2_h2 = Can2_RxMessage.IDE;
 1447              		.loc 1 621 5 is_stmt 1 view .LVU569
 1448              		.loc 1 621 39 is_stmt 0 view .LVU570
 1449 0162 117A     		ldrb	r1, [r2, #8]	@ zero_extendqisi2
 1450              		.loc 1 621 23 view .LVU571
 1451 0164 D975     		strb	r1, [r3, #23]
 622:Lib/ssc_app/src/el9800appl.c ****     sAIInputs.can2_h3 = Can2_RxMessage.RTR;
 1452              		.loc 1 622 5 is_stmt 1 view .LVU572
 1453              		.loc 1 622 39 is_stmt 0 view .LVU573
 1454 0166 517A     		ldrb	r1, [r2, #9]	@ zero_extendqisi2
 1455              		.loc 1 622 23 view .LVU574
 1456 0168 1976     		strb	r1, [r3, #24]
 623:Lib/ssc_app/src/el9800appl.c ****     sAIInputs.can2_h4 = Can2_RxMessage.DLC;
 1457              		.loc 1 623 5 is_stmt 1 view .LVU575
 1458              		.loc 1 623 39 is_stmt 0 view .LVU576
 1459 016a 917A     		ldrb	r1, [r2, #10]	@ zero_extendqisi2
 1460              		.loc 1 623 23 view .LVU577
 1461 016c 5976     		strb	r1, [r3, #25]
 624:Lib/ssc_app/src/el9800appl.c **** 
 625:Lib/ssc_app/src/el9800appl.c ****     sAIInputs.can2_d0 = Can2_RxMessage.Data[0];
 1462              		.loc 1 625 5 is_stmt 1 view .LVU578
 1463              		.loc 1 625 44 is_stmt 0 view .LVU579
 1464 016e D17A     		ldrb	r1, [r2, #11]	@ zero_extendqisi2
 1465              		.loc 1 625 23 view .LVU580
 1466 0170 9976     		strb	r1, [r3, #26]
 626:Lib/ssc_app/src/el9800appl.c ****     sAIInputs.can2_d1 = Can2_RxMessage.Data[1];
 1467              		.loc 1 626 5 is_stmt 1 view .LVU581
 1468              		.loc 1 626 44 is_stmt 0 view .LVU582
 1469 0172 117B     		ldrb	r1, [r2, #12]	@ zero_extendqisi2
 1470              		.loc 1 626 23 view .LVU583
 1471 0174 D976     		strb	r1, [r3, #27]
 627:Lib/ssc_app/src/el9800appl.c ****     sAIInputs.can2_d2 = Can2_RxMessage.Data[2];
 1472              		.loc 1 627 5 is_stmt 1 view .LVU584
 1473              		.loc 1 627 44 is_stmt 0 view .LVU585
 1474 0176 517B     		ldrb	r1, [r2, #13]	@ zero_extendqisi2
 1475              		.loc 1 627 23 view .LVU586
 1476 0178 1977     		strb	r1, [r3, #28]
 628:Lib/ssc_app/src/el9800appl.c ****     sAIInputs.can2_d3 = Can2_RxMessage.Data[3];
 1477              		.loc 1 628 5 is_stmt 1 view .LVU587
 1478              		.loc 1 628 44 is_stmt 0 view .LVU588
 1479 017a 917B     		ldrb	r1, [r2, #14]	@ zero_extendqisi2
 1480              		.loc 1 628 23 view .LVU589
 1481 017c 5977     		strb	r1, [r3, #29]
 629:Lib/ssc_app/src/el9800appl.c ****     sAIInputs.can2_d4 = Can2_RxMessage.Data[4];
 1482              		.loc 1 629 5 is_stmt 1 view .LVU590
 1483              		.loc 1 629 44 is_stmt 0 view .LVU591
 1484 017e D17B     		ldrb	r1, [r2, #15]	@ zero_extendqisi2
 1485              		.loc 1 629 23 view .LVU592
 1486 0180 9977     		strb	r1, [r3, #30]
 630:Lib/ssc_app/src/el9800appl.c ****     sAIInputs.can2_d5 = Can2_RxMessage.Data[5];
 1487              		.loc 1 630 5 is_stmt 1 view .LVU593
ARM GAS  /tmp/ccU7mrs4.s 			page 39


 1488              		.loc 1 630 44 is_stmt 0 view .LVU594
 1489 0182 117C     		ldrb	r1, [r2, #16]	@ zero_extendqisi2
 1490              		.loc 1 630 23 view .LVU595
 1491 0184 D977     		strb	r1, [r3, #31]
 631:Lib/ssc_app/src/el9800appl.c ****     sAIInputs.can2_d6 = Can2_RxMessage.Data[6];
 1492              		.loc 1 631 5 is_stmt 1 view .LVU596
 1493              		.loc 1 631 44 is_stmt 0 view .LVU597
 1494 0186 517C     		ldrb	r1, [r2, #17]	@ zero_extendqisi2
 1495              		.loc 1 631 23 view .LVU598
 1496 0188 83F82010 		strb	r1, [r3, #32]
 632:Lib/ssc_app/src/el9800appl.c ****     sAIInputs.can2_d7 = Can2_RxMessage.Data[7];
 1497              		.loc 1 632 5 is_stmt 1 view .LVU599
 1498              		.loc 1 632 44 is_stmt 0 view .LVU600
 1499 018c 927C     		ldrb	r2, [r2, #18]	@ zero_extendqisi2
 1500              		.loc 1 632 23 view .LVU601
 1501 018e 83F82120 		strb	r2, [r3, #33]
 633:Lib/ssc_app/src/el9800appl.c **** 
 634:Lib/ssc_app/src/el9800appl.c ****     sAIInputs.motor1_id = 10;
 1502              		.loc 1 634 5 is_stmt 1 view .LVU602
 1503              		.loc 1 634 25 is_stmt 0 view .LVU603
 1504 0192 0A22     		movs	r2, #10
 1505 0194 83F82220 		strb	r2, [r3, #34]
 635:Lib/ssc_app/src/el9800appl.c ****     sAIInputs.motor1_mode = 10;
 1506              		.loc 1 635 5 is_stmt 1 view .LVU604
 1507              		.loc 1 635 27 is_stmt 0 view .LVU605
 1508 0198 83F82320 		strb	r2, [r3, #35]
 636:Lib/ssc_app/src/el9800appl.c ****     sAIInputs.motor1_temp = 10;
 1509              		.loc 1 636 5 is_stmt 1 view .LVU606
 1510              		.loc 1 636 27 is_stmt 0 view .LVU607
 1511 019c 9A84     		strh	r2, [r3, #36]	@ movhi
 637:Lib/ssc_app/src/el9800appl.c ****     sAIInputs.motor1_error = 10;
 1512              		.loc 1 637 5 is_stmt 1 view .LVU608
 1513              		.loc 1 637 28 is_stmt 0 view .LVU609
 1514 019e DA84     		strh	r2, [r3, #38]	@ movhi
 638:Lib/ssc_app/src/el9800appl.c ****     sAIInputs.motor1_T = 10;
 1515              		.loc 1 638 5 is_stmt 1 view .LVU610
 1516              		.loc 1 638 24 is_stmt 0 view .LVU611
 1517 01a0 9A62     		str	r2, [r3, #40]
 639:Lib/ssc_app/src/el9800appl.c ****     sAIInputs.motor1_W = 10;
 1518              		.loc 1 639 5 is_stmt 1 view .LVU612
 1519              		.loc 1 639 24 is_stmt 0 view .LVU613
 1520 01a2 DA62     		str	r2, [r3, #44]
 640:Lib/ssc_app/src/el9800appl.c ****     sAIInputs.motor1_Pos = 10;
 1521              		.loc 1 640 5 is_stmt 1 view .LVU614
 1522              		.loc 1 640 26 is_stmt 0 view .LVU615
 1523 01a4 1A63     		str	r2, [r3, #48]
 641:Lib/ssc_app/src/el9800appl.c ****     sAIInputs.motor1_LW = 10;
 1524              		.loc 1 641 5 is_stmt 1 view .LVU616
 1525              		.loc 1 641 25 is_stmt 0 view .LVU617
 1526 01a6 5A63     		str	r2, [r3, #52]
 642:Lib/ssc_app/src/el9800appl.c ****     sAIInputs.motor1_Acc = 10;
 1527              		.loc 1 642 5 is_stmt 1 view .LVU618
 1528              		.loc 1 642 26 is_stmt 0 view .LVU619
 1529 01a8 1A87     		strh	r2, [r3, #56]	@ movhi
 643:Lib/ssc_app/src/el9800appl.c **** 
 644:Lib/ssc_app/src/el9800appl.c ****     /* we toggle the TxPDO Toggle after updating the data of the corresponding TxPDO */
 645:Lib/ssc_app/src/el9800appl.c ****     sAIInputs.bTxPDOToggle ^= 1;
ARM GAS  /tmp/ccU7mrs4.s 			page 40


 1530              		.loc 1 645 5 is_stmt 1 view .LVU620
 1531              		.loc 1 645 28 is_stmt 0 view .LVU621
 1532 01aa DA78     		ldrb	r2, [r3, #3]	@ zero_extendqisi2
 1533 01ac C2F3C011 		ubfx	r1, r2, #7, #1
 1534 01b0 81F00101 		eor	r1, r1, #1
 1535 01b4 61F3C712 		bfi	r2, r1, #7, #1
 1536 01b8 DA70     		strb	r2, [r3, #3]
 646:Lib/ssc_app/src/el9800appl.c **** 
 647:Lib/ssc_app/src/el9800appl.c ****     /* we simulate a problem of the analog input, if the Switch4 is on in this example,
 648:Lib/ssc_app/src/el9800appl.c ****        in this case the TxPDO State has to set to indicate the problem to the master */
 649:Lib/ssc_app/src/el9800appl.c ****     if (sDIInputs.bSwitch4)
 1537              		.loc 1 649 5 is_stmt 1 view .LVU622
 1538              		.loc 1 649 9 is_stmt 0 view .LVU623
 1539 01ba 2F4B     		ldr	r3, .L69+24
 1540 01bc 9B78     		ldrb	r3, [r3, #2]	@ zero_extendqisi2
 1541              		.loc 1 649 8 view .LVU624
 1542 01be 13F0080F 		tst	r3, #8
 1543 01c2 47D0     		beq	.L60
 650:Lib/ssc_app/src/el9800appl.c ****         sAIInputs.bTxPDOState = 1;
 1544              		.loc 1 650 9 is_stmt 1 view .LVU625
 1545              		.loc 1 650 31 is_stmt 0 view .LVU626
 1546 01c4 2F4A     		ldr	r2, .L69+36
 1547 01c6 D378     		ldrb	r3, [r2, #3]	@ zero_extendqisi2
 1548 01c8 43F04003 		orr	r3, r3, #64
 1549 01cc D370     		strb	r3, [r2, #3]
 1550              	.L44:
 651:Lib/ssc_app/src/el9800appl.c ****     else
 652:Lib/ssc_app/src/el9800appl.c ****         sAIInputs.bTxPDOState = 0;
 653:Lib/ssc_app/src/el9800appl.c **** }
 1551              		.loc 1 653 1 view .LVU627
 1552 01ce 10BD     		pop	{r4, pc}
 1553              	.L45:
 501:Lib/ssc_app/src/el9800appl.c ****     }
 1554              		.loc 1 501 9 is_stmt 1 view .LVU628
 1555 01d0 4FF40041 		mov	r1, #32768
 1556 01d4 2348     		ldr	r0, .L69+4
 1557 01d6 FFF7FEFF 		bl	GPIO_ResetBits
 1558              	.LVL96:
 1559 01da 1DE7     		b	.L46
 1560              	.L47:
 510:Lib/ssc_app/src/el9800appl.c ****     }
 1561              		.loc 1 510 9 view .LVU629
 1562 01dc 4FF48041 		mov	r1, #16384
 1563 01e0 2048     		ldr	r0, .L69+4
 1564 01e2 FFF7FEFF 		bl	GPIO_ResetBits
 1565              	.LVL97:
 1566 01e6 22E7     		b	.L48
 1567              	.L49:
 519:Lib/ssc_app/src/el9800appl.c ****     }
 1568              		.loc 1 519 9 view .LVU630
 1569 01e8 4FF40051 		mov	r1, #8192
 1570 01ec 1D48     		ldr	r0, .L69+4
 1571 01ee FFF7FEFF 		bl	GPIO_ResetBits
 1572              	.LVL98:
 1573 01f2 27E7     		b	.L50
 1574              	.L65:
 1575              	.LBB2:
ARM GAS  /tmp/ccU7mrs4.s 			page 41


 569:Lib/ssc_app/src/el9800appl.c ****         call_flag = 1;
 1576              		.loc 1 569 9 view .LVU631
 1577 01f4 D220     		movs	r0, #210
 1578 01f6 FFF7FEFF 		bl	spi2_w_cmd
 1579              	.LVL99:
 570:Lib/ssc_app/src/el9800appl.c ****     }
 1580              		.loc 1 570 9 view .LVU632
 570:Lib/ssc_app/src/el9800appl.c ****     }
 1581              		.loc 1 570 19 is_stmt 0 view .LVU633
 1582 01fa 214B     		ldr	r3, .L69+32
 1583 01fc 0122     		movs	r2, #1
 1584 01fe 1A70     		strb	r2, [r3]
 1585 0200 85E7     		b	.L51
 1586              	.LVL100:
 1587              	.L54:
 570:Lib/ssc_app/src/el9800appl.c ****     }
 1588              		.loc 1 570 19 view .LVU634
 1589              	.LBE2:
 1590              	.LBB3:
 1591              	.LBB4:
 580:Lib/ssc_app/src/el9800appl.c ****         }
 1592              		.loc 1 580 13 is_stmt 1 discriminator 3 view .LVU635
 580:Lib/ssc_app/src/el9800appl.c ****         }
 1593              		.loc 1 580 27 is_stmt 0 discriminator 3 view .LVU636
 1594 0202 0120     		movs	r0, #1
 1595 0204 FFF7FEFF 		bl	spi2_wr_cmd
 1596              	.LVL101:
 580:Lib/ssc_app/src/el9800appl.c ****         }
 1597              		.loc 1 580 25 discriminator 3 view .LVU637
 1598 0208 214B     		ldr	r3, .L69+48
 1599 020a 1855     		strb	r0, [r3, r4]
 1600              	.LBE4:
 578:Lib/ssc_app/src/el9800appl.c ****         {
 1601              		.loc 1 578 33 is_stmt 1 discriminator 3 view .LVU638
 578:Lib/ssc_app/src/el9800appl.c ****         {
 1602              		.loc 1 578 34 is_stmt 0 discriminator 3 view .LVU639
 1603 020c 0134     		adds	r4, r4, #1
 1604              	.LVL102:
 1605              	.L52:
 578:Lib/ssc_app/src/el9800appl.c ****         {
 1606              		.loc 1 578 25 is_stmt 1 discriminator 1 view .LVU640
 578:Lib/ssc_app/src/el9800appl.c ****         {
 1607              		.loc 1 578 9 is_stmt 0 discriminator 1 view .LVU641
 1608 020e 282C     		cmp	r4, #40
 1609 0210 F7DD     		ble	.L54
 1610              	.LBE3:
 1611              	.LBB5:
 583:Lib/ssc_app/src/el9800appl.c ****         {
 1612              		.loc 1 583 18 view .LVU642
 1613 0212 0024     		movs	r4, #0
 1614              	.LVL103:
 583:Lib/ssc_app/src/el9800appl.c ****         {
 1615              		.loc 1 583 18 view .LVU643
 1616 0214 05E0     		b	.L55
 1617              	.L66:
 583:Lib/ssc_app/src/el9800appl.c ****         {
 1618              		.loc 1 583 18 view .LVU644
ARM GAS  /tmp/ccU7mrs4.s 			page 42


 1619              	.LBE5:
 1620              	.LBB7:
 578:Lib/ssc_app/src/el9800appl.c ****         {
 1621              		.loc 1 578 18 view .LVU645
 1622 0216 0024     		movs	r4, #0
 1623 0218 F9E7     		b	.L52
 1624              	.LVL104:
 1625              	.L68:
 578:Lib/ssc_app/src/el9800appl.c ****         {
 1626              		.loc 1 578 18 view .LVU646
 1627              	.LBE7:
 1628              	.LBB8:
 591:Lib/ssc_app/src/el9800appl.c ****             }
 1629              		.loc 1 591 17 is_stmt 1 view .LVU647
 1630 021a 1E48     		ldr	r0, .L69+52
 1631 021c FFF7FEFF 		bl	GetMotorMsg
 1632              	.LVL105:
 1633              	.L56:
 583:Lib/ssc_app/src/el9800appl.c ****         {
 1634              		.loc 1 583 33 discriminator 2 view .LVU648
 583:Lib/ssc_app/src/el9800appl.c ****         {
 1635              		.loc 1 583 34 is_stmt 0 discriminator 2 view .LVU649
 1636 0220 0134     		adds	r4, r4, #1
 1637              	.LVL106:
 1638              	.L55:
 583:Lib/ssc_app/src/el9800appl.c ****         {
 1639              		.loc 1 583 25 is_stmt 1 discriminator 1 view .LVU650
 583:Lib/ssc_app/src/el9800appl.c ****         {
 1640              		.loc 1 583 9 is_stmt 0 discriminator 1 view .LVU651
 1641 0222 142C     		cmp	r4, #20
 1642 0224 12DC     		bgt	.L67
 585:Lib/ssc_app/src/el9800appl.c ****             {
 1643              		.loc 1 585 13 is_stmt 1 view .LVU652
 585:Lib/ssc_app/src/el9800appl.c ****             {
 1644              		.loc 1 585 25 is_stmt 0 view .LVU653
 1645 0226 1A4B     		ldr	r3, .L69+48
 1646 0228 1B5D     		ldrb	r3, [r3, r4]	@ zero_extendqisi2
 585:Lib/ssc_app/src/el9800appl.c ****             {
 1647              		.loc 1 585 16 view .LVU654
 1648 022a D22B     		cmp	r3, #210
 1649 022c F8D1     		bne	.L56
 585:Lib/ssc_app/src/el9800appl.c ****             {
 1650              		.loc 1 585 50 discriminator 1 view .LVU655
 1651 022e 631C     		adds	r3, r4, #1
 585:Lib/ssc_app/src/el9800appl.c ****             {
 1652              		.loc 1 585 48 discriminator 1 view .LVU656
 1653 0230 174A     		ldr	r2, .L69+48
 1654 0232 D35C     		ldrb	r3, [r2, r3]	@ zero_extendqisi2
 585:Lib/ssc_app/src/el9800appl.c ****             {
 1655              		.loc 1 585 37 discriminator 1 view .LVU657
 1656 0234 FE2B     		cmp	r3, #254
 1657 0236 F3D1     		bne	.L56
 1658              	.LBB6:
 587:Lib/ssc_app/src/el9800appl.c ****                 {
 1659              		.loc 1 587 26 view .LVU658
 1660 0238 0023     		movs	r3, #0
 1661              	.L57:
ARM GAS  /tmp/ccU7mrs4.s 			page 43


 1662              	.LVL107:
 587:Lib/ssc_app/src/el9800appl.c ****                 {
 1663              		.loc 1 587 33 is_stmt 1 discriminator 1 view .LVU659
 587:Lib/ssc_app/src/el9800appl.c ****                 {
 1664              		.loc 1 587 17 is_stmt 0 discriminator 1 view .LVU660
 1665 023a 142B     		cmp	r3, #20
 1666 023c EDDC     		bgt	.L68
 589:Lib/ssc_app/src/el9800appl.c ****                 }
 1667              		.loc 1 589 21 is_stmt 1 discriminator 3 view .LVU661
 589:Lib/ssc_app/src/el9800appl.c ****                 }
 1668              		.loc 1 589 50 is_stmt 0 discriminator 3 view .LVU662
 1669 023e E218     		adds	r2, r4, r3
 589:Lib/ssc_app/src/el9800appl.c ****                 }
 1670              		.loc 1 589 47 discriminator 3 view .LVU663
 1671 0240 1349     		ldr	r1, .L69+48
 1672 0242 895C     		ldrb	r1, [r1, r2]	@ zero_extendqisi2
 589:Lib/ssc_app/src/el9800appl.c ****                 }
 1673              		.loc 1 589 37 discriminator 3 view .LVU664
 1674 0244 134A     		ldr	r2, .L69+52
 1675 0246 D154     		strb	r1, [r2, r3]
 587:Lib/ssc_app/src/el9800appl.c ****                 {
 1676              		.loc 1 587 41 is_stmt 1 discriminator 3 view .LVU665
 587:Lib/ssc_app/src/el9800appl.c ****                 {
 1677              		.loc 1 587 42 is_stmt 0 discriminator 3 view .LVU666
 1678 0248 0133     		adds	r3, r3, #1
 1679              	.LVL108:
 587:Lib/ssc_app/src/el9800appl.c ****                 {
 1680              		.loc 1 587 42 discriminator 3 view .LVU667
 1681 024a F6E7     		b	.L57
 1682              	.LVL109:
 1683              	.L67:
 587:Lib/ssc_app/src/el9800appl.c ****                 {
 1684              		.loc 1 587 42 discriminator 3 view .LVU668
 1685              	.LBE6:
 1686              	.LBE8:
 594:Lib/ssc_app/src/el9800appl.c ****     }
 1687              		.loc 1 594 9 is_stmt 1 view .LVU669
 594:Lib/ssc_app/src/el9800appl.c ****     }
 1688              		.loc 1 594 19 is_stmt 0 view .LVU670
 1689 024c 0C4B     		ldr	r3, .L69+32
 1690 024e 0022     		movs	r2, #0
 1691 0250 1A70     		strb	r2, [r3]
 1692 0252 63E7     		b	.L53
 1693              	.LVL110:
 1694              	.L60:
 652:Lib/ssc_app/src/el9800appl.c **** }
 1695              		.loc 1 652 9 is_stmt 1 view .LVU671
 652:Lib/ssc_app/src/el9800appl.c **** }
 1696              		.loc 1 652 31 is_stmt 0 view .LVU672
 1697 0254 0B4B     		ldr	r3, .L69+36
 1698 0256 DA78     		ldrb	r2, [r3, #3]	@ zero_extendqisi2
 1699 0258 6FF38612 		bfc	r2, #6, #1
 1700 025c DA70     		strb	r2, [r3, #3]
 1701              		.loc 1 653 1 view .LVU673
 1702 025e B6E7     		b	.L44
 1703              	.L70:
 1704              		.align	2
ARM GAS  /tmp/ccU7mrs4.s 			page 44


 1705              	.L69:
 1706 0260 00000000 		.word	.LANCHOR0
 1707 0264 00040240 		.word	1073873920
 1708 0268 00000000 		.word	Can1_TxMessage
 1709 026c 00640040 		.word	1073767424
 1710 0270 00000000 		.word	Can2_TxMessage
 1711 0274 00680040 		.word	1073768448
 1712 0278 00000000 		.word	.LANCHOR3
 1713 027c 00000000 		.word	.LANCHOR5
 1714 0280 00000000 		.word	.LANCHOR6
 1715 0284 00000000 		.word	.LANCHOR4
 1716 0288 00000000 		.word	Can1_RxMessage
 1717 028c 00000000 		.word	Can2_RxMessage
 1718 0290 00000000 		.word	.LANCHOR7
 1719 0294 00000000 		.word	.LANCHOR8
 1720              		.cfi_endproc
 1721              	.LFE133:
 1723              		.section	.text.ReadObject0x1802,"ax",%progbits
 1724              		.align	1
 1725              		.global	ReadObject0x1802
 1726              		.syntax unified
 1727              		.thumb
 1728              		.thumb_func
 1730              	ReadObject0x1802:
 1731              	.LVL111:
 1732              	.LFB134:
 654:Lib/ssc_app/src/el9800appl.c **** 
 655:Lib/ssc_app/src/el9800appl.c **** /////////////////////////////////////////////////////////////////////////////////////////
 656:Lib/ssc_app/src/el9800appl.c **** /**
 657:Lib/ssc_app/src/el9800appl.c ****  \param     index               index of the requested object.
 658:Lib/ssc_app/src/el9800appl.c ****  \param     subindex            subindex of the requested object.
 659:Lib/ssc_app/src/el9800appl.c ****  \param     objSize             size of the requested object data, calculated with OBJ_GetObjectLen
 660:Lib/ssc_app/src/el9800appl.c ****  \param     pData               Pointer to the buffer where the data can be copied to
 661:Lib/ssc_app/src/el9800appl.c ****  \param     bCompleteAccess     Indicates if a complete read of all subindices of the
 662:Lib/ssc_app/src/el9800appl.c ****                                 object shall be done or not
 663:Lib/ssc_app/src/el9800appl.c **** 
 664:Lib/ssc_app/src/el9800appl.c ****  \return    ABORTIDX_XXX
 665:Lib/ssc_app/src/el9800appl.c **** 
 666:Lib/ssc_app/src/el9800appl.c ****  \brief     Handles SDO read requests to TxPDO Parameter
 667:Lib/ssc_app/src/el9800appl.c **** */
 668:Lib/ssc_app/src/el9800appl.c **** ///////////////////////////////////////////////////////////////////////////////////////
 669:Lib/ssc_app/src/el9800appl.c **** UINT8 ReadObject0x1802(UINT16 index, UINT8 subindex, UINT32 dataSize, UINT16 MBXMEM *pData, UINT8 b
 670:Lib/ssc_app/src/el9800appl.c **** {
 1733              		.loc 1 670 1 is_stmt 1 view -0
 1734              		.cfi_startproc
 1735              		@ args = 4, pretend = 0, frame = 0
 1736              		@ frame_needed = 0, uses_anonymous_args = 0
 1737              		.loc 1 670 1 is_stmt 0 view .LVU675
 1738 0000 10B5     		push	{r4, lr}
 1739              		.cfi_def_cfa_offset 8
 1740              		.cfi_offset 4, -8
 1741              		.cfi_offset 14, -4
 1742 0002 9DF80840 		ldrb	r4, [sp, #8]	@ zero_extendqisi2
 671:Lib/ssc_app/src/el9800appl.c **** 
 672:Lib/ssc_app/src/el9800appl.c ****     if (bCompleteAccess)
 1743              		.loc 1 672 5 is_stmt 1 view .LVU676
 1744              		.loc 1 672 8 is_stmt 0 view .LVU677
ARM GAS  /tmp/ccU7mrs4.s 			page 45


 1745 0006 34BB     		cbnz	r4, .L76
 673:Lib/ssc_app/src/el9800appl.c ****         return ABORTIDX_UNSUPPORTED_ACCESS;
 674:Lib/ssc_app/src/el9800appl.c **** 
 675:Lib/ssc_app/src/el9800appl.c ****     if (subindex == 0)
 1746              		.loc 1 675 5 is_stmt 1 view .LVU678
 1747              		.loc 1 675 8 is_stmt 0 view .LVU679
 1748 0008 21B9     		cbnz	r1, .L73
 676:Lib/ssc_app/src/el9800appl.c ****     {
 677:Lib/ssc_app/src/el9800appl.c ****         *pData = TxPDO1802Subindex0;
 1749              		.loc 1 677 9 is_stmt 1 view .LVU680
 1750              		.loc 1 677 16 is_stmt 0 view .LVU681
 1751 000a 154A     		ldr	r2, .L83
 1752              	.LVL112:
 1753              		.loc 1 677 16 view .LVU682
 1754 000c 1288     		ldrh	r2, [r2]
 1755 000e 1A80     		strh	r2, [r3]	@ movhi
 678:Lib/ssc_app/src/el9800appl.c ****     }
 679:Lib/ssc_app/src/el9800appl.c ****     else if (subindex == 6)
 680:Lib/ssc_app/src/el9800appl.c ****     {
 681:Lib/ssc_app/src/el9800appl.c ****         /*clear destination buffer (no excluded TxPDO set)*/
 682:Lib/ssc_app/src/el9800appl.c ****         if (dataSize > 0)
 683:Lib/ssc_app/src/el9800appl.c ****             MBXMEMSET(pData, 0x00, dataSize);
 684:Lib/ssc_app/src/el9800appl.c ****     }
 685:Lib/ssc_app/src/el9800appl.c ****     else if (subindex == 7)
 686:Lib/ssc_app/src/el9800appl.c ****     {
 687:Lib/ssc_app/src/el9800appl.c ****         /*min size is one Byte*/
 688:Lib/ssc_app/src/el9800appl.c ****         UINT8 *pu8Data = (UINT8 *)pData;
 689:Lib/ssc_app/src/el9800appl.c **** 
 690:Lib/ssc_app/src/el9800appl.c ****         // Reset Buffer
 691:Lib/ssc_app/src/el9800appl.c ****         *pu8Data = 0;
 692:Lib/ssc_app/src/el9800appl.c **** 
 693:Lib/ssc_app/src/el9800appl.c ****         *pu8Data = sAIInputs.bTxPDOState;
 694:Lib/ssc_app/src/el9800appl.c ****     }
 695:Lib/ssc_app/src/el9800appl.c ****     else if (subindex == 9)
 696:Lib/ssc_app/src/el9800appl.c ****     {
 697:Lib/ssc_app/src/el9800appl.c ****         /*min size is one Byte*/
 698:Lib/ssc_app/src/el9800appl.c ****         UINT8 *pu8Data = (UINT8 *)pData;
 699:Lib/ssc_app/src/el9800appl.c **** 
 700:Lib/ssc_app/src/el9800appl.c ****         // Reset Buffer
 701:Lib/ssc_app/src/el9800appl.c ****         *pu8Data = 0;
 702:Lib/ssc_app/src/el9800appl.c **** 
 703:Lib/ssc_app/src/el9800appl.c ****         *pu8Data = sAIInputs.bTxPDOToggle;
 704:Lib/ssc_app/src/el9800appl.c ****     }
 705:Lib/ssc_app/src/el9800appl.c ****     else
 706:Lib/ssc_app/src/el9800appl.c ****         return ABORTIDX_SUBINDEX_NOT_EXISTING;
 707:Lib/ssc_app/src/el9800appl.c **** 
 708:Lib/ssc_app/src/el9800appl.c ****     return 0;
 1756              		.loc 1 708 12 view .LVU683
 1757 0010 0846     		mov	r0, r1
 1758              	.LVL113:
 1759              	.L72:
 709:Lib/ssc_app/src/el9800appl.c **** }
 1760              		.loc 1 709 1 view .LVU684
 1761 0012 10BD     		pop	{r4, pc}
 1762              	.LVL114:
 1763              	.L73:
 679:Lib/ssc_app/src/el9800appl.c ****     {
ARM GAS  /tmp/ccU7mrs4.s 			page 46


 1764              		.loc 1 679 10 is_stmt 1 view .LVU685
 679:Lib/ssc_app/src/el9800appl.c ****     {
 1765              		.loc 1 679 13 is_stmt 0 view .LVU686
 1766 0014 0629     		cmp	r1, #6
 1767 0016 0CD0     		beq	.L80
 685:Lib/ssc_app/src/el9800appl.c ****     {
 1768              		.loc 1 685 10 is_stmt 1 view .LVU687
 685:Lib/ssc_app/src/el9800appl.c ****     {
 1769              		.loc 1 685 13 is_stmt 0 view .LVU688
 1770 0018 0729     		cmp	r1, #7
 1771 001a 13D0     		beq	.L81
 695:Lib/ssc_app/src/el9800appl.c ****     {
 1772              		.loc 1 695 10 is_stmt 1 view .LVU689
 695:Lib/ssc_app/src/el9800appl.c ****     {
 1773              		.loc 1 695 13 is_stmt 0 view .LVU690
 1774 001c 0929     		cmp	r1, #9
 1775 001e 1CD1     		bne	.L78
 1776              	.LBB9:
 698:Lib/ssc_app/src/el9800appl.c **** 
 1777              		.loc 1 698 9 is_stmt 1 view .LVU691
 1778              	.LVL115:
 701:Lib/ssc_app/src/el9800appl.c **** 
 1779              		.loc 1 701 9 view .LVU692
 701:Lib/ssc_app/src/el9800appl.c **** 
 1780              		.loc 1 701 18 is_stmt 0 view .LVU693
 1781 0020 0022     		movs	r2, #0
 1782              	.LVL116:
 701:Lib/ssc_app/src/el9800appl.c **** 
 1783              		.loc 1 701 18 view .LVU694
 1784 0022 1A70     		strb	r2, [r3]
 703:Lib/ssc_app/src/el9800appl.c ****     }
 1785              		.loc 1 703 9 is_stmt 1 view .LVU695
 703:Lib/ssc_app/src/el9800appl.c ****     }
 1786              		.loc 1 703 29 is_stmt 0 view .LVU696
 1787 0024 0F4A     		ldr	r2, .L83+4
 1788 0026 D278     		ldrb	r2, [r2, #3]	@ zero_extendqisi2
 1789 0028 C2F3C012 		ubfx	r2, r2, #7, #1
 703:Lib/ssc_app/src/el9800appl.c ****     }
 1790              		.loc 1 703 18 view .LVU697
 1791 002c 1A70     		strb	r2, [r3]
 1792              	.LBE9:
 708:Lib/ssc_app/src/el9800appl.c **** }
 1793              		.loc 1 708 12 view .LVU698
 1794 002e 2046     		mov	r0, r4
 1795              	.LVL117:
 708:Lib/ssc_app/src/el9800appl.c **** }
 1796              		.loc 1 708 12 view .LVU699
 1797 0030 EFE7     		b	.L72
 1798              	.LVL118:
 1799              	.L80:
 682:Lib/ssc_app/src/el9800appl.c ****             MBXMEMSET(pData, 0x00, dataSize);
 1800              		.loc 1 682 9 is_stmt 1 view .LVU700
 682:Lib/ssc_app/src/el9800appl.c ****             MBXMEMSET(pData, 0x00, dataSize);
 1801              		.loc 1 682 12 is_stmt 0 view .LVU701
 1802 0032 0AB9     		cbnz	r2, .L82
 708:Lib/ssc_app/src/el9800appl.c **** }
 1803              		.loc 1 708 12 view .LVU702
ARM GAS  /tmp/ccU7mrs4.s 			page 47


 1804 0034 2046     		mov	r0, r4
 1805              	.LVL119:
 708:Lib/ssc_app/src/el9800appl.c **** }
 1806              		.loc 1 708 12 view .LVU703
 1807 0036 ECE7     		b	.L72
 1808              	.LVL120:
 1809              	.L82:
 683:Lib/ssc_app/src/el9800appl.c ****     }
 1810              		.loc 1 683 13 is_stmt 1 view .LVU704
 1811 0038 0021     		movs	r1, #0
 1812              	.LVL121:
 683:Lib/ssc_app/src/el9800appl.c ****     }
 1813              		.loc 1 683 13 is_stmt 0 view .LVU705
 1814 003a 1846     		mov	r0, r3
 1815              	.LVL122:
 683:Lib/ssc_app/src/el9800appl.c ****     }
 1816              		.loc 1 683 13 view .LVU706
 1817 003c FFF7FEFF 		bl	memset
 1818              	.LVL123:
 708:Lib/ssc_app/src/el9800appl.c **** }
 1819              		.loc 1 708 12 view .LVU707
 1820 0040 2046     		mov	r0, r4
 1821 0042 E6E7     		b	.L72
 1822              	.LVL124:
 1823              	.L81:
 1824              	.LBB10:
 688:Lib/ssc_app/src/el9800appl.c **** 
 1825              		.loc 1 688 9 is_stmt 1 view .LVU708
 691:Lib/ssc_app/src/el9800appl.c **** 
 1826              		.loc 1 691 9 view .LVU709
 691:Lib/ssc_app/src/el9800appl.c **** 
 1827              		.loc 1 691 18 is_stmt 0 view .LVU710
 1828 0044 0022     		movs	r2, #0
 1829              	.LVL125:
 691:Lib/ssc_app/src/el9800appl.c **** 
 1830              		.loc 1 691 18 view .LVU711
 1831 0046 1A70     		strb	r2, [r3]
 693:Lib/ssc_app/src/el9800appl.c ****     }
 1832              		.loc 1 693 9 is_stmt 1 view .LVU712
 693:Lib/ssc_app/src/el9800appl.c ****     }
 1833              		.loc 1 693 29 is_stmt 0 view .LVU713
 1834 0048 064A     		ldr	r2, .L83+4
 1835 004a D278     		ldrb	r2, [r2, #3]	@ zero_extendqisi2
 1836 004c C2F38012 		ubfx	r2, r2, #6, #1
 693:Lib/ssc_app/src/el9800appl.c ****     }
 1837              		.loc 1 693 18 view .LVU714
 1838 0050 1A70     		strb	r2, [r3]
 1839              	.LBE10:
 708:Lib/ssc_app/src/el9800appl.c **** }
 1840              		.loc 1 708 12 view .LVU715
 1841 0052 2046     		mov	r0, r4
 1842              	.LVL126:
 708:Lib/ssc_app/src/el9800appl.c **** }
 1843              		.loc 1 708 12 view .LVU716
 1844 0054 DDE7     		b	.L72
 1845              	.LVL127:
 1846              	.L76:
ARM GAS  /tmp/ccU7mrs4.s 			page 48


 673:Lib/ssc_app/src/el9800appl.c **** 
 1847              		.loc 1 673 16 view .LVU717
 1848 0056 0520     		movs	r0, #5
 1849              	.LVL128:
 673:Lib/ssc_app/src/el9800appl.c **** 
 1850              		.loc 1 673 16 view .LVU718
 1851 0058 DBE7     		b	.L72
 1852              	.LVL129:
 1853              	.L78:
 706:Lib/ssc_app/src/el9800appl.c **** 
 1854              		.loc 1 706 16 view .LVU719
 1855 005a 1120     		movs	r0, #17
 1856              	.LVL130:
 706:Lib/ssc_app/src/el9800appl.c **** 
 1857              		.loc 1 706 16 view .LVU720
 1858 005c D9E7     		b	.L72
 1859              	.L84:
 1860 005e 00BF     		.align	2
 1861              	.L83:
 1862 0060 00000000 		.word	.LANCHOR9
 1863 0064 00000000 		.word	.LANCHOR4
 1864              		.cfi_endproc
 1865              	.LFE134:
 1867              		.section	.text.main,"ax",%progbits
 1868              		.align	1
 1869              		.global	main
 1870              		.syntax unified
 1871              		.thumb
 1872              		.thumb_func
 1874              	main:
 1875              	.LFB135:
 710:Lib/ssc_app/src/el9800appl.c **** 
 711:Lib/ssc_app/src/el9800appl.c **** #if EXPLICIT_DEVICE_ID
 712:Lib/ssc_app/src/el9800appl.c **** /////////////////////////////////////////////////////////////////////////////////////////
 713:Lib/ssc_app/src/el9800appl.c **** /**
 714:Lib/ssc_app/src/el9800appl.c ****  \return    The Explicit Device ID of the EtherCAT slave
 715:Lib/ssc_app/src/el9800appl.c **** 
 716:Lib/ssc_app/src/el9800appl.c ****  \brief     Calculate the Explicit Device ID
 717:Lib/ssc_app/src/el9800appl.c **** */
 718:Lib/ssc_app/src/el9800appl.c **** ///////////////////////////////////////////////////////////////////////////////////////
 719:Lib/ssc_app/src/el9800appl.c **** UINT16 APPL_GetDeviceID()
 720:Lib/ssc_app/src/el9800appl.c **** {
 721:Lib/ssc_app/src/el9800appl.c ****     UINT16 Value = (UINT16)(SWITCH_8 << 7) | (SWITCH_7 << 6) | (SWITCH_6 << 5) | (SWITCH_5 << 4) | 
 722:Lib/ssc_app/src/el9800appl.c ****     return Value;
 723:Lib/ssc_app/src/el9800appl.c **** }
 724:Lib/ssc_app/src/el9800appl.c **** #endif
 725:Lib/ssc_app/src/el9800appl.c **** 
 726:Lib/ssc_app/src/el9800appl.c **** #if USE_DEFAULT_MAIN
 727:Lib/ssc_app/src/el9800appl.c **** /////////////////////////////////////////////////////////////////////////////////////////
 728:Lib/ssc_app/src/el9800appl.c **** /**
 729:Lib/ssc_app/src/el9800appl.c **** 
 730:Lib/ssc_app/src/el9800appl.c ****  \brief    This is the main function
 731:Lib/ssc_app/src/el9800appl.c **** 
 732:Lib/ssc_app/src/el9800appl.c **** */
 733:Lib/ssc_app/src/el9800appl.c **** ///////////////////////////////////////////////////////////////////////////////////////
 734:Lib/ssc_app/src/el9800appl.c **** uint32_t times = 0x1000000;
 735:Lib/ssc_app/src/el9800appl.c **** #if _STM32_IO8
ARM GAS  /tmp/ccU7mrs4.s 			page 49


 736:Lib/ssc_app/src/el9800appl.c **** int main(void)
 737:Lib/ssc_app/src/el9800appl.c **** #else
 738:Lib/ssc_app/src/el9800appl.c **** void main(void)
 739:Lib/ssc_app/src/el9800appl.c **** #endif
 740:Lib/ssc_app/src/el9800appl.c **** {
 1876              		.loc 1 740 1 is_stmt 1 view -0
 1877              		.cfi_startproc
 1878              		@ args = 0, pretend = 0, frame = 0
 1879              		@ frame_needed = 0, uses_anonymous_args = 0
 1880 0000 08B5     		push	{r3, lr}
 1881              		.cfi_def_cfa_offset 8
 1882              		.cfi_offset 3, -8
 1883              		.cfi_offset 14, -4
 741:Lib/ssc_app/src/el9800appl.c ****     /* initialize the Hardware and the EtherCAT Slave Controller */
 742:Lib/ssc_app/src/el9800appl.c ****     HW_Init();
 1884              		.loc 1 742 5 view .LVU722
 1885 0002 FFF7FEFF 		bl	HW_Init
 1886              	.LVL131:
 743:Lib/ssc_app/src/el9800appl.c **** 
 744:Lib/ssc_app/src/el9800appl.c ****     MainInit();
 1887              		.loc 1 744 5 view .LVU723
 1888 0006 FFF7FEFF 		bl	MainInit
 1889              	.LVL132:
 745:Lib/ssc_app/src/el9800appl.c **** 
 746:Lib/ssc_app/src/el9800appl.c ****     bRunApplication = TRUE;
 1890              		.loc 1 746 5 view .LVU724
 1891              		.loc 1 746 21 is_stmt 0 view .LVU725
 1892 000a 064B     		ldr	r3, .L88
 1893 000c 0122     		movs	r2, #1
 1894 000e 1A70     		strb	r2, [r3]
 1895              	.L86:
 747:Lib/ssc_app/src/el9800appl.c ****     do
 1896              		.loc 1 747 5 is_stmt 1 discriminator 1 view .LVU726
 748:Lib/ssc_app/src/el9800appl.c ****     {
 749:Lib/ssc_app/src/el9800appl.c ****         MainLoop();
 1897              		.loc 1 749 9 discriminator 1 view .LVU727
 1898 0010 FFF7FEFF 		bl	MainLoop
 1899              	.LVL133:
 750:Lib/ssc_app/src/el9800appl.c **** 
 751:Lib/ssc_app/src/el9800appl.c ****     } while (bRunApplication == TRUE);
 1900              		.loc 1 751 13 discriminator 1 view .LVU728
 1901              		.loc 1 751 30 is_stmt 0 discriminator 1 view .LVU729
 1902 0014 034B     		ldr	r3, .L88
 1903 0016 1B78     		ldrb	r3, [r3]	@ zero_extendqisi2
 1904              		.loc 1 751 5 discriminator 1 view .LVU730
 1905 0018 012B     		cmp	r3, #1
 1906 001a F9D0     		beq	.L86
 752:Lib/ssc_app/src/el9800appl.c **** 
 753:Lib/ssc_app/src/el9800appl.c ****     HW_Release();
 1907              		.loc 1 753 5 is_stmt 1 view .LVU731
 1908 001c FFF7FEFF 		bl	HW_Release
 1909              	.LVL134:
 754:Lib/ssc_app/src/el9800appl.c **** #if _STM32_IO8
 755:Lib/ssc_app/src/el9800appl.c ****     return 0;
 1910              		.loc 1 755 5 view .LVU732
 756:Lib/ssc_app/src/el9800appl.c **** #endif
 757:Lib/ssc_app/src/el9800appl.c **** }
ARM GAS  /tmp/ccU7mrs4.s 			page 50


 1911              		.loc 1 757 1 is_stmt 0 view .LVU733
 1912 0020 0020     		movs	r0, #0
 1913 0022 08BD     		pop	{r3, pc}
 1914              	.L89:
 1915              		.align	2
 1916              	.L88:
 1917 0024 00000000 		.word	bRunApplication
 1918              		.cfi_endproc
 1919              	.LFE135:
 1921              		.global	times
 1922              		.global	txbety
 1923              		.global	rxbety
 1924              		.global	spi2_msg
 1925              		.global	call_flag
 1926              		.global	spi2_flag
 1927              		.global	motormsg_get
 1928              		.global	motormsg
 1929              		.global	sModulelist
 1930              		.global	sModulardeviceprofile
 1931              		.global	sAISettings
 1932              		.global	sDOOutputs
 1933              		.global	sAIInputs
 1934              		.global	sDIInputs
 1935              		.global	sTxPDOassign
 1936              		.global	sRxPDOassign
 1937              		.global	sAITxPDOMap
 1938              		.global	sDITxPDOMap
 1939              		.global	TxPDO1802Subindex0
 1940              		.global	sDORxPDOMap
 1941              		.section	.bss.call_flag,"aw",%nobits
 1942              		.set	.LANCHOR6,. + 0
 1945              	call_flag:
 1946 0000 00       		.space	1
 1947              		.section	.bss.motormsg,"aw",%nobits
 1948              		.align	2
 1949              		.set	.LANCHOR7,. + 0
 1952              	motormsg:
 1953 0000 00000000 		.space	40
 1953      00000000 
 1953      00000000 
 1953      00000000 
 1953      00000000 
 1954              		.section	.bss.motormsg_get,"aw",%nobits
 1955              		.align	2
 1956              		.set	.LANCHOR8,. + 0
 1959              	motormsg_get:
 1960 0000 00000000 		.space	21
 1960      00000000 
 1960      00000000 
 1960      00000000 
 1960      00000000 
 1961              		.section	.bss.rxbety,"aw",%nobits
 1964              	rxbety:
 1965 0000 00       		.space	1
 1966              		.section	.bss.spi2_flag,"aw",%nobits
 1967              		.set	.LANCHOR5,. + 0
 1970              	spi2_flag:
ARM GAS  /tmp/ccU7mrs4.s 			page 51


 1971 0000 00       		.space	1
 1972              		.section	.bss.spi2_msg,"aw",%nobits
 1975              	spi2_msg:
 1976 0000 00       		.space	1
 1977              		.section	.data.TxPDO1802Subindex0,"aw"
 1978              		.align	1
 1979              		.set	.LANCHOR9,. + 0
 1982              	TxPDO1802Subindex0:
 1983 0000 0900     		.short	9
 1984              		.section	.data.sAIInputs,"aw"
 1985              		.align	2
 1986              		.set	.LANCHOR4,. + 0
 1989              	sAIInputs:
 1990 0000 3400     		.short	52
 1991 0002 00       		.byte	0
 1992 0003 00       		.byte	0
 1993 0004 FF7F     		.short	32767
 1994 0006 0000     		.short	0
 1995 0008 00       		.byte	0
 1996 0009 00       		.byte	0
 1997 000a 00       		.byte	0
 1998 000b 00       		.byte	0
 1999 000c 00       		.byte	0
 2000 000d 00       		.byte	0
 2001 000e 00       		.byte	0
 2002 000f 00       		.byte	0
 2003 0010 00       		.byte	0
 2004 0011 00       		.byte	0
 2005 0012 00       		.byte	0
 2006 0013 00       		.byte	0
 2007 0014 0000     		.short	0
 2008 0016 00       		.byte	0
 2009 0017 00       		.byte	0
 2010 0018 00       		.byte	0
 2011 0019 00       		.byte	0
 2012 001a 00       		.byte	0
 2013 001b 00       		.byte	0
 2014 001c 00       		.byte	0
 2015 001d 00       		.byte	0
 2016 001e 00       		.byte	0
 2017 001f 00       		.byte	0
 2018 0020 00       		.byte	0
 2019 0021 00       		.byte	0
 2020 0022 00       		.byte	0
 2021 0023 00       		.byte	0
 2022 0024 0000     		.short	0
 2023 0026 0000     		.short	0
 2024 0028 00000000 		.word	0
 2025 002c 00000000 		.word	0
 2026 0030 00000000 		.word	0
 2027 0034 00000000 		.word	0
 2028 0038 0000     		.short	0
 2029 003a 0000     		.space	2
 2030              		.section	.data.sAISettings,"aw"
 2031              		.align	2
 2034              	sAISettings:
 2035 0000 1400     		.short	20
ARM GAS  /tmp/ccU7mrs4.s 			page 52


 2036 0002 00       		.byte	0
 2037 0003 00       		.byte	0
 2038 0004 0000     		.short	0
 2039 0006 0000     		.space	2
 2040 0008 00000000 		.word	0
 2041 000c 0000     		.short	0
 2042 000e 0000     		.short	0
 2043              		.section	.data.sAITxPDOMap,"aw"
 2044              		.align	2
 2047              	sAITxPDOMap:
 2048 0000 2B00     		.short	43
 2049 0002 0000     		.space	2
 2050 0004 01012060 		.word	1612710145
 2051 0008 01022060 		.word	1612710401
 2052 000c 02032060 		.word	1612710658
 2053 0010 02052060 		.word	1612711170
 2054 0014 08000000 		.word	8
 2055 0018 01070218 		.word	402786049
 2056 001c 01090218 		.word	402786561
 2057 0020 10112060 		.word	1612714256
 2058 0024 10122060 		.word	1612714512
 2059 0028 08132060 		.word	1612714760
 2060 002c 08142060 		.word	1612715016
 2061 0030 08152060 		.word	1612715272
 2062 0034 08162060 		.word	1612715528
 2063 0038 08172060 		.word	1612715784
 2064 003c 08182060 		.word	1612716040
 2065 0040 08192060 		.word	1612716296
 2066 0044 08202060 		.word	1612718088
 2067 0048 08212060 		.word	1612718344
 2068 004c 08222060 		.word	1612718600
 2069 0050 08232060 		.word	1612718856
 2070 0054 08242060 		.word	1612719112
 2071 0058 10252060 		.word	1612719376
 2072 005c 08262060 		.word	1612719624
 2073 0060 08272060 		.word	1612719880
 2074 0064 08282060 		.word	1612720136
 2075 0068 08292060 		.word	1612720392
 2076 006c 08302060 		.word	1612722184
 2077 0070 08312060 		.word	1612722440
 2078 0074 08322060 		.word	1612722696
 2079 0078 08332060 		.word	1612722952
 2080 007c 08342060 		.word	1612723208
 2081 0080 08352060 		.word	1612723464
 2082 0084 08362060 		.word	1612723720
 2083 0088 08372060 		.word	1612723976
 2084 008c 08382060 		.word	1612724232
 2085 0090 08392060 		.word	1612724488
 2086 0094 10402060 		.word	1612726288
 2087 0098 10412060 		.word	1612726544
 2088 009c 20422060 		.word	1612726816
 2089 00a0 20432060 		.word	1612727072
 2090 00a4 20442060 		.word	1612727328
 2091 00a8 20452060 		.word	1612727584
 2092 00ac 10462060 		.word	1612727824
 2093              		.section	.data.sDIInputs,"aw"
 2094              		.align	2
ARM GAS  /tmp/ccU7mrs4.s 			page 53


 2095              		.set	.LANCHOR3,. + 0
 2098              	sDIInputs:
 2099 0000 0800     		.short	8
 2100 0002 00       		.byte	0
 2101 0003 00       		.byte	0
 2102              		.section	.data.sDITxPDOMap,"aw"
 2103              		.align	2
 2106              	sDITxPDOMap:
 2107 0000 0900     		.short	9
 2108 0002 0000     		.space	2
 2109 0004 01010060 		.word	1610612993
 2110 0008 01020060 		.word	1610613249
 2111 000c 01030060 		.word	1610613505
 2112 0010 01040060 		.word	1610613761
 2113 0014 01050060 		.word	1610614017
 2114 0018 01060060 		.word	1610614273
 2115 001c 01070060 		.word	1610614529
 2116 0020 01080060 		.word	1610614785
 2117 0024 08000000 		.word	8
 2118              		.section	.data.sDOOutputs,"aw"
 2119              		.align	2
 2120              		.set	.LANCHOR0,. + 0
 2123              	sDOOutputs:
 2124 0000 2F00     		.short	47
 2125 0002 00       		.byte	0
 2126 0003 00       		.space	1
 2127 0004 0000     		.short	0
 2128 0006 00       		.byte	0
 2129 0007 00       		.byte	0
 2130 0008 00       		.byte	0
 2131 0009 00       		.byte	0
 2132 000a 00       		.byte	0
 2133 000b 00       		.byte	0
 2134 000c 00       		.byte	0
 2135 000d 00       		.byte	0
 2136 000e 00       		.byte	0
 2137 000f 00       		.byte	0
 2138 0010 00       		.byte	0
 2139 0011 00       		.byte	0
 2140 0012 0000     		.short	0
 2141 0014 00       		.byte	0
 2142 0015 00       		.byte	0
 2143 0016 00       		.byte	0
 2144 0017 00       		.byte	0
 2145 0018 00       		.byte	0
 2146 0019 00       		.byte	0
 2147 001a 00       		.byte	0
 2148 001b 00       		.byte	0
 2149 001c 00       		.byte	0
 2150 001d 00       		.byte	0
 2151 001e 00       		.byte	0
 2152 001f 00       		.byte	0
 2153 0020 00       		.byte	0
 2154 0021 00       		.space	1
 2155 0022 0000     		.short	0
 2156 0024 00000000 		.word	0
 2157 0028 00000000 		.word	0
ARM GAS  /tmp/ccU7mrs4.s 			page 54


 2158 002c 00000000 		.word	0
 2159 0030 00000000 		.word	0
 2160 0034 00000000 		.word	0
 2161 0038 0000     		.short	0
 2162 003a 0000     		.space	2
 2163 003c 00000000 		.word	0
 2164 0040 00000000 		.word	0
 2165 0044 00000000 		.word	0
 2166 0048 00000000 		.word	0
 2167 004c 00000000 		.word	0
 2168              		.section	.data.sDORxPDOMap,"aw"
 2169              		.align	2
 2172              	sDORxPDOMap:
 2173 0000 2F00     		.short	47
 2174 0002 0000     		.space	2
 2175 0004 01011070 		.word	1880097025
 2176 0008 01021070 		.word	1880097281
 2177 000c 01031070 		.word	1880097537
 2178 0010 01041070 		.word	1880097793
 2179 0014 01051070 		.word	1880098049
 2180 0018 01061070 		.word	1880098305
 2181 001c 01071070 		.word	1880098561
 2182 0020 01081070 		.word	1880098817
 2183 0024 10091070 		.word	1880099088
 2184 0028 08101070 		.word	1880100872
 2185 002c 08111070 		.word	1880101128
 2186 0030 08121070 		.word	1880101384
 2187 0034 08131070 		.word	1880101640
 2188 0038 08141070 		.word	1880101896
 2189 003c 08151070 		.word	1880102152
 2190 0040 08161070 		.word	1880102408
 2191 0044 08171070 		.word	1880102664
 2192 0048 08181070 		.word	1880102920
 2193 004c 08191070 		.word	1880103176
 2194 0050 08201070 		.word	1880104968
 2195 0054 08211070 		.word	1880105224
 2196 0058 10221070 		.word	1880105488
 2197 005c 08231070 		.word	1880105736
 2198 0060 08241070 		.word	1880105992
 2199 0064 08251070 		.word	1880106248
 2200 0068 08261070 		.word	1880106504
 2201 006c 08271070 		.word	1880106760
 2202 0070 08281070 		.word	1880107016
 2203 0074 08291070 		.word	1880107272
 2204 0078 08301070 		.word	1880109064
 2205 007c 08311070 		.word	1880109320
 2206 0080 08321070 		.word	1880109576
 2207 0084 08331070 		.word	1880109832
 2208 0088 08341070 		.word	1880110088
 2209 008c 08341070 		.word	1880110088
 2210 0090 10351070 		.word	1880110352
 2211 0094 20361070 		.word	1880110624
 2212 0098 20371070 		.word	1880110880
 2213 009c 20381070 		.word	1880111136
 2214 00a0 20391070 		.word	1880111392
 2215 00a4 20401070 		.word	1880113184
 2216 00a8 10411070 		.word	1880113424
ARM GAS  /tmp/ccU7mrs4.s 			page 55


 2217 00ac 20421070 		.word	1880113696
 2218 00b0 20431070 		.word	1880113952
 2219 00b4 20441070 		.word	1880114208
 2220 00b8 20451070 		.word	1880114464
 2221 00bc 20461070 		.word	1880114720
 2222              		.section	.data.sModulardeviceprofile,"aw"
 2223              		.align	2
 2226              	sModulardeviceprofile:
 2227 0000 0200     		.short	2
 2228 0002 1000     		.short	16
 2229 0004 0300     		.short	3
 2230              		.section	.data.sModulelist,"aw"
 2231              		.align	2
 2234              	sModulelist:
 2235 0000 0300     		.short	3
 2236 0002 0000     		.space	2
 2237 0004 64000000 		.word	100
 2238 0008 C8000000 		.word	200
 2239 000c 2C010000 		.word	300
 2240              		.section	.data.sRxPDOassign,"aw"
 2241              		.align	2
 2242              		.set	.LANCHOR1,. + 0
 2245              	sRxPDOassign:
 2246 0000 0100     		.short	1
 2247 0002 0116     		.short	5633
 2248              		.section	.data.sTxPDOassign,"aw"
 2249              		.align	2
 2250              		.set	.LANCHOR2,. + 0
 2253              	sTxPDOassign:
 2254 0000 0200     		.short	2
 2255 0002 001A     		.short	6656
 2256 0004 021A     		.short	6658
 2257              		.section	.data.times,"aw"
 2258              		.align	2
 2261              	times:
 2262 0000 00000001 		.word	16777216
 2263              		.section	.data.txbety,"aw"
 2266              	txbety:
 2267 0000 D2       		.byte	-46
 2268              		.text
 2269              	.Letext0:
 2270              		.file 2 "/usr/share/gcc-arm-none-eabi-10.3-2021.10/arm-none-eabi/include/machine/_default_types.h"
 2271              		.file 3 "/usr/share/gcc-arm-none-eabi-10.3-2021.10/arm-none-eabi/include/sys/_stdint.h"
 2272              		.file 4 "Drivers/CMSIS/Device/ST/STM32F4xx/Include/stm32f4xx.h"
 2273              		.file 5 "Drivers/STM32F4xx_StdPeriph_Driver/inc/stm32f4xx_can.h"
 2274              		.file 6 "Lib/ssc/include/sdoserv.h"
 2275              		.file 7 "Lib/ssc/include/objdef.h"
 2276              		.file 8 "Lib/ssc_app/include/el9800appl.h"
 2277              		.file 9 "Lib/ssc_app/include/ecatappl.h"
 2278              		.file 10 "Lib/ssc/include/el9800hw.h"
 2279              		.file 11 "Lib/ssc/include/applInterface.h"
 2280              		.file 12 "Lib/application/include/spi2_bus.h"
 2281              		.file 13 "Drivers/STM32F4xx_StdPeriph_Driver/inc/stm32f4xx_gpio.h"
 2282              		.file 14 "<built-in>"
ARM GAS  /tmp/ccU7mrs4.s 			page 56

