ARM GAS  /tmp/ccsx0es7.s 			page 1


   1              		.cpu cortex-m4
   2              		.arch armv7e-m
   3              		.fpu fpv4-sp-d16
   4              		.eabi_attribute 27, 1
   5              		.eabi_attribute 28, 1
   6              		.eabi_attribute 20, 1
   7              		.eabi_attribute 21, 1
   8              		.eabi_attribute 23, 3
   9              		.eabi_attribute 24, 1
  10              		.eabi_attribute 25, 1
  11              		.eabi_attribute 26, 1
  12              		.eabi_attribute 30, 1
  13              		.eabi_attribute 34, 1
  14              		.eabi_attribute 18, 4
  15              		.file	"spi2_bus.c"
  16              		.text
  17              	.Ltext0:
  18              		.cfi_sections	.debug_frame
  19              		.section	.text.GetMotorMsg,"ax",%progbits
  20              		.align	1
  21              		.global	GetMotorMsg
  22              		.syntax unified
  23              		.thumb
  24              		.thumb_func
  26              	GetMotorMsg:
  27              	.LVL0:
  28              	.LFB0:
  29              		.file 1 "Lib/application/src/spi2_bus.c"
   1:Lib/application/src/spi2_bus.c **** #include "spi2_bus.h"
   2:Lib/application/src/spi2_bus.c **** 
   3:Lib/application/src/spi2_bus.c **** A1PackageSpiTx motor_tx[4][3];
   4:Lib/application/src/spi2_bus.c **** A1PackageSpiRx motor_rx[4][3];
   5:Lib/application/src/spi2_bus.c **** 
   6:Lib/application/src/spi2_bus.c **** A1msgTxTransform tx_transform;
   7:Lib/application/src/spi2_bus.c **** A1msgRxTransform rx_transform;
   8:Lib/application/src/spi2_bus.c **** 
   9:Lib/application/src/spi2_bus.c **** void GetMotorMsg(uint8_t *input)
  10:Lib/application/src/spi2_bus.c **** {
  30              		.loc 1 10 1 view -0
  31              		.cfi_startproc
  32              		@ args = 0, pretend = 0, frame = 0
  33              		@ frame_needed = 0, uses_anonymous_args = 0
  34              		.loc 1 10 1 is_stmt 0 view .LVU1
  35 0000 70B5     		push	{r4, r5, r6, lr}
  36              		.cfi_def_cfa_offset 16
  37              		.cfi_offset 4, -16
  38              		.cfi_offset 5, -12
  39              		.cfi_offset 6, -8
  40              		.cfi_offset 14, -4
  41 0002 0446     		mov	r4, r0
  11:Lib/application/src/spi2_bus.c ****     memcpy(&rx_transform.u8[0],input,21);
  42              		.loc 1 11 5 is_stmt 1 view .LVU2
  43 0004 DFF854C0 		ldr	ip, .L3+4
  44 0008 E646     		mov	lr, ip
  45 000a 0068     		ldr	r0, [r0]	@ unaligned
  46              	.LVL1:
  47              		.loc 1 11 5 is_stmt 0 view .LVU3
ARM GAS  /tmp/ccsx0es7.s 			page 2


  48 000c 6168     		ldr	r1, [r4, #4]	@ unaligned
  49 000e A268     		ldr	r2, [r4, #8]	@ unaligned
  50 0010 E368     		ldr	r3, [r4, #12]	@ unaligned
  51 0012 AEE80F00 		stmia	lr!, {r0, r1, r2, r3}
  52 0016 2069     		ldr	r0, [r4, #16]	@ unaligned
  53 0018 CEF80000 		str	r0, [lr]
  54 001c 237D     		ldrb	r3, [r4, #20]	@ zero_extendqisi2
  55 001e 8EF80430 		strb	r3, [lr, #4]
  12:Lib/application/src/spi2_bus.c ****     memcpy(&motor_rx[rx_transform.a1msg.leg_id][rx_transform.a1msg.motor_id],&rx_transform.a1msg.st
  56              		.loc 1 12 5 is_stmt 1 view .LVU4
  57              		.loc 1 12 40 is_stmt 0 view .LVU5
  58 0022 9CF80230 		ldrb	r3, [ip, #2]	@ zero_extendqisi2
  59              		.loc 1 12 67 view .LVU6
  60 0026 9CF80340 		ldrb	r4, [ip, #3]	@ zero_extendqisi2
  61              	.LVL2:
  62              		.loc 1 12 12 view .LVU7
  63 002a 0B4E     		ldr	r6, .L3
  64 002c 04EB4404 		add	r4, r4, r4, lsl #1
  65 0030 C4EBC404 		rsb	r4, r4, r4, lsl #3
  66 0034 C3EB8313 		rsb	r3, r3, r3, lsl #6
  67 0038 1C44     		add	r4, r4, r3
  68 003a 3519     		adds	r5, r6, r4
  69              		.loc 1 12 5 view .LVU8
  70 003c BCE80F00 		ldmia	ip!, {r0, r1, r2, r3}
  71 0040 3051     		str	r0, [r6, r4]	@ unaligned
  72 0042 6960     		str	r1, [r5, #4]	@ unaligned
  73 0044 AA60     		str	r2, [r5, #8]	@ unaligned
  74 0046 EB60     		str	r3, [r5, #12]	@ unaligned
  75 0048 DEF80000 		ldr	r0, [lr]
  76 004c 2861     		str	r0, [r5, #16]	@ unaligned
  77 004e 9EF80430 		ldrb	r3, [lr, #4]	@ zero_extendqisi2
  78 0052 2B75     		strb	r3, [r5, #20]
  13:Lib/application/src/spi2_bus.c **** }
  79              		.loc 1 13 1 view .LVU9
  80 0054 70BD     		pop	{r4, r5, r6, pc}
  81              	.L4:
  82 0056 00BF     		.align	2
  83              	.L3:
  84 0058 00000000 		.word	.LANCHOR1
  85 005c 00000000 		.word	.LANCHOR0
  86              		.cfi_endproc
  87              	.LFE0:
  89              		.section	.text.PreparMotorMsg,"ax",%progbits
  90              		.align	1
  91              		.global	PreparMotorMsg
  92              		.syntax unified
  93              		.thumb
  94              		.thumb_func
  96              	PreparMotorMsg:
  97              	.LVL3:
  98              	.LFB1:
  14:Lib/application/src/spi2_bus.c **** 
  15:Lib/application/src/spi2_bus.c **** void PreparMotorMsg(uint8_t *motormsg_set,uint8_t *motormsg_tx)
  16:Lib/application/src/spi2_bus.c **** {
  99              		.loc 1 16 1 is_stmt 1 view -0
 100              		.cfi_startproc
 101              		@ args = 0, pretend = 0, frame = 0
ARM GAS  /tmp/ccsx0es7.s 			page 3


 102              		@ frame_needed = 0, uses_anonymous_args = 0
 103              		@ link register save eliminated.
  17:Lib/application/src/spi2_bus.c ****     for (int i = 0; i < 20; i++)
 104              		.loc 1 17 5 view .LVU11
 105              	.LBB2:
 106              		.loc 1 17 10 view .LVU12
 107              		.loc 1 17 14 is_stmt 0 view .LVU13
 108 0000 0023     		movs	r3, #0
 109              		.loc 1 17 5 view .LVU14
 110 0002 05E0     		b	.L6
 111              	.LVL4:
 112              	.L7:
  18:Lib/application/src/spi2_bus.c ****     {
  19:Lib/application/src/spi2_bus.c ****         *(motormsg_tx + i) = *(motormsg_set + i + 1);
 113              		.loc 1 19 9 is_stmt 1 discriminator 3 view .LVU15
 114              		.loc 1 19 49 is_stmt 0 discriminator 3 view .LVU16
 115 0004 5A1C     		adds	r2, r3, #1
 116              		.loc 1 19 30 discriminator 3 view .LVU17
 117 0006 10F802C0 		ldrb	ip, [r0, r2]	@ zero_extendqisi2
 118              		.loc 1 19 28 discriminator 3 view .LVU18
 119 000a 01F803C0 		strb	ip, [r1, r3]
  17:Lib/application/src/spi2_bus.c ****     for (int i = 0; i < 20; i++)
 120              		.loc 1 17 29 is_stmt 1 discriminator 3 view .LVU19
  17:Lib/application/src/spi2_bus.c ****     for (int i = 0; i < 20; i++)
 121              		.loc 1 17 30 is_stmt 0 discriminator 3 view .LVU20
 122 000e 1346     		mov	r3, r2
 123              	.LVL5:
 124              	.L6:
  17:Lib/application/src/spi2_bus.c ****     for (int i = 0; i < 20; i++)
 125              		.loc 1 17 21 is_stmt 1 discriminator 1 view .LVU21
  17:Lib/application/src/spi2_bus.c ****     for (int i = 0; i < 20; i++)
 126              		.loc 1 17 5 is_stmt 0 discriminator 1 view .LVU22
 127 0010 132B     		cmp	r3, #19
 128 0012 F7DD     		ble	.L7
 129              	.LBE2:
 130              	.LBB3:
  20:Lib/application/src/spi2_bus.c ****     }
  21:Lib/application/src/spi2_bus.c **** 
  22:Lib/application/src/spi2_bus.c ****     for (int i = 0; i < 21; i++)
 131              		.loc 1 22 14 view .LVU23
 132 0014 0023     		movs	r3, #0
 133              	.LVL6:
 134              		.loc 1 22 14 view .LVU24
 135 0016 06E0     		b	.L8
 136              	.LVL7:
 137              	.L9:
  23:Lib/application/src/spi2_bus.c ****     {
  24:Lib/application/src/spi2_bus.c ****         *(motormsg_tx + i + 20) = *(motormsg_set + i);
 138              		.loc 1 24 9 is_stmt 1 discriminator 3 view .LVU25
 139              		.loc 1 24 27 is_stmt 0 discriminator 3 view .LVU26
 140 0018 03F11402 		add	r2, r3, #20
 141              		.loc 1 24 35 discriminator 3 view .LVU27
 142 001c 10F803C0 		ldrb	ip, [r0, r3]	@ zero_extendqisi2
 143              		.loc 1 24 33 discriminator 3 view .LVU28
 144 0020 01F802C0 		strb	ip, [r1, r2]
  22:Lib/application/src/spi2_bus.c ****     {
 145              		.loc 1 22 29 is_stmt 1 discriminator 3 view .LVU29
ARM GAS  /tmp/ccsx0es7.s 			page 4


  22:Lib/application/src/spi2_bus.c ****     {
 146              		.loc 1 22 30 is_stmt 0 discriminator 3 view .LVU30
 147 0024 0133     		adds	r3, r3, #1
 148              	.LVL8:
 149              	.L8:
  22:Lib/application/src/spi2_bus.c ****     {
 150              		.loc 1 22 21 is_stmt 1 discriminator 1 view .LVU31
  22:Lib/application/src/spi2_bus.c ****     {
 151              		.loc 1 22 5 is_stmt 0 discriminator 1 view .LVU32
 152 0026 142B     		cmp	r3, #20
 153 0028 F6DD     		ble	.L9
 154              	.LBE3:
  25:Lib/application/src/spi2_bus.c ****     }
  26:Lib/application/src/spi2_bus.c **** }...
 155              		.loc 1 26 1 view .LVU33
 156 002a 7047     		bx	lr
 157              		.cfi_endproc
 158              	.LFE1:
 160              		.global	rx_transform
 161              		.global	tx_transform
 162              		.global	motor_rx
 163              		.global	motor_tx
 164              		.section	.bss.motor_rx,"aw",%nobits
 165              		.align	2
 166              		.set	.LANCHOR1,. + 0
 169              	motor_rx:
 170 0000 00000000 		.space	252
 170      00000000 
 170      00000000 
 170      00000000 
 170      00000000 
 171              		.section	.bss.motor_tx,"aw",%nobits
 172              		.align	2
 175              	motor_tx:
 176 0000 00000000 		.space	252
 176      00000000 
 176      00000000 
 176      00000000 
 176      00000000 
 177              		.section	.bss.rx_transform,"aw",%nobits
 178              		.align	2
 179              		.set	.LANCHOR0,. + 0
 182              	rx_transform:
 183 0000 00000000 		.space	21
 183      00000000 
 183      00000000 
 183      00000000 
 183      00000000 
 184              		.section	.bss.tx_transform,"aw",%nobits
 185              		.align	2
 188              	tx_transform:
 189 0000 00000000 		.space	21
 189      00000000 
 189      00000000 
 189      00000000 
 189      00000000 
 190              		.text
ARM GAS  /tmp/ccsx0es7.s 			page 5


 191              	.Letext0:
 192              		.file 2 "/usr/share/gcc-arm-none-eabi-10.3-2021.10/arm-none-eabi/include/machine/_default_types.h"
 193              		.file 3 "/usr/share/gcc-arm-none-eabi-10.3-2021.10/arm-none-eabi/include/sys/_stdint.h"
 194              		.file 4 "Lib/application/include/spi2_bus.h"
 195              		.file 5 "<built-in>"
ARM GAS  /tmp/ccsx0es7.s 			page 6

