ARM GAS  /tmp/ccnd8O4X.s 			page 1


   1              		.cpu cortex-m4
   2              		.arch armv7e-m
   3              		.fpu fpv4-sp-d16
   4              		.eabi_attribute 27, 1
   5              		.eabi_attribute 28, 1
   6              		.eabi_attribute 20, 1
   7              		.eabi_attribute 21, 1
   8              		.eabi_attribute 23, 3
   9              		.eabi_attribute 24, 1
  10              		.eabi_attribute 25, 1
  11              		.eabi_attribute 26, 1
  12              		.eabi_attribute 30, 1
  13              		.eabi_attribute 34, 1
  14              		.eabi_attribute 18, 4
  15              		.file	"el9800appl.c"
  16              		.text
  17              	.Ltext0:
  18              		.cfi_sections	.debug_frame
  19              		.section	.text.APPL_AckErrorInd,"ax",%progbits
  20              		.align	1
  21              		.global	APPL_AckErrorInd
  22              		.syntax unified
  23              		.thumb
  24              		.thumb_func
  26              	APPL_AckErrorInd:
  27              	.LVL0:
  28              	.LFB123:
  29              		.file 1 "Lib/ssc_app/src/el9800appl.c"
   1:Lib/ssc_app/src/el9800appl.c **** #include "ecat_def.h"
   2:Lib/ssc_app/src/el9800appl.c **** 
   3:Lib/ssc_app/src/el9800appl.c **** #if EL9800_APPLICATION
   4:Lib/ssc_app/src/el9800appl.c **** 
   5:Lib/ssc_app/src/el9800appl.c **** /* ECATCHANGE_START(V5.11) ECAT11*/
   6:Lib/ssc_app/src/el9800appl.c **** #include "applInterface.h"
   7:Lib/ssc_app/src/el9800appl.c **** /* ECATCHANGE_END(V5.11) ECAT11*/
   8:Lib/ssc_app/src/el9800appl.c **** 
   9:Lib/ssc_app/src/el9800appl.c **** // #include "el9800hw.h"
  10:Lib/ssc_app/src/el9800appl.c **** 
  11:Lib/ssc_app/src/el9800appl.c **** #define _EVALBOARD_
  12:Lib/ssc_app/src/el9800appl.c **** #include "el9800appl.h"
  13:Lib/ssc_app/src/el9800appl.c **** #undef _EVALBOARD_
  14:Lib/ssc_app/src/el9800appl.c **** 
  15:Lib/ssc_app/src/el9800appl.c **** #if MCI_HW
  16:Lib/ssc_app/src/el9800appl.c **** #include "mcihw.h"
  17:Lib/ssc_app/src/el9800appl.c **** #endif
  18:Lib/ssc_app/src/el9800appl.c **** #if EL9800_HW
  19:Lib/ssc_app/src/el9800appl.c **** #include "el9800hw.h"
  20:Lib/ssc_app/src/el9800appl.c **** #endif
  21:Lib/ssc_app/src/el9800appl.c **** /*--------------------------------------------------------------------------------------
  22:Lib/ssc_app/src/el9800appl.c **** ------
  23:Lib/ssc_app/src/el9800appl.c **** ------    local types and defines
  24:Lib/ssc_app/src/el9800appl.c **** ------
  25:Lib/ssc_app/src/el9800appl.c **** --------------------------------------------------------------------------------------*/
  26:Lib/ssc_app/src/el9800appl.c **** 
  27:Lib/ssc_app/src/el9800appl.c **** /*-----------------------------------------------------------------------------------------
  28:Lib/ssc_app/src/el9800appl.c **** ------
  29:Lib/ssc_app/src/el9800appl.c **** ------    local variables and constants
ARM GAS  /tmp/ccnd8O4X.s 			page 2


  30:Lib/ssc_app/src/el9800appl.c **** ------
  31:Lib/ssc_app/src/el9800appl.c **** -----------------------------------------------------------------------------------------*/
  32:Lib/ssc_app/src/el9800appl.c **** 
  33:Lib/ssc_app/src/el9800appl.c **** /*-----------------------------------------------------------------------------------------
  34:Lib/ssc_app/src/el9800appl.c **** ------
  35:Lib/ssc_app/src/el9800appl.c **** ------    application specific functions
  36:Lib/ssc_app/src/el9800appl.c **** ------
  37:Lib/ssc_app/src/el9800appl.c **** -----------------------------------------------------------------------------------------*/
  38:Lib/ssc_app/src/el9800appl.c **** 
  39:Lib/ssc_app/src/el9800appl.c **** /*-----------------------------------------------------------------------------------------
  40:Lib/ssc_app/src/el9800appl.c **** ------
  41:Lib/ssc_app/src/el9800appl.c **** ------    generic functions
  42:Lib/ssc_app/src/el9800appl.c **** ------
  43:Lib/ssc_app/src/el9800appl.c **** -----------------------------------------------------------------------------------------*/
  44:Lib/ssc_app/src/el9800appl.c **** 
  45:Lib/ssc_app/src/el9800appl.c **** /////////////////////////////////////////////////////////////////////////////////////////
  46:Lib/ssc_app/src/el9800appl.c **** /**
  47:Lib/ssc_app/src/el9800appl.c ****  \brief    The function is called when an error state was acknowledged by the master
  48:Lib/ssc_app/src/el9800appl.c **** 
  49:Lib/ssc_app/src/el9800appl.c **** */
  50:Lib/ssc_app/src/el9800appl.c **** ///////////////////////////////////////////////////////////////////////////////////////
  51:Lib/ssc_app/src/el9800appl.c **** 
  52:Lib/ssc_app/src/el9800appl.c **** void APPL_AckErrorInd(UINT16 stateTrans)
  53:Lib/ssc_app/src/el9800appl.c **** {
  30              		.loc 1 53 1 view -0
  31              		.cfi_startproc
  32              		@ args = 0, pretend = 0, frame = 0
  33              		@ frame_needed = 0, uses_anonymous_args = 0
  34              		@ link register save eliminated.
  54:Lib/ssc_app/src/el9800appl.c **** }
  35              		.loc 1 54 1 view .LVU1
  36 0000 7047     		bx	lr
  37              		.cfi_endproc
  38              	.LFE123:
  40              		.section	.text.APPL_StartMailboxHandler,"ax",%progbits
  41              		.align	1
  42              		.global	APPL_StartMailboxHandler
  43              		.syntax unified
  44              		.thumb
  45              		.thumb_func
  47              	APPL_StartMailboxHandler:
  48              	.LFB124:
  55:Lib/ssc_app/src/el9800appl.c **** 
  56:Lib/ssc_app/src/el9800appl.c **** /////////////////////////////////////////////////////////////////////////////////////////
  57:Lib/ssc_app/src/el9800appl.c **** /**
  58:Lib/ssc_app/src/el9800appl.c ****  \return    AL Status Code (see ecatslv.h ALSTATUSCODE_....)
  59:Lib/ssc_app/src/el9800appl.c **** 
  60:Lib/ssc_app/src/el9800appl.c ****  \brief    The function is called in the state transition from INIT to PREOP when
  61:Lib/ssc_app/src/el9800appl.c ****            all general settings were checked to start the mailbox handler. This function
  62:Lib/ssc_app/src/el9800appl.c ****            informs the application about the state transition, the application can refuse
  63:Lib/ssc_app/src/el9800appl.c ****            the state transition when returning an AL Status error code.
  64:Lib/ssc_app/src/el9800appl.c ****            The return code NOERROR_INWORK can be used, if the application cannot confirm
  65:Lib/ssc_app/src/el9800appl.c ****            the state transition immediately, in that case the application need to be complete
  66:Lib/ssc_app/src/el9800appl.c ****            the transition by calling ECAT_StateChange.
  67:Lib/ssc_app/src/el9800appl.c **** 
  68:Lib/ssc_app/src/el9800appl.c **** */
  69:Lib/ssc_app/src/el9800appl.c **** ///////////////////////////////////////////////////////////////////////////////////////
ARM GAS  /tmp/ccnd8O4X.s 			page 3


  70:Lib/ssc_app/src/el9800appl.c **** 
  71:Lib/ssc_app/src/el9800appl.c **** UINT16 APPL_StartMailboxHandler(void)
  72:Lib/ssc_app/src/el9800appl.c **** {
  49              		.loc 1 72 1 view -0
  50              		.cfi_startproc
  51              		@ args = 0, pretend = 0, frame = 0
  52              		@ frame_needed = 0, uses_anonymous_args = 0
  53              		@ link register save eliminated.
  73:Lib/ssc_app/src/el9800appl.c ****     return ALSTATUSCODE_NOERROR;
  54              		.loc 1 73 5 view .LVU3
  74:Lib/ssc_app/src/el9800appl.c **** }
  55              		.loc 1 74 1 is_stmt 0 view .LVU4
  56 0000 0020     		movs	r0, #0
  57 0002 7047     		bx	lr
  58              		.cfi_endproc
  59              	.LFE124:
  61              		.section	.text.APPL_StopMailboxHandler,"ax",%progbits
  62              		.align	1
  63              		.global	APPL_StopMailboxHandler
  64              		.syntax unified
  65              		.thumb
  66              		.thumb_func
  68              	APPL_StopMailboxHandler:
  69              	.LFB125:
  75:Lib/ssc_app/src/el9800appl.c **** 
  76:Lib/ssc_app/src/el9800appl.c **** /////////////////////////////////////////////////////////////////////////////////////////
  77:Lib/ssc_app/src/el9800appl.c **** /**
  78:Lib/ssc_app/src/el9800appl.c ****  \return     0, NOERROR_INWORK
  79:Lib/ssc_app/src/el9800appl.c **** 
  80:Lib/ssc_app/src/el9800appl.c ****  \brief    The function is called in the state transition from PREEOP to INIT
  81:Lib/ssc_app/src/el9800appl.c ****              to stop the mailbox handler. This functions informs the application
  82:Lib/ssc_app/src/el9800appl.c ****              about the state transition, the application cannot refuse
  83:Lib/ssc_app/src/el9800appl.c ****              the state transition.
  84:Lib/ssc_app/src/el9800appl.c **** 
  85:Lib/ssc_app/src/el9800appl.c **** */
  86:Lib/ssc_app/src/el9800appl.c **** ///////////////////////////////////////////////////////////////////////////////////////
  87:Lib/ssc_app/src/el9800appl.c **** 
  88:Lib/ssc_app/src/el9800appl.c **** UINT16 APPL_StopMailboxHandler(void)
  89:Lib/ssc_app/src/el9800appl.c **** {
  70              		.loc 1 89 1 is_stmt 1 view -0
  71              		.cfi_startproc
  72              		@ args = 0, pretend = 0, frame = 0
  73              		@ frame_needed = 0, uses_anonymous_args = 0
  74              		@ link register save eliminated.
  90:Lib/ssc_app/src/el9800appl.c ****     return ALSTATUSCODE_NOERROR;
  75              		.loc 1 90 5 view .LVU6
  91:Lib/ssc_app/src/el9800appl.c **** }
  76              		.loc 1 91 1 is_stmt 0 view .LVU7
  77 0000 0020     		movs	r0, #0
  78 0002 7047     		bx	lr
  79              		.cfi_endproc
  80              	.LFE125:
  82              		.section	.text.APPL_StartInputHandler,"ax",%progbits
  83              		.align	1
  84              		.global	APPL_StartInputHandler
  85              		.syntax unified
  86              		.thumb
ARM GAS  /tmp/ccnd8O4X.s 			page 4


  87              		.thumb_func
  89              	APPL_StartInputHandler:
  90              	.LVL1:
  91              	.LFB126:
  92:Lib/ssc_app/src/el9800appl.c **** 
  93:Lib/ssc_app/src/el9800appl.c **** /////////////////////////////////////////////////////////////////////////////////////////
  94:Lib/ssc_app/src/el9800appl.c **** /**
  95:Lib/ssc_app/src/el9800appl.c ****  \param    pIntMask    pointer to the AL Event Mask which will be written to the AL event Mask
  96:Lib/ssc_app/src/el9800appl.c ****                         register (0x204) when this function is succeeded. The event mask can be ada
  97:Lib/ssc_app/src/el9800appl.c ****                         in this function
  98:Lib/ssc_app/src/el9800appl.c ****  \return    AL Status Code (see ecatslv.h ALSTATUSCODE_....)
  99:Lib/ssc_app/src/el9800appl.c **** 
 100:Lib/ssc_app/src/el9800appl.c ****  \brief    The function is called in the state transition from PREOP to SAFEOP when
 101:Lib/ssc_app/src/el9800appl.c ****              all general settings were checked to start the input handler. This function
 102:Lib/ssc_app/src/el9800appl.c ****              informs the application about the state transition, the application can refuse
 103:Lib/ssc_app/src/el9800appl.c ****              the state transition when returning an AL Status error code.
 104:Lib/ssc_app/src/el9800appl.c ****             The return code NOERROR_INWORK can be used, if the application cannot confirm
 105:Lib/ssc_app/src/el9800appl.c ****             the state transition immediately, in that case the application need to be complete
 106:Lib/ssc_app/src/el9800appl.c ****             the transition by calling ECAT_StateChange.
 107:Lib/ssc_app/src/el9800appl.c **** */
 108:Lib/ssc_app/src/el9800appl.c **** ///////////////////////////////////////////////////////////////////////////////////////
 109:Lib/ssc_app/src/el9800appl.c **** 
 110:Lib/ssc_app/src/el9800appl.c **** UINT16 APPL_StartInputHandler(UINT16 *pIntMask)
 111:Lib/ssc_app/src/el9800appl.c **** {
  92              		.loc 1 111 1 is_stmt 1 view -0
  93              		.cfi_startproc
  94              		@ args = 0, pretend = 0, frame = 0
  95              		@ frame_needed = 0, uses_anonymous_args = 0
  96              		@ link register save eliminated.
 112:Lib/ssc_app/src/el9800appl.c ****     return ALSTATUSCODE_NOERROR;
  97              		.loc 1 112 5 view .LVU9
 113:Lib/ssc_app/src/el9800appl.c **** }
  98              		.loc 1 113 1 is_stmt 0 view .LVU10
  99 0000 0020     		movs	r0, #0
 100              	.LVL2:
 101              		.loc 1 113 1 view .LVU11
 102 0002 7047     		bx	lr
 103              		.cfi_endproc
 104              	.LFE126:
 106              		.section	.text.APPL_StopInputHandler,"ax",%progbits
 107              		.align	1
 108              		.global	APPL_StopInputHandler
 109              		.syntax unified
 110              		.thumb
 111              		.thumb_func
 113              	APPL_StopInputHandler:
 114              	.LFB127:
 114:Lib/ssc_app/src/el9800appl.c **** 
 115:Lib/ssc_app/src/el9800appl.c **** /////////////////////////////////////////////////////////////////////////////////////////
 116:Lib/ssc_app/src/el9800appl.c **** /**
 117:Lib/ssc_app/src/el9800appl.c ****  \return     0, NOERROR_INWORK
 118:Lib/ssc_app/src/el9800appl.c **** 
 119:Lib/ssc_app/src/el9800appl.c ****  \brief    The function is called in the state transition from SAFEOP to PREEOP
 120:Lib/ssc_app/src/el9800appl.c ****              to stop the input handler. This functions informs the application
 121:Lib/ssc_app/src/el9800appl.c ****              about the state transition, the application cannot refuse
 122:Lib/ssc_app/src/el9800appl.c ****              the state transition.
 123:Lib/ssc_app/src/el9800appl.c **** 
ARM GAS  /tmp/ccnd8O4X.s 			page 5


 124:Lib/ssc_app/src/el9800appl.c **** */
 125:Lib/ssc_app/src/el9800appl.c **** ///////////////////////////////////////////////////////////////////////////////////////
 126:Lib/ssc_app/src/el9800appl.c **** 
 127:Lib/ssc_app/src/el9800appl.c **** UINT16 APPL_StopInputHandler(void)
 128:Lib/ssc_app/src/el9800appl.c **** {
 115              		.loc 1 128 1 is_stmt 1 view -0
 116              		.cfi_startproc
 117              		@ args = 0, pretend = 0, frame = 0
 118              		@ frame_needed = 0, uses_anonymous_args = 0
 119              		@ link register save eliminated.
 129:Lib/ssc_app/src/el9800appl.c ****     return ALSTATUSCODE_NOERROR;
 120              		.loc 1 129 5 view .LVU13
 130:Lib/ssc_app/src/el9800appl.c **** }
 121              		.loc 1 130 1 is_stmt 0 view .LVU14
 122 0000 0020     		movs	r0, #0
 123 0002 7047     		bx	lr
 124              		.cfi_endproc
 125              	.LFE127:
 127              		.section	.text.APPL_StartOutputHandler,"ax",%progbits
 128              		.align	1
 129              		.global	APPL_StartOutputHandler
 130              		.syntax unified
 131              		.thumb
 132              		.thumb_func
 134              	APPL_StartOutputHandler:
 135              	.LFB128:
 131:Lib/ssc_app/src/el9800appl.c **** 
 132:Lib/ssc_app/src/el9800appl.c **** /////////////////////////////////////////////////////////////////////////////////////////
 133:Lib/ssc_app/src/el9800appl.c **** /**
 134:Lib/ssc_app/src/el9800appl.c ****  \return    AL Status Code (see ecatslv.h ALSTATUSCODE_....)
 135:Lib/ssc_app/src/el9800appl.c **** 
 136:Lib/ssc_app/src/el9800appl.c ****  \brief    The function is called in the state transition from SAFEOP to OP when
 137:Lib/ssc_app/src/el9800appl.c ****              all general settings were checked to start the output handler. This function
 138:Lib/ssc_app/src/el9800appl.c ****              informs the application about the state transition, the application can refuse
 139:Lib/ssc_app/src/el9800appl.c ****              the state transition when returning an AL Status error code.
 140:Lib/ssc_app/src/el9800appl.c ****            The return code NOERROR_INWORK can be used, if the application cannot confirm
 141:Lib/ssc_app/src/el9800appl.c ****            the state transition immediately, in that case the application need to be complete
 142:Lib/ssc_app/src/el9800appl.c ****            the transition by calling ECAT_StateChange.
 143:Lib/ssc_app/src/el9800appl.c **** */
 144:Lib/ssc_app/src/el9800appl.c **** ///////////////////////////////////////////////////////////////////////////////////////
 145:Lib/ssc_app/src/el9800appl.c **** 
 146:Lib/ssc_app/src/el9800appl.c **** UINT16 APPL_StartOutputHandler(void)
 147:Lib/ssc_app/src/el9800appl.c **** {
 136              		.loc 1 147 1 is_stmt 1 view -0
 137              		.cfi_startproc
 138              		@ args = 0, pretend = 0, frame = 0
 139              		@ frame_needed = 0, uses_anonymous_args = 0
 140              		@ link register save eliminated.
 148:Lib/ssc_app/src/el9800appl.c ****     return ALSTATUSCODE_NOERROR;
 141              		.loc 1 148 5 view .LVU16
 149:Lib/ssc_app/src/el9800appl.c **** }
 142              		.loc 1 149 1 is_stmt 0 view .LVU17
 143 0000 0020     		movs	r0, #0
 144 0002 7047     		bx	lr
 145              		.cfi_endproc
 146              	.LFE128:
 148              		.section	.text.APPL_StopOutputHandler,"ax",%progbits
ARM GAS  /tmp/ccnd8O4X.s 			page 6


 149              		.align	1
 150              		.global	APPL_StopOutputHandler
 151              		.syntax unified
 152              		.thumb
 153              		.thumb_func
 155              	APPL_StopOutputHandler:
 156              	.LFB129:
 150:Lib/ssc_app/src/el9800appl.c **** 
 151:Lib/ssc_app/src/el9800appl.c **** /////////////////////////////////////////////////////////////////////////////////////////
 152:Lib/ssc_app/src/el9800appl.c **** /**
 153:Lib/ssc_app/src/el9800appl.c ****  \return     0, NOERROR_INWORK
 154:Lib/ssc_app/src/el9800appl.c **** 
 155:Lib/ssc_app/src/el9800appl.c ****  \brief    The function is called in the state transition from OP to SAFEOP
 156:Lib/ssc_app/src/el9800appl.c ****              to stop the output handler. This functions informs the application
 157:Lib/ssc_app/src/el9800appl.c ****              about the state transition, the application cannot refuse
 158:Lib/ssc_app/src/el9800appl.c ****              the state transition.
 159:Lib/ssc_app/src/el9800appl.c **** 
 160:Lib/ssc_app/src/el9800appl.c **** */
 161:Lib/ssc_app/src/el9800appl.c **** ///////////////////////////////////////////////////////////////////////////////////////
 162:Lib/ssc_app/src/el9800appl.c **** 
 163:Lib/ssc_app/src/el9800appl.c **** #include "bsp_led.h"
 164:Lib/ssc_app/src/el9800appl.c **** #include "bsp_spi2.h"
 165:Lib/ssc_app/src/el9800appl.c **** 
 166:Lib/ssc_app/src/el9800appl.c **** extern CanTxMsg Can1_TxMessage; // 发送缓冲区
 167:Lib/ssc_app/src/el9800appl.c **** extern CanRxMsg Can1_RxMessage; // 接收缓冲区
 168:Lib/ssc_app/src/el9800appl.c **** 
 169:Lib/ssc_app/src/el9800appl.c **** extern CanTxMsg Can2_TxMessage; // 发送缓冲区
 170:Lib/ssc_app/src/el9800appl.c **** extern CanRxMsg Can2_RxMessage; // 接收缓冲区
 171:Lib/ssc_app/src/el9800appl.c **** 
 172:Lib/ssc_app/src/el9800appl.c **** UINT16 APPL_StopOutputHandler(void)
 173:Lib/ssc_app/src/el9800appl.c **** {
 157              		.loc 1 173 1 is_stmt 1 view -0
 158              		.cfi_startproc
 159              		@ args = 0, pretend = 0, frame = 0
 160              		@ frame_needed = 0, uses_anonymous_args = 0
 161              		@ link register save eliminated.
 174:Lib/ssc_app/src/el9800appl.c ****     /*ECATCHANGE_START(V5.11) EL9800 1*/
 175:Lib/ssc_app/src/el9800appl.c ****     sDOOutputs.bLED1 = 0;
 162              		.loc 1 175 5 view .LVU19
 163              		.loc 1 175 22 is_stmt 0 view .LVU20
 164 0000 1F4B     		ldr	r3, .L8
 165 0002 9A78     		ldrb	r2, [r3, #2]	@ zero_extendqisi2
 166 0004 6FF30002 		bfc	r2, #0, #1
 167 0008 9A70     		strb	r2, [r3, #2]
 176:Lib/ssc_app/src/el9800appl.c ****     sDOOutputs.bLED2 = 0;
 168              		.loc 1 176 5 is_stmt 1 view .LVU21
 169              		.loc 1 176 22 is_stmt 0 view .LVU22
 170 000a D2B2     		uxtb	r2, r2
 171 000c 6FF34102 		bfc	r2, #1, #1
 172 0010 9A70     		strb	r2, [r3, #2]
 177:Lib/ssc_app/src/el9800appl.c ****     sDOOutputs.bLED3 = 0;
 173              		.loc 1 177 5 is_stmt 1 view .LVU23
 174              		.loc 1 177 22 is_stmt 0 view .LVU24
 175 0012 D2B2     		uxtb	r2, r2
 176 0014 6FF38202 		bfc	r2, #2, #1
 177 0018 9A70     		strb	r2, [r3, #2]
 178:Lib/ssc_app/src/el9800appl.c ****     sDOOutputs.bLED4 = 0;
ARM GAS  /tmp/ccnd8O4X.s 			page 7


 178              		.loc 1 178 5 is_stmt 1 view .LVU25
 179              		.loc 1 178 22 is_stmt 0 view .LVU26
 180 001a D2B2     		uxtb	r2, r2
 181 001c 6FF3C302 		bfc	r2, #3, #1
 182 0020 9A70     		strb	r2, [r3, #2]
 179:Lib/ssc_app/src/el9800appl.c ****     sDOOutputs.bLED5 = 0;
 183              		.loc 1 179 5 is_stmt 1 view .LVU27
 184              		.loc 1 179 22 is_stmt 0 view .LVU28
 185 0022 D2B2     		uxtb	r2, r2
 186 0024 6FF30412 		bfc	r2, #4, #1
 187 0028 9A70     		strb	r2, [r3, #2]
 180:Lib/ssc_app/src/el9800appl.c ****     sDOOutputs.bLED7 = 0;
 188              		.loc 1 180 5 is_stmt 1 view .LVU29
 189              		.loc 1 180 22 is_stmt 0 view .LVU30
 190 002a D2B2     		uxtb	r2, r2
 191 002c 6FF38612 		bfc	r2, #6, #1
 192 0030 9A70     		strb	r2, [r3, #2]
 181:Lib/ssc_app/src/el9800appl.c ****     sDOOutputs.bLED6 = 0;
 193              		.loc 1 181 5 is_stmt 1 view .LVU31
 194              		.loc 1 181 22 is_stmt 0 view .LVU32
 195 0032 D2B2     		uxtb	r2, r2
 196 0034 6FF34512 		bfc	r2, #5, #1
 197 0038 9A70     		strb	r2, [r3, #2]
 182:Lib/ssc_app/src/el9800appl.c ****     sDOOutputs.bLED8 = 0;
 198              		.loc 1 182 5 is_stmt 1 view .LVU33
 199              		.loc 1 182 22 is_stmt 0 view .LVU34
 200 003a D2B2     		uxtb	r2, r2
 201 003c 6FF3C712 		bfc	r2, #7, #1
 202 0040 9A70     		strb	r2, [r3, #2]
 183:Lib/ssc_app/src/el9800appl.c **** 
 184:Lib/ssc_app/src/el9800appl.c ****     Can1_TxMessage.StdId = 0;
 203              		.loc 1 184 5 is_stmt 1 view .LVU35
 204              		.loc 1 184 26 is_stmt 0 view .LVU36
 205 0042 104B     		ldr	r3, .L8+4
 206 0044 0020     		movs	r0, #0
 207 0046 1860     		str	r0, [r3]
 185:Lib/ssc_app/src/el9800appl.c ****     Can1_TxMessage.ExtId = 0;
 208              		.loc 1 185 5 is_stmt 1 view .LVU37
 209              		.loc 1 185 26 is_stmt 0 view .LVU38
 210 0048 5860     		str	r0, [r3, #4]
 186:Lib/ssc_app/src/el9800appl.c ****     Can1_TxMessage.IDE = 0;
 211              		.loc 1 186 5 is_stmt 1 view .LVU39
 212              		.loc 1 186 24 is_stmt 0 view .LVU40
 213 004a 1872     		strb	r0, [r3, #8]
 187:Lib/ssc_app/src/el9800appl.c ****     Can1_TxMessage.RTR = 0;
 214              		.loc 1 187 5 is_stmt 1 view .LVU41
 215              		.loc 1 187 24 is_stmt 0 view .LVU42
 216 004c 5872     		strb	r0, [r3, #9]
 188:Lib/ssc_app/src/el9800appl.c ****     Can1_TxMessage.DLC = 0;
 217              		.loc 1 188 5 is_stmt 1 view .LVU43
 218              		.loc 1 188 24 is_stmt 0 view .LVU44
 219 004e 9872     		strb	r0, [r3, #10]
 189:Lib/ssc_app/src/el9800appl.c **** 
 190:Lib/ssc_app/src/el9800appl.c ****     Can1_TxMessage.Data[0] = 0;
 220              		.loc 1 190 5 is_stmt 1 view .LVU45
 221              		.loc 1 190 28 is_stmt 0 view .LVU46
 222 0050 D872     		strb	r0, [r3, #11]
ARM GAS  /tmp/ccnd8O4X.s 			page 8


 191:Lib/ssc_app/src/el9800appl.c ****     Can1_TxMessage.Data[1] = 0;
 223              		.loc 1 191 5 is_stmt 1 view .LVU47
 224              		.loc 1 191 28 is_stmt 0 view .LVU48
 225 0052 1873     		strb	r0, [r3, #12]
 192:Lib/ssc_app/src/el9800appl.c ****     Can1_TxMessage.Data[2] = 0;
 226              		.loc 1 192 5 is_stmt 1 view .LVU49
 227              		.loc 1 192 28 is_stmt 0 view .LVU50
 228 0054 5873     		strb	r0, [r3, #13]
 193:Lib/ssc_app/src/el9800appl.c ****     Can1_TxMessage.Data[3] = 0;
 229              		.loc 1 193 5 is_stmt 1 view .LVU51
 230              		.loc 1 193 28 is_stmt 0 view .LVU52
 231 0056 9873     		strb	r0, [r3, #14]
 194:Lib/ssc_app/src/el9800appl.c ****     Can1_TxMessage.Data[4] = 0;
 232              		.loc 1 194 5 is_stmt 1 view .LVU53
 233              		.loc 1 194 28 is_stmt 0 view .LVU54
 234 0058 D873     		strb	r0, [r3, #15]
 195:Lib/ssc_app/src/el9800appl.c ****     Can1_TxMessage.Data[5] = 0;
 235              		.loc 1 195 5 is_stmt 1 view .LVU55
 236              		.loc 1 195 28 is_stmt 0 view .LVU56
 237 005a 1874     		strb	r0, [r3, #16]
 196:Lib/ssc_app/src/el9800appl.c ****     Can1_TxMessage.Data[6] = 0;
 238              		.loc 1 196 5 is_stmt 1 view .LVU57
 239              		.loc 1 196 28 is_stmt 0 view .LVU58
 240 005c 5874     		strb	r0, [r3, #17]
 197:Lib/ssc_app/src/el9800appl.c ****     Can1_TxMessage.Data[7] = 0;
 241              		.loc 1 197 5 is_stmt 1 view .LVU59
 242              		.loc 1 197 28 is_stmt 0 view .LVU60
 243 005e 9874     		strb	r0, [r3, #18]
 198:Lib/ssc_app/src/el9800appl.c **** 
 199:Lib/ssc_app/src/el9800appl.c ****     Can2_TxMessage.StdId = 0;
 244              		.loc 1 199 5 is_stmt 1 view .LVU61
 245              		.loc 1 199 26 is_stmt 0 view .LVU62
 246 0060 094B     		ldr	r3, .L8+8
 247 0062 1860     		str	r0, [r3]
 200:Lib/ssc_app/src/el9800appl.c ****     Can2_TxMessage.ExtId = 0;
 248              		.loc 1 200 5 is_stmt 1 view .LVU63
 249              		.loc 1 200 26 is_stmt 0 view .LVU64
 250 0064 5860     		str	r0, [r3, #4]
 201:Lib/ssc_app/src/el9800appl.c ****     Can2_TxMessage.IDE = 0;
 251              		.loc 1 201 5 is_stmt 1 view .LVU65
 252              		.loc 1 201 24 is_stmt 0 view .LVU66
 253 0066 1872     		strb	r0, [r3, #8]
 202:Lib/ssc_app/src/el9800appl.c ****     Can2_TxMessage.RTR = 0;
 254              		.loc 1 202 5 is_stmt 1 view .LVU67
 255              		.loc 1 202 24 is_stmt 0 view .LVU68
 256 0068 5872     		strb	r0, [r3, #9]
 203:Lib/ssc_app/src/el9800appl.c ****     Can2_TxMessage.DLC = 0;
 257              		.loc 1 203 5 is_stmt 1 view .LVU69
 258              		.loc 1 203 24 is_stmt 0 view .LVU70
 259 006a 9872     		strb	r0, [r3, #10]
 204:Lib/ssc_app/src/el9800appl.c **** 
 205:Lib/ssc_app/src/el9800appl.c ****     Can2_TxMessage.Data[0] = 0;
 260              		.loc 1 205 5 is_stmt 1 view .LVU71
 261              		.loc 1 205 28 is_stmt 0 view .LVU72
 262 006c D872     		strb	r0, [r3, #11]
 206:Lib/ssc_app/src/el9800appl.c ****     Can2_TxMessage.Data[1] = 0;
 263              		.loc 1 206 5 is_stmt 1 view .LVU73
ARM GAS  /tmp/ccnd8O4X.s 			page 9


 264              		.loc 1 206 28 is_stmt 0 view .LVU74
 265 006e 1873     		strb	r0, [r3, #12]
 207:Lib/ssc_app/src/el9800appl.c ****     Can2_TxMessage.Data[2] = 0;
 266              		.loc 1 207 5 is_stmt 1 view .LVU75
 267              		.loc 1 207 28 is_stmt 0 view .LVU76
 268 0070 5873     		strb	r0, [r3, #13]
 208:Lib/ssc_app/src/el9800appl.c ****     Can2_TxMessage.Data[3] = 0;
 269              		.loc 1 208 5 is_stmt 1 view .LVU77
 270              		.loc 1 208 28 is_stmt 0 view .LVU78
 271 0072 9873     		strb	r0, [r3, #14]
 209:Lib/ssc_app/src/el9800appl.c ****     Can2_TxMessage.Data[4] = 0;
 272              		.loc 1 209 5 is_stmt 1 view .LVU79
 273              		.loc 1 209 28 is_stmt 0 view .LVU80
 274 0074 D873     		strb	r0, [r3, #15]
 210:Lib/ssc_app/src/el9800appl.c ****     Can2_TxMessage.Data[5] = 0;
 275              		.loc 1 210 5 is_stmt 1 view .LVU81
 276              		.loc 1 210 28 is_stmt 0 view .LVU82
 277 0076 1874     		strb	r0, [r3, #16]
 211:Lib/ssc_app/src/el9800appl.c ****     Can2_TxMessage.Data[6] = 0;
 278              		.loc 1 211 5 is_stmt 1 view .LVU83
 279              		.loc 1 211 28 is_stmt 0 view .LVU84
 280 0078 5874     		strb	r0, [r3, #17]
 212:Lib/ssc_app/src/el9800appl.c ****     Can2_TxMessage.Data[7] = 0;
 281              		.loc 1 212 5 is_stmt 1 view .LVU85
 282              		.loc 1 212 28 is_stmt 0 view .LVU86
 283 007a 9874     		strb	r0, [r3, #18]
 213:Lib/ssc_app/src/el9800appl.c **** 
 214:Lib/ssc_app/src/el9800appl.c ****     /*ECATCHANGE_END(V5.11) EL9800 1*/
 215:Lib/ssc_app/src/el9800appl.c ****     return ALSTATUSCODE_NOERROR;
 284              		.loc 1 215 5 is_stmt 1 view .LVU87
 216:Lib/ssc_app/src/el9800appl.c **** }
 285              		.loc 1 216 1 is_stmt 0 view .LVU88
 286 007c 7047     		bx	lr
 287              	.L9:
 288 007e 00BF     		.align	2
 289              	.L8:
 290 0080 00000000 		.word	.LANCHOR0
 291 0084 00000000 		.word	Can1_TxMessage
 292 0088 00000000 		.word	Can2_TxMessage
 293              		.cfi_endproc
 294              	.LFE129:
 296              		.section	.text.APPL_GenerateMapping,"ax",%progbits
 297              		.align	1
 298              		.global	APPL_GenerateMapping
 299              		.syntax unified
 300              		.thumb
 301              		.thumb_func
 303              	APPL_GenerateMapping:
 304              	.LVL3:
 305              	.LFB130:
 217:Lib/ssc_app/src/el9800appl.c **** 
 218:Lib/ssc_app/src/el9800appl.c **** /////////////////////////////////////////////////////////////////////////////////////////
 219:Lib/ssc_app/src/el9800appl.c **** /**
 220:Lib/ssc_app/src/el9800appl.c **** \return     0(ALSTATUSCODE_NOERROR), NOERROR_INWORK
 221:Lib/ssc_app/src/el9800appl.c **** \param      pInputSize  pointer to save the input process data length
 222:Lib/ssc_app/src/el9800appl.c **** \param      pOutputSize  pointer to save the output process data length
 223:Lib/ssc_app/src/el9800appl.c **** 
ARM GAS  /tmp/ccnd8O4X.s 			page 10


 224:Lib/ssc_app/src/el9800appl.c **** \brief    This function calculates the process data sizes from the actual SM-PDO-Assign
 225:Lib/ssc_app/src/el9800appl.c ****             and PDO mapping
 226:Lib/ssc_app/src/el9800appl.c **** */
 227:Lib/ssc_app/src/el9800appl.c **** ///////////////////////////////////////////////////////////////////////////////////////
 228:Lib/ssc_app/src/el9800appl.c **** UINT16 APPL_GenerateMapping(UINT16 *pInputSize, UINT16 *pOutputSize)
 229:Lib/ssc_app/src/el9800appl.c **** {
 306              		.loc 1 229 1 is_stmt 1 view -0
 307              		.cfi_startproc
 308              		@ args = 0, pretend = 0, frame = 8
 309              		@ frame_needed = 0, uses_anonymous_args = 0
 310              		.loc 1 229 1 is_stmt 0 view .LVU90
 311 0000 2DE9F04F 		push	{r4, r5, r6, r7, r8, r9, r10, fp, lr}
 312              		.cfi_def_cfa_offset 36
 313              		.cfi_offset 4, -36
 314              		.cfi_offset 5, -32
 315              		.cfi_offset 6, -28
 316              		.cfi_offset 7, -24
 317              		.cfi_offset 8, -20
 318              		.cfi_offset 9, -16
 319              		.cfi_offset 10, -12
 320              		.cfi_offset 11, -8
 321              		.cfi_offset 14, -4
 322 0004 83B0     		sub	sp, sp, #12
 323              		.cfi_def_cfa_offset 48
 324 0006 0090     		str	r0, [sp]
 325 0008 0191     		str	r1, [sp, #4]
 230:Lib/ssc_app/src/el9800appl.c **** #if COE_SUPPORTED
 231:Lib/ssc_app/src/el9800appl.c ****     UINT16 result = ALSTATUSCODE_NOERROR;
 326              		.loc 1 231 5 is_stmt 1 view .LVU91
 327              	.LVL4:
 232:Lib/ssc_app/src/el9800appl.c ****     UINT16 PDOAssignEntryCnt = 0;
 328              		.loc 1 232 5 view .LVU92
 233:Lib/ssc_app/src/el9800appl.c ****     OBJCONST TOBJECT OBJMEM *pPDO = NULL;
 329              		.loc 1 233 5 view .LVU93
 234:Lib/ssc_app/src/el9800appl.c ****     UINT16 PDOSubindex0 = 0;
 330              		.loc 1 234 5 view .LVU94
 235:Lib/ssc_app/src/el9800appl.c ****     UINT32 *pPDOEntry = NULL;
 331              		.loc 1 235 5 view .LVU95
 236:Lib/ssc_app/src/el9800appl.c ****     UINT16 PDOEntryCnt = 0;
 332              		.loc 1 236 5 view .LVU96
 237:Lib/ssc_app/src/el9800appl.c ****     UINT16 InputSize = 0;
 333              		.loc 1 237 5 view .LVU97
 238:Lib/ssc_app/src/el9800appl.c ****     UINT16 OutputSize = 0;
 334              		.loc 1 238 5 view .LVU98
 239:Lib/ssc_app/src/el9800appl.c **** 
 240:Lib/ssc_app/src/el9800appl.c ****     /*Scan object 0x1C12 RXPDO assign*/
 241:Lib/ssc_app/src/el9800appl.c ****     for (PDOAssignEntryCnt = 0; PDOAssignEntryCnt < sRxPDOassign.u16SubIndex0; PDOAssignEntryCnt++)
 335              		.loc 1 241 5 view .LVU99
 238:Lib/ssc_app/src/el9800appl.c ****     UINT16 OutputSize = 0;
 336              		.loc 1 238 12 is_stmt 0 view .LVU100
 337 000a 0026     		movs	r6, #0
 338              		.loc 1 241 28 view .LVU101
 339 000c B046     		mov	r8, r6
 340              		.loc 1 241 5 view .LVU102
 341 000e 14E0     		b	.L11
 342              	.LVL5:
 343              	.L14:
ARM GAS  /tmp/ccnd8O4X.s 			page 11


 242:Lib/ssc_app/src/el9800appl.c ****     {
 243:Lib/ssc_app/src/el9800appl.c ****         pPDO = OBJ_GetObjectHandle(sRxPDOassign.aEntries[PDOAssignEntryCnt]);
 244:Lib/ssc_app/src/el9800appl.c ****         if (pPDO != NULL)
 245:Lib/ssc_app/src/el9800appl.c ****         {
 246:Lib/ssc_app/src/el9800appl.c ****             PDOSubindex0 = *((UINT16 *)pPDO->pVarPtr);
 247:Lib/ssc_app/src/el9800appl.c ****             for (PDOEntryCnt = 0; PDOEntryCnt < PDOSubindex0; PDOEntryCnt++)
 248:Lib/ssc_app/src/el9800appl.c ****             {
 249:Lib/ssc_app/src/el9800appl.c ****                 //				result = *(UINT8 *)pPDO->pVarPtr;
 250:Lib/ssc_app/src/el9800appl.c ****                 //				result=(OBJ_GetEntryOffset((PDOEntryCnt+1),pPDO)>>3);
 251:Lib/ssc_app/src/el9800appl.c ****                 pPDOEntry = (UINT32 *)((UINT8 *)pPDO->pVarPtr + (OBJ_GetEntryOffset((PDOEntryCnt + 
 344              		.loc 1 251 17 is_stmt 1 discriminator 3 view .LVU103
 345              		.loc 1 251 53 is_stmt 0 discriminator 3 view .LVU104
 346 0010 D5F81890 		ldr	r9, [r5, #24]
 347              		.loc 1 251 66 discriminator 3 view .LVU105
 348 0014 601C     		adds	r0, r4, #1
 349 0016 2946     		mov	r1, r5
 350 0018 C0B2     		uxtb	r0, r0
 351 001a FFF7FEFF 		bl	OBJ_GetEntryOffset
 352              	.LVL6:
 353              		.loc 1 251 110 discriminator 3 view .LVU106
 354 001e C0F3CF00 		ubfx	r0, r0, #3, #16
 355              	.LVL7:
 252:Lib/ssc_app/src/el9800appl.c ****                 // we increment the expected output size depending on the mapped Entry
 253:Lib/ssc_app/src/el9800appl.c ****                 OutputSize += (UINT16)((*pPDOEntry) & 0xFF);
 356              		.loc 1 253 17 is_stmt 1 discriminator 3 view .LVU107
 357              		.loc 1 253 31 is_stmt 0 discriminator 3 view .LVU108
 358 0022 19F80030 		ldrb	r3, [r9, r0]	@ zero_extendqisi2
 359              		.loc 1 253 28 discriminator 3 view .LVU109
 360 0026 3344     		add	r3, r3, r6
 361 0028 9EB2     		uxth	r6, r3
 362              	.LVL8:
 247:Lib/ssc_app/src/el9800appl.c ****             {
 363              		.loc 1 247 63 is_stmt 1 discriminator 3 view .LVU110
 247:Lib/ssc_app/src/el9800appl.c ****             {
 364              		.loc 1 247 74 is_stmt 0 discriminator 3 view .LVU111
 365 002a 0134     		adds	r4, r4, #1
 366              	.LVL9:
 247:Lib/ssc_app/src/el9800appl.c ****             {
 367              		.loc 1 247 74 discriminator 3 view .LVU112
 368 002c A4B2     		uxth	r4, r4
 369              	.LVL10:
 370              	.L13:
 247:Lib/ssc_app/src/el9800appl.c ****             {
 371              		.loc 1 247 35 is_stmt 1 discriminator 1 view .LVU113
 247:Lib/ssc_app/src/el9800appl.c ****             {
 372              		.loc 1 247 13 is_stmt 0 discriminator 1 view .LVU114
 373 002e BC42     		cmp	r4, r7
 374 0030 EED3     		bcc	.L14
 241:Lib/ssc_app/src/el9800appl.c ****     {
 375              		.loc 1 241 80 is_stmt 1 discriminator 2 view .LVU115
 241:Lib/ssc_app/src/el9800appl.c ****     {
 376              		.loc 1 241 97 is_stmt 0 discriminator 2 view .LVU116
 377 0032 08F10108 		add	r8, r8, #1
 378              	.LVL11:
 241:Lib/ssc_app/src/el9800appl.c ****     {
 379              		.loc 1 241 97 discriminator 2 view .LVU117
 380 0036 1FFA88F8 		uxth	r8, r8
ARM GAS  /tmp/ccnd8O4X.s 			page 12


 381              	.LVL12:
 382              	.L11:
 241:Lib/ssc_app/src/el9800appl.c ****     {
 383              		.loc 1 241 33 is_stmt 1 discriminator 1 view .LVU118
 241:Lib/ssc_app/src/el9800appl.c ****     {
 384              		.loc 1 241 65 is_stmt 0 discriminator 1 view .LVU119
 385 003a 2A4B     		ldr	r3, .L26
 386 003c 1B88     		ldrh	r3, [r3]
 241:Lib/ssc_app/src/el9800appl.c ****     {
 387              		.loc 1 241 5 discriminator 1 view .LVU120
 388 003e 4345     		cmp	r3, r8
 389 0040 0BD9     		bls	.L25
 243:Lib/ssc_app/src/el9800appl.c ****         if (pPDO != NULL)
 390              		.loc 1 243 9 is_stmt 1 view .LVU121
 243:Lib/ssc_app/src/el9800appl.c ****         if (pPDO != NULL)
 391              		.loc 1 243 16 is_stmt 0 view .LVU122
 392 0042 284B     		ldr	r3, .L26
 393 0044 03EB4803 		add	r3, r3, r8, lsl #1
 394 0048 5888     		ldrh	r0, [r3, #2]
 395 004a FFF7FEFF 		bl	OBJ_GetObjectHandle
 396              	.LVL13:
 244:Lib/ssc_app/src/el9800appl.c ****         {
 397              		.loc 1 244 9 is_stmt 1 view .LVU123
 244:Lib/ssc_app/src/el9800appl.c ****         {
 398              		.loc 1 244 12 is_stmt 0 view .LVU124
 399 004e 0546     		mov	r5, r0
 400 0050 C0B1     		cbz	r0, .L21
 246:Lib/ssc_app/src/el9800appl.c ****             for (PDOEntryCnt = 0; PDOEntryCnt < PDOSubindex0; PDOEntryCnt++)
 401              		.loc 1 246 13 is_stmt 1 view .LVU125
 246:Lib/ssc_app/src/el9800appl.c ****             for (PDOEntryCnt = 0; PDOEntryCnt < PDOSubindex0; PDOEntryCnt++)
 402              		.loc 1 246 44 is_stmt 0 view .LVU126
 403 0052 8369     		ldr	r3, [r0, #24]
 246:Lib/ssc_app/src/el9800appl.c ****             for (PDOEntryCnt = 0; PDOEntryCnt < PDOSubindex0; PDOEntryCnt++)
 404              		.loc 1 246 26 view .LVU127
 405 0054 1F88     		ldrh	r7, [r3]
 406              	.LVL14:
 247:Lib/ssc_app/src/el9800appl.c ****             {
 407              		.loc 1 247 13 is_stmt 1 view .LVU128
 247:Lib/ssc_app/src/el9800appl.c ****             {
 408              		.loc 1 247 30 is_stmt 0 view .LVU129
 409 0056 0024     		movs	r4, #0
 247:Lib/ssc_app/src/el9800appl.c ****             {
 410              		.loc 1 247 13 view .LVU130
 411 0058 E9E7     		b	.L13
 412              	.LVL15:
 413              	.L25:
 231:Lib/ssc_app/src/el9800appl.c ****     UINT16 PDOAssignEntryCnt = 0;
 414              		.loc 1 231 12 view .LVU131
 415 005a 4FF0000B 		mov	fp, #0
 416              	.LVL16:
 417              	.L12:
 254:Lib/ssc_app/src/el9800appl.c ****             }
 255:Lib/ssc_app/src/el9800appl.c ****         }
 256:Lib/ssc_app/src/el9800appl.c ****         else
 257:Lib/ssc_app/src/el9800appl.c ****         {
 258:Lib/ssc_app/src/el9800appl.c ****             /*assigned PDO was not found in object dictionary. return invalid mapping*/
 259:Lib/ssc_app/src/el9800appl.c ****             OutputSize = 0;
ARM GAS  /tmp/ccnd8O4X.s 			page 13


 260:Lib/ssc_app/src/el9800appl.c ****             result = ALSTATUSCODE_INVALIDOUTPUTMAPPING;
 261:Lib/ssc_app/src/el9800appl.c ****             break;
 262:Lib/ssc_app/src/el9800appl.c ****         }
 263:Lib/ssc_app/src/el9800appl.c ****     }
 264:Lib/ssc_app/src/el9800appl.c **** 
 265:Lib/ssc_app/src/el9800appl.c ****     OutputSize = (OutputSize + 7) >> 3;
 418              		.loc 1 265 5 is_stmt 1 view .LVU132
 419              		.loc 1 265 30 is_stmt 0 view .LVU133
 420 005e F31D     		adds	r3, r6, #7
 421              		.loc 1 265 16 view .LVU134
 422 0060 C3F3CF08 		ubfx	r8, r3, #3, #16
 423              	.LVL17:
 266:Lib/ssc_app/src/el9800appl.c **** 
 267:Lib/ssc_app/src/el9800appl.c ****     if (result == 0)
 424              		.loc 1 267 5 is_stmt 1 view .LVU135
 425              		.loc 1 267 8 is_stmt 0 view .LVU136
 426 0064 BBF1000F 		cmp	fp, #0
 427 0068 34D0     		beq	.L22
 237:Lib/ssc_app/src/el9800appl.c ****     UINT16 OutputSize = 0;
 428              		.loc 1 237 12 view .LVU137
 429 006a 0027     		movs	r7, #0
 430              	.LVL18:
 431              	.L17:
 268:Lib/ssc_app/src/el9800appl.c ****     {
 269:Lib/ssc_app/src/el9800appl.c ****         /*Scan Object 0x1C13 TXPDO assign*/
 270:Lib/ssc_app/src/el9800appl.c ****         for (PDOAssignEntryCnt = 0; PDOAssignEntryCnt < sTxPDOassign.u16SubIndex0; PDOAssignEntryCn
 271:Lib/ssc_app/src/el9800appl.c ****         {
 272:Lib/ssc_app/src/el9800appl.c ****             pPDO = OBJ_GetObjectHandle(sTxPDOassign.aEntries[PDOAssignEntryCnt]);
 273:Lib/ssc_app/src/el9800appl.c ****             if (pPDO != NULL)
 274:Lib/ssc_app/src/el9800appl.c ****             {
 275:Lib/ssc_app/src/el9800appl.c ****                 PDOSubindex0 = *((UINT16 *)pPDO->pVarPtr);
 276:Lib/ssc_app/src/el9800appl.c ****                 for (PDOEntryCnt = 0; PDOEntryCnt < PDOSubindex0; PDOEntryCnt++)
 277:Lib/ssc_app/src/el9800appl.c ****                 {
 278:Lib/ssc_app/src/el9800appl.c ****                     pPDOEntry = (UINT32 *)((UINT8 *)pPDO->pVarPtr + (OBJ_GetEntryOffset((PDOEntryCn
 279:Lib/ssc_app/src/el9800appl.c ****                     // we increment the expected output size depending on the mapped Entry
 280:Lib/ssc_app/src/el9800appl.c ****                     InputSize += (UINT16)((*pPDOEntry) & 0xFF);
 281:Lib/ssc_app/src/el9800appl.c ****                 }
 282:Lib/ssc_app/src/el9800appl.c ****             }
 283:Lib/ssc_app/src/el9800appl.c ****             else
 284:Lib/ssc_app/src/el9800appl.c ****             {
 285:Lib/ssc_app/src/el9800appl.c ****                 /*assigned PDO was not found in object dictionary. return invalid mapping*/
 286:Lib/ssc_app/src/el9800appl.c ****                 InputSize = 0;
 287:Lib/ssc_app/src/el9800appl.c ****                 result = ALSTATUSCODE_INVALIDINPUTMAPPING;
 288:Lib/ssc_app/src/el9800appl.c ****                 break;
 289:Lib/ssc_app/src/el9800appl.c ****             }
 290:Lib/ssc_app/src/el9800appl.c ****         }
 291:Lib/ssc_app/src/el9800appl.c ****     }
 292:Lib/ssc_app/src/el9800appl.c ****     InputSize = (InputSize + 7) >> 3;
 432              		.loc 1 292 5 is_stmt 1 view .LVU138
 433              		.loc 1 292 28 is_stmt 0 view .LVU139
 434 006c FB1D     		adds	r3, r7, #7
 435              		.loc 1 292 15 view .LVU140
 436 006e C3F3CF03 		ubfx	r3, r3, #3, #16
 437              	.LVL19:
 293:Lib/ssc_app/src/el9800appl.c **** 
 294:Lib/ssc_app/src/el9800appl.c ****     *pInputSize = InputSize;
 438              		.loc 1 294 5 is_stmt 1 view .LVU141
ARM GAS  /tmp/ccnd8O4X.s 			page 14


 439              		.loc 1 294 17 is_stmt 0 view .LVU142
 440 0072 009A     		ldr	r2, [sp]
 441 0074 1380     		strh	r3, [r2]	@ movhi
 295:Lib/ssc_app/src/el9800appl.c ****     *pOutputSize = OutputSize;
 442              		.loc 1 295 5 is_stmt 1 view .LVU143
 443              		.loc 1 295 18 is_stmt 0 view .LVU144
 444 0076 019B     		ldr	r3, [sp, #4]
 445              	.LVL20:
 446              		.loc 1 295 18 view .LVU145
 447 0078 A3F80080 		strh	r8, [r3]	@ movhi
 448              	.LVL21:
 296:Lib/ssc_app/src/el9800appl.c ****     return result;
 449              		.loc 1 296 5 is_stmt 1 view .LVU146
 297:Lib/ssc_app/src/el9800appl.c **** #else
 298:Lib/ssc_app/src/el9800appl.c ****     *pInputSize = 6;
 299:Lib/ssc_app/src/el9800appl.c ****     *pOutputSize = 2;
 300:Lib/ssc_app/src/el9800appl.c ****     return ALSTATUSCODE_NOERROR;
 301:Lib/ssc_app/src/el9800appl.c **** #endif
 302:Lib/ssc_app/src/el9800appl.c **** }
 450              		.loc 1 302 1 is_stmt 0 view .LVU147
 451 007c 5846     		mov	r0, fp
 452 007e 03B0     		add	sp, sp, #12
 453              		.cfi_remember_state
 454              		.cfi_def_cfa_offset 36
 455              	.LVL22:
 456              		.loc 1 302 1 view .LVU148
 457              		@ sp needed
 458 0080 BDE8F08F 		pop	{r4, r5, r6, r7, r8, r9, r10, fp, pc}
 459              	.LVL23:
 460              	.L21:
 461              		.cfi_restore_state
 259:Lib/ssc_app/src/el9800appl.c ****             result = ALSTATUSCODE_INVALIDOUTPUTMAPPING;
 462              		.loc 1 259 24 view .LVU149
 463 0084 0026     		movs	r6, #0
 464              	.LVL24:
 260:Lib/ssc_app/src/el9800appl.c ****             break;
 465              		.loc 1 260 20 view .LVU150
 466 0086 4FF0250B 		mov	fp, #37
 467 008a E8E7     		b	.L12
 468              	.LVL25:
 469              	.L19:
 278:Lib/ssc_app/src/el9800appl.c ****                     // we increment the expected output size depending on the mapped Entry
 470              		.loc 1 278 21 is_stmt 1 discriminator 3 view .LVU151
 278:Lib/ssc_app/src/el9800appl.c ****                     // we increment the expected output size depending on the mapped Entry
 471              		.loc 1 278 57 is_stmt 0 discriminator 3 view .LVU152
 472 008c B569     		ldr	r5, [r6, #24]
 278:Lib/ssc_app/src/el9800appl.c ****                     // we increment the expected output size depending on the mapped Entry
 473              		.loc 1 278 70 discriminator 3 view .LVU153
 474 008e 601C     		adds	r0, r4, #1
 475 0090 3146     		mov	r1, r6
 476 0092 C0B2     		uxtb	r0, r0
 477 0094 FFF7FEFF 		bl	OBJ_GetEntryOffset
 478              	.LVL26:
 278:Lib/ssc_app/src/el9800appl.c ****                     // we increment the expected output size depending on the mapped Entry
 479              		.loc 1 278 114 discriminator 3 view .LVU154
 480 0098 C0F3CF00 		ubfx	r0, r0, #3, #16
 481              	.LVL27:
ARM GAS  /tmp/ccnd8O4X.s 			page 15


 280:Lib/ssc_app/src/el9800appl.c ****                 }
 482              		.loc 1 280 21 is_stmt 1 discriminator 3 view .LVU155
 280:Lib/ssc_app/src/el9800appl.c ****                 }
 483              		.loc 1 280 34 is_stmt 0 discriminator 3 view .LVU156
 484 009c 2B5C     		ldrb	r3, [r5, r0]	@ zero_extendqisi2
 280:Lib/ssc_app/src/el9800appl.c ****                 }
 485              		.loc 1 280 31 discriminator 3 view .LVU157
 486 009e 1F44     		add	r7, r7, r3
 487              	.LVL28:
 280:Lib/ssc_app/src/el9800appl.c ****                 }
 488              		.loc 1 280 31 discriminator 3 view .LVU158
 489 00a0 BFB2     		uxth	r7, r7
 490              	.LVL29:
 276:Lib/ssc_app/src/el9800appl.c ****                 {
 491              		.loc 1 276 67 is_stmt 1 discriminator 3 view .LVU159
 276:Lib/ssc_app/src/el9800appl.c ****                 {
 492              		.loc 1 276 78 is_stmt 0 discriminator 3 view .LVU160
 493 00a2 0134     		adds	r4, r4, #1
 494              	.LVL30:
 276:Lib/ssc_app/src/el9800appl.c ****                 {
 495              		.loc 1 276 78 discriminator 3 view .LVU161
 496 00a4 A4B2     		uxth	r4, r4
 497              	.LVL31:
 498              	.L18:
 276:Lib/ssc_app/src/el9800appl.c ****                 {
 499              		.loc 1 276 39 is_stmt 1 discriminator 1 view .LVU162
 276:Lib/ssc_app/src/el9800appl.c ****                 {
 500              		.loc 1 276 17 is_stmt 0 discriminator 1 view .LVU163
 501 00a6 4C45     		cmp	r4, r9
 502 00a8 F0D3     		bcc	.L19
 270:Lib/ssc_app/src/el9800appl.c ****         {
 503              		.loc 1 270 84 is_stmt 1 discriminator 2 view .LVU164
 270:Lib/ssc_app/src/el9800appl.c ****         {
 504              		.loc 1 270 101 is_stmt 0 discriminator 2 view .LVU165
 505 00aa 0AF1010A 		add	r10, r10, #1
 506              	.LVL32:
 270:Lib/ssc_app/src/el9800appl.c ****         {
 507              		.loc 1 270 101 discriminator 2 view .LVU166
 508 00ae 1FFA8AFA 		uxth	r10, r10
 509              	.LVL33:
 510              	.L16:
 270:Lib/ssc_app/src/el9800appl.c ****         {
 511              		.loc 1 270 37 is_stmt 1 discriminator 1 view .LVU167
 270:Lib/ssc_app/src/el9800appl.c ****         {
 512              		.loc 1 270 69 is_stmt 0 discriminator 1 view .LVU168
 513 00b2 0D4B     		ldr	r3, .L26+4
 514 00b4 1B88     		ldrh	r3, [r3]
 270:Lib/ssc_app/src/el9800appl.c ****         {
 515              		.loc 1 270 9 discriminator 1 view .LVU169
 516 00b6 5345     		cmp	r3, r10
 517 00b8 D8D9     		bls	.L17
 272:Lib/ssc_app/src/el9800appl.c ****             if (pPDO != NULL)
 518              		.loc 1 272 13 is_stmt 1 view .LVU170
 272:Lib/ssc_app/src/el9800appl.c ****             if (pPDO != NULL)
 519              		.loc 1 272 20 is_stmt 0 view .LVU171
 520 00ba 0B4B     		ldr	r3, .L26+4
 521 00bc 03EB4A03 		add	r3, r3, r10, lsl #1
ARM GAS  /tmp/ccnd8O4X.s 			page 16


 522 00c0 5888     		ldrh	r0, [r3, #2]
 523 00c2 FFF7FEFF 		bl	OBJ_GetObjectHandle
 524              	.LVL34:
 273:Lib/ssc_app/src/el9800appl.c ****             {
 525              		.loc 1 273 13 is_stmt 1 view .LVU172
 273:Lib/ssc_app/src/el9800appl.c ****             {
 526              		.loc 1 273 16 is_stmt 0 view .LVU173
 527 00c6 0646     		mov	r6, r0
 528 00c8 38B1     		cbz	r0, .L23
 275:Lib/ssc_app/src/el9800appl.c ****                 for (PDOEntryCnt = 0; PDOEntryCnt < PDOSubindex0; PDOEntryCnt++)
 529              		.loc 1 275 17 is_stmt 1 view .LVU174
 275:Lib/ssc_app/src/el9800appl.c ****                 for (PDOEntryCnt = 0; PDOEntryCnt < PDOSubindex0; PDOEntryCnt++)
 530              		.loc 1 275 48 is_stmt 0 view .LVU175
 531 00ca 8369     		ldr	r3, [r0, #24]
 275:Lib/ssc_app/src/el9800appl.c ****                 for (PDOEntryCnt = 0; PDOEntryCnt < PDOSubindex0; PDOEntryCnt++)
 532              		.loc 1 275 30 view .LVU176
 533 00cc B3F80090 		ldrh	r9, [r3]
 534              	.LVL35:
 276:Lib/ssc_app/src/el9800appl.c ****                 {
 535              		.loc 1 276 17 is_stmt 1 view .LVU177
 276:Lib/ssc_app/src/el9800appl.c ****                 {
 536              		.loc 1 276 34 is_stmt 0 view .LVU178
 537 00d0 5C46     		mov	r4, fp
 276:Lib/ssc_app/src/el9800appl.c ****                 {
 538              		.loc 1 276 17 view .LVU179
 539 00d2 E8E7     		b	.L18
 540              	.LVL36:
 541              	.L22:
 237:Lib/ssc_app/src/el9800appl.c ****     UINT16 OutputSize = 0;
 542              		.loc 1 237 12 view .LVU180
 543 00d4 5F46     		mov	r7, fp
 270:Lib/ssc_app/src/el9800appl.c ****         {
 544              		.loc 1 270 32 view .LVU181
 545 00d6 DA46     		mov	r10, fp
 546 00d8 EBE7     		b	.L16
 547              	.LVL37:
 548              	.L23:
 286:Lib/ssc_app/src/el9800appl.c ****                 result = ALSTATUSCODE_INVALIDINPUTMAPPING;
 549              		.loc 1 286 27 view .LVU182
 550 00da 5F46     		mov	r7, fp
 551              	.LVL38:
 287:Lib/ssc_app/src/el9800appl.c ****                 break;
 552              		.loc 1 287 24 view .LVU183
 553 00dc 4FF0240B 		mov	fp, #36
 554              	.LVL39:
 287:Lib/ssc_app/src/el9800appl.c ****                 break;
 555              		.loc 1 287 24 view .LVU184
 556 00e0 C4E7     		b	.L17
 557              	.L27:
 558 00e2 00BF     		.align	2
 559              	.L26:
 560 00e4 00000000 		.word	.LANCHOR1
 561 00e8 00000000 		.word	.LANCHOR2
 562              		.cfi_endproc
 563              	.LFE130:
 565              		.section	.text.APPL_InputMapping,"ax",%progbits
 566              		.align	1
ARM GAS  /tmp/ccnd8O4X.s 			page 17


 567              		.global	APPL_InputMapping
 568              		.syntax unified
 569              		.thumb
 570              		.thumb_func
 572              	APPL_InputMapping:
 573              	.LVL40:
 574              	.LFB131:
 303:Lib/ssc_app/src/el9800appl.c **** 
 304:Lib/ssc_app/src/el9800appl.c **** /////////////////////////////////////////////////////////////////////////////////////////
 305:Lib/ssc_app/src/el9800appl.c **** /**
 306:Lib/ssc_app/src/el9800appl.c **** \param      pData  pointer to input process data
 307:Lib/ssc_app/src/el9800appl.c **** \brief      This function will copies the inputs from the local memory to the ESC memory
 308:Lib/ssc_app/src/el9800appl.c ****             to the hardware
 309:Lib/ssc_app/src/el9800appl.c **** */
 310:Lib/ssc_app/src/el9800appl.c **** ///////////////////////////////////////////////////////////////////////////////////////
 311:Lib/ssc_app/src/el9800appl.c **** #if _STM32_IO4 && AL_EVENT_ENABLED
 312:Lib/ssc_app/src/el9800appl.c **** /* the pragma interrupt_level is used to tell the compiler that these functions will not
 313:Lib/ssc_app/src/el9800appl.c ****    be called at the same time from the main function and the interrupt routine */
 314:Lib/ssc_app/src/el9800appl.c **** #pragma interrupt_level 1
 315:Lib/ssc_app/src/el9800appl.c **** #endif
 316:Lib/ssc_app/src/el9800appl.c **** void APPL_InputMapping(UINT16 *pData)
 317:Lib/ssc_app/src/el9800appl.c **** {
 575              		.loc 1 317 1 is_stmt 1 view -0
 576              		.cfi_startproc
 577              		@ args = 0, pretend = 0, frame = 0
 578              		@ frame_needed = 0, uses_anonymous_args = 0
 579              		@ link register save eliminated.
 318:Lib/ssc_app/src/el9800appl.c ****     UINT16 j = 0;
 580              		.loc 1 318 5 view .LVU186
 319:Lib/ssc_app/src/el9800appl.c ****     UINT16 *pTmpData = (UINT16 *)pData;
 581              		.loc 1 319 5 view .LVU187
 320:Lib/ssc_app/src/el9800appl.c **** 
 321:Lib/ssc_app/src/el9800appl.c ****     /* we go through all entries of the TxPDO Assign object to get the assigned TxPDOs */
 322:Lib/ssc_app/src/el9800appl.c ****     for (j = 0; j < sTxPDOassign.u16SubIndex0; j++)
 582              		.loc 1 322 5 view .LVU188
 583              		.loc 1 322 12 is_stmt 0 view .LVU189
 584 0000 0022     		movs	r2, #0
 585              		.loc 1 322 5 view .LVU190
 586 0002 05E0     		b	.L29
 587              	.LVL41:
 588              	.L30:
 323:Lib/ssc_app/src/el9800appl.c ****     {
 324:Lib/ssc_app/src/el9800appl.c ****         switch (sTxPDOassign.aEntries[j])
 325:Lib/ssc_app/src/el9800appl.c ****         {
 326:Lib/ssc_app/src/el9800appl.c ****         /* TxPDO 1 */
 327:Lib/ssc_app/src/el9800appl.c ****         case 0x1A00:
 328:Lib/ssc_app/src/el9800appl.c ****             *pTmpData++ = SWAPWORD(((UINT16 *)&sDIInputs)[1]);
 589              		.loc 1 328 13 is_stmt 1 view .LVU191
 590              		.loc 1 328 25 is_stmt 0 view .LVU192
 591 0004 284B     		ldr	r3, .L35
 592 0006 5B88     		ldrh	r3, [r3, #2]
 593 0008 20F8023B 		strh	r3, [r0], #2	@ movhi
 594              	.LVL42:
 329:Lib/ssc_app/src/el9800appl.c ****             break;
 595              		.loc 1 329 13 is_stmt 1 view .LVU193
 596              	.L32:
 322:Lib/ssc_app/src/el9800appl.c ****     {
ARM GAS  /tmp/ccnd8O4X.s 			page 18


 597              		.loc 1 322 48 discriminator 2 view .LVU194
 322:Lib/ssc_app/src/el9800appl.c ****     {
 598              		.loc 1 322 49 is_stmt 0 discriminator 2 view .LVU195
 599 000c 0132     		adds	r2, r2, #1
 600              	.LVL43:
 322:Lib/ssc_app/src/el9800appl.c ****     {
 601              		.loc 1 322 49 discriminator 2 view .LVU196
 602 000e 92B2     		uxth	r2, r2
 603              	.LVL44:
 604              	.L29:
 322:Lib/ssc_app/src/el9800appl.c ****     {
 605              		.loc 1 322 17 is_stmt 1 discriminator 1 view .LVU197
 322:Lib/ssc_app/src/el9800appl.c ****     {
 606              		.loc 1 322 33 is_stmt 0 discriminator 1 view .LVU198
 607 0010 264B     		ldr	r3, .L35+4
 608 0012 1B88     		ldrh	r3, [r3]
 322:Lib/ssc_app/src/el9800appl.c ****     {
 609              		.loc 1 322 5 discriminator 1 view .LVU199
 610 0014 9342     		cmp	r3, r2
 611 0016 45D9     		bls	.L34
 324:Lib/ssc_app/src/el9800appl.c ****         {
 612              		.loc 1 324 9 is_stmt 1 view .LVU200
 324:Lib/ssc_app/src/el9800appl.c ****         {
 613              		.loc 1 324 38 is_stmt 0 view .LVU201
 614 0018 244B     		ldr	r3, .L35+4
 615 001a 03EB4203 		add	r3, r3, r2, lsl #1
 616 001e 5B88     		ldrh	r3, [r3, #2]
 324:Lib/ssc_app/src/el9800appl.c ****         {
 617              		.loc 1 324 9 view .LVU202
 618 0020 B3F5D05F 		cmp	r3, #6656
 619 0024 EED0     		beq	.L30
 620 0026 41F60221 		movw	r1, #6658
 621 002a 8B42     		cmp	r3, r1
 622 002c EED1     		bne	.L32
 330:Lib/ssc_app/src/el9800appl.c ****         /* TxPDO 3 */
 331:Lib/ssc_app/src/el9800appl.c ****         case 0x1A02:
 332:Lib/ssc_app/src/el9800appl.c ****             *pTmpData++ = SWAPWORD(((UINT16 *)&sAIInputs)[1]);
 623              		.loc 1 332 13 is_stmt 1 view .LVU203
 624              	.LVL45:
 625              		.loc 1 332 25 is_stmt 0 view .LVU204
 626 002e 204B     		ldr	r3, .L35+8
 627 0030 5988     		ldrh	r1, [r3, #2]
 628 0032 0180     		strh	r1, [r0]	@ movhi
 333:Lib/ssc_app/src/el9800appl.c ****             *pTmpData++ = SWAPWORD(((UINT16 *)&sAIInputs)[2]);
 629              		.loc 1 333 13 is_stmt 1 view .LVU205
 630              	.LVL46:
 631              		.loc 1 333 25 is_stmt 0 view .LVU206
 632 0034 9988     		ldrh	r1, [r3, #4]
 633 0036 4180     		strh	r1, [r0, #2]	@ movhi
 334:Lib/ssc_app/src/el9800appl.c ****             *pTmpData++ = SWAPWORD(((UINT16 *)&sAIInputs)[3]);
 634              		.loc 1 334 13 is_stmt 1 view .LVU207
 635              	.LVL47:
 636              		.loc 1 334 25 is_stmt 0 view .LVU208
 637 0038 D988     		ldrh	r1, [r3, #6]
 638 003a 8180     		strh	r1, [r0, #4]	@ movhi
 335:Lib/ssc_app/src/el9800appl.c ****             *pTmpData++ = SWAPWORD(((UINT16 *)&sAIInputs)[4]);
 639              		.loc 1 335 13 is_stmt 1 view .LVU209
ARM GAS  /tmp/ccnd8O4X.s 			page 19


 640              	.LVL48:
 641              		.loc 1 335 25 is_stmt 0 view .LVU210
 642 003c 1989     		ldrh	r1, [r3, #8]
 643 003e C180     		strh	r1, [r0, #6]	@ movhi
 336:Lib/ssc_app/src/el9800appl.c ****             *pTmpData++ = SWAPWORD(((UINT16 *)&sAIInputs)[5]);
 644              		.loc 1 336 13 is_stmt 1 view .LVU211
 645              	.LVL49:
 646              		.loc 1 336 25 is_stmt 0 view .LVU212
 647 0040 5989     		ldrh	r1, [r3, #10]
 648 0042 0181     		strh	r1, [r0, #8]	@ movhi
 337:Lib/ssc_app/src/el9800appl.c ****             *pTmpData++ = SWAPWORD(((UINT16 *)&sAIInputs)[6]);
 649              		.loc 1 337 13 is_stmt 1 view .LVU213
 650              	.LVL50:
 651              		.loc 1 337 25 is_stmt 0 view .LVU214
 652 0044 9989     		ldrh	r1, [r3, #12]
 653 0046 4181     		strh	r1, [r0, #10]	@ movhi
 338:Lib/ssc_app/src/el9800appl.c ****             *pTmpData++ = SWAPWORD(((UINT16 *)&sAIInputs)[7]);
 654              		.loc 1 338 13 is_stmt 1 view .LVU215
 655              	.LVL51:
 656              		.loc 1 338 25 is_stmt 0 view .LVU216
 657 0048 D989     		ldrh	r1, [r3, #14]
 658 004a 8181     		strh	r1, [r0, #12]	@ movhi
 339:Lib/ssc_app/src/el9800appl.c ****             *pTmpData++ = SWAPWORD(((UINT16 *)&sAIInputs)[8]);
 659              		.loc 1 339 13 is_stmt 1 view .LVU217
 660              	.LVL52:
 661              		.loc 1 339 25 is_stmt 0 view .LVU218
 662 004c 198A     		ldrh	r1, [r3, #16]
 663 004e C181     		strh	r1, [r0, #14]	@ movhi
 340:Lib/ssc_app/src/el9800appl.c ****             *pTmpData++ = SWAPWORD(((UINT16 *)&sAIInputs)[9]);
 664              		.loc 1 340 13 is_stmt 1 view .LVU219
 665              	.LVL53:
 666              		.loc 1 340 25 is_stmt 0 view .LVU220
 667 0050 598A     		ldrh	r1, [r3, #18]
 668 0052 0182     		strh	r1, [r0, #16]	@ movhi
 341:Lib/ssc_app/src/el9800appl.c ****             *pTmpData++ = SWAPWORD(((UINT16 *)&sAIInputs)[10]);
 669              		.loc 1 341 13 is_stmt 1 view .LVU221
 670              	.LVL54:
 671              		.loc 1 341 25 is_stmt 0 view .LVU222
 672 0054 998A     		ldrh	r1, [r3, #20]
 673 0056 4182     		strh	r1, [r0, #18]	@ movhi
 342:Lib/ssc_app/src/el9800appl.c ****             *pTmpData++ = SWAPWORD(((UINT16 *)&sAIInputs)[11]);
 674              		.loc 1 342 13 is_stmt 1 view .LVU223
 675              	.LVL55:
 676              		.loc 1 342 25 is_stmt 0 view .LVU224
 677 0058 D98A     		ldrh	r1, [r3, #22]
 678 005a 8182     		strh	r1, [r0, #20]	@ movhi
 343:Lib/ssc_app/src/el9800appl.c ****             *pTmpData++ = SWAPWORD(((UINT16 *)&sAIInputs)[12]);
 679              		.loc 1 343 13 is_stmt 1 view .LVU225
 680              	.LVL56:
 681              		.loc 1 343 25 is_stmt 0 view .LVU226
 682 005c 198B     		ldrh	r1, [r3, #24]
 683 005e C182     		strh	r1, [r0, #22]	@ movhi
 344:Lib/ssc_app/src/el9800appl.c ****             *pTmpData++ = SWAPWORD(((UINT16 *)&sAIInputs)[13]);
 684              		.loc 1 344 13 is_stmt 1 view .LVU227
 685              	.LVL57:
 686              		.loc 1 344 25 is_stmt 0 view .LVU228
 687 0060 598B     		ldrh	r1, [r3, #26]
ARM GAS  /tmp/ccnd8O4X.s 			page 20


 688 0062 0183     		strh	r1, [r0, #24]	@ movhi
 345:Lib/ssc_app/src/el9800appl.c ****             *pTmpData++ = SWAPWORD(((UINT16 *)&sAIInputs)[14]);
 689              		.loc 1 345 13 is_stmt 1 view .LVU229
 690              	.LVL58:
 691              		.loc 1 345 25 is_stmt 0 view .LVU230
 692 0064 998B     		ldrh	r1, [r3, #28]
 693 0066 4183     		strh	r1, [r0, #26]	@ movhi
 346:Lib/ssc_app/src/el9800appl.c ****             *pTmpData++ = SWAPWORD(((UINT16 *)&sAIInputs)[15]);
 694              		.loc 1 346 13 is_stmt 1 view .LVU231
 695              	.LVL59:
 696              		.loc 1 346 25 is_stmt 0 view .LVU232
 697 0068 D98B     		ldrh	r1, [r3, #30]
 698 006a 8183     		strh	r1, [r0, #28]	@ movhi
 347:Lib/ssc_app/src/el9800appl.c ****             *pTmpData++ = SWAPWORD(((UINT16 *)&sAIInputs)[16]);
 699              		.loc 1 347 13 is_stmt 1 view .LVU233
 700              	.LVL60:
 701              		.loc 1 347 25 is_stmt 0 view .LVU234
 702 006c 198C     		ldrh	r1, [r3, #32]
 703 006e C183     		strh	r1, [r0, #30]	@ movhi
 348:Lib/ssc_app/src/el9800appl.c ****             *pTmpData++ = SWAPWORD(((UINT16 *)&sAIInputs)[17]);
 704              		.loc 1 348 13 is_stmt 1 view .LVU235
 705              	.LVL61:
 706              		.loc 1 348 25 is_stmt 0 view .LVU236
 707 0070 598C     		ldrh	r1, [r3, #34]
 708 0072 0184     		strh	r1, [r0, #32]	@ movhi
 349:Lib/ssc_app/src/el9800appl.c ****             *pTmpData++ = SWAPWORD(((UINT16 *)&sAIInputs)[18]);
 709              		.loc 1 349 13 is_stmt 1 view .LVU237
 710              	.LVL62:
 711              		.loc 1 349 25 is_stmt 0 view .LVU238
 712 0074 998C     		ldrh	r1, [r3, #36]
 713 0076 4184     		strh	r1, [r0, #34]	@ movhi
 350:Lib/ssc_app/src/el9800appl.c ****             *pTmpData++ = SWAPWORD(((UINT16 *)&sAIInputs)[19]);
 714              		.loc 1 350 13 is_stmt 1 view .LVU239
 715              	.LVL63:
 716              		.loc 1 350 25 is_stmt 0 view .LVU240
 717 0078 D98C     		ldrh	r1, [r3, #38]
 718 007a 8184     		strh	r1, [r0, #36]	@ movhi
 351:Lib/ssc_app/src/el9800appl.c ****             *pTmpData++ = SWAPWORD(((UINT16 *)&sAIInputs)[20]);
 719              		.loc 1 351 13 is_stmt 1 view .LVU241
 720              	.LVL64:
 721              		.loc 1 351 25 is_stmt 0 view .LVU242
 722 007c 198D     		ldrh	r1, [r3, #40]
 723 007e C184     		strh	r1, [r0, #38]	@ movhi
 352:Lib/ssc_app/src/el9800appl.c ****             *pTmpData++ = SWAPWORD(((UINT16 *)&sAIInputs)[21]);
 724              		.loc 1 352 13 is_stmt 1 view .LVU243
 725              	.LVL65:
 726              		.loc 1 352 25 is_stmt 0 view .LVU244
 727 0080 598D     		ldrh	r1, [r3, #42]
 728 0082 0185     		strh	r1, [r0, #40]	@ movhi
 353:Lib/ssc_app/src/el9800appl.c ****             *pTmpData++ = SWAPWORD(((UINT16 *)&sAIInputs)[22]);
 729              		.loc 1 353 13 is_stmt 1 view .LVU245
 730              	.LVL66:
 731              		.loc 1 353 25 is_stmt 0 view .LVU246
 732 0084 998D     		ldrh	r1, [r3, #44]
 733 0086 4185     		strh	r1, [r0, #42]	@ movhi
 354:Lib/ssc_app/src/el9800appl.c ****             *pTmpData++ = SWAPWORD(((UINT16 *)&sAIInputs)[23]);
 734              		.loc 1 354 13 is_stmt 1 view .LVU247
ARM GAS  /tmp/ccnd8O4X.s 			page 21


 735              	.LVL67:
 736              		.loc 1 354 25 is_stmt 0 view .LVU248
 737 0088 D98D     		ldrh	r1, [r3, #46]
 738 008a 8185     		strh	r1, [r0, #44]	@ movhi
 355:Lib/ssc_app/src/el9800appl.c ****             *pTmpData++ = SWAPWORD(((UINT16 *)&sAIInputs)[24]);
 739              		.loc 1 355 13 is_stmt 1 view .LVU249
 740              	.LVL68:
 741              		.loc 1 355 25 is_stmt 0 view .LVU250
 742 008c 198E     		ldrh	r1, [r3, #48]
 743 008e C185     		strh	r1, [r0, #46]	@ movhi
 356:Lib/ssc_app/src/el9800appl.c ****             *pTmpData++ = SWAPWORD(((UINT16 *)&sAIInputs)[25]);
 744              		.loc 1 356 13 is_stmt 1 view .LVU251
 745              	.LVL69:
 746              		.loc 1 356 25 is_stmt 0 view .LVU252
 747 0090 598E     		ldrh	r1, [r3, #50]
 748 0092 0186     		strh	r1, [r0, #48]	@ movhi
 357:Lib/ssc_app/src/el9800appl.c ****             *pTmpData++ = SWAPWORD(((UINT16 *)&sAIInputs)[26]);
 749              		.loc 1 357 13 is_stmt 1 view .LVU253
 750              	.LVL70:
 751              		.loc 1 357 25 is_stmt 0 view .LVU254
 752 0094 998E     		ldrh	r1, [r3, #52]
 753 0096 4186     		strh	r1, [r0, #50]	@ movhi
 358:Lib/ssc_app/src/el9800appl.c ****             *pTmpData++ = SWAPWORD(((UINT16 *)&sAIInputs)[27]);
 754              		.loc 1 358 13 is_stmt 1 view .LVU255
 755              	.LVL71:
 756              		.loc 1 358 25 is_stmt 0 view .LVU256
 757 0098 D98E     		ldrh	r1, [r3, #54]
 758 009a 8186     		strh	r1, [r0, #52]	@ movhi
 359:Lib/ssc_app/src/el9800appl.c ****             *pTmpData++ = SWAPWORD(((UINT16 *)&sAIInputs)[28]);
 759              		.loc 1 359 13 is_stmt 1 view .LVU257
 760              	.LVL72:
 761              		.loc 1 359 25 is_stmt 0 view .LVU258
 762 009c 1B8F     		ldrh	r3, [r3, #56]
 763 009e C386     		strh	r3, [r0, #54]	@ movhi
 360:Lib/ssc_app/src/el9800appl.c ****             break;
 764              		.loc 1 360 13 is_stmt 1 view .LVU259
 359:Lib/ssc_app/src/el9800appl.c ****             *pTmpData++ = SWAPWORD(((UINT16 *)&sAIInputs)[28]);
 765              		.loc 1 359 22 is_stmt 0 view .LVU260
 766 00a0 3830     		adds	r0, r0, #56
 767              	.LVL73:
 768              		.loc 1 360 13 view .LVU261
 769 00a2 B3E7     		b	.L32
 770              	.L34:
 361:Lib/ssc_app/src/el9800appl.c ****         }
 362:Lib/ssc_app/src/el9800appl.c ****     }
 363:Lib/ssc_app/src/el9800appl.c **** }
 771              		.loc 1 363 1 view .LVU262
 772 00a4 7047     		bx	lr
 773              	.L36:
 774 00a6 00BF     		.align	2
 775              	.L35:
 776 00a8 00000000 		.word	.LANCHOR3
 777 00ac 00000000 		.word	.LANCHOR2
 778 00b0 00000000 		.word	.LANCHOR4
 779              		.cfi_endproc
 780              	.LFE131:
 782              		.section	.text.APPL_OutputMapping,"ax",%progbits
ARM GAS  /tmp/ccnd8O4X.s 			page 22


 783              		.align	1
 784              		.global	APPL_OutputMapping
 785              		.syntax unified
 786              		.thumb
 787              		.thumb_func
 789              	APPL_OutputMapping:
 790              	.LVL74:
 791              	.LFB132:
 364:Lib/ssc_app/src/el9800appl.c **** 
 365:Lib/ssc_app/src/el9800appl.c **** /////////////////////////////////////////////////////////////////////////////////////////
 366:Lib/ssc_app/src/el9800appl.c **** /**
 367:Lib/ssc_app/src/el9800appl.c **** \param      pData  pointer to output process data
 368:Lib/ssc_app/src/el9800appl.c **** 
 369:Lib/ssc_app/src/el9800appl.c **** \brief    This function will copies the outputs from the ESC memory to the local memory
 370:Lib/ssc_app/src/el9800appl.c ****             to the hardware
 371:Lib/ssc_app/src/el9800appl.c **** */
 372:Lib/ssc_app/src/el9800appl.c **** ///////////////////////////////////////////////////////////////////////////////////////
 373:Lib/ssc_app/src/el9800appl.c **** #if _STM32_IO4 && AL_EVENT_ENABLED
 374:Lib/ssc_app/src/el9800appl.c **** /* the pragma interrupt_level is used to tell the compiler that these functions will not
 375:Lib/ssc_app/src/el9800appl.c ****    be called at the same time from the main function and the interrupt routine */
 376:Lib/ssc_app/src/el9800appl.c **** #pragma interrupt_level 1
 377:Lib/ssc_app/src/el9800appl.c **** #endif
 378:Lib/ssc_app/src/el9800appl.c **** void APPL_OutputMapping(UINT16 *pData)
 379:Lib/ssc_app/src/el9800appl.c **** {
 792              		.loc 1 379 1 is_stmt 1 view -0
 793              		.cfi_startproc
 794              		@ args = 0, pretend = 0, frame = 0
 795              		@ frame_needed = 0, uses_anonymous_args = 0
 796              		@ link register save eliminated.
 380:Lib/ssc_app/src/el9800appl.c ****     UINT16 j = 0;
 797              		.loc 1 380 5 view .LVU264
 381:Lib/ssc_app/src/el9800appl.c ****     UINT16 *pTmpData = (UINT16 *)pData;
 798              		.loc 1 381 5 view .LVU265
 382:Lib/ssc_app/src/el9800appl.c **** 
 383:Lib/ssc_app/src/el9800appl.c ****     /* we go through all entries of the RxPDO Assign object to get the assigned RxPDOs */
 384:Lib/ssc_app/src/el9800appl.c ****     for (j = 0; j < sRxPDOassign.u16SubIndex0; j++)
 799              		.loc 1 384 5 view .LVU266
 800              		.loc 1 384 12 is_stmt 0 view .LVU267
 801 0000 0023     		movs	r3, #0
 802              		.loc 1 384 5 view .LVU268
 803 0002 01E0     		b	.L38
 804              	.LVL75:
 805              	.L39:
 806              		.loc 1 384 48 is_stmt 1 discriminator 2 view .LVU269
 807              		.loc 1 384 49 is_stmt 0 discriminator 2 view .LVU270
 808 0004 0133     		adds	r3, r3, #1
 809              	.LVL76:
 810              		.loc 1 384 49 discriminator 2 view .LVU271
 811 0006 9BB2     		uxth	r3, r3
 812              	.LVL77:
 813              	.L38:
 814              		.loc 1 384 17 is_stmt 1 discriminator 1 view .LVU272
 815              		.loc 1 384 33 is_stmt 0 discriminator 1 view .LVU273
 816 0008 384A     		ldr	r2, .L42
 817 000a 1288     		ldrh	r2, [r2]
 818              		.loc 1 384 5 discriminator 1 view .LVU274
 819 000c 9A42     		cmp	r2, r3
ARM GAS  /tmp/ccnd8O4X.s 			page 23


 820 000e 6CD9     		bls	.L41
 385:Lib/ssc_app/src/el9800appl.c ****     {
 386:Lib/ssc_app/src/el9800appl.c ****         switch (sRxPDOassign.aEntries[j])
 821              		.loc 1 386 9 is_stmt 1 view .LVU275
 822              		.loc 1 386 38 is_stmt 0 view .LVU276
 823 0010 364A     		ldr	r2, .L42
 824 0012 02EB4302 		add	r2, r2, r3, lsl #1
 825 0016 5188     		ldrh	r1, [r2, #2]
 826              		.loc 1 386 9 view .LVU277
 827 0018 41F20162 		movw	r2, #5633
 828 001c 9142     		cmp	r1, r2
 829 001e F1D1     		bne	.L39
 387:Lib/ssc_app/src/el9800appl.c ****         {
 388:Lib/ssc_app/src/el9800appl.c ****         /* RxPDO 2 */
 389:Lib/ssc_app/src/el9800appl.c ****         case 0x1601:
 390:Lib/ssc_app/src/el9800appl.c ****             ((UINT16 *)&sDOOutputs)[1] = SWAPWORD(*pTmpData);
 830              		.loc 1 390 13 is_stmt 1 view .LVU278
 831              		.loc 1 390 42 is_stmt 0 view .LVU279
 832 0020 0188     		ldrh	r1, [r0]
 833              		.loc 1 390 40 view .LVU280
 834 0022 334A     		ldr	r2, .L42+4
 835 0024 5180     		strh	r1, [r2, #2]	@ movhi
 391:Lib/ssc_app/src/el9800appl.c ****             ((UINT16 *)&sDOOutputs)[2] = (SWAPWORD(*pTmpData) >> 8 & 0xFF) | (SWAPWORD(*(pTmpData +
 836              		.loc 1 391 13 is_stmt 1 view .LVU281
 837              		.loc 1 391 79 is_stmt 0 view .LVU282
 838 0026 B0F802C0 		ldrh	ip, [r0, #2]
 839              		.loc 1 391 76 view .LVU283
 840 002a 090A     		lsrs	r1, r1, #8
 841 002c 41EA0C21 		orr	r1, r1, ip, lsl #8
 842              		.loc 1 391 40 view .LVU284
 843 0030 9180     		strh	r1, [r2, #4]	@ movhi
 392:Lib/ssc_app/src/el9800appl.c ****             ((UINT16 *)&sDOOutputs)[3] = (SWAPWORD(*(pTmpData + 1)) >> 8 & 0xFF) | (SWAPWORD(*(pTmp
 844              		.loc 1 392 13 is_stmt 1 view .LVU285
 845              		.loc 1 392 43 is_stmt 0 view .LVU286
 846 0032 4188     		ldrh	r1, [r0, #2]
 847              		.loc 1 392 85 view .LVU287
 848 0034 B0F804C0 		ldrh	ip, [r0, #4]
 849              		.loc 1 392 82 view .LVU288
 850 0038 090A     		lsrs	r1, r1, #8
 851 003a 41EA0C21 		orr	r1, r1, ip, lsl #8
 852              		.loc 1 392 40 view .LVU289
 853 003e D180     		strh	r1, [r2, #6]	@ movhi
 393:Lib/ssc_app/src/el9800appl.c ****             ((UINT16 *)&sDOOutputs)[4] = (SWAPWORD(*(pTmpData + 2)) >> 8 & 0xFF) | (SWAPWORD(*(pTmp
 854              		.loc 1 393 13 is_stmt 1 view .LVU290
 855              		.loc 1 393 43 is_stmt 0 view .LVU291
 856 0040 8188     		ldrh	r1, [r0, #4]
 857              		.loc 1 393 85 view .LVU292
 858 0042 B0F806C0 		ldrh	ip, [r0, #6]
 859              		.loc 1 393 82 view .LVU293
 860 0046 090A     		lsrs	r1, r1, #8
 861 0048 41EA0C21 		orr	r1, r1, ip, lsl #8
 862              		.loc 1 393 40 view .LVU294
 863 004c 1181     		strh	r1, [r2, #8]	@ movhi
 394:Lib/ssc_app/src/el9800appl.c ****             ((UINT16 *)&sDOOutputs)[5] = (SWAPWORD(*(pTmpData + 3)) >> 8 & 0xFF) | (SWAPWORD(*(pTmp
 864              		.loc 1 394 13 is_stmt 1 view .LVU295
 865              		.loc 1 394 43 is_stmt 0 view .LVU296
 866 004e C188     		ldrh	r1, [r0, #6]
ARM GAS  /tmp/ccnd8O4X.s 			page 24


 867              		.loc 1 394 85 view .LVU297
 868 0050 B0F808C0 		ldrh	ip, [r0, #8]
 869              		.loc 1 394 82 view .LVU298
 870 0054 090A     		lsrs	r1, r1, #8
 871 0056 41EA0C21 		orr	r1, r1, ip, lsl #8
 872              		.loc 1 394 40 view .LVU299
 873 005a 5181     		strh	r1, [r2, #10]	@ movhi
 395:Lib/ssc_app/src/el9800appl.c ****             ((UINT16 *)&sDOOutputs)[6] = (SWAPWORD(*(pTmpData + 4)) >> 8 & 0xFF) | (SWAPWORD(*(pTmp
 874              		.loc 1 395 13 is_stmt 1 view .LVU300
 875              		.loc 1 395 43 is_stmt 0 view .LVU301
 876 005c 0189     		ldrh	r1, [r0, #8]
 877              		.loc 1 395 85 view .LVU302
 878 005e B0F80AC0 		ldrh	ip, [r0, #10]
 879              		.loc 1 395 82 view .LVU303
 880 0062 090A     		lsrs	r1, r1, #8
 881 0064 41EA0C21 		orr	r1, r1, ip, lsl #8
 882              		.loc 1 395 40 view .LVU304
 883 0068 9181     		strh	r1, [r2, #12]	@ movhi
 396:Lib/ssc_app/src/el9800appl.c ****             ((UINT16 *)&sDOOutputs)[7] = (SWAPWORD(*(pTmpData + 5)) >> 8 & 0xFF) | (SWAPWORD(*(pTmp
 884              		.loc 1 396 13 is_stmt 1 view .LVU305
 885              		.loc 1 396 43 is_stmt 0 view .LVU306
 886 006a 4189     		ldrh	r1, [r0, #10]
 887              		.loc 1 396 85 view .LVU307
 888 006c B0F80CC0 		ldrh	ip, [r0, #12]
 889              		.loc 1 396 82 view .LVU308
 890 0070 090A     		lsrs	r1, r1, #8
 891 0072 41EA0C21 		orr	r1, r1, ip, lsl #8
 892              		.loc 1 396 40 view .LVU309
 893 0076 D181     		strh	r1, [r2, #14]	@ movhi
 397:Lib/ssc_app/src/el9800appl.c ****             ((UINT16 *)&sDOOutputs)[8] = (SWAPWORD(*(pTmpData + 6)) >> 8 & 0xFF) | (SWAPWORD(*(pTmp
 894              		.loc 1 397 13 is_stmt 1 view .LVU310
 895              		.loc 1 397 43 is_stmt 0 view .LVU311
 896 0078 8189     		ldrh	r1, [r0, #12]
 897              		.loc 1 397 85 view .LVU312
 898 007a B0F80EC0 		ldrh	ip, [r0, #14]
 899              		.loc 1 397 82 view .LVU313
 900 007e 090A     		lsrs	r1, r1, #8
 901 0080 41EA0C21 		orr	r1, r1, ip, lsl #8
 902              		.loc 1 397 40 view .LVU314
 903 0084 1182     		strh	r1, [r2, #16]	@ movhi
 398:Lib/ssc_app/src/el9800appl.c ****             ((UINT16 *)&sDOOutputs)[9] = (SWAPWORD(*(pTmpData + 7)) >> 8 & 0xFF) | (SWAPWORD(*(pTmp
 904              		.loc 1 398 13 is_stmt 1 view .LVU315
 905              		.loc 1 398 43 is_stmt 0 view .LVU316
 906 0086 C189     		ldrh	r1, [r0, #14]
 907              		.loc 1 398 85 view .LVU317
 908 0088 B0F810C0 		ldrh	ip, [r0, #16]
 909              		.loc 1 398 82 view .LVU318
 910 008c 090A     		lsrs	r1, r1, #8
 911 008e 41EA0C21 		orr	r1, r1, ip, lsl #8
 912              		.loc 1 398 40 view .LVU319
 913 0092 5182     		strh	r1, [r2, #18]	@ movhi
 399:Lib/ssc_app/src/el9800appl.c ****             ((UINT16 *)&sDOOutputs)[10] = (SWAPWORD(*(pTmpData + 8)) >> 8 & 0xFF) | (SWAPWORD(*(pTm
 914              		.loc 1 399 13 is_stmt 1 view .LVU320
 915              		.loc 1 399 44 is_stmt 0 view .LVU321
 916 0094 018A     		ldrh	r1, [r0, #16]
 917              		.loc 1 399 86 view .LVU322
 918 0096 B0F812C0 		ldrh	ip, [r0, #18]
ARM GAS  /tmp/ccnd8O4X.s 			page 25


 919              		.loc 1 399 83 view .LVU323
 920 009a 090A     		lsrs	r1, r1, #8
 921 009c 41EA0C21 		orr	r1, r1, ip, lsl #8
 922              		.loc 1 399 41 view .LVU324
 923 00a0 9182     		strh	r1, [r2, #20]	@ movhi
 400:Lib/ssc_app/src/el9800appl.c ****             ((UINT16 *)&sDOOutputs)[11] = (SWAPWORD(*(pTmpData + 9)) >> 8 & 0xFF) | (SWAPWORD(*(pTm
 924              		.loc 1 400 13 is_stmt 1 view .LVU325
 925              		.loc 1 400 44 is_stmt 0 view .LVU326
 926 00a2 418A     		ldrh	r1, [r0, #18]
 927              		.loc 1 400 86 view .LVU327
 928 00a4 B0F814C0 		ldrh	ip, [r0, #20]
 929              		.loc 1 400 83 view .LVU328
 930 00a8 090A     		lsrs	r1, r1, #8
 931 00aa 41EA0C21 		orr	r1, r1, ip, lsl #8
 932              		.loc 1 400 41 view .LVU329
 933 00ae D182     		strh	r1, [r2, #22]	@ movhi
 401:Lib/ssc_app/src/el9800appl.c ****             ((UINT16 *)&sDOOutputs)[12] = (SWAPWORD(*(pTmpData + 10)) >> 8 & 0xFF) | (SWAPWORD(*(pT
 934              		.loc 1 401 13 is_stmt 1 view .LVU330
 935              		.loc 1 401 44 is_stmt 0 view .LVU331
 936 00b0 818A     		ldrh	r1, [r0, #20]
 937              		.loc 1 401 87 view .LVU332
 938 00b2 B0F816C0 		ldrh	ip, [r0, #22]
 939              		.loc 1 401 84 view .LVU333
 940 00b6 090A     		lsrs	r1, r1, #8
 941 00b8 41EA0C21 		orr	r1, r1, ip, lsl #8
 942              		.loc 1 401 41 view .LVU334
 943 00bc 1183     		strh	r1, [r2, #24]	@ movhi
 402:Lib/ssc_app/src/el9800appl.c ****             ((UINT16 *)&sDOOutputs)[13] = (SWAPWORD(*(pTmpData + 11)) >> 8 & 0xFF) | (SWAPWORD(*(pT
 944              		.loc 1 402 13 is_stmt 1 view .LVU335
 945              		.loc 1 402 44 is_stmt 0 view .LVU336
 946 00be C18A     		ldrh	r1, [r0, #22]
 947              		.loc 1 402 87 view .LVU337
 948 00c0 B0F818C0 		ldrh	ip, [r0, #24]
 949              		.loc 1 402 84 view .LVU338
 950 00c4 090A     		lsrs	r1, r1, #8
 951 00c6 41EA0C21 		orr	r1, r1, ip, lsl #8
 952              		.loc 1 402 41 view .LVU339
 953 00ca 5183     		strh	r1, [r2, #26]	@ movhi
 403:Lib/ssc_app/src/el9800appl.c ****             ((UINT16 *)&sDOOutputs)[14] = (SWAPWORD(*(pTmpData + 12)) >> 8 & 0xFF) | (SWAPWORD(*(pT
 954              		.loc 1 403 13 is_stmt 1 view .LVU340
 955              		.loc 1 403 44 is_stmt 0 view .LVU341
 956 00cc 018B     		ldrh	r1, [r0, #24]
 957              		.loc 1 403 87 view .LVU342
 958 00ce B0F81AC0 		ldrh	ip, [r0, #26]
 959              		.loc 1 403 84 view .LVU343
 960 00d2 090A     		lsrs	r1, r1, #8
 961 00d4 41EA0C21 		orr	r1, r1, ip, lsl #8
 962              		.loc 1 403 41 view .LVU344
 963 00d8 9183     		strh	r1, [r2, #28]	@ movhi
 404:Lib/ssc_app/src/el9800appl.c ****             ((UINT16 *)&sDOOutputs)[15] = (SWAPWORD(*(pTmpData + 13)) >> 8 & 0xFF) | (SWAPWORD(*(pT
 964              		.loc 1 404 13 is_stmt 1 view .LVU345
 965              		.loc 1 404 44 is_stmt 0 view .LVU346
 966 00da 418B     		ldrh	r1, [r0, #26]
 967              		.loc 1 404 87 view .LVU347
 968 00dc B0F81CC0 		ldrh	ip, [r0, #28]
 969              		.loc 1 404 84 view .LVU348
 970 00e0 090A     		lsrs	r1, r1, #8
ARM GAS  /tmp/ccnd8O4X.s 			page 26


 971 00e2 41EA0C21 		orr	r1, r1, ip, lsl #8
 972              		.loc 1 404 41 view .LVU349
 973 00e6 D183     		strh	r1, [r2, #30]	@ movhi
 405:Lib/ssc_app/src/el9800appl.c ****             break;
 974              		.loc 1 405 13 is_stmt 1 view .LVU350
 975 00e8 8CE7     		b	.L39
 976              	.L41:
 406:Lib/ssc_app/src/el9800appl.c ****         }
 407:Lib/ssc_app/src/el9800appl.c ****     }
 408:Lib/ssc_app/src/el9800appl.c **** }
 977              		.loc 1 408 1 is_stmt 0 view .LVU351
 978 00ea 7047     		bx	lr
 979              	.L43:
 980              		.align	2
 981              	.L42:
 982 00ec 00000000 		.word	.LANCHOR1
 983 00f0 00000000 		.word	.LANCHOR0
 984              		.cfi_endproc
 985              	.LFE132:
 987              		.section	.text.APPL_Application,"ax",%progbits
 988              		.align	1
 989              		.global	APPL_Application
 990              		.syntax unified
 991              		.thumb
 992              		.thumb_func
 994              	APPL_Application:
 995              	.LFB133:
 409:Lib/ssc_app/src/el9800appl.c **** 
 410:Lib/ssc_app/src/el9800appl.c **** /////////////////////////////////////////////////////////////////////////////////////////
 411:Lib/ssc_app/src/el9800appl.c **** /**
 412:Lib/ssc_app/src/el9800appl.c **** \brief    This function will called from the synchronisation ISR
 413:Lib/ssc_app/src/el9800appl.c ****             or from the mainloop if no synchronisation is supported
 414:Lib/ssc_app/src/el9800appl.c **** */
 415:Lib/ssc_app/src/el9800appl.c **** ///////////////////////////////////////////////////////////////////////////////////////
 416:Lib/ssc_app/src/el9800appl.c **** 
 417:Lib/ssc_app/src/el9800appl.c **** void APPL_Application(void)
 418:Lib/ssc_app/src/el9800appl.c **** {
 996              		.loc 1 418 1 is_stmt 1 view -0
 997              		.cfi_startproc
 998              		@ args = 0, pretend = 0, frame = 0
 999              		@ frame_needed = 0, uses_anonymous_args = 0
 1000 0000 10B5     		push	{r4, lr}
 1001              		.cfi_def_cfa_offset 8
 1002              		.cfi_offset 4, -8
 1003              		.cfi_offset 14, -4
 419:Lib/ssc_app/src/el9800appl.c ****     //if (sDOOutputs.bLED1 != 0)
 420:Lib/ssc_app/src/el9800appl.c ****     //{
 421:Lib/ssc_app/src/el9800appl.c ****     //    GPIO_SetBits(GPIOB, GPIO_Pin_15);
 422:Lib/ssc_app/src/el9800appl.c ****     //}
 423:Lib/ssc_app/src/el9800appl.c ****     //else
 424:Lib/ssc_app/src/el9800appl.c ****     //{
 425:Lib/ssc_app/src/el9800appl.c ****     //    GPIO_ResetBits(GPIOB, GPIO_Pin_15);
 426:Lib/ssc_app/src/el9800appl.c ****     //}
 427:Lib/ssc_app/src/el9800appl.c **** 
 428:Lib/ssc_app/src/el9800appl.c ****     //if (sDOOutputs.bLED2 != 0)
 429:Lib/ssc_app/src/el9800appl.c ****     //{
 430:Lib/ssc_app/src/el9800appl.c ****     //    GPIO_SetBits(GPIOB, GPIO_Pin_14);
ARM GAS  /tmp/ccnd8O4X.s 			page 27


 431:Lib/ssc_app/src/el9800appl.c ****     //}
 432:Lib/ssc_app/src/el9800appl.c ****     //else
 433:Lib/ssc_app/src/el9800appl.c ****     //{
 434:Lib/ssc_app/src/el9800appl.c ****     //    GPIO_ResetBits(GPIOB, GPIO_Pin_14);
 435:Lib/ssc_app/src/el9800appl.c ****     //}
 436:Lib/ssc_app/src/el9800appl.c **** //
 437:Lib/ssc_app/src/el9800appl.c ****     //if (sDOOutputs.bLED3 != 0)
 438:Lib/ssc_app/src/el9800appl.c ****     //{
 439:Lib/ssc_app/src/el9800appl.c ****     //    GPIO_SetBits(GPIOB, GPIO_Pin_13);
 440:Lib/ssc_app/src/el9800appl.c ****     //}
 441:Lib/ssc_app/src/el9800appl.c ****     //else
 442:Lib/ssc_app/src/el9800appl.c ****     //{
 443:Lib/ssc_app/src/el9800appl.c ****     //    GPIO_ResetBits(GPIOB, GPIO_Pin_13);
 444:Lib/ssc_app/src/el9800appl.c ****     //}
 445:Lib/ssc_app/src/el9800appl.c **** 
 446:Lib/ssc_app/src/el9800appl.c ****     Can1_TxMessage.StdId = sDOOutputs.can1_h0;
 1004              		.loc 1 446 5 view .LVU353
 1005              		.loc 1 446 38 is_stmt 0 view .LVU354
 1006 0002 5A4C     		ldr	r4, .L48
 1007 0004 A388     		ldrh	r3, [r4, #4]
 1008              		.loc 1 446 26 view .LVU355
 1009 0006 5A49     		ldr	r1, .L48+4
 1010 0008 0B60     		str	r3, [r1]
 447:Lib/ssc_app/src/el9800appl.c ****     Can1_TxMessage.ExtId = sDOOutputs.can1_h1;
 1011              		.loc 1 447 5 is_stmt 1 view .LVU356
 1012              		.loc 1 447 38 is_stmt 0 view .LVU357
 1013 000a A379     		ldrb	r3, [r4, #6]	@ zero_extendqisi2
 1014              		.loc 1 447 26 view .LVU358
 1015 000c 4B60     		str	r3, [r1, #4]
 448:Lib/ssc_app/src/el9800appl.c ****     Can1_TxMessage.IDE = sDOOutputs.can1_h2;
 1016              		.loc 1 448 5 is_stmt 1 view .LVU359
 1017              		.loc 1 448 36 is_stmt 0 view .LVU360
 1018 000e E379     		ldrb	r3, [r4, #7]	@ zero_extendqisi2
 1019              		.loc 1 448 24 view .LVU361
 1020 0010 0B72     		strb	r3, [r1, #8]
 449:Lib/ssc_app/src/el9800appl.c ****     Can1_TxMessage.RTR = sDOOutputs.can1_h3;
 1021              		.loc 1 449 5 is_stmt 1 view .LVU362
 1022              		.loc 1 449 36 is_stmt 0 view .LVU363
 1023 0012 237A     		ldrb	r3, [r4, #8]	@ zero_extendqisi2
 1024              		.loc 1 449 24 view .LVU364
 1025 0014 4B72     		strb	r3, [r1, #9]
 450:Lib/ssc_app/src/el9800appl.c ****     Can1_TxMessage.DLC = sDOOutputs.can1_h4;
 1026              		.loc 1 450 5 is_stmt 1 view .LVU365
 1027              		.loc 1 450 36 is_stmt 0 view .LVU366
 1028 0016 637A     		ldrb	r3, [r4, #9]	@ zero_extendqisi2
 1029              		.loc 1 450 24 view .LVU367
 1030 0018 8B72     		strb	r3, [r1, #10]
 451:Lib/ssc_app/src/el9800appl.c **** 
 452:Lib/ssc_app/src/el9800appl.c ****     Can1_TxMessage.Data[0] = sDOOutputs.can1_d0;
 1031              		.loc 1 452 5 is_stmt 1 view .LVU368
 1032              		.loc 1 452 40 is_stmt 0 view .LVU369
 1033 001a A37A     		ldrb	r3, [r4, #10]	@ zero_extendqisi2
 1034              		.loc 1 452 28 view .LVU370
 1035 001c CB72     		strb	r3, [r1, #11]
 453:Lib/ssc_app/src/el9800appl.c ****     Can1_TxMessage.Data[1] = sDOOutputs.can1_d1;
 1036              		.loc 1 453 5 is_stmt 1 view .LVU371
 1037              		.loc 1 453 40 is_stmt 0 view .LVU372
ARM GAS  /tmp/ccnd8O4X.s 			page 28


 1038 001e E37A     		ldrb	r3, [r4, #11]	@ zero_extendqisi2
 1039              		.loc 1 453 28 view .LVU373
 1040 0020 0B73     		strb	r3, [r1, #12]
 454:Lib/ssc_app/src/el9800appl.c ****     Can1_TxMessage.Data[2] = sDOOutputs.can1_d2;
 1041              		.loc 1 454 5 is_stmt 1 view .LVU374
 1042              		.loc 1 454 40 is_stmt 0 view .LVU375
 1043 0022 237B     		ldrb	r3, [r4, #12]	@ zero_extendqisi2
 1044              		.loc 1 454 28 view .LVU376
 1045 0024 4B73     		strb	r3, [r1, #13]
 455:Lib/ssc_app/src/el9800appl.c ****     Can1_TxMessage.Data[3] = sDOOutputs.can1_d3;
 1046              		.loc 1 455 5 is_stmt 1 view .LVU377
 1047              		.loc 1 455 40 is_stmt 0 view .LVU378
 1048 0026 637B     		ldrb	r3, [r4, #13]	@ zero_extendqisi2
 1049              		.loc 1 455 28 view .LVU379
 1050 0028 8B73     		strb	r3, [r1, #14]
 456:Lib/ssc_app/src/el9800appl.c ****     Can1_TxMessage.Data[4] = sDOOutputs.can1_d4;
 1051              		.loc 1 456 5 is_stmt 1 view .LVU380
 1052              		.loc 1 456 40 is_stmt 0 view .LVU381
 1053 002a A37B     		ldrb	r3, [r4, #14]	@ zero_extendqisi2
 1054              		.loc 1 456 28 view .LVU382
 1055 002c CB73     		strb	r3, [r1, #15]
 457:Lib/ssc_app/src/el9800appl.c ****     Can1_TxMessage.Data[5] = sDOOutputs.can1_d5;
 1056              		.loc 1 457 5 is_stmt 1 view .LVU383
 1057              		.loc 1 457 40 is_stmt 0 view .LVU384
 1058 002e E37B     		ldrb	r3, [r4, #15]	@ zero_extendqisi2
 1059              		.loc 1 457 28 view .LVU385
 1060 0030 0B74     		strb	r3, [r1, #16]
 458:Lib/ssc_app/src/el9800appl.c ****     Can1_TxMessage.Data[6] = sDOOutputs.can1_d6;
 1061              		.loc 1 458 5 is_stmt 1 view .LVU386
 1062              		.loc 1 458 40 is_stmt 0 view .LVU387
 1063 0032 237C     		ldrb	r3, [r4, #16]	@ zero_extendqisi2
 1064              		.loc 1 458 28 view .LVU388
 1065 0034 4B74     		strb	r3, [r1, #17]
 459:Lib/ssc_app/src/el9800appl.c ****     Can1_TxMessage.Data[7] = sDOOutputs.can1_d7;
 1066              		.loc 1 459 5 is_stmt 1 view .LVU389
 1067              		.loc 1 459 40 is_stmt 0 view .LVU390
 1068 0036 637C     		ldrb	r3, [r4, #17]	@ zero_extendqisi2
 1069              		.loc 1 459 28 view .LVU391
 1070 0038 8B74     		strb	r3, [r1, #18]
 460:Lib/ssc_app/src/el9800appl.c **** 
 461:Lib/ssc_app/src/el9800appl.c ****     CAN_Transmit(CAN1, &Can1_TxMessage);
 1071              		.loc 1 461 5 is_stmt 1 view .LVU392
 1072 003a 4E48     		ldr	r0, .L48+8
 1073 003c FFF7FEFF 		bl	CAN_Transmit
 1074              	.LVL78:
 462:Lib/ssc_app/src/el9800appl.c **** 
 463:Lib/ssc_app/src/el9800appl.c ****     Can2_TxMessage.StdId = sDOOutputs.can2_h0;
 1075              		.loc 1 463 5 view .LVU393
 1076              		.loc 1 463 38 is_stmt 0 view .LVU394
 1077 0040 638A     		ldrh	r3, [r4, #18]
 1078              		.loc 1 463 26 view .LVU395
 1079 0042 4D49     		ldr	r1, .L48+12
 1080 0044 0B60     		str	r3, [r1]
 464:Lib/ssc_app/src/el9800appl.c ****     Can2_TxMessage.ExtId = sDOOutputs.can2_h1;
 1081              		.loc 1 464 5 is_stmt 1 view .LVU396
 1082              		.loc 1 464 38 is_stmt 0 view .LVU397
 1083 0046 237D     		ldrb	r3, [r4, #20]	@ zero_extendqisi2
ARM GAS  /tmp/ccnd8O4X.s 			page 29


 1084              		.loc 1 464 26 view .LVU398
 1085 0048 4B60     		str	r3, [r1, #4]
 465:Lib/ssc_app/src/el9800appl.c ****     Can2_TxMessage.IDE = sDOOutputs.can2_h2;
 1086              		.loc 1 465 5 is_stmt 1 view .LVU399
 1087              		.loc 1 465 36 is_stmt 0 view .LVU400
 1088 004a 637D     		ldrb	r3, [r4, #21]	@ zero_extendqisi2
 1089              		.loc 1 465 24 view .LVU401
 1090 004c 0B72     		strb	r3, [r1, #8]
 466:Lib/ssc_app/src/el9800appl.c ****     Can2_TxMessage.RTR = sDOOutputs.can2_h3;
 1091              		.loc 1 466 5 is_stmt 1 view .LVU402
 1092              		.loc 1 466 36 is_stmt 0 view .LVU403
 1093 004e A37D     		ldrb	r3, [r4, #22]	@ zero_extendqisi2
 1094              		.loc 1 466 24 view .LVU404
 1095 0050 4B72     		strb	r3, [r1, #9]
 467:Lib/ssc_app/src/el9800appl.c ****     Can2_TxMessage.DLC = sDOOutputs.can2_h4;
 1096              		.loc 1 467 5 is_stmt 1 view .LVU405
 1097              		.loc 1 467 36 is_stmt 0 view .LVU406
 1098 0052 E37D     		ldrb	r3, [r4, #23]	@ zero_extendqisi2
 1099              		.loc 1 467 24 view .LVU407
 1100 0054 8B72     		strb	r3, [r1, #10]
 468:Lib/ssc_app/src/el9800appl.c **** 
 469:Lib/ssc_app/src/el9800appl.c ****     Can2_TxMessage.Data[0] = sDOOutputs.can2_d0;
 1101              		.loc 1 469 5 is_stmt 1 view .LVU408
 1102              		.loc 1 469 40 is_stmt 0 view .LVU409
 1103 0056 237E     		ldrb	r3, [r4, #24]	@ zero_extendqisi2
 1104              		.loc 1 469 28 view .LVU410
 1105 0058 CB72     		strb	r3, [r1, #11]
 470:Lib/ssc_app/src/el9800appl.c ****     Can2_TxMessage.Data[1] = sDOOutputs.can2_d1;
 1106              		.loc 1 470 5 is_stmt 1 view .LVU411
 1107              		.loc 1 470 40 is_stmt 0 view .LVU412
 1108 005a 637E     		ldrb	r3, [r4, #25]	@ zero_extendqisi2
 1109              		.loc 1 470 28 view .LVU413
 1110 005c 0B73     		strb	r3, [r1, #12]
 471:Lib/ssc_app/src/el9800appl.c ****     Can2_TxMessage.Data[2] = sDOOutputs.can2_d2;
 1111              		.loc 1 471 5 is_stmt 1 view .LVU414
 1112              		.loc 1 471 40 is_stmt 0 view .LVU415
 1113 005e A37E     		ldrb	r3, [r4, #26]	@ zero_extendqisi2
 1114              		.loc 1 471 28 view .LVU416
 1115 0060 4B73     		strb	r3, [r1, #13]
 472:Lib/ssc_app/src/el9800appl.c ****     Can2_TxMessage.Data[3] = sDOOutputs.can2_d3;
 1116              		.loc 1 472 5 is_stmt 1 view .LVU417
 1117              		.loc 1 472 40 is_stmt 0 view .LVU418
 1118 0062 E37E     		ldrb	r3, [r4, #27]	@ zero_extendqisi2
 1119              		.loc 1 472 28 view .LVU419
 1120 0064 8B73     		strb	r3, [r1, #14]
 473:Lib/ssc_app/src/el9800appl.c ****     Can2_TxMessage.Data[4] = sDOOutputs.can2_d4;
 1121              		.loc 1 473 5 is_stmt 1 view .LVU420
 1122              		.loc 1 473 40 is_stmt 0 view .LVU421
 1123 0066 237F     		ldrb	r3, [r4, #28]	@ zero_extendqisi2
 1124              		.loc 1 473 28 view .LVU422
 1125 0068 CB73     		strb	r3, [r1, #15]
 474:Lib/ssc_app/src/el9800appl.c ****     Can2_TxMessage.Data[5] = sDOOutputs.can2_d5;
 1126              		.loc 1 474 5 is_stmt 1 view .LVU423
 1127              		.loc 1 474 40 is_stmt 0 view .LVU424
 1128 006a 637F     		ldrb	r3, [r4, #29]	@ zero_extendqisi2
 1129              		.loc 1 474 28 view .LVU425
 1130 006c 0B74     		strb	r3, [r1, #16]
ARM GAS  /tmp/ccnd8O4X.s 			page 30


 475:Lib/ssc_app/src/el9800appl.c ****     Can2_TxMessage.Data[6] = sDOOutputs.can2_d6;
 1131              		.loc 1 475 5 is_stmt 1 view .LVU426
 1132              		.loc 1 475 40 is_stmt 0 view .LVU427
 1133 006e A37F     		ldrb	r3, [r4, #30]	@ zero_extendqisi2
 1134              		.loc 1 475 28 view .LVU428
 1135 0070 4B74     		strb	r3, [r1, #17]
 476:Lib/ssc_app/src/el9800appl.c ****     Can2_TxMessage.Data[7] = sDOOutputs.can2_d7;
 1136              		.loc 1 476 5 is_stmt 1 view .LVU429
 1137              		.loc 1 476 40 is_stmt 0 view .LVU430
 1138 0072 E37F     		ldrb	r3, [r4, #31]	@ zero_extendqisi2
 1139              		.loc 1 476 28 view .LVU431
 1140 0074 8B74     		strb	r3, [r1, #18]
 477:Lib/ssc_app/src/el9800appl.c **** 
 478:Lib/ssc_app/src/el9800appl.c ****     CAN_Transmit(CAN2, &Can2_TxMessage);
 1141              		.loc 1 478 5 is_stmt 1 view .LVU432
 1142 0076 4148     		ldr	r0, .L48+16
 1143 0078 FFF7FEFF 		bl	CAN_Transmit
 1144              	.LVL79:
 479:Lib/ssc_app/src/el9800appl.c **** 
 480:Lib/ssc_app/src/el9800appl.c ****     sDIInputs.bSwitch1 = 0;
 1145              		.loc 1 480 5 view .LVU433
 1146              		.loc 1 480 24 is_stmt 0 view .LVU434
 1147 007c 404C     		ldr	r4, .L48+20
 1148 007e A378     		ldrb	r3, [r4, #2]	@ zero_extendqisi2
 1149 0080 6FF30003 		bfc	r3, #0, #1
 1150 0084 A370     		strb	r3, [r4, #2]
 481:Lib/ssc_app/src/el9800appl.c ****     sDIInputs.bSwitch2 = 0;
 1151              		.loc 1 481 5 is_stmt 1 view .LVU435
 1152              		.loc 1 481 24 is_stmt 0 view .LVU436
 1153 0086 DBB2     		uxtb	r3, r3
 1154 0088 6FF34103 		bfc	r3, #1, #1
 1155 008c A370     		strb	r3, [r4, #2]
 482:Lib/ssc_app/src/el9800appl.c ****     sDIInputs.bSwitch3 = 0;
 1156              		.loc 1 482 5 is_stmt 1 view .LVU437
 1157              		.loc 1 482 24 is_stmt 0 view .LVU438
 1158 008e DBB2     		uxtb	r3, r3
 1159 0090 6FF38203 		bfc	r3, #2, #1
 1160 0094 A370     		strb	r3, [r4, #2]
 483:Lib/ssc_app/src/el9800appl.c ****     sDIInputs.bSwitch4 = 0;
 1161              		.loc 1 483 5 is_stmt 1 view .LVU439
 1162              		.loc 1 483 24 is_stmt 0 view .LVU440
 1163 0096 DBB2     		uxtb	r3, r3
 1164 0098 6FF3C303 		bfc	r3, #3, #1
 1165 009c A370     		strb	r3, [r4, #2]
 484:Lib/ssc_app/src/el9800appl.c ****     sDIInputs.bSwitch5 = 0;
 1166              		.loc 1 484 5 is_stmt 1 view .LVU441
 1167              		.loc 1 484 24 is_stmt 0 view .LVU442
 1168 009e DBB2     		uxtb	r3, r3
 1169 00a0 6FF30413 		bfc	r3, #4, #1
 1170 00a4 A370     		strb	r3, [r4, #2]
 485:Lib/ssc_app/src/el9800appl.c ****     sDIInputs.bSwitch6 = 0;
 1171              		.loc 1 485 5 is_stmt 1 view .LVU443
 1172              		.loc 1 485 24 is_stmt 0 view .LVU444
 1173 00a6 DBB2     		uxtb	r3, r3
 1174 00a8 6FF34513 		bfc	r3, #5, #1
 1175 00ac A370     		strb	r3, [r4, #2]
 486:Lib/ssc_app/src/el9800appl.c ****     sDIInputs.bSwitch7 = 0;
ARM GAS  /tmp/ccnd8O4X.s 			page 31


 1176              		.loc 1 486 5 is_stmt 1 view .LVU445
 1177              		.loc 1 486 24 is_stmt 0 view .LVU446
 1178 00ae DBB2     		uxtb	r3, r3
 1179 00b0 6FF38613 		bfc	r3, #6, #1
 1180 00b4 A370     		strb	r3, [r4, #2]
 487:Lib/ssc_app/src/el9800appl.c ****     sDIInputs.bSwitch8 = 0; 
 1181              		.loc 1 487 5 is_stmt 1 view .LVU447
 1182              		.loc 1 487 24 is_stmt 0 view .LVU448
 1183 00b6 DBB2     		uxtb	r3, r3
 1184 00b8 6FF3C713 		bfc	r3, #7, #1
 1185 00bc A370     		strb	r3, [r4, #2]
 488:Lib/ssc_app/src/el9800appl.c ****     //spi
 489:Lib/ssc_app/src/el9800appl.c ****     uint8_t dummy = spi2_wr_cmd(0x01);
 1186              		.loc 1 489 5 is_stmt 1 view .LVU449
 1187              		.loc 1 489 21 is_stmt 0 view .LVU450
 1188 00be 0120     		movs	r0, #1
 1189 00c0 FFF7FEFF 		bl	spi2_wr_cmd
 1190              	.LVL80:
 490:Lib/ssc_app/src/el9800appl.c **** 
 491:Lib/ssc_app/src/el9800appl.c ****     /* start the conversion of the A/D converter */
 492:Lib/ssc_app/src/el9800appl.c ****     //		while(!(ADC_GetFlagStatus(ADC1, ADC_FLAG_EOC)==SET));
 493:Lib/ssc_app/src/el9800appl.c **** 
 494:Lib/ssc_app/src/el9800appl.c ****     sAIInputs.i16Analoginput = 0;
 1191              		.loc 1 494 5 is_stmt 1 view .LVU451
 1192              		.loc 1 494 30 is_stmt 0 view .LVU452
 1193 00c4 2F4B     		ldr	r3, .L48+24
 1194 00c6 0022     		movs	r2, #0
 1195 00c8 9A80     		strh	r2, [r3, #4]	@ movhi
 495:Lib/ssc_app/src/el9800appl.c **** 
 496:Lib/ssc_app/src/el9800appl.c ****     sAIInputs.can1_h0 = Can1_RxMessage.StdId;
 1196              		.loc 1 496 5 is_stmt 1 view .LVU453
 1197              		.loc 1 496 39 is_stmt 0 view .LVU454
 1198 00ca 2F4A     		ldr	r2, .L48+28
 1199 00cc 1168     		ldr	r1, [r2]
 1200              		.loc 1 496 23 view .LVU455
 1201 00ce D980     		strh	r1, [r3, #6]	@ movhi
 497:Lib/ssc_app/src/el9800appl.c ****     sAIInputs.can1_h1 = Can1_RxMessage.ExtId;
 1202              		.loc 1 497 5 is_stmt 1 view .LVU456
 1203              		.loc 1 497 39 is_stmt 0 view .LVU457
 1204 00d0 5168     		ldr	r1, [r2, #4]
 1205              		.loc 1 497 23 view .LVU458
 1206 00d2 1972     		strb	r1, [r3, #8]
 498:Lib/ssc_app/src/el9800appl.c ****     sAIInputs.can1_h2 = Can1_RxMessage.IDE;
 1207              		.loc 1 498 5 is_stmt 1 view .LVU459
 1208              		.loc 1 498 39 is_stmt 0 view .LVU460
 1209 00d4 117A     		ldrb	r1, [r2, #8]	@ zero_extendqisi2
 1210              		.loc 1 498 23 view .LVU461
 1211 00d6 5972     		strb	r1, [r3, #9]
 499:Lib/ssc_app/src/el9800appl.c ****     sAIInputs.can1_h3 = Can1_RxMessage.RTR;
 1212              		.loc 1 499 5 is_stmt 1 view .LVU462
 1213              		.loc 1 499 39 is_stmt 0 view .LVU463
 1214 00d8 517A     		ldrb	r1, [r2, #9]	@ zero_extendqisi2
 1215              		.loc 1 499 23 view .LVU464
 1216 00da 9972     		strb	r1, [r3, #10]
 500:Lib/ssc_app/src/el9800appl.c ****     sAIInputs.can1_h4 = Can1_RxMessage.DLC;
 1217              		.loc 1 500 5 is_stmt 1 view .LVU465
 1218              		.loc 1 500 39 is_stmt 0 view .LVU466
ARM GAS  /tmp/ccnd8O4X.s 			page 32


 1219 00dc 917A     		ldrb	r1, [r2, #10]	@ zero_extendqisi2
 1220              		.loc 1 500 23 view .LVU467
 1221 00de D972     		strb	r1, [r3, #11]
 501:Lib/ssc_app/src/el9800appl.c **** 
 502:Lib/ssc_app/src/el9800appl.c ****     sAIInputs.can1_d0 = Can1_RxMessage.Data[0];
 1222              		.loc 1 502 5 is_stmt 1 view .LVU468
 1223              		.loc 1 502 44 is_stmt 0 view .LVU469
 1224 00e0 D17A     		ldrb	r1, [r2, #11]	@ zero_extendqisi2
 1225              		.loc 1 502 23 view .LVU470
 1226 00e2 1973     		strb	r1, [r3, #12]
 503:Lib/ssc_app/src/el9800appl.c ****     sAIInputs.can1_d1 = Can1_RxMessage.Data[1];
 1227              		.loc 1 503 5 is_stmt 1 view .LVU471
 1228              		.loc 1 503 44 is_stmt 0 view .LVU472
 1229 00e4 117B     		ldrb	r1, [r2, #12]	@ zero_extendqisi2
 1230              		.loc 1 503 23 view .LVU473
 1231 00e6 5973     		strb	r1, [r3, #13]
 504:Lib/ssc_app/src/el9800appl.c ****     sAIInputs.can1_d2 = Can1_RxMessage.Data[2];
 1232              		.loc 1 504 5 is_stmt 1 view .LVU474
 1233              		.loc 1 504 44 is_stmt 0 view .LVU475
 1234 00e8 517B     		ldrb	r1, [r2, #13]	@ zero_extendqisi2
 1235              		.loc 1 504 23 view .LVU476
 1236 00ea 9973     		strb	r1, [r3, #14]
 505:Lib/ssc_app/src/el9800appl.c ****     sAIInputs.can1_d3 = Can1_RxMessage.Data[3];
 1237              		.loc 1 505 5 is_stmt 1 view .LVU477
 1238              		.loc 1 505 44 is_stmt 0 view .LVU478
 1239 00ec 917B     		ldrb	r1, [r2, #14]	@ zero_extendqisi2
 1240              		.loc 1 505 23 view .LVU479
 1241 00ee D973     		strb	r1, [r3, #15]
 506:Lib/ssc_app/src/el9800appl.c ****     sAIInputs.can1_d4 = Can1_RxMessage.Data[4];
 1242              		.loc 1 506 5 is_stmt 1 view .LVU480
 1243              		.loc 1 506 44 is_stmt 0 view .LVU481
 1244 00f0 D17B     		ldrb	r1, [r2, #15]	@ zero_extendqisi2
 1245              		.loc 1 506 23 view .LVU482
 1246 00f2 1974     		strb	r1, [r3, #16]
 507:Lib/ssc_app/src/el9800appl.c ****     sAIInputs.can1_d5 = Can1_RxMessage.Data[5];
 1247              		.loc 1 507 5 is_stmt 1 view .LVU483
 1248              		.loc 1 507 44 is_stmt 0 view .LVU484
 1249 00f4 117C     		ldrb	r1, [r2, #16]	@ zero_extendqisi2
 1250              		.loc 1 507 23 view .LVU485
 1251 00f6 5974     		strb	r1, [r3, #17]
 508:Lib/ssc_app/src/el9800appl.c ****     sAIInputs.can1_d6 = Can1_RxMessage.Data[6];
 1252              		.loc 1 508 5 is_stmt 1 view .LVU486
 1253              		.loc 1 508 44 is_stmt 0 view .LVU487
 1254 00f8 517C     		ldrb	r1, [r2, #17]	@ zero_extendqisi2
 1255              		.loc 1 508 23 view .LVU488
 1256 00fa 9974     		strb	r1, [r3, #18]
 509:Lib/ssc_app/src/el9800appl.c ****     sAIInputs.can1_d7 = Can1_RxMessage.Data[7];
 1257              		.loc 1 509 5 is_stmt 1 view .LVU489
 1258              		.loc 1 509 44 is_stmt 0 view .LVU490
 1259 00fc 927C     		ldrb	r2, [r2, #18]	@ zero_extendqisi2
 1260              		.loc 1 509 23 view .LVU491
 1261 00fe DA74     		strb	r2, [r3, #19]
 510:Lib/ssc_app/src/el9800appl.c **** 
 511:Lib/ssc_app/src/el9800appl.c ****     sAIInputs.can2_h0 = Can2_RxMessage.StdId;
 1262              		.loc 1 511 5 is_stmt 1 view .LVU492
 1263              		.loc 1 511 39 is_stmt 0 view .LVU493
 1264 0100 224A     		ldr	r2, .L48+32
ARM GAS  /tmp/ccnd8O4X.s 			page 33


 1265 0102 1168     		ldr	r1, [r2]
 1266              		.loc 1 511 23 view .LVU494
 1267 0104 9982     		strh	r1, [r3, #20]	@ movhi
 512:Lib/ssc_app/src/el9800appl.c ****     sAIInputs.can2_h1 = Can2_RxMessage.ExtId;
 1268              		.loc 1 512 5 is_stmt 1 view .LVU495
 1269              		.loc 1 512 39 is_stmt 0 view .LVU496
 1270 0106 5168     		ldr	r1, [r2, #4]
 1271              		.loc 1 512 23 view .LVU497
 1272 0108 9975     		strb	r1, [r3, #22]
 513:Lib/ssc_app/src/el9800appl.c ****     sAIInputs.can2_h2 = Can2_RxMessage.IDE;
 1273              		.loc 1 513 5 is_stmt 1 view .LVU498
 1274              		.loc 1 513 39 is_stmt 0 view .LVU499
 1275 010a 117A     		ldrb	r1, [r2, #8]	@ zero_extendqisi2
 1276              		.loc 1 513 23 view .LVU500
 1277 010c D975     		strb	r1, [r3, #23]
 514:Lib/ssc_app/src/el9800appl.c ****     sAIInputs.can2_h3 = Can2_RxMessage.RTR;
 1278              		.loc 1 514 5 is_stmt 1 view .LVU501
 1279              		.loc 1 514 39 is_stmt 0 view .LVU502
 1280 010e 517A     		ldrb	r1, [r2, #9]	@ zero_extendqisi2
 1281              		.loc 1 514 23 view .LVU503
 1282 0110 1976     		strb	r1, [r3, #24]
 515:Lib/ssc_app/src/el9800appl.c ****     sAIInputs.can2_h4 = Can2_RxMessage.DLC;
 1283              		.loc 1 515 5 is_stmt 1 view .LVU504
 1284              		.loc 1 515 39 is_stmt 0 view .LVU505
 1285 0112 917A     		ldrb	r1, [r2, #10]	@ zero_extendqisi2
 1286              		.loc 1 515 23 view .LVU506
 1287 0114 5976     		strb	r1, [r3, #25]
 516:Lib/ssc_app/src/el9800appl.c **** 
 517:Lib/ssc_app/src/el9800appl.c ****     sAIInputs.can2_d0 = Can2_RxMessage.Data[0];
 1288              		.loc 1 517 5 is_stmt 1 view .LVU507
 1289              		.loc 1 517 44 is_stmt 0 view .LVU508
 1290 0116 D17A     		ldrb	r1, [r2, #11]	@ zero_extendqisi2
 1291              		.loc 1 517 23 view .LVU509
 1292 0118 9976     		strb	r1, [r3, #26]
 518:Lib/ssc_app/src/el9800appl.c ****     sAIInputs.can2_d1 = Can2_RxMessage.Data[1];
 1293              		.loc 1 518 5 is_stmt 1 view .LVU510
 1294              		.loc 1 518 44 is_stmt 0 view .LVU511
 1295 011a 117B     		ldrb	r1, [r2, #12]	@ zero_extendqisi2
 1296              		.loc 1 518 23 view .LVU512
 1297 011c D976     		strb	r1, [r3, #27]
 519:Lib/ssc_app/src/el9800appl.c ****     sAIInputs.can2_d2 = Can2_RxMessage.Data[2];
 1298              		.loc 1 519 5 is_stmt 1 view .LVU513
 1299              		.loc 1 519 44 is_stmt 0 view .LVU514
 1300 011e 517B     		ldrb	r1, [r2, #13]	@ zero_extendqisi2
 1301              		.loc 1 519 23 view .LVU515
 1302 0120 1977     		strb	r1, [r3, #28]
 520:Lib/ssc_app/src/el9800appl.c ****     sAIInputs.can2_d3 = Can2_RxMessage.Data[3];
 1303              		.loc 1 520 5 is_stmt 1 view .LVU516
 1304              		.loc 1 520 44 is_stmt 0 view .LVU517
 1305 0122 917B     		ldrb	r1, [r2, #14]	@ zero_extendqisi2
 1306              		.loc 1 520 23 view .LVU518
 1307 0124 5977     		strb	r1, [r3, #29]
 521:Lib/ssc_app/src/el9800appl.c ****     sAIInputs.can2_d4 = Can2_RxMessage.Data[4];
 1308              		.loc 1 521 5 is_stmt 1 view .LVU519
 1309              		.loc 1 521 44 is_stmt 0 view .LVU520
 1310 0126 D17B     		ldrb	r1, [r2, #15]	@ zero_extendqisi2
 1311              		.loc 1 521 23 view .LVU521
ARM GAS  /tmp/ccnd8O4X.s 			page 34


 1312 0128 9977     		strb	r1, [r3, #30]
 522:Lib/ssc_app/src/el9800appl.c ****     sAIInputs.can2_d5 = Can2_RxMessage.Data[5];
 1313              		.loc 1 522 5 is_stmt 1 view .LVU522
 1314              		.loc 1 522 44 is_stmt 0 view .LVU523
 1315 012a 117C     		ldrb	r1, [r2, #16]	@ zero_extendqisi2
 1316              		.loc 1 522 23 view .LVU524
 1317 012c D977     		strb	r1, [r3, #31]
 523:Lib/ssc_app/src/el9800appl.c ****     sAIInputs.can2_d6 = Can2_RxMessage.Data[6];
 1318              		.loc 1 523 5 is_stmt 1 view .LVU525
 1319              		.loc 1 523 44 is_stmt 0 view .LVU526
 1320 012e 517C     		ldrb	r1, [r2, #17]	@ zero_extendqisi2
 1321              		.loc 1 523 23 view .LVU527
 1322 0130 83F82010 		strb	r1, [r3, #32]
 524:Lib/ssc_app/src/el9800appl.c ****     sAIInputs.can2_d7 = Can2_RxMessage.Data[7];
 1323              		.loc 1 524 5 is_stmt 1 view .LVU528
 1324              		.loc 1 524 44 is_stmt 0 view .LVU529
 1325 0134 927C     		ldrb	r2, [r2, #18]	@ zero_extendqisi2
 1326              		.loc 1 524 23 view .LVU530
 1327 0136 83F82120 		strb	r2, [r3, #33]
 525:Lib/ssc_app/src/el9800appl.c **** 
 526:Lib/ssc_app/src/el9800appl.c ****     /* we toggle the TxPDO Toggle after updating the data of the corresponding TxPDO */
 527:Lib/ssc_app/src/el9800appl.c ****     sAIInputs.bTxPDOToggle ^= 1;
 1328              		.loc 1 527 5 is_stmt 1 view .LVU531
 1329              		.loc 1 527 28 is_stmt 0 view .LVU532
 1330 013a DA78     		ldrb	r2, [r3, #3]	@ zero_extendqisi2
 1331 013c C2F3C011 		ubfx	r1, r2, #7, #1
 1332 0140 81F00101 		eor	r1, r1, #1
 1333 0144 61F3C712 		bfi	r2, r1, #7, #1
 1334 0148 DA70     		strb	r2, [r3, #3]
 528:Lib/ssc_app/src/el9800appl.c **** 
 529:Lib/ssc_app/src/el9800appl.c ****     /* we simulate a problem of the analog input, if the Switch4 is on in this example,
 530:Lib/ssc_app/src/el9800appl.c ****        in this case the TxPDO State has to set to indicate the problem to the master */
 531:Lib/ssc_app/src/el9800appl.c ****     if (sDIInputs.bSwitch4)
 1335              		.loc 1 531 5 is_stmt 1 view .LVU533
 1336              		.loc 1 531 9 is_stmt 0 view .LVU534
 1337 014a A378     		ldrb	r3, [r4, #2]	@ zero_extendqisi2
 1338              		.loc 1 531 8 view .LVU535
 1339 014c 13F0080F 		tst	r3, #8
 1340 0150 05D0     		beq	.L45
 532:Lib/ssc_app/src/el9800appl.c ****         sAIInputs.bTxPDOState = 1;
 1341              		.loc 1 532 9 is_stmt 1 view .LVU536
 1342              		.loc 1 532 31 is_stmt 0 view .LVU537
 1343 0152 0C4A     		ldr	r2, .L48+24
 1344 0154 D378     		ldrb	r3, [r2, #3]	@ zero_extendqisi2
 1345 0156 43F04003 		orr	r3, r3, #64
 1346 015a D370     		strb	r3, [r2, #3]
 1347              	.L44:
 533:Lib/ssc_app/src/el9800appl.c ****     else
 534:Lib/ssc_app/src/el9800appl.c ****         sAIInputs.bTxPDOState = 0;
 535:Lib/ssc_app/src/el9800appl.c **** }
 1348              		.loc 1 535 1 view .LVU538
 1349 015c 10BD     		pop	{r4, pc}
 1350              	.L45:
 534:Lib/ssc_app/src/el9800appl.c **** }
 1351              		.loc 1 534 9 is_stmt 1 view .LVU539
 534:Lib/ssc_app/src/el9800appl.c **** }
 1352              		.loc 1 534 31 is_stmt 0 view .LVU540
ARM GAS  /tmp/ccnd8O4X.s 			page 35


 1353 015e 094B     		ldr	r3, .L48+24
 1354 0160 DA78     		ldrb	r2, [r3, #3]	@ zero_extendqisi2
 1355 0162 6FF38612 		bfc	r2, #6, #1
 1356 0166 DA70     		strb	r2, [r3, #3]
 1357              		.loc 1 535 1 view .LVU541
 1358 0168 F8E7     		b	.L44
 1359              	.L49:
 1360 016a 00BF     		.align	2
 1361              	.L48:
 1362 016c 00000000 		.word	.LANCHOR0
 1363 0170 00000000 		.word	Can1_TxMessage
 1364 0174 00640040 		.word	1073767424
 1365 0178 00000000 		.word	Can2_TxMessage
 1366 017c 00680040 		.word	1073768448
 1367 0180 00000000 		.word	.LANCHOR3
 1368 0184 00000000 		.word	.LANCHOR4
 1369 0188 00000000 		.word	Can1_RxMessage
 1370 018c 00000000 		.word	Can2_RxMessage
 1371              		.cfi_endproc
 1372              	.LFE133:
 1374              		.section	.text.ReadObject0x1802,"ax",%progbits
 1375              		.align	1
 1376              		.global	ReadObject0x1802
 1377              		.syntax unified
 1378              		.thumb
 1379              		.thumb_func
 1381              	ReadObject0x1802:
 1382              	.LVL81:
 1383              	.LFB134:
 536:Lib/ssc_app/src/el9800appl.c **** 
 537:Lib/ssc_app/src/el9800appl.c **** /////////////////////////////////////////////////////////////////////////////////////////
 538:Lib/ssc_app/src/el9800appl.c **** /**
 539:Lib/ssc_app/src/el9800appl.c ****  \param     index               index of the requested object.
 540:Lib/ssc_app/src/el9800appl.c ****  \param     subindex            subindex of the requested object.
 541:Lib/ssc_app/src/el9800appl.c ****  \param     objSize             size of the requested object data, calculated with OBJ_GetObjectLen
 542:Lib/ssc_app/src/el9800appl.c ****  \param     pData               Pointer to the buffer where the data can be copied to
 543:Lib/ssc_app/src/el9800appl.c ****  \param     bCompleteAccess     Indicates if a complete read of all subindices of the
 544:Lib/ssc_app/src/el9800appl.c ****                                 object shall be done or not
 545:Lib/ssc_app/src/el9800appl.c **** 
 546:Lib/ssc_app/src/el9800appl.c ****  \return    ABORTIDX_XXX
 547:Lib/ssc_app/src/el9800appl.c **** 
 548:Lib/ssc_app/src/el9800appl.c ****  \brief     Handles SDO read requests to TxPDO Parameter
 549:Lib/ssc_app/src/el9800appl.c **** */
 550:Lib/ssc_app/src/el9800appl.c **** ///////////////////////////////////////////////////////////////////////////////////////
 551:Lib/ssc_app/src/el9800appl.c **** UINT8 ReadObject0x1802(UINT16 index, UINT8 subindex, UINT32 dataSize, UINT16 MBXMEM *pData, UINT8 b
 552:Lib/ssc_app/src/el9800appl.c **** {
 1384              		.loc 1 552 1 is_stmt 1 view -0
 1385              		.cfi_startproc
 1386              		@ args = 4, pretend = 0, frame = 0
 1387              		@ frame_needed = 0, uses_anonymous_args = 0
 1388              		.loc 1 552 1 is_stmt 0 view .LVU543
 1389 0000 10B5     		push	{r4, lr}
 1390              		.cfi_def_cfa_offset 8
 1391              		.cfi_offset 4, -8
 1392              		.cfi_offset 14, -4
 1393 0002 9DF80840 		ldrb	r4, [sp, #8]	@ zero_extendqisi2
 553:Lib/ssc_app/src/el9800appl.c **** 
ARM GAS  /tmp/ccnd8O4X.s 			page 36


 554:Lib/ssc_app/src/el9800appl.c ****     if (bCompleteAccess)
 1394              		.loc 1 554 5 is_stmt 1 view .LVU544
 1395              		.loc 1 554 8 is_stmt 0 view .LVU545
 1396 0006 34BB     		cbnz	r4, .L55
 555:Lib/ssc_app/src/el9800appl.c ****         return ABORTIDX_UNSUPPORTED_ACCESS;
 556:Lib/ssc_app/src/el9800appl.c **** 
 557:Lib/ssc_app/src/el9800appl.c ****     if (subindex == 0)
 1397              		.loc 1 557 5 is_stmt 1 view .LVU546
 1398              		.loc 1 557 8 is_stmt 0 view .LVU547
 1399 0008 21B9     		cbnz	r1, .L52
 558:Lib/ssc_app/src/el9800appl.c ****     {
 559:Lib/ssc_app/src/el9800appl.c ****         *pData = TxPDO1802Subindex0;
 1400              		.loc 1 559 9 is_stmt 1 view .LVU548
 1401              		.loc 1 559 16 is_stmt 0 view .LVU549
 1402 000a 154A     		ldr	r2, .L62
 1403              	.LVL82:
 1404              		.loc 1 559 16 view .LVU550
 1405 000c 1288     		ldrh	r2, [r2]
 1406 000e 1A80     		strh	r2, [r3]	@ movhi
 560:Lib/ssc_app/src/el9800appl.c ****     }
 561:Lib/ssc_app/src/el9800appl.c ****     else if (subindex == 6)
 562:Lib/ssc_app/src/el9800appl.c ****     {
 563:Lib/ssc_app/src/el9800appl.c ****         /*clear destination buffer (no excluded TxPDO set)*/
 564:Lib/ssc_app/src/el9800appl.c ****         if (dataSize > 0)
 565:Lib/ssc_app/src/el9800appl.c ****             MBXMEMSET(pData, 0x00, dataSize);
 566:Lib/ssc_app/src/el9800appl.c ****     }
 567:Lib/ssc_app/src/el9800appl.c ****     else if (subindex == 7)
 568:Lib/ssc_app/src/el9800appl.c ****     {
 569:Lib/ssc_app/src/el9800appl.c ****         /*min size is one Byte*/
 570:Lib/ssc_app/src/el9800appl.c ****         UINT8 *pu8Data = (UINT8 *)pData;
 571:Lib/ssc_app/src/el9800appl.c **** 
 572:Lib/ssc_app/src/el9800appl.c ****         // Reset Buffer
 573:Lib/ssc_app/src/el9800appl.c ****         *pu8Data = 0;
 574:Lib/ssc_app/src/el9800appl.c **** 
 575:Lib/ssc_app/src/el9800appl.c ****         *pu8Data = sAIInputs.bTxPDOState;
 576:Lib/ssc_app/src/el9800appl.c ****     }
 577:Lib/ssc_app/src/el9800appl.c ****     else if (subindex == 9)
 578:Lib/ssc_app/src/el9800appl.c ****     {
 579:Lib/ssc_app/src/el9800appl.c ****         /*min size is one Byte*/
 580:Lib/ssc_app/src/el9800appl.c ****         UINT8 *pu8Data = (UINT8 *)pData;
 581:Lib/ssc_app/src/el9800appl.c **** 
 582:Lib/ssc_app/src/el9800appl.c ****         // Reset Buffer
 583:Lib/ssc_app/src/el9800appl.c ****         *pu8Data = 0;
 584:Lib/ssc_app/src/el9800appl.c **** 
 585:Lib/ssc_app/src/el9800appl.c ****         *pu8Data = sAIInputs.bTxPDOToggle;
 586:Lib/ssc_app/src/el9800appl.c ****     }
 587:Lib/ssc_app/src/el9800appl.c ****     else
 588:Lib/ssc_app/src/el9800appl.c ****         return ABORTIDX_SUBINDEX_NOT_EXISTING;
 589:Lib/ssc_app/src/el9800appl.c **** 
 590:Lib/ssc_app/src/el9800appl.c ****     return 0;
 1407              		.loc 1 590 12 view .LVU551
 1408 0010 0846     		mov	r0, r1
 1409              	.LVL83:
 1410              	.L51:
 591:Lib/ssc_app/src/el9800appl.c **** }
 1411              		.loc 1 591 1 view .LVU552
 1412 0012 10BD     		pop	{r4, pc}
ARM GAS  /tmp/ccnd8O4X.s 			page 37


 1413              	.LVL84:
 1414              	.L52:
 561:Lib/ssc_app/src/el9800appl.c ****     {
 1415              		.loc 1 561 10 is_stmt 1 view .LVU553
 561:Lib/ssc_app/src/el9800appl.c ****     {
 1416              		.loc 1 561 13 is_stmt 0 view .LVU554
 1417 0014 0629     		cmp	r1, #6
 1418 0016 0CD0     		beq	.L59
 567:Lib/ssc_app/src/el9800appl.c ****     {
 1419              		.loc 1 567 10 is_stmt 1 view .LVU555
 567:Lib/ssc_app/src/el9800appl.c ****     {
 1420              		.loc 1 567 13 is_stmt 0 view .LVU556
 1421 0018 0729     		cmp	r1, #7
 1422 001a 13D0     		beq	.L60
 577:Lib/ssc_app/src/el9800appl.c ****     {
 1423              		.loc 1 577 10 is_stmt 1 view .LVU557
 577:Lib/ssc_app/src/el9800appl.c ****     {
 1424              		.loc 1 577 13 is_stmt 0 view .LVU558
 1425 001c 0929     		cmp	r1, #9
 1426 001e 1CD1     		bne	.L57
 1427              	.LBB2:
 580:Lib/ssc_app/src/el9800appl.c **** 
 1428              		.loc 1 580 9 is_stmt 1 view .LVU559
 1429              	.LVL85:
 583:Lib/ssc_app/src/el9800appl.c **** 
 1430              		.loc 1 583 9 view .LVU560
 583:Lib/ssc_app/src/el9800appl.c **** 
 1431              		.loc 1 583 18 is_stmt 0 view .LVU561
 1432 0020 0022     		movs	r2, #0
 1433              	.LVL86:
 583:Lib/ssc_app/src/el9800appl.c **** 
 1434              		.loc 1 583 18 view .LVU562
 1435 0022 1A70     		strb	r2, [r3]
 585:Lib/ssc_app/src/el9800appl.c ****     }
 1436              		.loc 1 585 9 is_stmt 1 view .LVU563
 585:Lib/ssc_app/src/el9800appl.c ****     }
 1437              		.loc 1 585 29 is_stmt 0 view .LVU564
 1438 0024 0F4A     		ldr	r2, .L62+4
 1439 0026 D278     		ldrb	r2, [r2, #3]	@ zero_extendqisi2
 1440 0028 C2F3C012 		ubfx	r2, r2, #7, #1
 585:Lib/ssc_app/src/el9800appl.c ****     }
 1441              		.loc 1 585 18 view .LVU565
 1442 002c 1A70     		strb	r2, [r3]
 1443              	.LBE2:
 590:Lib/ssc_app/src/el9800appl.c **** }
 1444              		.loc 1 590 12 view .LVU566
 1445 002e 2046     		mov	r0, r4
 1446              	.LVL87:
 590:Lib/ssc_app/src/el9800appl.c **** }
 1447              		.loc 1 590 12 view .LVU567
 1448 0030 EFE7     		b	.L51
 1449              	.LVL88:
 1450              	.L59:
 564:Lib/ssc_app/src/el9800appl.c ****             MBXMEMSET(pData, 0x00, dataSize);
 1451              		.loc 1 564 9 is_stmt 1 view .LVU568
 564:Lib/ssc_app/src/el9800appl.c ****             MBXMEMSET(pData, 0x00, dataSize);
 1452              		.loc 1 564 12 is_stmt 0 view .LVU569
ARM GAS  /tmp/ccnd8O4X.s 			page 38


 1453 0032 0AB9     		cbnz	r2, .L61
 590:Lib/ssc_app/src/el9800appl.c **** }
 1454              		.loc 1 590 12 view .LVU570
 1455 0034 2046     		mov	r0, r4
 1456              	.LVL89:
 590:Lib/ssc_app/src/el9800appl.c **** }
 1457              		.loc 1 590 12 view .LVU571
 1458 0036 ECE7     		b	.L51
 1459              	.LVL90:
 1460              	.L61:
 565:Lib/ssc_app/src/el9800appl.c ****     }
 1461              		.loc 1 565 13 is_stmt 1 view .LVU572
 1462 0038 0021     		movs	r1, #0
 1463              	.LVL91:
 565:Lib/ssc_app/src/el9800appl.c ****     }
 1464              		.loc 1 565 13 is_stmt 0 view .LVU573
 1465 003a 1846     		mov	r0, r3
 1466              	.LVL92:
 565:Lib/ssc_app/src/el9800appl.c ****     }
 1467              		.loc 1 565 13 view .LVU574
 1468 003c FFF7FEFF 		bl	memset
 1469              	.LVL93:
 590:Lib/ssc_app/src/el9800appl.c **** }
 1470              		.loc 1 590 12 view .LVU575
 1471 0040 2046     		mov	r0, r4
 1472 0042 E6E7     		b	.L51
 1473              	.LVL94:
 1474              	.L60:
 1475              	.LBB3:
 570:Lib/ssc_app/src/el9800appl.c **** 
 1476              		.loc 1 570 9 is_stmt 1 view .LVU576
 573:Lib/ssc_app/src/el9800appl.c **** 
 1477              		.loc 1 573 9 view .LVU577
 573:Lib/ssc_app/src/el9800appl.c **** 
 1478              		.loc 1 573 18 is_stmt 0 view .LVU578
 1479 0044 0022     		movs	r2, #0
 1480              	.LVL95:
 573:Lib/ssc_app/src/el9800appl.c **** 
 1481              		.loc 1 573 18 view .LVU579
 1482 0046 1A70     		strb	r2, [r3]
 575:Lib/ssc_app/src/el9800appl.c ****     }
 1483              		.loc 1 575 9 is_stmt 1 view .LVU580
 575:Lib/ssc_app/src/el9800appl.c ****     }
 1484              		.loc 1 575 29 is_stmt 0 view .LVU581
 1485 0048 064A     		ldr	r2, .L62+4
 1486 004a D278     		ldrb	r2, [r2, #3]	@ zero_extendqisi2
 1487 004c C2F38012 		ubfx	r2, r2, #6, #1
 575:Lib/ssc_app/src/el9800appl.c ****     }
 1488              		.loc 1 575 18 view .LVU582
 1489 0050 1A70     		strb	r2, [r3]
 1490              	.LBE3:
 590:Lib/ssc_app/src/el9800appl.c **** }
 1491              		.loc 1 590 12 view .LVU583
 1492 0052 2046     		mov	r0, r4
 1493              	.LVL96:
 590:Lib/ssc_app/src/el9800appl.c **** }
 1494              		.loc 1 590 12 view .LVU584
ARM GAS  /tmp/ccnd8O4X.s 			page 39


 1495 0054 DDE7     		b	.L51
 1496              	.LVL97:
 1497              	.L55:
 555:Lib/ssc_app/src/el9800appl.c **** 
 1498              		.loc 1 555 16 view .LVU585
 1499 0056 0520     		movs	r0, #5
 1500              	.LVL98:
 555:Lib/ssc_app/src/el9800appl.c **** 
 1501              		.loc 1 555 16 view .LVU586
 1502 0058 DBE7     		b	.L51
 1503              	.LVL99:
 1504              	.L57:
 588:Lib/ssc_app/src/el9800appl.c **** 
 1505              		.loc 1 588 16 view .LVU587
 1506 005a 1120     		movs	r0, #17
 1507              	.LVL100:
 588:Lib/ssc_app/src/el9800appl.c **** 
 1508              		.loc 1 588 16 view .LVU588
 1509 005c D9E7     		b	.L51
 1510              	.L63:
 1511 005e 00BF     		.align	2
 1512              	.L62:
 1513 0060 00000000 		.word	.LANCHOR5
 1514 0064 00000000 		.word	.LANCHOR4
 1515              		.cfi_endproc
 1516              	.LFE134:
 1518              		.section	.text.main,"ax",%progbits
 1519              		.align	1
 1520              		.global	main
 1521              		.syntax unified
 1522              		.thumb
 1523              		.thumb_func
 1525              	main:
 1526              	.LFB135:
 592:Lib/ssc_app/src/el9800appl.c **** 
 593:Lib/ssc_app/src/el9800appl.c **** #if EXPLICIT_DEVICE_ID
 594:Lib/ssc_app/src/el9800appl.c **** /////////////////////////////////////////////////////////////////////////////////////////
 595:Lib/ssc_app/src/el9800appl.c **** /**
 596:Lib/ssc_app/src/el9800appl.c ****  \return    The Explicit Device ID of the EtherCAT slave
 597:Lib/ssc_app/src/el9800appl.c **** 
 598:Lib/ssc_app/src/el9800appl.c ****  \brief     Calculate the Explicit Device ID
 599:Lib/ssc_app/src/el9800appl.c **** */
 600:Lib/ssc_app/src/el9800appl.c **** ///////////////////////////////////////////////////////////////////////////////////////
 601:Lib/ssc_app/src/el9800appl.c **** UINT16 APPL_GetDeviceID()
 602:Lib/ssc_app/src/el9800appl.c **** {
 603:Lib/ssc_app/src/el9800appl.c ****     UINT16 Value = (UINT16)(SWITCH_8 << 7) | (SWITCH_7 << 6) | (SWITCH_6 << 5) | (SWITCH_5 << 4) | 
 604:Lib/ssc_app/src/el9800appl.c ****     return Value;
 605:Lib/ssc_app/src/el9800appl.c **** }
 606:Lib/ssc_app/src/el9800appl.c **** #endif
 607:Lib/ssc_app/src/el9800appl.c **** 
 608:Lib/ssc_app/src/el9800appl.c **** #if USE_DEFAULT_MAIN
 609:Lib/ssc_app/src/el9800appl.c **** /////////////////////////////////////////////////////////////////////////////////////////
 610:Lib/ssc_app/src/el9800appl.c **** /**
 611:Lib/ssc_app/src/el9800appl.c **** 
 612:Lib/ssc_app/src/el9800appl.c ****  \brief    This is the main function
 613:Lib/ssc_app/src/el9800appl.c **** 
 614:Lib/ssc_app/src/el9800appl.c **** */
ARM GAS  /tmp/ccnd8O4X.s 			page 40


 615:Lib/ssc_app/src/el9800appl.c **** ///////////////////////////////////////////////////////////////////////////////////////
 616:Lib/ssc_app/src/el9800appl.c **** uint32_t times = 0x1000000;
 617:Lib/ssc_app/src/el9800appl.c **** #if _STM32_IO8
 618:Lib/ssc_app/src/el9800appl.c **** int main(void)
 619:Lib/ssc_app/src/el9800appl.c **** #else
 620:Lib/ssc_app/src/el9800appl.c **** void main(void)
 621:Lib/ssc_app/src/el9800appl.c **** #endif
 622:Lib/ssc_app/src/el9800appl.c **** {
 1527              		.loc 1 622 1 is_stmt 1 view -0
 1528              		.cfi_startproc
 1529              		@ args = 0, pretend = 0, frame = 0
 1530              		@ frame_needed = 0, uses_anonymous_args = 0
 1531 0000 08B5     		push	{r3, lr}
 1532              		.cfi_def_cfa_offset 8
 1533              		.cfi_offset 3, -8
 1534              		.cfi_offset 14, -4
 623:Lib/ssc_app/src/el9800appl.c ****     /* initialize the Hardware and the EtherCAT Slave Controller */
 624:Lib/ssc_app/src/el9800appl.c ****     HW_Init();
 1535              		.loc 1 624 5 view .LVU590
 1536 0002 FFF7FEFF 		bl	HW_Init
 1537              	.LVL101:
 625:Lib/ssc_app/src/el9800appl.c **** 
 626:Lib/ssc_app/src/el9800appl.c ****     MainInit();
 1538              		.loc 1 626 5 view .LVU591
 1539 0006 FFF7FEFF 		bl	MainInit
 1540              	.LVL102:
 627:Lib/ssc_app/src/el9800appl.c **** 
 628:Lib/ssc_app/src/el9800appl.c ****     bRunApplication = TRUE;
 1541              		.loc 1 628 5 view .LVU592
 1542              		.loc 1 628 21 is_stmt 0 view .LVU593
 1543 000a 064B     		ldr	r3, .L67
 1544 000c 0122     		movs	r2, #1
 1545 000e 1A70     		strb	r2, [r3]
 1546              	.L65:
 629:Lib/ssc_app/src/el9800appl.c ****     do
 1547              		.loc 1 629 5 is_stmt 1 discriminator 1 view .LVU594
 630:Lib/ssc_app/src/el9800appl.c ****     {
 631:Lib/ssc_app/src/el9800appl.c ****         MainLoop();
 1548              		.loc 1 631 9 discriminator 1 view .LVU595
 1549 0010 FFF7FEFF 		bl	MainLoop
 1550              	.LVL103:
 632:Lib/ssc_app/src/el9800appl.c **** 
 633:Lib/ssc_app/src/el9800appl.c ****     } while (bRunApplication == TRUE);
 1551              		.loc 1 633 13 discriminator 1 view .LVU596
 1552              		.loc 1 633 30 is_stmt 0 discriminator 1 view .LVU597
 1553 0014 034B     		ldr	r3, .L67
 1554 0016 1B78     		ldrb	r3, [r3]	@ zero_extendqisi2
 1555              		.loc 1 633 5 discriminator 1 view .LVU598
 1556 0018 012B     		cmp	r3, #1
 1557 001a F9D0     		beq	.L65
 634:Lib/ssc_app/src/el9800appl.c **** 
 635:Lib/ssc_app/src/el9800appl.c ****     HW_Release();
 1558              		.loc 1 635 5 is_stmt 1 view .LVU599
 1559 001c FFF7FEFF 		bl	HW_Release
 1560              	.LVL104:
 636:Lib/ssc_app/src/el9800appl.c **** #if _STM32_IO8
 637:Lib/ssc_app/src/el9800appl.c ****     return 0;
ARM GAS  /tmp/ccnd8O4X.s 			page 41


 1561              		.loc 1 637 5 view .LVU600
 638:Lib/ssc_app/src/el9800appl.c **** #endif
 639:Lib/ssc_app/src/el9800appl.c **** }
 1562              		.loc 1 639 1 is_stmt 0 view .LVU601
 1563 0020 0020     		movs	r0, #0
 1564 0022 08BD     		pop	{r3, pc}
 1565              	.L68:
 1566              		.align	2
 1567              	.L67:
 1568 0024 00000000 		.word	bRunApplication
 1569              		.cfi_endproc
 1570              	.LFE135:
 1572              		.global	times
 1573              		.global	sModulelist
 1574              		.global	sModulardeviceprofile
 1575              		.global	sAISettings
 1576              		.global	sDOOutputs
 1577              		.global	sAIInputs
 1578              		.global	sDIInputs
 1579              		.global	sTxPDOassign
 1580              		.global	sRxPDOassign
 1581              		.global	sAITxPDOMap
 1582              		.global	sDITxPDOMap
 1583              		.global	TxPDO1802Subindex0
 1584              		.global	sDORxPDOMap
 1585              		.section	.data.TxPDO1802Subindex0,"aw"
 1586              		.align	1
 1587              		.set	.LANCHOR5,. + 0
 1590              	TxPDO1802Subindex0:
 1591 0000 0900     		.short	9
 1592              		.section	.data.sAIInputs,"aw"
 1593              		.align	2
 1594              		.set	.LANCHOR4,. + 0
 1597              	sAIInputs:
 1598 0000 2B00     		.short	43
 1599 0002 00       		.byte	0
 1600 0003 00       		.byte	0
 1601 0004 FF7F     		.short	32767
 1602 0006 0000     		.short	0
 1603 0008 00       		.byte	0
 1604 0009 00       		.byte	0
 1605 000a 00       		.byte	0
 1606 000b 00       		.byte	0
 1607 000c 00       		.byte	0
 1608 000d 00       		.byte	0
 1609 000e 00       		.byte	0
 1610 000f 00       		.byte	0
 1611 0010 00       		.byte	0
 1612 0011 00       		.byte	0
 1613 0012 00       		.byte	0
 1614 0013 00       		.byte	0
 1615 0014 0000     		.short	0
 1616 0016 00       		.byte	0
 1617 0017 00       		.byte	0
 1618 0018 00       		.byte	0
 1619 0019 00       		.byte	0
 1620 001a 00       		.byte	0
ARM GAS  /tmp/ccnd8O4X.s 			page 42


 1621 001b 00       		.byte	0
 1622 001c 00       		.byte	0
 1623 001d 00       		.byte	0
 1624 001e 00       		.byte	0
 1625 001f 00       		.byte	0
 1626 0020 00       		.byte	0
 1627 0021 00       		.byte	0
 1628              		.section	.data.sAISettings,"aw"
 1629              		.align	2
 1632              	sAISettings:
 1633 0000 1400     		.short	20
 1634 0002 00       		.byte	0
 1635 0003 00       		.byte	0
 1636 0004 0000     		.short	0
 1637 0006 0000     		.space	2
 1638 0008 00000000 		.word	0
 1639 000c 0000     		.short	0
 1640 000e 0000     		.short	0
 1641              		.section	.data.sAITxPDOMap,"aw"
 1642              		.align	2
 1645              	sAITxPDOMap:
 1646 0000 2200     		.short	34
 1647 0002 0000     		.space	2
 1648 0004 01012060 		.word	1612710145
 1649 0008 01022060 		.word	1612710401
 1650 000c 02032060 		.word	1612710658
 1651 0010 02052060 		.word	1612711170
 1652 0014 08000000 		.word	8
 1653 0018 01070218 		.word	402786049
 1654 001c 01090218 		.word	402786561
 1655 0020 10112060 		.word	1612714256
 1656 0024 10122060 		.word	1612714512
 1657 0028 08132060 		.word	1612714760
 1658 002c 08142060 		.word	1612715016
 1659 0030 08152060 		.word	1612715272
 1660 0034 08162060 		.word	1612715528
 1661 0038 08172060 		.word	1612715784
 1662 003c 08182060 		.word	1612716040
 1663 0040 08192060 		.word	1612716296
 1664 0044 08202060 		.word	1612718088
 1665 0048 08212060 		.word	1612718344
 1666 004c 08222060 		.word	1612718600
 1667 0050 08232060 		.word	1612718856
 1668 0054 08242060 		.word	1612719112
 1669 0058 10252060 		.word	1612719376
 1670 005c 08262060 		.word	1612719624
 1671 0060 08272060 		.word	1612719880
 1672 0064 08282060 		.word	1612720136
 1673 0068 08292060 		.word	1612720392
 1674 006c 08302060 		.word	1612722184
 1675 0070 08312060 		.word	1612722440
 1676 0074 08322060 		.word	1612722696
 1677 0078 08332060 		.word	1612722952
 1678 007c 08342060 		.word	1612723208
 1679 0080 08352060 		.word	1612723464
 1680 0084 08362060 		.word	1612723720
 1681 0088 08372060 		.word	1612723976
ARM GAS  /tmp/ccnd8O4X.s 			page 43


 1682              		.section	.data.sDIInputs,"aw"
 1683              		.align	2
 1684              		.set	.LANCHOR3,. + 0
 1687              	sDIInputs:
 1688 0000 0800     		.short	8
 1689 0002 00       		.byte	0
 1690 0003 00       		.byte	0
 1691              		.section	.data.sDITxPDOMap,"aw"
 1692              		.align	2
 1695              	sDITxPDOMap:
 1696 0000 0900     		.short	9
 1697 0002 0000     		.space	2
 1698 0004 01010060 		.word	1610612993
 1699 0008 01020060 		.word	1610613249
 1700 000c 01030060 		.word	1610613505
 1701 0010 01040060 		.word	1610613761
 1702 0014 01050060 		.word	1610614017
 1703 0018 01060060 		.word	1610614273
 1704 001c 01070060 		.word	1610614529
 1705 0020 01080060 		.word	1610614785
 1706 0024 08000000 		.word	8
 1707              		.section	.data.sDOOutputs,"aw"
 1708              		.align	2
 1709              		.set	.LANCHOR0,. + 0
 1712              	sDOOutputs:
 1713 0000 2300     		.short	35
 1714 0002 00       		.byte	0
 1715 0003 00       		.space	1
 1716 0004 0000     		.short	0
 1717 0006 00       		.byte	0
 1718 0007 00       		.byte	0
 1719 0008 00       		.byte	0
 1720 0009 00       		.byte	0
 1721 000a 00       		.byte	0
 1722 000b 00       		.byte	0
 1723 000c 00       		.byte	0
 1724 000d 00       		.byte	0
 1725 000e 00       		.byte	0
 1726 000f 00       		.byte	0
 1727 0010 00       		.byte	0
 1728 0011 00       		.byte	0
 1729 0012 0000     		.short	0
 1730 0014 00       		.byte	0
 1731 0015 00       		.byte	0
 1732 0016 00       		.byte	0
 1733 0017 00       		.byte	0
 1734 0018 00       		.byte	0
 1735 0019 00       		.byte	0
 1736 001a 00       		.byte	0
 1737 001b 00       		.byte	0
 1738 001c 00       		.byte	0
 1739 001d 00       		.byte	0
 1740 001e 00       		.byte	0
 1741 001f 00       		.byte	0
 1742 0020 00       		.byte	0
 1743 0021 00       		.space	1
 1744              		.section	.data.sDORxPDOMap,"aw"
ARM GAS  /tmp/ccnd8O4X.s 			page 44


 1745              		.align	2
 1748              	sDORxPDOMap:
 1749 0000 2300     		.short	35
 1750 0002 0000     		.space	2
 1751 0004 01011070 		.word	1880097025
 1752 0008 01021070 		.word	1880097281
 1753 000c 01031070 		.word	1880097537
 1754 0010 01041070 		.word	1880097793
 1755 0014 01051070 		.word	1880098049
 1756 0018 01061070 		.word	1880098305
 1757 001c 01071070 		.word	1880098561
 1758 0020 01081070 		.word	1880098817
 1759 0024 10091070 		.word	1880099088
 1760 0028 08101070 		.word	1880100872
 1761 002c 08111070 		.word	1880101128
 1762 0030 08121070 		.word	1880101384
 1763 0034 08131070 		.word	1880101640
 1764 0038 08141070 		.word	1880101896
 1765 003c 08151070 		.word	1880102152
 1766 0040 08161070 		.word	1880102408
 1767 0044 08171070 		.word	1880102664
 1768 0048 08181070 		.word	1880102920
 1769 004c 08191070 		.word	1880103176
 1770 0050 08201070 		.word	1880104968
 1771 0054 08211070 		.word	1880105224
 1772 0058 10221070 		.word	1880105488
 1773 005c 08231070 		.word	1880105736
 1774 0060 08241070 		.word	1880105992
 1775 0064 08251070 		.word	1880106248
 1776 0068 08261070 		.word	1880106504
 1777 006c 08271070 		.word	1880106760
 1778 0070 08281070 		.word	1880107016
 1779 0074 08291070 		.word	1880107272
 1780 0078 08301070 		.word	1880109064
 1781 007c 08311070 		.word	1880109320
 1782 0080 08321070 		.word	1880109576
 1783 0084 08331070 		.word	1880109832
 1784 0088 08341070 		.word	1880110088
 1785 008c 08341070 		.word	1880110088
 1786              		.section	.data.sModulardeviceprofile,"aw"
 1787              		.align	2
 1790              	sModulardeviceprofile:
 1791 0000 0200     		.short	2
 1792 0002 1000     		.short	16
 1793 0004 0300     		.short	3
 1794              		.section	.data.sModulelist,"aw"
 1795              		.align	2
 1798              	sModulelist:
 1799 0000 0300     		.short	3
 1800 0002 0000     		.space	2
 1801 0004 64000000 		.word	100
 1802 0008 C8000000 		.word	200
 1803 000c 2C010000 		.word	300
 1804              		.section	.data.sRxPDOassign,"aw"
 1805              		.align	2
 1806              		.set	.LANCHOR1,. + 0
 1809              	sRxPDOassign:
ARM GAS  /tmp/ccnd8O4X.s 			page 45


 1810 0000 0100     		.short	1
 1811 0002 0116     		.short	5633
 1812              		.section	.data.sTxPDOassign,"aw"
 1813              		.align	2
 1814              		.set	.LANCHOR2,. + 0
 1817              	sTxPDOassign:
 1818 0000 0200     		.short	2
 1819 0002 001A     		.short	6656
 1820 0004 021A     		.short	6658
 1821              		.section	.data.times,"aw"
 1822              		.align	2
 1825              	times:
 1826 0000 00000001 		.word	16777216
 1827              		.text
 1828              	.Letext0:
 1829              		.file 2 "/usr/share/gcc-arm-none-eabi-10.3-2021.10/arm-none-eabi/include/machine/_default_types.h"
 1830              		.file 3 "/usr/share/gcc-arm-none-eabi-10.3-2021.10/arm-none-eabi/include/sys/_stdint.h"
 1831              		.file 4 "Drivers/CMSIS/Device/ST/STM32F4xx/Include/stm32f4xx.h"
 1832              		.file 5 "Drivers/STM32F4xx_StdPeriph_Driver/inc/stm32f4xx_can.h"
 1833              		.file 6 "Lib/ssc/include/sdoserv.h"
 1834              		.file 7 "Lib/ssc/include/objdef.h"
 1835              		.file 8 "Lib/ssc_app/include/el9800appl.h"
 1836              		.file 9 "Lib/ssc_app/include/ecatappl.h"
 1837              		.file 10 "Lib/ssc/include/el9800hw.h"
 1838              		.file 11 "Lib/ssc/include/applInterface.h"
 1839              		.file 12 "Lib/bsp/include/bsp_spi2.h"
 1840              		.file 13 "<built-in>"
ARM GAS  /tmp/ccnd8O4X.s 			page 46

