ARM GAS  /tmp/ccSnLk44.s 			page 1


   1              		.cpu cortex-m4
   2              		.arch armv7e-m
   3              		.fpu fpv4-sp-d16
   4              		.eabi_attribute 27, 1
   5              		.eabi_attribute 28, 1
   6              		.eabi_attribute 20, 1
   7              		.eabi_attribute 21, 1
   8              		.eabi_attribute 23, 3
   9              		.eabi_attribute 24, 1
  10              		.eabi_attribute 25, 1
  11              		.eabi_attribute 26, 1
  12              		.eabi_attribute 30, 1
  13              		.eabi_attribute 34, 1
  14              		.eabi_attribute 18, 4
  15              		.file	"SPI1.c"
  16              		.text
  17              	.Ltext0:
  18              		.cfi_sections	.debug_frame
  19              		.section	.text.SPI1_Init,"ax",%progbits
  20              		.align	1
  21              		.global	SPI1_Init
  22              		.syntax unified
  23              		.thumb
  24              		.thumb_func
  26              	SPI1_Init:
  27              	.LFB123:
  28              		.file 1 "Lib/bsp/src/SPI1.c"
   1:Lib/bsp/src/SPI1.c **** 
   2:Lib/bsp/src/SPI1.c **** #include "stm32f4xx.h"
   3:Lib/bsp/src/SPI1.c **** #include "SPI1.h"
   4:Lib/bsp/src/SPI1.c **** #include "ecat_def.h"
   5:Lib/bsp/src/SPI1.c **** #include "el9800hw.h"
   6:Lib/bsp/src/SPI1.c **** 
   7:Lib/bsp/src/SPI1.c **** /*******************************************************************************
   8:Lib/bsp/src/SPI1.c ****  * Function Name  : SPI1_Init
   9:Lib/bsp/src/SPI1.c ****  * Description    : SPI1 initialize
  10:Lib/bsp/src/SPI1.c ****  * Input          : None
  11:Lib/bsp/src/SPI1.c ****  * Output         : None
  12:Lib/bsp/src/SPI1.c ****  * Return         : None
  13:Lib/bsp/src/SPI1.c ****  * Attention		 : None
  14:Lib/bsp/src/SPI1.c ****  *******************************************************************************/
  15:Lib/bsp/src/SPI1.c **** void SPI1_Init(void)
  16:Lib/bsp/src/SPI1.c **** {
  29              		.loc 1 16 1 view -0
  30              		.cfi_startproc
  31              		@ args = 0, pretend = 0, frame = 24
  32              		@ frame_needed = 0, uses_anonymous_args = 0
  33 0000 30B5     		push	{r4, r5, lr}
  34              		.cfi_def_cfa_offset 12
  35              		.cfi_offset 4, -12
  36              		.cfi_offset 5, -8
  37              		.cfi_offset 14, -4
  38 0002 87B0     		sub	sp, sp, #28
  39              		.cfi_def_cfa_offset 40
  17:Lib/bsp/src/SPI1.c **** 
  18:Lib/bsp/src/SPI1.c ****   SPI_InitTypeDef SPI_InitStructure;
  40              		.loc 1 18 3 view .LVU1
ARM GAS  /tmp/ccSnLk44.s 			page 2


  19:Lib/bsp/src/SPI1.c **** 
  20:Lib/bsp/src/SPI1.c ****   /* SPI configuration -------------------------------------------------------*/
  21:Lib/bsp/src/SPI1.c ****   SPI_I2S_DeInit(SPIx);
  41              		.loc 1 21 3 view .LVU2
  42 0004 144C     		ldr	r4, .L3
  43 0006 2046     		mov	r0, r4
  44 0008 FFF7FEFF 		bl	SPI_I2S_DeInit
  45              	.LVL0:
  22:Lib/bsp/src/SPI1.c ****   SPI_InitStructure.SPI_Direction = SPI_Direction_2Lines_FullDuplex;
  46              		.loc 1 22 3 view .LVU3
  47              		.loc 1 22 35 is_stmt 0 view .LVU4
  48 000c 0023     		movs	r3, #0
  49 000e ADF80430 		strh	r3, [sp, #4]	@ movhi
  23:Lib/bsp/src/SPI1.c ****   SPI_InitStructure.SPI_DataSize = SPI_DataSize_8b;
  50              		.loc 1 23 3 is_stmt 1 view .LVU5
  51              		.loc 1 23 34 is_stmt 0 view .LVU6
  52 0012 ADF80830 		strh	r3, [sp, #8]	@ movhi
  24:Lib/bsp/src/SPI1.c ****   SPI_InitStructure.SPI_CPOL = SPI_CPOL_High;
  53              		.loc 1 24 3 is_stmt 1 view .LVU7
  54              		.loc 1 24 30 is_stmt 0 view .LVU8
  55 0016 0222     		movs	r2, #2
  56 0018 ADF80A20 		strh	r2, [sp, #10]	@ movhi
  25:Lib/bsp/src/SPI1.c ****   SPI_InitStructure.SPI_CPHA = SPI_CPHA_2Edge;
  57              		.loc 1 25 3 is_stmt 1 view .LVU9
  58              		.loc 1 25 30 is_stmt 0 view .LVU10
  59 001c 0125     		movs	r5, #1
  60 001e ADF80C50 		strh	r5, [sp, #12]	@ movhi
  26:Lib/bsp/src/SPI1.c ****   SPI_InitStructure.SPI_NSS = SPI_NSS_Soft;
  61              		.loc 1 26 3 is_stmt 1 view .LVU11
  62              		.loc 1 26 29 is_stmt 0 view .LVU12
  63 0022 4FF40072 		mov	r2, #512
  64 0026 ADF80E20 		strh	r2, [sp, #14]	@ movhi
  27:Lib/bsp/src/SPI1.c ****   SPI_InitStructure.SPI_BaudRatePrescaler = SPI_BaudRatePrescaler_4; // 168/4=42M  42/2=21M
  65              		.loc 1 27 3 is_stmt 1 view .LVU13
  66              		.loc 1 27 43 is_stmt 0 view .LVU14
  67 002a 0822     		movs	r2, #8
  68 002c ADF81020 		strh	r2, [sp, #16]	@ movhi
  28:Lib/bsp/src/SPI1.c ****   SPI_InitStructure.SPI_FirstBit = SPI_FirstBit_MSB;
  69              		.loc 1 28 3 is_stmt 1 view .LVU15
  70              		.loc 1 28 34 is_stmt 0 view .LVU16
  71 0030 ADF81230 		strh	r3, [sp, #18]	@ movhi
  29:Lib/bsp/src/SPI1.c ****   SPI_InitStructure.SPI_CRCPolynomial = 7;
  72              		.loc 1 29 3 is_stmt 1 view .LVU17
  73              		.loc 1 29 39 is_stmt 0 view .LVU18
  74 0034 0723     		movs	r3, #7
  75 0036 ADF81430 		strh	r3, [sp, #20]	@ movhi
  30:Lib/bsp/src/SPI1.c ****   SPI_InitStructure.SPI_Mode = SPI_Mode_Master;
  76              		.loc 1 30 3 is_stmt 1 view .LVU19
  77              		.loc 1 30 30 is_stmt 0 view .LVU20
  78 003a 4FF48273 		mov	r3, #260
  79 003e ADF80630 		strh	r3, [sp, #6]	@ movhi
  31:Lib/bsp/src/SPI1.c ****   SPI_Init(SPIx, &SPI_InitStructure);
  80              		.loc 1 31 3 is_stmt 1 view .LVU21
  81 0042 01A9     		add	r1, sp, #4
  82 0044 2046     		mov	r0, r4
  83 0046 FFF7FEFF 		bl	SPI_Init
  84              	.LVL1:
ARM GAS  /tmp/ccSnLk44.s 			page 3


  32:Lib/bsp/src/SPI1.c **** 
  33:Lib/bsp/src/SPI1.c ****   /* Enable the SPI peripheral */
  34:Lib/bsp/src/SPI1.c ****   SPI_Cmd(SPIx, ENABLE);
  85              		.loc 1 34 3 view .LVU22
  86 004a 2946     		mov	r1, r5
  87 004c 2046     		mov	r0, r4
  88 004e FFF7FEFF 		bl	SPI_Cmd
  89              	.LVL2:
  35:Lib/bsp/src/SPI1.c **** }
  90              		.loc 1 35 1 is_stmt 0 view .LVU23
  91 0052 07B0     		add	sp, sp, #28
  92              		.cfi_def_cfa_offset 12
  93              		@ sp needed
  94 0054 30BD     		pop	{r4, r5, pc}
  95              	.L4:
  96 0056 00BF     		.align	2
  97              	.L3:
  98 0058 00300140 		.word	1073819648
  99              		.cfi_endproc
 100              	.LFE123:
 102              		.section	.text.SPI1_GPIO_Init,"ax",%progbits
 103              		.align	1
 104              		.global	SPI1_GPIO_Init
 105              		.syntax unified
 106              		.thumb
 107              		.thumb_func
 109              	SPI1_GPIO_Init:
 110              	.LFB124:
  36:Lib/bsp/src/SPI1.c **** 
  37:Lib/bsp/src/SPI1.c **** /*******************************************************************************
  38:Lib/bsp/src/SPI1.c ****  * Function Name  : SPI1_GPIO_Init
  39:Lib/bsp/src/SPI1.c ****  * Description    : SPI1 Port initialize
  40:Lib/bsp/src/SPI1.c ****  * Input          : None
  41:Lib/bsp/src/SPI1.c ****  * Output         : None
  42:Lib/bsp/src/SPI1.c ****  * Return         : None
  43:Lib/bsp/src/SPI1.c ****  * Attention		 : None
  44:Lib/bsp/src/SPI1.c ****  *******************************************************************************/
  45:Lib/bsp/src/SPI1.c **** void SPI1_GPIO_Init(void)
  46:Lib/bsp/src/SPI1.c **** {
 111              		.loc 1 46 1 is_stmt 1 view -0
 112              		.cfi_startproc
 113              		@ args = 0, pretend = 0, frame = 8
 114              		@ frame_needed = 0, uses_anonymous_args = 0
 115 0000 70B5     		push	{r4, r5, r6, lr}
 116              		.cfi_def_cfa_offset 16
 117              		.cfi_offset 4, -16
 118              		.cfi_offset 5, -12
 119              		.cfi_offset 6, -8
 120              		.cfi_offset 14, -4
 121 0002 82B0     		sub	sp, sp, #8
 122              		.cfi_def_cfa_offset 24
  47:Lib/bsp/src/SPI1.c ****   GPIO_InitTypeDef GPIO_InitStructure;
 123              		.loc 1 47 3 view .LVU25
  48:Lib/bsp/src/SPI1.c **** 
  49:Lib/bsp/src/SPI1.c ****   /* Peripheral Clock Enable -------------------------------------------------*/
  50:Lib/bsp/src/SPI1.c ****   /* Enable the SPI clock */
  51:Lib/bsp/src/SPI1.c ****   SPIx_CLK_INIT(SPIx_CLK, ENABLE);
ARM GAS  /tmp/ccSnLk44.s 			page 4


 124              		.loc 1 51 3 view .LVU26
 125 0004 0121     		movs	r1, #1
 126 0006 4FF48050 		mov	r0, #4096
 127 000a FFF7FEFF 		bl	RCC_APB2PeriphClockCmd
 128              	.LVL3:
  52:Lib/bsp/src/SPI1.c **** 
  53:Lib/bsp/src/SPI1.c ****   /* Enable GPIO clocks */
  54:Lib/bsp/src/SPI1.c ****   RCC_AHB1PeriphClockCmd(SPIx_SCK_GPIO_CLK | SPIx_MISO_GPIO_CLK | SPIx_MOSI_GPIO_CLK, ENABLE);
 129              		.loc 1 54 3 view .LVU27
 130 000e 0121     		movs	r1, #1
 131 0010 0846     		mov	r0, r1
 132 0012 FFF7FEFF 		bl	RCC_AHB1PeriphClockCmd
 133              	.LVL4:
  55:Lib/bsp/src/SPI1.c **** 
  56:Lib/bsp/src/SPI1.c ****   /* SPI GPIO Configuration --------------------------------------------------*/
  57:Lib/bsp/src/SPI1.c ****   /* GPIO Deinitialisation */
  58:Lib/bsp/src/SPI1.c ****   //  GPIO_DeInit(SPIx_SCK_GPIO_PORT);
  59:Lib/bsp/src/SPI1.c ****   //  GPIO_DeInit(SPIx_MISO_GPIO_PORT);
  60:Lib/bsp/src/SPI1.c ****   //  GPIO_DeInit(SPIx_MOSI_GPIO_PORT);
  61:Lib/bsp/src/SPI1.c **** 
  62:Lib/bsp/src/SPI1.c ****   /* Connect SPI pins to AF5 */
  63:Lib/bsp/src/SPI1.c ****   GPIO_PinAFConfig(SPIx_SCK_GPIO_PORT, SPIx_SCK_SOURCE, SPIx_SCK_AF);
 134              		.loc 1 63 3 view .LVU28
 135 0016 214C     		ldr	r4, .L7
 136 0018 0522     		movs	r2, #5
 137 001a 1146     		mov	r1, r2
 138 001c 2046     		mov	r0, r4
 139 001e FFF7FEFF 		bl	GPIO_PinAFConfig
 140              	.LVL5:
  64:Lib/bsp/src/SPI1.c ****   GPIO_PinAFConfig(SPIx_MISO_GPIO_PORT, SPIx_MISO_SOURCE, SPIx_MISO_AF);
 141              		.loc 1 64 3 view .LVU29
 142 0022 0522     		movs	r2, #5
 143 0024 0621     		movs	r1, #6
 144 0026 2046     		mov	r0, r4
 145 0028 FFF7FEFF 		bl	GPIO_PinAFConfig
 146              	.LVL6:
  65:Lib/bsp/src/SPI1.c ****   GPIO_PinAFConfig(SPIx_MOSI_GPIO_PORT, SPIx_MOSI_SOURCE, SPIx_MOSI_AF);
 147              		.loc 1 65 3 view .LVU30
 148 002c 0522     		movs	r2, #5
 149 002e 0721     		movs	r1, #7
 150 0030 2046     		mov	r0, r4
 151 0032 FFF7FEFF 		bl	GPIO_PinAFConfig
 152              	.LVL7:
  66:Lib/bsp/src/SPI1.c **** 
  67:Lib/bsp/src/SPI1.c ****   GPIO_InitStructure.GPIO_Mode = GPIO_Mode_AF;
 153              		.loc 1 67 3 view .LVU31
 154              		.loc 1 67 32 is_stmt 0 view .LVU32
 155 0036 0225     		movs	r5, #2
 156 0038 8DF80450 		strb	r5, [sp, #4]
  68:Lib/bsp/src/SPI1.c ****   GPIO_InitStructure.GPIO_Speed = GPIO_Speed_50MHz;
 157              		.loc 1 68 3 is_stmt 1 view .LVU33
 158              		.loc 1 68 33 is_stmt 0 view .LVU34
 159 003c 8DF80550 		strb	r5, [sp, #5]
  69:Lib/bsp/src/SPI1.c ****   GPIO_InitStructure.GPIO_OType = GPIO_OType_PP;
 160              		.loc 1 69 3 is_stmt 1 view .LVU35
 161              		.loc 1 69 33 is_stmt 0 view .LVU36
 162 0040 0026     		movs	r6, #0
ARM GAS  /tmp/ccSnLk44.s 			page 5


 163 0042 8DF80660 		strb	r6, [sp, #6]
  70:Lib/bsp/src/SPI1.c ****   GPIO_InitStructure.GPIO_PuPd = GPIO_PuPd_DOWN;
 164              		.loc 1 70 3 is_stmt 1 view .LVU37
 165              		.loc 1 70 32 is_stmt 0 view .LVU38
 166 0046 8DF80750 		strb	r5, [sp, #7]
  71:Lib/bsp/src/SPI1.c **** 
  72:Lib/bsp/src/SPI1.c ****   /* SPI SCK pin configuration */
  73:Lib/bsp/src/SPI1.c ****   GPIO_InitStructure.GPIO_Pin = SPIx_SCK_PIN;
 167              		.loc 1 73 3 is_stmt 1 view .LVU39
 168              		.loc 1 73 31 is_stmt 0 view .LVU40
 169 004a 2023     		movs	r3, #32
 170 004c 0093     		str	r3, [sp]
  74:Lib/bsp/src/SPI1.c ****   GPIO_Init(SPIx_SCK_GPIO_PORT, &GPIO_InitStructure);
 171              		.loc 1 74 3 is_stmt 1 view .LVU41
 172 004e 6946     		mov	r1, sp
 173 0050 2046     		mov	r0, r4
 174 0052 FFF7FEFF 		bl	GPIO_Init
 175              	.LVL8:
  75:Lib/bsp/src/SPI1.c **** 
  76:Lib/bsp/src/SPI1.c ****   /* SPI  MISO pin configuration */
  77:Lib/bsp/src/SPI1.c ****   GPIO_InitStructure.GPIO_Pin = SPIx_MISO_PIN;
 176              		.loc 1 77 3 view .LVU42
 177              		.loc 1 77 31 is_stmt 0 view .LVU43
 178 0056 4023     		movs	r3, #64
 179 0058 0093     		str	r3, [sp]
  78:Lib/bsp/src/SPI1.c ****   GPIO_Init(SPIx_MISO_GPIO_PORT, &GPIO_InitStructure);
 180              		.loc 1 78 3 is_stmt 1 view .LVU44
 181 005a 6946     		mov	r1, sp
 182 005c 2046     		mov	r0, r4
 183 005e FFF7FEFF 		bl	GPIO_Init
 184              	.LVL9:
  79:Lib/bsp/src/SPI1.c **** 
  80:Lib/bsp/src/SPI1.c ****   /* SPI  MOSI pin configuration */
  81:Lib/bsp/src/SPI1.c ****   GPIO_InitStructure.GPIO_Pin = SPIx_MOSI_PIN;
 185              		.loc 1 81 3 view .LVU45
 186              		.loc 1 81 31 is_stmt 0 view .LVU46
 187 0062 8023     		movs	r3, #128
 188 0064 0093     		str	r3, [sp]
  82:Lib/bsp/src/SPI1.c ****   GPIO_Init(SPIx_MOSI_GPIO_PORT, &GPIO_InitStructure);
 189              		.loc 1 82 3 is_stmt 1 view .LVU47
 190 0066 6946     		mov	r1, sp
 191 0068 2046     		mov	r0, r4
 192 006a FFF7FEFF 		bl	GPIO_Init
 193              	.LVL10:
  83:Lib/bsp/src/SPI1.c **** 
  84:Lib/bsp/src/SPI1.c ****   /* Enable GPIO clocks */
  85:Lib/bsp/src/SPI1.c ****   RCC_AHB1PeriphClockCmd(RCC_AHB1Periph_GPIOA, ENABLE);
 194              		.loc 1 85 3 view .LVU48
 195 006e 0121     		movs	r1, #1
 196 0070 0846     		mov	r0, r1
 197 0072 FFF7FEFF 		bl	RCC_AHB1PeriphClockCmd
 198              	.LVL11:
  86:Lib/bsp/src/SPI1.c **** 
  87:Lib/bsp/src/SPI1.c ****   /* CS */
  88:Lib/bsp/src/SPI1.c ****   GPIO_InitStructure.GPIO_Pin = GPIO_Pin_4;
 199              		.loc 1 88 3 view .LVU49
 200              		.loc 1 88 31 is_stmt 0 view .LVU50
ARM GAS  /tmp/ccSnLk44.s 			page 6


 201 0076 1023     		movs	r3, #16
 202 0078 0093     		str	r3, [sp]
  89:Lib/bsp/src/SPI1.c ****   GPIO_InitStructure.GPIO_Mode = GPIO_Mode_OUT;
 203              		.loc 1 89 3 is_stmt 1 view .LVU51
 204              		.loc 1 89 32 is_stmt 0 view .LVU52
 205 007a 0123     		movs	r3, #1
 206 007c 8DF80430 		strb	r3, [sp, #4]
  90:Lib/bsp/src/SPI1.c ****   GPIO_InitStructure.GPIO_Speed = GPIO_Speed_50MHz;
 207              		.loc 1 90 3 is_stmt 1 view .LVU53
 208              		.loc 1 90 33 is_stmt 0 view .LVU54
 209 0080 8DF80550 		strb	r5, [sp, #5]
  91:Lib/bsp/src/SPI1.c ****   GPIO_InitStructure.GPIO_OType = GPIO_OType_PP;
 210              		.loc 1 91 3 is_stmt 1 view .LVU55
 211              		.loc 1 91 33 is_stmt 0 view .LVU56
 212 0084 8DF80660 		strb	r6, [sp, #6]
  92:Lib/bsp/src/SPI1.c ****   GPIO_InitStructure.GPIO_PuPd = GPIO_PuPd_UP;
 213              		.loc 1 92 3 is_stmt 1 view .LVU57
 214              		.loc 1 92 32 is_stmt 0 view .LVU58
 215 0088 8DF80730 		strb	r3, [sp, #7]
  93:Lib/bsp/src/SPI1.c ****   GPIO_Init(GPIOA, &GPIO_InitStructure);
 216              		.loc 1 93 3 is_stmt 1 view .LVU59
 217 008c 6946     		mov	r1, sp
 218 008e 2046     		mov	r0, r4
 219 0090 FFF7FEFF 		bl	GPIO_Init
 220              	.LVL12:
  94:Lib/bsp/src/SPI1.c **** 
  95:Lib/bsp/src/SPI1.c ****   SPI1_Init();
 221              		.loc 1 95 3 view .LVU60
 222 0094 FFF7FEFF 		bl	SPI1_Init
 223              	.LVL13:
  96:Lib/bsp/src/SPI1.c **** }
 224              		.loc 1 96 1 is_stmt 0 view .LVU61
 225 0098 02B0     		add	sp, sp, #8
 226              		.cfi_def_cfa_offset 16
 227              		@ sp needed
 228 009a 70BD     		pop	{r4, r5, r6, pc}
 229              	.L8:
 230              		.align	2
 231              	.L7:
 232 009c 00000240 		.word	1073872896
 233              		.cfi_endproc
 234              	.LFE124:
 236              		.section	.text.WR_CMD,"ax",%progbits
 237              		.align	1
 238              		.global	WR_CMD
 239              		.syntax unified
 240              		.thumb
 241              		.thumb_func
 243              	WR_CMD:
 244              	.LVL14:
 245              	.LFB125:
  97:Lib/bsp/src/SPI1.c **** 
  98:Lib/bsp/src/SPI1.c **** /*******************************************************************************
  99:Lib/bsp/src/SPI1.c ****  * Function Name  : WR_CMD
 100:Lib/bsp/src/SPI1.c ****  * Description    : Read and Wire data to ET1100
 101:Lib/bsp/src/SPI1.c ****  * Input          : - cmd: the data send to ET1100
 102:Lib/bsp/src/SPI1.c ****  * Output         : none
ARM GAS  /tmp/ccSnLk44.s 			page 7


 103:Lib/bsp/src/SPI1.c ****  * Return         : temp: the data read from ET1100
 104:Lib/bsp/src/SPI1.c ****  * Attention		 : None
 105:Lib/bsp/src/SPI1.c ****  *******************************************************************************/
 106:Lib/bsp/src/SPI1.c **** uint8_t WR_CMD(uint8_t cmd)
 107:Lib/bsp/src/SPI1.c **** {
 246              		.loc 1 107 1 is_stmt 1 view -0
 247              		.cfi_startproc
 248              		@ args = 0, pretend = 0, frame = 0
 249              		@ frame_needed = 0, uses_anonymous_args = 0
 250              		.loc 1 107 1 is_stmt 0 view .LVU63
 251 0000 10B5     		push	{r4, lr}
 252              		.cfi_def_cfa_offset 8
 253              		.cfi_offset 4, -8
 254              		.cfi_offset 14, -4
 255 0002 0446     		mov	r4, r0
 108:Lib/bsp/src/SPI1.c ****   uint8_t temp;
 256              		.loc 1 108 3 is_stmt 1 view .LVU64
 109:Lib/bsp/src/SPI1.c **** 
 110:Lib/bsp/src/SPI1.c ****   /* Wait for SPI1 Tx buffer empty */
 111:Lib/bsp/src/SPI1.c ****   while (SPI_I2S_GetFlagStatus(SPI1, SPI_I2S_FLAG_TXE) == RESET)
 257              		.loc 1 111 3 view .LVU65
 258              	.LVL15:
 259              	.L10:
 112:Lib/bsp/src/SPI1.c ****     ;
 260              		.loc 1 112 5 discriminator 1 view .LVU66
 111:Lib/bsp/src/SPI1.c ****     ;
 261              		.loc 1 111 9 discriminator 1 view .LVU67
 111:Lib/bsp/src/SPI1.c ****     ;
 262              		.loc 1 111 10 is_stmt 0 discriminator 1 view .LVU68
 263 0004 0221     		movs	r1, #2
 264 0006 0A48     		ldr	r0, .L13
 265 0008 FFF7FEFF 		bl	SPI_I2S_GetFlagStatus
 266              	.LVL16:
 111:Lib/bsp/src/SPI1.c ****     ;
 267              		.loc 1 111 9 discriminator 1 view .LVU69
 268 000c 0028     		cmp	r0, #0
 269 000e F9D0     		beq	.L10
 113:Lib/bsp/src/SPI1.c ****   /* Send SPI1 data */
 114:Lib/bsp/src/SPI1.c ****   SPI_I2S_SendData(SPI1, cmd);
 270              		.loc 1 114 3 is_stmt 1 view .LVU70
 271 0010 2146     		mov	r1, r4
 272 0012 0748     		ldr	r0, .L13
 273 0014 FFF7FEFF 		bl	SPI_I2S_SendData
 274              	.LVL17:
 115:Lib/bsp/src/SPI1.c ****   /* Wait for SPI1 data reception */
 116:Lib/bsp/src/SPI1.c ****   while (SPI_I2S_GetFlagStatus(SPI1, SPI_I2S_FLAG_RXNE) == RESET)
 275              		.loc 1 116 3 view .LVU71
 276              	.L11:
 117:Lib/bsp/src/SPI1.c ****     ;
 277              		.loc 1 117 5 discriminator 1 view .LVU72
 116:Lib/bsp/src/SPI1.c ****     ;
 278              		.loc 1 116 9 discriminator 1 view .LVU73
 116:Lib/bsp/src/SPI1.c ****     ;
 279              		.loc 1 116 10 is_stmt 0 discriminator 1 view .LVU74
 280 0018 0121     		movs	r1, #1
 281 001a 0548     		ldr	r0, .L13
 282 001c FFF7FEFF 		bl	SPI_I2S_GetFlagStatus
ARM GAS  /tmp/ccSnLk44.s 			page 8


 283              	.LVL18:
 116:Lib/bsp/src/SPI1.c ****     ;
 284              		.loc 1 116 9 discriminator 1 view .LVU75
 285 0020 0028     		cmp	r0, #0
 286 0022 F9D0     		beq	.L11
 118:Lib/bsp/src/SPI1.c ****   /* Read SPI1 received data */
 119:Lib/bsp/src/SPI1.c ****   temp = SPI_I2S_ReceiveData(SPI1);
 287              		.loc 1 119 3 is_stmt 1 view .LVU76
 288              		.loc 1 119 10 is_stmt 0 view .LVU77
 289 0024 0248     		ldr	r0, .L13
 290 0026 FFF7FEFF 		bl	SPI_I2S_ReceiveData
 291              	.LVL19:
 120:Lib/bsp/src/SPI1.c ****   return temp;
 292              		.loc 1 120 3 is_stmt 1 view .LVU78
 121:Lib/bsp/src/SPI1.c **** }
 293              		.loc 1 121 1 is_stmt 0 view .LVU79
 294 002a C0B2     		uxtb	r0, r0
 295              		.loc 1 121 1 view .LVU80
 296 002c 10BD     		pop	{r4, pc}
 297              	.L14:
 298 002e 00BF     		.align	2
 299              	.L13:
 300 0030 00300140 		.word	1073819648
 301              		.cfi_endproc
 302              	.LFE125:
 304              		.text
 305              	.Letext0:
 306              		.file 2 "/usr/share/gcc-arm-none-eabi-10.3-2021.10/arm-none-eabi/include/machine/_default_types.h"
 307              		.file 3 "/usr/share/gcc-arm-none-eabi-10.3-2021.10/arm-none-eabi/include/sys/_stdint.h"
 308              		.file 4 "Drivers/CMSIS/Device/ST/STM32F4xx/Include/stm32f4xx.h"
 309              		.file 5 "Drivers/STM32F4xx_StdPeriph_Driver/inc/stm32f4xx_gpio.h"
 310              		.file 6 "Drivers/STM32F4xx_StdPeriph_Driver/inc/stm32f4xx_spi.h"
 311              		.file 7 "Drivers/STM32F4xx_StdPeriph_Driver/inc/stm32f4xx_rcc.h"
ARM GAS  /tmp/ccSnLk44.s 			page 9

