ARM GAS  /tmp/ccLaW9t9.s 			page 1


   1              		.cpu cortex-m4
   2              		.arch armv7e-m
   3              		.fpu fpv4-sp-d16
   4              		.eabi_attribute 27, 1
   5              		.eabi_attribute 28, 1
   6              		.eabi_attribute 20, 1
   7              		.eabi_attribute 21, 1
   8              		.eabi_attribute 23, 3
   9              		.eabi_attribute 24, 1
  10              		.eabi_attribute 25, 1
  11              		.eabi_attribute 26, 1
  12              		.eabi_attribute 30, 1
  13              		.eabi_attribute 34, 1
  14              		.eabi_attribute 18, 4
  15              		.file	"el9800appl.c"
  16              		.text
  17              	.Ltext0:
  18              		.cfi_sections	.debug_frame
  19              		.section	.text.APPL_AckErrorInd,"ax",%progbits
  20              		.align	1
  21              		.global	APPL_AckErrorInd
  22              		.syntax unified
  23              		.thumb
  24              		.thumb_func
  26              	APPL_AckErrorInd:
  27              	.LVL0:
  28              	.LFB123:
  29              		.file 1 "Lib/ssc_app/src/el9800appl.c"
   1:Lib/ssc_app/src/el9800appl.c **** // ############################################################
   2:Lib/ssc_app/src/el9800appl.c **** // ÔøΩÔøΩÔøΩÔøΩÔøΩÔøΩ÷ªÔøΩÔøΩ—ßœ∞ πÔøΩ√£ÔøΩŒ¥ÔøΩÔøΩÔøΩÔøΩÔøΩÔøΩÔøΩÔøΩÔøΩ…£ÔøΩÔøΩÔøΩÔøΩÔøΩÔøΩÔøΩÔøΩÔ
   3:Lib/ssc_app/src/el9800appl.c **** // ÔøΩÔøΩ»®ÔøΩÔøΩÔøΩ–£ÔøΩÔøΩÔøΩÔøΩÔøΩÿæÔøΩ
   4:Lib/ssc_app/src/el9800appl.c **** // EtherCATÔøΩÔøΩ’æ—ßœ∞ÔøΩÔøΩ
   5:Lib/ssc_app/src/el9800appl.c **** // AuthorÔøΩÔøΩÕ¢ÔøΩÔøΩÔøΩÔøΩÔøΩÔøΩÔøΩÔøΩÔøΩ
   6:Lib/ssc_app/src/el9800appl.c **** // ÔøΩ‘±ÔøΩÔøΩÔøΩÔøΩÔøΩ: https://shop461235811.taobao.com/
   7:Lib/ssc_app/src/el9800appl.c **** // ÔøΩ“µƒ≤ÔøΩÔøΩÕ£ÔøΩhttps://blog.csdn.net/zhandouhu/article/category/9455918
   8:Lib/ssc_app/src/el9800appl.c **** // ############################################################
   9:Lib/ssc_app/src/el9800appl.c **** /**
  10:Lib/ssc_app/src/el9800appl.c **** \addtogroup EL9800Appl EL9800 application
  11:Lib/ssc_app/src/el9800appl.c **** @{
  12:Lib/ssc_app/src/el9800appl.c **** */
  13:Lib/ssc_app/src/el9800appl.c **** 
  14:Lib/ssc_app/src/el9800appl.c **** /**
  15:Lib/ssc_app/src/el9800appl.c **** \file el9800appl.c
  16:Lib/ssc_app/src/el9800appl.c **** \author EthercatSSC@beckhoff.com
  17:Lib/ssc_app/src/el9800appl.c **** \brief Implementation
  18:Lib/ssc_app/src/el9800appl.c **** 
  19:Lib/ssc_app/src/el9800appl.c **** \version 5.11
  20:Lib/ssc_app/src/el9800appl.c **** 
  21:Lib/ssc_app/src/el9800appl.c **** <br>Changes to version V5.10:<br>
  22:Lib/ssc_app/src/el9800appl.c **** V5.11 ECAT11: create application interface function pointer, add eeprom emulation interface functio
  23:Lib/ssc_app/src/el9800appl.c **** V5.11 EL9800 1: reset outputs on fallback from OP state<br>
  24:Lib/ssc_app/src/el9800appl.c **** <br>Changes to version V5.01:<br>
  25:Lib/ssc_app/src/el9800appl.c **** V5.10 ECAT6: Add "USE_DEFAULT_MAIN" to enable or disable the main function<br>
  26:Lib/ssc_app/src/el9800appl.c **** <br>Changes to version V5.0:<br>
  27:Lib/ssc_app/src/el9800appl.c **** V5.01 EL9800 2: Add TxPdo Parameter object 0x1802<br>
  28:Lib/ssc_app/src/el9800appl.c **** <br>Changes to version V4.30:<br>
  29:Lib/ssc_app/src/el9800appl.c **** V4.50 ECAT2: Create generic application interface functions. Documentation in Application Note ET93
ARM GAS  /tmp/ccLaW9t9.s 			page 2


  30:Lib/ssc_app/src/el9800appl.c **** V4.50 COE2: Handle invalid PDO assign values.<br>
  31:Lib/ssc_app/src/el9800appl.c **** V4.30 : create file
  32:Lib/ssc_app/src/el9800appl.c **** */
  33:Lib/ssc_app/src/el9800appl.c **** 
  34:Lib/ssc_app/src/el9800appl.c **** /*-----------------------------------------------------------------------------------------
  35:Lib/ssc_app/src/el9800appl.c **** ------
  36:Lib/ssc_app/src/el9800appl.c **** ------    Includes
  37:Lib/ssc_app/src/el9800appl.c **** ------
  38:Lib/ssc_app/src/el9800appl.c **** -----------------------------------------------------------------------------------------*/
  39:Lib/ssc_app/src/el9800appl.c **** #include "ecat_def.h"
  40:Lib/ssc_app/src/el9800appl.c **** 
  41:Lib/ssc_app/src/el9800appl.c **** #if EL9800_APPLICATION
  42:Lib/ssc_app/src/el9800appl.c **** 
  43:Lib/ssc_app/src/el9800appl.c **** /* ECATCHANGE_START(V5.11) ECAT11*/
  44:Lib/ssc_app/src/el9800appl.c **** #include "applInterface.h"
  45:Lib/ssc_app/src/el9800appl.c **** /* ECATCHANGE_END(V5.11) ECAT11*/
  46:Lib/ssc_app/src/el9800appl.c **** 
  47:Lib/ssc_app/src/el9800appl.c **** // #include "el9800hw.h"
  48:Lib/ssc_app/src/el9800appl.c **** 
  49:Lib/ssc_app/src/el9800appl.c **** #define _EVALBOARD_
  50:Lib/ssc_app/src/el9800appl.c **** #include "el9800appl.h"
  51:Lib/ssc_app/src/el9800appl.c **** #undef _EVALBOARD_
  52:Lib/ssc_app/src/el9800appl.c **** 
  53:Lib/ssc_app/src/el9800appl.c **** #if MCI_HW
  54:Lib/ssc_app/src/el9800appl.c **** #include "mcihw.h"
  55:Lib/ssc_app/src/el9800appl.c **** #endif
  56:Lib/ssc_app/src/el9800appl.c **** #if EL9800_HW
  57:Lib/ssc_app/src/el9800appl.c **** #include "el9800hw.h"
  58:Lib/ssc_app/src/el9800appl.c **** #endif
  59:Lib/ssc_app/src/el9800appl.c **** /*--------------------------------------------------------------------------------------
  60:Lib/ssc_app/src/el9800appl.c **** ------
  61:Lib/ssc_app/src/el9800appl.c **** ------    local types and defines
  62:Lib/ssc_app/src/el9800appl.c **** ------
  63:Lib/ssc_app/src/el9800appl.c **** --------------------------------------------------------------------------------------*/
  64:Lib/ssc_app/src/el9800appl.c **** 
  65:Lib/ssc_app/src/el9800appl.c **** /*-----------------------------------------------------------------------------------------
  66:Lib/ssc_app/src/el9800appl.c **** ------
  67:Lib/ssc_app/src/el9800appl.c **** ------    local variables and constants
  68:Lib/ssc_app/src/el9800appl.c **** ------
  69:Lib/ssc_app/src/el9800appl.c **** -----------------------------------------------------------------------------------------*/
  70:Lib/ssc_app/src/el9800appl.c **** 
  71:Lib/ssc_app/src/el9800appl.c **** /*-----------------------------------------------------------------------------------------
  72:Lib/ssc_app/src/el9800appl.c **** ------
  73:Lib/ssc_app/src/el9800appl.c **** ------    application specific functions
  74:Lib/ssc_app/src/el9800appl.c **** ------
  75:Lib/ssc_app/src/el9800appl.c **** -----------------------------------------------------------------------------------------*/
  76:Lib/ssc_app/src/el9800appl.c **** 
  77:Lib/ssc_app/src/el9800appl.c **** /*-----------------------------------------------------------------------------------------
  78:Lib/ssc_app/src/el9800appl.c **** ------
  79:Lib/ssc_app/src/el9800appl.c **** ------    generic functions
  80:Lib/ssc_app/src/el9800appl.c **** ------
  81:Lib/ssc_app/src/el9800appl.c **** -----------------------------------------------------------------------------------------*/
  82:Lib/ssc_app/src/el9800appl.c **** 
  83:Lib/ssc_app/src/el9800appl.c **** /////////////////////////////////////////////////////////////////////////////////////////
  84:Lib/ssc_app/src/el9800appl.c **** /**
  85:Lib/ssc_app/src/el9800appl.c ****  \brief    The function is called when an error state was acknowledged by the master
  86:Lib/ssc_app/src/el9800appl.c **** 
ARM GAS  /tmp/ccLaW9t9.s 			page 3


  87:Lib/ssc_app/src/el9800appl.c **** */
  88:Lib/ssc_app/src/el9800appl.c **** ///////////////////////////////////////////////////////////////////////////////////////
  89:Lib/ssc_app/src/el9800appl.c **** 
  90:Lib/ssc_app/src/el9800appl.c **** void APPL_AckErrorInd(UINT16 stateTrans)
  91:Lib/ssc_app/src/el9800appl.c **** {
  30              		.loc 1 91 1 view -0
  31              		.cfi_startproc
  32              		@ args = 0, pretend = 0, frame = 0
  33              		@ frame_needed = 0, uses_anonymous_args = 0
  34              		@ link register save eliminated.
  92:Lib/ssc_app/src/el9800appl.c **** }
  35              		.loc 1 92 1 view .LVU1
  36 0000 7047     		bx	lr
  37              		.cfi_endproc
  38              	.LFE123:
  40              		.section	.text.APPL_StartMailboxHandler,"ax",%progbits
  41              		.align	1
  42              		.global	APPL_StartMailboxHandler
  43              		.syntax unified
  44              		.thumb
  45              		.thumb_func
  47              	APPL_StartMailboxHandler:
  48              	.LFB124:
  93:Lib/ssc_app/src/el9800appl.c **** 
  94:Lib/ssc_app/src/el9800appl.c **** /////////////////////////////////////////////////////////////////////////////////////////
  95:Lib/ssc_app/src/el9800appl.c **** /**
  96:Lib/ssc_app/src/el9800appl.c ****  \return    AL Status Code (see ecatslv.h ALSTATUSCODE_....)
  97:Lib/ssc_app/src/el9800appl.c **** 
  98:Lib/ssc_app/src/el9800appl.c ****  \brief    The function is called in the state transition from INIT to PREOP when
  99:Lib/ssc_app/src/el9800appl.c ****            all general settings were checked to start the mailbox handler. This function
 100:Lib/ssc_app/src/el9800appl.c ****            informs the application about the state transition, the application can refuse
 101:Lib/ssc_app/src/el9800appl.c ****            the state transition when returning an AL Status error code.
 102:Lib/ssc_app/src/el9800appl.c ****            The return code NOERROR_INWORK can be used, if the application cannot confirm
 103:Lib/ssc_app/src/el9800appl.c ****            the state transition immediately, in that case the application need to be complete
 104:Lib/ssc_app/src/el9800appl.c ****            the transition by calling ECAT_StateChange.
 105:Lib/ssc_app/src/el9800appl.c **** 
 106:Lib/ssc_app/src/el9800appl.c **** */
 107:Lib/ssc_app/src/el9800appl.c **** ///////////////////////////////////////////////////////////////////////////////////////
 108:Lib/ssc_app/src/el9800appl.c **** 
 109:Lib/ssc_app/src/el9800appl.c **** UINT16 APPL_StartMailboxHandler(void)
 110:Lib/ssc_app/src/el9800appl.c **** {
  49              		.loc 1 110 1 view -0
  50              		.cfi_startproc
  51              		@ args = 0, pretend = 0, frame = 0
  52              		@ frame_needed = 0, uses_anonymous_args = 0
  53              		@ link register save eliminated.
 111:Lib/ssc_app/src/el9800appl.c ****     return ALSTATUSCODE_NOERROR;
  54              		.loc 1 111 5 view .LVU3
 112:Lib/ssc_app/src/el9800appl.c **** }
  55              		.loc 1 112 1 is_stmt 0 view .LVU4
  56 0000 0020     		movs	r0, #0
  57 0002 7047     		bx	lr
  58              		.cfi_endproc
  59              	.LFE124:
  61              		.section	.text.APPL_StopMailboxHandler,"ax",%progbits
  62              		.align	1
  63              		.global	APPL_StopMailboxHandler
ARM GAS  /tmp/ccLaW9t9.s 			page 4


  64              		.syntax unified
  65              		.thumb
  66              		.thumb_func
  68              	APPL_StopMailboxHandler:
  69              	.LFB125:
 113:Lib/ssc_app/src/el9800appl.c **** 
 114:Lib/ssc_app/src/el9800appl.c **** /////////////////////////////////////////////////////////////////////////////////////////
 115:Lib/ssc_app/src/el9800appl.c **** /**
 116:Lib/ssc_app/src/el9800appl.c ****  \return     0, NOERROR_INWORK
 117:Lib/ssc_app/src/el9800appl.c **** 
 118:Lib/ssc_app/src/el9800appl.c ****  \brief    The function is called in the state transition from PREEOP to INIT
 119:Lib/ssc_app/src/el9800appl.c ****              to stop the mailbox handler. This functions informs the application
 120:Lib/ssc_app/src/el9800appl.c ****              about the state transition, the application cannot refuse
 121:Lib/ssc_app/src/el9800appl.c ****              the state transition.
 122:Lib/ssc_app/src/el9800appl.c **** 
 123:Lib/ssc_app/src/el9800appl.c **** */
 124:Lib/ssc_app/src/el9800appl.c **** ///////////////////////////////////////////////////////////////////////////////////////
 125:Lib/ssc_app/src/el9800appl.c **** 
 126:Lib/ssc_app/src/el9800appl.c **** UINT16 APPL_StopMailboxHandler(void)
 127:Lib/ssc_app/src/el9800appl.c **** {
  70              		.loc 1 127 1 is_stmt 1 view -0
  71              		.cfi_startproc
  72              		@ args = 0, pretend = 0, frame = 0
  73              		@ frame_needed = 0, uses_anonymous_args = 0
  74              		@ link register save eliminated.
 128:Lib/ssc_app/src/el9800appl.c ****     return ALSTATUSCODE_NOERROR;
  75              		.loc 1 128 5 view .LVU6
 129:Lib/ssc_app/src/el9800appl.c **** }
  76              		.loc 1 129 1 is_stmt 0 view .LVU7
  77 0000 0020     		movs	r0, #0
  78 0002 7047     		bx	lr
  79              		.cfi_endproc
  80              	.LFE125:
  82              		.section	.text.APPL_StartInputHandler,"ax",%progbits
  83              		.align	1
  84              		.global	APPL_StartInputHandler
  85              		.syntax unified
  86              		.thumb
  87              		.thumb_func
  89              	APPL_StartInputHandler:
  90              	.LVL1:
  91              	.LFB126:
 130:Lib/ssc_app/src/el9800appl.c **** 
 131:Lib/ssc_app/src/el9800appl.c **** /////////////////////////////////////////////////////////////////////////////////////////
 132:Lib/ssc_app/src/el9800appl.c **** /**
 133:Lib/ssc_app/src/el9800appl.c ****  \param    pIntMask    pointer to the AL Event Mask which will be written to the AL event Mask
 134:Lib/ssc_app/src/el9800appl.c ****                         register (0x204) when this function is succeeded. The event mask can be ada
 135:Lib/ssc_app/src/el9800appl.c ****                         in this function
 136:Lib/ssc_app/src/el9800appl.c ****  \return    AL Status Code (see ecatslv.h ALSTATUSCODE_....)
 137:Lib/ssc_app/src/el9800appl.c **** 
 138:Lib/ssc_app/src/el9800appl.c ****  \brief    The function is called in the state transition from PREOP to SAFEOP when
 139:Lib/ssc_app/src/el9800appl.c ****              all general settings were checked to start the input handler. This function
 140:Lib/ssc_app/src/el9800appl.c ****              informs the application about the state transition, the application can refuse
 141:Lib/ssc_app/src/el9800appl.c ****              the state transition when returning an AL Status error code.
 142:Lib/ssc_app/src/el9800appl.c ****             The return code NOERROR_INWORK can be used, if the application cannot confirm
 143:Lib/ssc_app/src/el9800appl.c ****             the state transition immediately, in that case the application need to be complete
 144:Lib/ssc_app/src/el9800appl.c ****             the transition by calling ECAT_StateChange.
ARM GAS  /tmp/ccLaW9t9.s 			page 5


 145:Lib/ssc_app/src/el9800appl.c **** */
 146:Lib/ssc_app/src/el9800appl.c **** ///////////////////////////////////////////////////////////////////////////////////////
 147:Lib/ssc_app/src/el9800appl.c **** 
 148:Lib/ssc_app/src/el9800appl.c **** UINT16 APPL_StartInputHandler(UINT16 *pIntMask)
 149:Lib/ssc_app/src/el9800appl.c **** {
  92              		.loc 1 149 1 is_stmt 1 view -0
  93              		.cfi_startproc
  94              		@ args = 0, pretend = 0, frame = 0
  95              		@ frame_needed = 0, uses_anonymous_args = 0
  96              		@ link register save eliminated.
 150:Lib/ssc_app/src/el9800appl.c ****     return ALSTATUSCODE_NOERROR;
  97              		.loc 1 150 5 view .LVU9
 151:Lib/ssc_app/src/el9800appl.c **** }
  98              		.loc 1 151 1 is_stmt 0 view .LVU10
  99 0000 0020     		movs	r0, #0
 100              	.LVL2:
 101              		.loc 1 151 1 view .LVU11
 102 0002 7047     		bx	lr
 103              		.cfi_endproc
 104              	.LFE126:
 106              		.section	.text.APPL_StopInputHandler,"ax",%progbits
 107              		.align	1
 108              		.global	APPL_StopInputHandler
 109              		.syntax unified
 110              		.thumb
 111              		.thumb_func
 113              	APPL_StopInputHandler:
 114              	.LFB127:
 152:Lib/ssc_app/src/el9800appl.c **** 
 153:Lib/ssc_app/src/el9800appl.c **** /////////////////////////////////////////////////////////////////////////////////////////
 154:Lib/ssc_app/src/el9800appl.c **** /**
 155:Lib/ssc_app/src/el9800appl.c ****  \return     0, NOERROR_INWORK
 156:Lib/ssc_app/src/el9800appl.c **** 
 157:Lib/ssc_app/src/el9800appl.c ****  \brief    The function is called in the state transition from SAFEOP to PREEOP
 158:Lib/ssc_app/src/el9800appl.c ****              to stop the input handler. This functions informs the application
 159:Lib/ssc_app/src/el9800appl.c ****              about the state transition, the application cannot refuse
 160:Lib/ssc_app/src/el9800appl.c ****              the state transition.
 161:Lib/ssc_app/src/el9800appl.c **** 
 162:Lib/ssc_app/src/el9800appl.c **** */
 163:Lib/ssc_app/src/el9800appl.c **** ///////////////////////////////////////////////////////////////////////////////////////
 164:Lib/ssc_app/src/el9800appl.c **** 
 165:Lib/ssc_app/src/el9800appl.c **** UINT16 APPL_StopInputHandler(void)
 166:Lib/ssc_app/src/el9800appl.c **** {
 115              		.loc 1 166 1 is_stmt 1 view -0
 116              		.cfi_startproc
 117              		@ args = 0, pretend = 0, frame = 0
 118              		@ frame_needed = 0, uses_anonymous_args = 0
 119              		@ link register save eliminated.
 167:Lib/ssc_app/src/el9800appl.c ****     return ALSTATUSCODE_NOERROR;
 120              		.loc 1 167 5 view .LVU13
 168:Lib/ssc_app/src/el9800appl.c **** }
 121              		.loc 1 168 1 is_stmt 0 view .LVU14
 122 0000 0020     		movs	r0, #0
 123 0002 7047     		bx	lr
 124              		.cfi_endproc
 125              	.LFE127:
 127              		.section	.text.APPL_StartOutputHandler,"ax",%progbits
ARM GAS  /tmp/ccLaW9t9.s 			page 6


 128              		.align	1
 129              		.global	APPL_StartOutputHandler
 130              		.syntax unified
 131              		.thumb
 132              		.thumb_func
 134              	APPL_StartOutputHandler:
 135              	.LFB128:
 169:Lib/ssc_app/src/el9800appl.c **** 
 170:Lib/ssc_app/src/el9800appl.c **** /////////////////////////////////////////////////////////////////////////////////////////
 171:Lib/ssc_app/src/el9800appl.c **** /**
 172:Lib/ssc_app/src/el9800appl.c ****  \return    AL Status Code (see ecatslv.h ALSTATUSCODE_....)
 173:Lib/ssc_app/src/el9800appl.c **** 
 174:Lib/ssc_app/src/el9800appl.c ****  \brief    The function is called in the state transition from SAFEOP to OP when
 175:Lib/ssc_app/src/el9800appl.c ****              all general settings were checked to start the output handler. This function
 176:Lib/ssc_app/src/el9800appl.c ****              informs the application about the state transition, the application can refuse
 177:Lib/ssc_app/src/el9800appl.c ****              the state transition when returning an AL Status error code.
 178:Lib/ssc_app/src/el9800appl.c ****            The return code NOERROR_INWORK can be used, if the application cannot confirm
 179:Lib/ssc_app/src/el9800appl.c ****            the state transition immediately, in that case the application need to be complete
 180:Lib/ssc_app/src/el9800appl.c ****            the transition by calling ECAT_StateChange.
 181:Lib/ssc_app/src/el9800appl.c **** */
 182:Lib/ssc_app/src/el9800appl.c **** ///////////////////////////////////////////////////////////////////////////////////////
 183:Lib/ssc_app/src/el9800appl.c **** 
 184:Lib/ssc_app/src/el9800appl.c **** UINT16 APPL_StartOutputHandler(void)
 185:Lib/ssc_app/src/el9800appl.c **** {
 136              		.loc 1 185 1 is_stmt 1 view -0
 137              		.cfi_startproc
 138              		@ args = 0, pretend = 0, frame = 0
 139              		@ frame_needed = 0, uses_anonymous_args = 0
 140              		@ link register save eliminated.
 186:Lib/ssc_app/src/el9800appl.c ****     return ALSTATUSCODE_NOERROR;
 141              		.loc 1 186 5 view .LVU16
 187:Lib/ssc_app/src/el9800appl.c **** }
 142              		.loc 1 187 1 is_stmt 0 view .LVU17
 143 0000 0020     		movs	r0, #0
 144 0002 7047     		bx	lr
 145              		.cfi_endproc
 146              	.LFE128:
 148              		.section	.text.APPL_StopOutputHandler,"ax",%progbits
 149              		.align	1
 150              		.global	APPL_StopOutputHandler
 151              		.syntax unified
 152              		.thumb
 153              		.thumb_func
 155              	APPL_StopOutputHandler:
 156              	.LFB129:
 188:Lib/ssc_app/src/el9800appl.c **** 
 189:Lib/ssc_app/src/el9800appl.c **** /////////////////////////////////////////////////////////////////////////////////////////
 190:Lib/ssc_app/src/el9800appl.c **** /**
 191:Lib/ssc_app/src/el9800appl.c ****  \return     0, NOERROR_INWORK
 192:Lib/ssc_app/src/el9800appl.c **** 
 193:Lib/ssc_app/src/el9800appl.c ****  \brief    The function is called in the state transition from OP to SAFEOP
 194:Lib/ssc_app/src/el9800appl.c ****              to stop the output handler. This functions informs the application
 195:Lib/ssc_app/src/el9800appl.c ****              about the state transition, the application cannot refuse
 196:Lib/ssc_app/src/el9800appl.c ****              the state transition.
 197:Lib/ssc_app/src/el9800appl.c **** 
 198:Lib/ssc_app/src/el9800appl.c **** */
 199:Lib/ssc_app/src/el9800appl.c **** ///////////////////////////////////////////////////////////////////////////////////////
ARM GAS  /tmp/ccLaW9t9.s 			page 7


 200:Lib/ssc_app/src/el9800appl.c **** 
 201:Lib/ssc_app/src/el9800appl.c **** #include "bsp_led.h"
 202:Lib/ssc_app/src/el9800appl.c **** 
 203:Lib/ssc_app/src/el9800appl.c **** extern CanTxMsg Can1_TxMessage; // ÂèëÈÄÅÁºìÂÜ≤Âå∫
 204:Lib/ssc_app/src/el9800appl.c **** extern CanRxMsg Can1_RxMessage; // Êé•Êî∂ÁºìÂÜ≤Âå∫
 205:Lib/ssc_app/src/el9800appl.c **** 
 206:Lib/ssc_app/src/el9800appl.c **** extern CanTxMsg Can2_TxMessage; // ÂèëÈÄÅÁºìÂÜ≤Âå∫
 207:Lib/ssc_app/src/el9800appl.c **** extern CanRxMsg Can2_RxMessage; // Êé•Êî∂ÁºìÂÜ≤Âå∫
 208:Lib/ssc_app/src/el9800appl.c **** 
 209:Lib/ssc_app/src/el9800appl.c **** UINT16 APPL_StopOutputHandler(void)
 210:Lib/ssc_app/src/el9800appl.c **** {
 157              		.loc 1 210 1 is_stmt 1 view -0
 158              		.cfi_startproc
 159              		@ args = 0, pretend = 0, frame = 0
 160              		@ frame_needed = 0, uses_anonymous_args = 0
 161              		@ link register save eliminated.
 211:Lib/ssc_app/src/el9800appl.c ****     /*ECATCHANGE_START(V5.11) EL9800 1*/
 212:Lib/ssc_app/src/el9800appl.c ****     sDOOutputs.bLED1 = 0;
 162              		.loc 1 212 5 view .LVU19
 163              		.loc 1 212 22 is_stmt 0 view .LVU20
 164 0000 1F4B     		ldr	r3, .L8
 165 0002 9A78     		ldrb	r2, [r3, #2]	@ zero_extendqisi2
 166 0004 6FF30002 		bfc	r2, #0, #1
 167 0008 9A70     		strb	r2, [r3, #2]
 213:Lib/ssc_app/src/el9800appl.c ****     sDOOutputs.bLED2 = 0;
 168              		.loc 1 213 5 is_stmt 1 view .LVU21
 169              		.loc 1 213 22 is_stmt 0 view .LVU22
 170 000a D2B2     		uxtb	r2, r2
 171 000c 6FF34102 		bfc	r2, #1, #1
 172 0010 9A70     		strb	r2, [r3, #2]
 214:Lib/ssc_app/src/el9800appl.c ****     sDOOutputs.bLED3 = 0;
 173              		.loc 1 214 5 is_stmt 1 view .LVU23
 174              		.loc 1 214 22 is_stmt 0 view .LVU24
 175 0012 D2B2     		uxtb	r2, r2
 176 0014 6FF38202 		bfc	r2, #2, #1
 177 0018 9A70     		strb	r2, [r3, #2]
 215:Lib/ssc_app/src/el9800appl.c ****     sDOOutputs.bLED4 = 0;
 178              		.loc 1 215 5 is_stmt 1 view .LVU25
 179              		.loc 1 215 22 is_stmt 0 view .LVU26
 180 001a D2B2     		uxtb	r2, r2
 181 001c 6FF3C302 		bfc	r2, #3, #1
 182 0020 9A70     		strb	r2, [r3, #2]
 216:Lib/ssc_app/src/el9800appl.c ****     sDOOutputs.bLED5 = 0;
 183              		.loc 1 216 5 is_stmt 1 view .LVU27
 184              		.loc 1 216 22 is_stmt 0 view .LVU28
 185 0022 D2B2     		uxtb	r2, r2
 186 0024 6FF30412 		bfc	r2, #4, #1
 187 0028 9A70     		strb	r2, [r3, #2]
 217:Lib/ssc_app/src/el9800appl.c ****     sDOOutputs.bLED7 = 0;
 188              		.loc 1 217 5 is_stmt 1 view .LVU29
 189              		.loc 1 217 22 is_stmt 0 view .LVU30
 190 002a D2B2     		uxtb	r2, r2
 191 002c 6FF38612 		bfc	r2, #6, #1
 192 0030 9A70     		strb	r2, [r3, #2]
 218:Lib/ssc_app/src/el9800appl.c ****     sDOOutputs.bLED6 = 0;
 193              		.loc 1 218 5 is_stmt 1 view .LVU31
 194              		.loc 1 218 22 is_stmt 0 view .LVU32
ARM GAS  /tmp/ccLaW9t9.s 			page 8


 195 0032 D2B2     		uxtb	r2, r2
 196 0034 6FF34512 		bfc	r2, #5, #1
 197 0038 9A70     		strb	r2, [r3, #2]
 219:Lib/ssc_app/src/el9800appl.c ****     sDOOutputs.bLED8 = 0;
 198              		.loc 1 219 5 is_stmt 1 view .LVU33
 199              		.loc 1 219 22 is_stmt 0 view .LVU34
 200 003a D2B2     		uxtb	r2, r2
 201 003c 6FF3C712 		bfc	r2, #7, #1
 202 0040 9A70     		strb	r2, [r3, #2]
 220:Lib/ssc_app/src/el9800appl.c **** 
 221:Lib/ssc_app/src/el9800appl.c ****     Can1_TxMessage.StdId = 0;
 203              		.loc 1 221 5 is_stmt 1 view .LVU35
 204              		.loc 1 221 26 is_stmt 0 view .LVU36
 205 0042 104B     		ldr	r3, .L8+4
 206 0044 0020     		movs	r0, #0
 207 0046 1860     		str	r0, [r3]
 222:Lib/ssc_app/src/el9800appl.c ****     Can1_TxMessage.ExtId = 0;
 208              		.loc 1 222 5 is_stmt 1 view .LVU37
 209              		.loc 1 222 26 is_stmt 0 view .LVU38
 210 0048 5860     		str	r0, [r3, #4]
 223:Lib/ssc_app/src/el9800appl.c ****     Can1_TxMessage.IDE = 0;
 211              		.loc 1 223 5 is_stmt 1 view .LVU39
 212              		.loc 1 223 24 is_stmt 0 view .LVU40
 213 004a 1872     		strb	r0, [r3, #8]
 224:Lib/ssc_app/src/el9800appl.c ****     Can1_TxMessage.RTR = 0;
 214              		.loc 1 224 5 is_stmt 1 view .LVU41
 215              		.loc 1 224 24 is_stmt 0 view .LVU42
 216 004c 5872     		strb	r0, [r3, #9]
 225:Lib/ssc_app/src/el9800appl.c ****     Can1_TxMessage.DLC = 0;
 217              		.loc 1 225 5 is_stmt 1 view .LVU43
 218              		.loc 1 225 24 is_stmt 0 view .LVU44
 219 004e 9872     		strb	r0, [r3, #10]
 226:Lib/ssc_app/src/el9800appl.c **** 
 227:Lib/ssc_app/src/el9800appl.c ****     Can1_TxMessage.Data[0] = 0;
 220              		.loc 1 227 5 is_stmt 1 view .LVU45
 221              		.loc 1 227 28 is_stmt 0 view .LVU46
 222 0050 D872     		strb	r0, [r3, #11]
 228:Lib/ssc_app/src/el9800appl.c ****     Can1_TxMessage.Data[1] = 0;
 223              		.loc 1 228 5 is_stmt 1 view .LVU47
 224              		.loc 1 228 28 is_stmt 0 view .LVU48
 225 0052 1873     		strb	r0, [r3, #12]
 229:Lib/ssc_app/src/el9800appl.c ****     Can1_TxMessage.Data[2] = 0;
 226              		.loc 1 229 5 is_stmt 1 view .LVU49
 227              		.loc 1 229 28 is_stmt 0 view .LVU50
 228 0054 5873     		strb	r0, [r3, #13]
 230:Lib/ssc_app/src/el9800appl.c ****     Can1_TxMessage.Data[3] = 0;
 229              		.loc 1 230 5 is_stmt 1 view .LVU51
 230              		.loc 1 230 28 is_stmt 0 view .LVU52
 231 0056 9873     		strb	r0, [r3, #14]
 231:Lib/ssc_app/src/el9800appl.c ****     Can1_TxMessage.Data[4] = 0;
 232              		.loc 1 231 5 is_stmt 1 view .LVU53
 233              		.loc 1 231 28 is_stmt 0 view .LVU54
 234 0058 D873     		strb	r0, [r3, #15]
 232:Lib/ssc_app/src/el9800appl.c ****     Can1_TxMessage.Data[5] = 0;
 235              		.loc 1 232 5 is_stmt 1 view .LVU55
 236              		.loc 1 232 28 is_stmt 0 view .LVU56
 237 005a 1874     		strb	r0, [r3, #16]
ARM GAS  /tmp/ccLaW9t9.s 			page 9


 233:Lib/ssc_app/src/el9800appl.c ****     Can1_TxMessage.Data[6] = 0;
 238              		.loc 1 233 5 is_stmt 1 view .LVU57
 239              		.loc 1 233 28 is_stmt 0 view .LVU58
 240 005c 5874     		strb	r0, [r3, #17]
 234:Lib/ssc_app/src/el9800appl.c ****     Can1_TxMessage.Data[7] = 0;
 241              		.loc 1 234 5 is_stmt 1 view .LVU59
 242              		.loc 1 234 28 is_stmt 0 view .LVU60
 243 005e 9874     		strb	r0, [r3, #18]
 235:Lib/ssc_app/src/el9800appl.c **** 
 236:Lib/ssc_app/src/el9800appl.c ****     Can2_TxMessage.StdId = 0;
 244              		.loc 1 236 5 is_stmt 1 view .LVU61
 245              		.loc 1 236 26 is_stmt 0 view .LVU62
 246 0060 094B     		ldr	r3, .L8+8
 247 0062 1860     		str	r0, [r3]
 237:Lib/ssc_app/src/el9800appl.c ****     Can2_TxMessage.ExtId = 0;
 248              		.loc 1 237 5 is_stmt 1 view .LVU63
 249              		.loc 1 237 26 is_stmt 0 view .LVU64
 250 0064 5860     		str	r0, [r3, #4]
 238:Lib/ssc_app/src/el9800appl.c ****     Can2_TxMessage.IDE = 0;
 251              		.loc 1 238 5 is_stmt 1 view .LVU65
 252              		.loc 1 238 24 is_stmt 0 view .LVU66
 253 0066 1872     		strb	r0, [r3, #8]
 239:Lib/ssc_app/src/el9800appl.c ****     Can2_TxMessage.RTR = 0;
 254              		.loc 1 239 5 is_stmt 1 view .LVU67
 255              		.loc 1 239 24 is_stmt 0 view .LVU68
 256 0068 5872     		strb	r0, [r3, #9]
 240:Lib/ssc_app/src/el9800appl.c ****     Can2_TxMessage.DLC = 0;
 257              		.loc 1 240 5 is_stmt 1 view .LVU69
 258              		.loc 1 240 24 is_stmt 0 view .LVU70
 259 006a 9872     		strb	r0, [r3, #10]
 241:Lib/ssc_app/src/el9800appl.c **** 
 242:Lib/ssc_app/src/el9800appl.c ****     Can2_TxMessage.Data[0] = 0;
 260              		.loc 1 242 5 is_stmt 1 view .LVU71
 261              		.loc 1 242 28 is_stmt 0 view .LVU72
 262 006c D872     		strb	r0, [r3, #11]
 243:Lib/ssc_app/src/el9800appl.c ****     Can2_TxMessage.Data[1] = 0;
 263              		.loc 1 243 5 is_stmt 1 view .LVU73
 264              		.loc 1 243 28 is_stmt 0 view .LVU74
 265 006e 1873     		strb	r0, [r3, #12]
 244:Lib/ssc_app/src/el9800appl.c ****     Can2_TxMessage.Data[2] = 0;
 266              		.loc 1 244 5 is_stmt 1 view .LVU75
 267              		.loc 1 244 28 is_stmt 0 view .LVU76
 268 0070 5873     		strb	r0, [r3, #13]
 245:Lib/ssc_app/src/el9800appl.c ****     Can2_TxMessage.Data[3] = 0;
 269              		.loc 1 245 5 is_stmt 1 view .LVU77
 270              		.loc 1 245 28 is_stmt 0 view .LVU78
 271 0072 9873     		strb	r0, [r3, #14]
 246:Lib/ssc_app/src/el9800appl.c ****     Can2_TxMessage.Data[4] = 0;
 272              		.loc 1 246 5 is_stmt 1 view .LVU79
 273              		.loc 1 246 28 is_stmt 0 view .LVU80
 274 0074 D873     		strb	r0, [r3, #15]
 247:Lib/ssc_app/src/el9800appl.c ****     Can2_TxMessage.Data[5] = 0;
 275              		.loc 1 247 5 is_stmt 1 view .LVU81
 276              		.loc 1 247 28 is_stmt 0 view .LVU82
 277 0076 1874     		strb	r0, [r3, #16]
 248:Lib/ssc_app/src/el9800appl.c ****     Can2_TxMessage.Data[6] = 0;
 278              		.loc 1 248 5 is_stmt 1 view .LVU83
ARM GAS  /tmp/ccLaW9t9.s 			page 10


 279              		.loc 1 248 28 is_stmt 0 view .LVU84
 280 0078 5874     		strb	r0, [r3, #17]
 249:Lib/ssc_app/src/el9800appl.c ****     Can2_TxMessage.Data[7] = 0;
 281              		.loc 1 249 5 is_stmt 1 view .LVU85
 282              		.loc 1 249 28 is_stmt 0 view .LVU86
 283 007a 9874     		strb	r0, [r3, #18]
 250:Lib/ssc_app/src/el9800appl.c **** 
 251:Lib/ssc_app/src/el9800appl.c ****     /*ECATCHANGE_END(V5.11) EL9800 1*/
 252:Lib/ssc_app/src/el9800appl.c ****     return ALSTATUSCODE_NOERROR;
 284              		.loc 1 252 5 is_stmt 1 view .LVU87
 253:Lib/ssc_app/src/el9800appl.c **** }
 285              		.loc 1 253 1 is_stmt 0 view .LVU88
 286 007c 7047     		bx	lr
 287              	.L9:
 288 007e 00BF     		.align	2
 289              	.L8:
 290 0080 00000000 		.word	.LANCHOR0
 291 0084 00000000 		.word	Can1_TxMessage
 292 0088 00000000 		.word	Can2_TxMessage
 293              		.cfi_endproc
 294              	.LFE129:
 296              		.section	.text.APPL_GenerateMapping,"ax",%progbits
 297              		.align	1
 298              		.global	APPL_GenerateMapping
 299              		.syntax unified
 300              		.thumb
 301              		.thumb_func
 303              	APPL_GenerateMapping:
 304              	.LVL3:
 305              	.LFB130:
 254:Lib/ssc_app/src/el9800appl.c **** 
 255:Lib/ssc_app/src/el9800appl.c **** /////////////////////////////////////////////////////////////////////////////////////////
 256:Lib/ssc_app/src/el9800appl.c **** /**
 257:Lib/ssc_app/src/el9800appl.c **** \return     0(ALSTATUSCODE_NOERROR), NOERROR_INWORK
 258:Lib/ssc_app/src/el9800appl.c **** \param      pInputSize  pointer to save the input process data length
 259:Lib/ssc_app/src/el9800appl.c **** \param      pOutputSize  pointer to save the output process data length
 260:Lib/ssc_app/src/el9800appl.c **** 
 261:Lib/ssc_app/src/el9800appl.c **** \brief    This function calculates the process data sizes from the actual SM-PDO-Assign
 262:Lib/ssc_app/src/el9800appl.c ****             and PDO mapping
 263:Lib/ssc_app/src/el9800appl.c **** */
 264:Lib/ssc_app/src/el9800appl.c **** ///////////////////////////////////////////////////////////////////////////////////////
 265:Lib/ssc_app/src/el9800appl.c **** UINT16 APPL_GenerateMapping(UINT16 *pInputSize, UINT16 *pOutputSize)
 266:Lib/ssc_app/src/el9800appl.c **** {
 306              		.loc 1 266 1 is_stmt 1 view -0
 307              		.cfi_startproc
 308              		@ args = 0, pretend = 0, frame = 8
 309              		@ frame_needed = 0, uses_anonymous_args = 0
 310              		.loc 1 266 1 is_stmt 0 view .LVU90
 311 0000 2DE9F04F 		push	{r4, r5, r6, r7, r8, r9, r10, fp, lr}
 312              		.cfi_def_cfa_offset 36
 313              		.cfi_offset 4, -36
 314              		.cfi_offset 5, -32
 315              		.cfi_offset 6, -28
 316              		.cfi_offset 7, -24
 317              		.cfi_offset 8, -20
 318              		.cfi_offset 9, -16
 319              		.cfi_offset 10, -12
ARM GAS  /tmp/ccLaW9t9.s 			page 11


 320              		.cfi_offset 11, -8
 321              		.cfi_offset 14, -4
 322 0004 83B0     		sub	sp, sp, #12
 323              		.cfi_def_cfa_offset 48
 324 0006 0090     		str	r0, [sp]
 325 0008 0191     		str	r1, [sp, #4]
 267:Lib/ssc_app/src/el9800appl.c **** #if COE_SUPPORTED
 268:Lib/ssc_app/src/el9800appl.c ****     UINT16 result = ALSTATUSCODE_NOERROR;
 326              		.loc 1 268 5 is_stmt 1 view .LVU91
 327              	.LVL4:
 269:Lib/ssc_app/src/el9800appl.c ****     UINT16 PDOAssignEntryCnt = 0;
 328              		.loc 1 269 5 view .LVU92
 270:Lib/ssc_app/src/el9800appl.c ****     OBJCONST TOBJECT OBJMEM *pPDO = NULL;
 329              		.loc 1 270 5 view .LVU93
 271:Lib/ssc_app/src/el9800appl.c ****     UINT16 PDOSubindex0 = 0;
 330              		.loc 1 271 5 view .LVU94
 272:Lib/ssc_app/src/el9800appl.c ****     UINT32 *pPDOEntry = NULL;
 331              		.loc 1 272 5 view .LVU95
 273:Lib/ssc_app/src/el9800appl.c ****     UINT16 PDOEntryCnt = 0;
 332              		.loc 1 273 5 view .LVU96
 274:Lib/ssc_app/src/el9800appl.c ****     UINT16 InputSize = 0;
 333              		.loc 1 274 5 view .LVU97
 275:Lib/ssc_app/src/el9800appl.c ****     UINT16 OutputSize = 0;
 334              		.loc 1 275 5 view .LVU98
 276:Lib/ssc_app/src/el9800appl.c **** 
 277:Lib/ssc_app/src/el9800appl.c ****     /*Scan object 0x1C12 RXPDO assign*/
 278:Lib/ssc_app/src/el9800appl.c ****     for (PDOAssignEntryCnt = 0; PDOAssignEntryCnt < sRxPDOassign.u16SubIndex0; PDOAssignEntryCnt++)
 335              		.loc 1 278 5 view .LVU99
 275:Lib/ssc_app/src/el9800appl.c ****     UINT16 OutputSize = 0;
 336              		.loc 1 275 12 is_stmt 0 view .LVU100
 337 000a 0026     		movs	r6, #0
 338              		.loc 1 278 28 view .LVU101
 339 000c B046     		mov	r8, r6
 340              		.loc 1 278 5 view .LVU102
 341 000e 14E0     		b	.L11
 342              	.LVL5:
 343              	.L14:
 279:Lib/ssc_app/src/el9800appl.c ****     {
 280:Lib/ssc_app/src/el9800appl.c ****         pPDO = OBJ_GetObjectHandle(sRxPDOassign.aEntries[PDOAssignEntryCnt]);
 281:Lib/ssc_app/src/el9800appl.c ****         if (pPDO != NULL)
 282:Lib/ssc_app/src/el9800appl.c ****         {
 283:Lib/ssc_app/src/el9800appl.c ****             PDOSubindex0 = *((UINT16 *)pPDO->pVarPtr);
 284:Lib/ssc_app/src/el9800appl.c ****             for (PDOEntryCnt = 0; PDOEntryCnt < PDOSubindex0; PDOEntryCnt++)
 285:Lib/ssc_app/src/el9800appl.c ****             {
 286:Lib/ssc_app/src/el9800appl.c ****                 //				result = *(UINT8 *)pPDO->pVarPtr;
 287:Lib/ssc_app/src/el9800appl.c ****                 //				result=(OBJ_GetEntryOffset((PDOEntryCnt+1),pPDO)>>3);
 288:Lib/ssc_app/src/el9800appl.c ****                 pPDOEntry = (UINT32 *)((UINT8 *)pPDO->pVarPtr + (OBJ_GetEntryOffset((PDOEntryCnt + 
 344              		.loc 1 288 17 is_stmt 1 discriminator 3 view .LVU103
 345              		.loc 1 288 53 is_stmt 0 discriminator 3 view .LVU104
 346 0010 D5F81890 		ldr	r9, [r5, #24]
 347              		.loc 1 288 66 discriminator 3 view .LVU105
 348 0014 601C     		adds	r0, r4, #1
 349 0016 2946     		mov	r1, r5
 350 0018 C0B2     		uxtb	r0, r0
 351 001a FFF7FEFF 		bl	OBJ_GetEntryOffset
 352              	.LVL6:
 353              		.loc 1 288 110 discriminator 3 view .LVU106
ARM GAS  /tmp/ccLaW9t9.s 			page 12


 354 001e C0F3CF00 		ubfx	r0, r0, #3, #16
 355              	.LVL7:
 289:Lib/ssc_app/src/el9800appl.c ****                 // we increment the expected output size depending on the mapped Entry
 290:Lib/ssc_app/src/el9800appl.c ****                 OutputSize += (UINT16)((*pPDOEntry) & 0xFF);
 356              		.loc 1 290 17 is_stmt 1 discriminator 3 view .LVU107
 357              		.loc 1 290 31 is_stmt 0 discriminator 3 view .LVU108
 358 0022 19F80030 		ldrb	r3, [r9, r0]	@ zero_extendqisi2
 359              		.loc 1 290 28 discriminator 3 view .LVU109
 360 0026 3344     		add	r3, r3, r6
 361 0028 9EB2     		uxth	r6, r3
 362              	.LVL8:
 284:Lib/ssc_app/src/el9800appl.c ****             {
 363              		.loc 1 284 63 is_stmt 1 discriminator 3 view .LVU110
 284:Lib/ssc_app/src/el9800appl.c ****             {
 364              		.loc 1 284 74 is_stmt 0 discriminator 3 view .LVU111
 365 002a 0134     		adds	r4, r4, #1
 366              	.LVL9:
 284:Lib/ssc_app/src/el9800appl.c ****             {
 367              		.loc 1 284 74 discriminator 3 view .LVU112
 368 002c A4B2     		uxth	r4, r4
 369              	.LVL10:
 370              	.L13:
 284:Lib/ssc_app/src/el9800appl.c ****             {
 371              		.loc 1 284 35 is_stmt 1 discriminator 1 view .LVU113
 284:Lib/ssc_app/src/el9800appl.c ****             {
 372              		.loc 1 284 13 is_stmt 0 discriminator 1 view .LVU114
 373 002e BC42     		cmp	r4, r7
 374 0030 EED3     		bcc	.L14
 278:Lib/ssc_app/src/el9800appl.c ****     {
 375              		.loc 1 278 80 is_stmt 1 discriminator 2 view .LVU115
 278:Lib/ssc_app/src/el9800appl.c ****     {
 376              		.loc 1 278 97 is_stmt 0 discriminator 2 view .LVU116
 377 0032 08F10108 		add	r8, r8, #1
 378              	.LVL11:
 278:Lib/ssc_app/src/el9800appl.c ****     {
 379              		.loc 1 278 97 discriminator 2 view .LVU117
 380 0036 1FFA88F8 		uxth	r8, r8
 381              	.LVL12:
 382              	.L11:
 278:Lib/ssc_app/src/el9800appl.c ****     {
 383              		.loc 1 278 33 is_stmt 1 discriminator 1 view .LVU118
 278:Lib/ssc_app/src/el9800appl.c ****     {
 384              		.loc 1 278 65 is_stmt 0 discriminator 1 view .LVU119
 385 003a 2A4B     		ldr	r3, .L26
 386 003c 1B88     		ldrh	r3, [r3]
 278:Lib/ssc_app/src/el9800appl.c ****     {
 387              		.loc 1 278 5 discriminator 1 view .LVU120
 388 003e 4345     		cmp	r3, r8
 389 0040 0BD9     		bls	.L25
 280:Lib/ssc_app/src/el9800appl.c ****         if (pPDO != NULL)
 390              		.loc 1 280 9 is_stmt 1 view .LVU121
 280:Lib/ssc_app/src/el9800appl.c ****         if (pPDO != NULL)
 391              		.loc 1 280 16 is_stmt 0 view .LVU122
 392 0042 284B     		ldr	r3, .L26
 393 0044 03EB4803 		add	r3, r3, r8, lsl #1
 394 0048 5888     		ldrh	r0, [r3, #2]
 395 004a FFF7FEFF 		bl	OBJ_GetObjectHandle
ARM GAS  /tmp/ccLaW9t9.s 			page 13


 396              	.LVL13:
 281:Lib/ssc_app/src/el9800appl.c ****         {
 397              		.loc 1 281 9 is_stmt 1 view .LVU123
 281:Lib/ssc_app/src/el9800appl.c ****         {
 398              		.loc 1 281 12 is_stmt 0 view .LVU124
 399 004e 0546     		mov	r5, r0
 400 0050 C0B1     		cbz	r0, .L21
 283:Lib/ssc_app/src/el9800appl.c ****             for (PDOEntryCnt = 0; PDOEntryCnt < PDOSubindex0; PDOEntryCnt++)
 401              		.loc 1 283 13 is_stmt 1 view .LVU125
 283:Lib/ssc_app/src/el9800appl.c ****             for (PDOEntryCnt = 0; PDOEntryCnt < PDOSubindex0; PDOEntryCnt++)
 402              		.loc 1 283 44 is_stmt 0 view .LVU126
 403 0052 8369     		ldr	r3, [r0, #24]
 283:Lib/ssc_app/src/el9800appl.c ****             for (PDOEntryCnt = 0; PDOEntryCnt < PDOSubindex0; PDOEntryCnt++)
 404              		.loc 1 283 26 view .LVU127
 405 0054 1F88     		ldrh	r7, [r3]
 406              	.LVL14:
 284:Lib/ssc_app/src/el9800appl.c ****             {
 407              		.loc 1 284 13 is_stmt 1 view .LVU128
 284:Lib/ssc_app/src/el9800appl.c ****             {
 408              		.loc 1 284 30 is_stmt 0 view .LVU129
 409 0056 0024     		movs	r4, #0
 284:Lib/ssc_app/src/el9800appl.c ****             {
 410              		.loc 1 284 13 view .LVU130
 411 0058 E9E7     		b	.L13
 412              	.LVL15:
 413              	.L25:
 268:Lib/ssc_app/src/el9800appl.c ****     UINT16 PDOAssignEntryCnt = 0;
 414              		.loc 1 268 12 view .LVU131
 415 005a 4FF0000B 		mov	fp, #0
 416              	.LVL16:
 417              	.L12:
 291:Lib/ssc_app/src/el9800appl.c ****             }
 292:Lib/ssc_app/src/el9800appl.c ****         }
 293:Lib/ssc_app/src/el9800appl.c ****         else
 294:Lib/ssc_app/src/el9800appl.c ****         {
 295:Lib/ssc_app/src/el9800appl.c ****             /*assigned PDO was not found in object dictionary. return invalid mapping*/
 296:Lib/ssc_app/src/el9800appl.c ****             OutputSize = 0;
 297:Lib/ssc_app/src/el9800appl.c ****             result = ALSTATUSCODE_INVALIDOUTPUTMAPPING;
 298:Lib/ssc_app/src/el9800appl.c ****             break;
 299:Lib/ssc_app/src/el9800appl.c ****         }
 300:Lib/ssc_app/src/el9800appl.c ****     }
 301:Lib/ssc_app/src/el9800appl.c **** 
 302:Lib/ssc_app/src/el9800appl.c ****     OutputSize = (OutputSize + 7) >> 3;
 418              		.loc 1 302 5 is_stmt 1 view .LVU132
 419              		.loc 1 302 30 is_stmt 0 view .LVU133
 420 005e F31D     		adds	r3, r6, #7
 421              		.loc 1 302 16 view .LVU134
 422 0060 C3F3CF08 		ubfx	r8, r3, #3, #16
 423              	.LVL17:
 303:Lib/ssc_app/src/el9800appl.c **** 
 304:Lib/ssc_app/src/el9800appl.c ****     if (result == 0)
 424              		.loc 1 304 5 is_stmt 1 view .LVU135
 425              		.loc 1 304 8 is_stmt 0 view .LVU136
 426 0064 BBF1000F 		cmp	fp, #0
 427 0068 34D0     		beq	.L22
 274:Lib/ssc_app/src/el9800appl.c ****     UINT16 OutputSize = 0;
 428              		.loc 1 274 12 view .LVU137
ARM GAS  /tmp/ccLaW9t9.s 			page 14


 429 006a 0027     		movs	r7, #0
 430              	.LVL18:
 431              	.L17:
 305:Lib/ssc_app/src/el9800appl.c ****     {
 306:Lib/ssc_app/src/el9800appl.c ****         /*Scan Object 0x1C13 TXPDO assign*/
 307:Lib/ssc_app/src/el9800appl.c ****         for (PDOAssignEntryCnt = 0; PDOAssignEntryCnt < sTxPDOassign.u16SubIndex0; PDOAssignEntryCn
 308:Lib/ssc_app/src/el9800appl.c ****         {
 309:Lib/ssc_app/src/el9800appl.c ****             pPDO = OBJ_GetObjectHandle(sTxPDOassign.aEntries[PDOAssignEntryCnt]);
 310:Lib/ssc_app/src/el9800appl.c ****             if (pPDO != NULL)
 311:Lib/ssc_app/src/el9800appl.c ****             {
 312:Lib/ssc_app/src/el9800appl.c ****                 PDOSubindex0 = *((UINT16 *)pPDO->pVarPtr);
 313:Lib/ssc_app/src/el9800appl.c ****                 for (PDOEntryCnt = 0; PDOEntryCnt < PDOSubindex0; PDOEntryCnt++)
 314:Lib/ssc_app/src/el9800appl.c ****                 {
 315:Lib/ssc_app/src/el9800appl.c ****                     pPDOEntry = (UINT32 *)((UINT8 *)pPDO->pVarPtr + (OBJ_GetEntryOffset((PDOEntryCn
 316:Lib/ssc_app/src/el9800appl.c ****                     // we increment the expected output size depending on the mapped Entry
 317:Lib/ssc_app/src/el9800appl.c ****                     InputSize += (UINT16)((*pPDOEntry) & 0xFF);
 318:Lib/ssc_app/src/el9800appl.c ****                 }
 319:Lib/ssc_app/src/el9800appl.c ****             }
 320:Lib/ssc_app/src/el9800appl.c ****             else
 321:Lib/ssc_app/src/el9800appl.c ****             {
 322:Lib/ssc_app/src/el9800appl.c ****                 /*assigned PDO was not found in object dictionary. return invalid mapping*/
 323:Lib/ssc_app/src/el9800appl.c ****                 InputSize = 0;
 324:Lib/ssc_app/src/el9800appl.c ****                 result = ALSTATUSCODE_INVALIDINPUTMAPPING;
 325:Lib/ssc_app/src/el9800appl.c ****                 break;
 326:Lib/ssc_app/src/el9800appl.c ****             }
 327:Lib/ssc_app/src/el9800appl.c ****         }
 328:Lib/ssc_app/src/el9800appl.c ****     }
 329:Lib/ssc_app/src/el9800appl.c ****     InputSize = (InputSize + 7) >> 3;
 432              		.loc 1 329 5 is_stmt 1 view .LVU138
 433              		.loc 1 329 28 is_stmt 0 view .LVU139
 434 006c FB1D     		adds	r3, r7, #7
 435              		.loc 1 329 15 view .LVU140
 436 006e C3F3CF03 		ubfx	r3, r3, #3, #16
 437              	.LVL19:
 330:Lib/ssc_app/src/el9800appl.c **** 
 331:Lib/ssc_app/src/el9800appl.c ****     *pInputSize = InputSize;
 438              		.loc 1 331 5 is_stmt 1 view .LVU141
 439              		.loc 1 331 17 is_stmt 0 view .LVU142
 440 0072 009A     		ldr	r2, [sp]
 441 0074 1380     		strh	r3, [r2]	@ movhi
 332:Lib/ssc_app/src/el9800appl.c ****     *pOutputSize = OutputSize;
 442              		.loc 1 332 5 is_stmt 1 view .LVU143
 443              		.loc 1 332 18 is_stmt 0 view .LVU144
 444 0076 019B     		ldr	r3, [sp, #4]
 445              	.LVL20:
 446              		.loc 1 332 18 view .LVU145
 447 0078 A3F80080 		strh	r8, [r3]	@ movhi
 448              	.LVL21:
 333:Lib/ssc_app/src/el9800appl.c ****     return result;
 449              		.loc 1 333 5 is_stmt 1 view .LVU146
 334:Lib/ssc_app/src/el9800appl.c **** #else
 335:Lib/ssc_app/src/el9800appl.c ****     *pInputSize = 6;
 336:Lib/ssc_app/src/el9800appl.c ****     *pOutputSize = 2;
 337:Lib/ssc_app/src/el9800appl.c ****     return ALSTATUSCODE_NOERROR;
 338:Lib/ssc_app/src/el9800appl.c **** #endif
 339:Lib/ssc_app/src/el9800appl.c **** }
 450              		.loc 1 339 1 is_stmt 0 view .LVU147
ARM GAS  /tmp/ccLaW9t9.s 			page 15


 451 007c 5846     		mov	r0, fp
 452 007e 03B0     		add	sp, sp, #12
 453              		.cfi_remember_state
 454              		.cfi_def_cfa_offset 36
 455              	.LVL22:
 456              		.loc 1 339 1 view .LVU148
 457              		@ sp needed
 458 0080 BDE8F08F 		pop	{r4, r5, r6, r7, r8, r9, r10, fp, pc}
 459              	.LVL23:
 460              	.L21:
 461              		.cfi_restore_state
 296:Lib/ssc_app/src/el9800appl.c ****             result = ALSTATUSCODE_INVALIDOUTPUTMAPPING;
 462              		.loc 1 296 24 view .LVU149
 463 0084 0026     		movs	r6, #0
 464              	.LVL24:
 297:Lib/ssc_app/src/el9800appl.c ****             break;
 465              		.loc 1 297 20 view .LVU150
 466 0086 4FF0250B 		mov	fp, #37
 467 008a E8E7     		b	.L12
 468              	.LVL25:
 469              	.L19:
 315:Lib/ssc_app/src/el9800appl.c ****                     // we increment the expected output size depending on the mapped Entry
 470              		.loc 1 315 21 is_stmt 1 discriminator 3 view .LVU151
 315:Lib/ssc_app/src/el9800appl.c ****                     // we increment the expected output size depending on the mapped Entry
 471              		.loc 1 315 57 is_stmt 0 discriminator 3 view .LVU152
 472 008c B569     		ldr	r5, [r6, #24]
 315:Lib/ssc_app/src/el9800appl.c ****                     // we increment the expected output size depending on the mapped Entry
 473              		.loc 1 315 70 discriminator 3 view .LVU153
 474 008e 601C     		adds	r0, r4, #1
 475 0090 3146     		mov	r1, r6
 476 0092 C0B2     		uxtb	r0, r0
 477 0094 FFF7FEFF 		bl	OBJ_GetEntryOffset
 478              	.LVL26:
 315:Lib/ssc_app/src/el9800appl.c ****                     // we increment the expected output size depending on the mapped Entry
 479              		.loc 1 315 114 discriminator 3 view .LVU154
 480 0098 C0F3CF00 		ubfx	r0, r0, #3, #16
 481              	.LVL27:
 317:Lib/ssc_app/src/el9800appl.c ****                 }
 482              		.loc 1 317 21 is_stmt 1 discriminator 3 view .LVU155
 317:Lib/ssc_app/src/el9800appl.c ****                 }
 483              		.loc 1 317 34 is_stmt 0 discriminator 3 view .LVU156
 484 009c 2B5C     		ldrb	r3, [r5, r0]	@ zero_extendqisi2
 317:Lib/ssc_app/src/el9800appl.c ****                 }
 485              		.loc 1 317 31 discriminator 3 view .LVU157
 486 009e 1F44     		add	r7, r7, r3
 487              	.LVL28:
 317:Lib/ssc_app/src/el9800appl.c ****                 }
 488              		.loc 1 317 31 discriminator 3 view .LVU158
 489 00a0 BFB2     		uxth	r7, r7
 490              	.LVL29:
 313:Lib/ssc_app/src/el9800appl.c ****                 {
 491              		.loc 1 313 67 is_stmt 1 discriminator 3 view .LVU159
 313:Lib/ssc_app/src/el9800appl.c ****                 {
 492              		.loc 1 313 78 is_stmt 0 discriminator 3 view .LVU160
 493 00a2 0134     		adds	r4, r4, #1
 494              	.LVL30:
 313:Lib/ssc_app/src/el9800appl.c ****                 {
ARM GAS  /tmp/ccLaW9t9.s 			page 16


 495              		.loc 1 313 78 discriminator 3 view .LVU161
 496 00a4 A4B2     		uxth	r4, r4
 497              	.LVL31:
 498              	.L18:
 313:Lib/ssc_app/src/el9800appl.c ****                 {
 499              		.loc 1 313 39 is_stmt 1 discriminator 1 view .LVU162
 313:Lib/ssc_app/src/el9800appl.c ****                 {
 500              		.loc 1 313 17 is_stmt 0 discriminator 1 view .LVU163
 501 00a6 4C45     		cmp	r4, r9
 502 00a8 F0D3     		bcc	.L19
 307:Lib/ssc_app/src/el9800appl.c ****         {
 503              		.loc 1 307 84 is_stmt 1 discriminator 2 view .LVU164
 307:Lib/ssc_app/src/el9800appl.c ****         {
 504              		.loc 1 307 101 is_stmt 0 discriminator 2 view .LVU165
 505 00aa 0AF1010A 		add	r10, r10, #1
 506              	.LVL32:
 307:Lib/ssc_app/src/el9800appl.c ****         {
 507              		.loc 1 307 101 discriminator 2 view .LVU166
 508 00ae 1FFA8AFA 		uxth	r10, r10
 509              	.LVL33:
 510              	.L16:
 307:Lib/ssc_app/src/el9800appl.c ****         {
 511              		.loc 1 307 37 is_stmt 1 discriminator 1 view .LVU167
 307:Lib/ssc_app/src/el9800appl.c ****         {
 512              		.loc 1 307 69 is_stmt 0 discriminator 1 view .LVU168
 513 00b2 0D4B     		ldr	r3, .L26+4
 514 00b4 1B88     		ldrh	r3, [r3]
 307:Lib/ssc_app/src/el9800appl.c ****         {
 515              		.loc 1 307 9 discriminator 1 view .LVU169
 516 00b6 5345     		cmp	r3, r10
 517 00b8 D8D9     		bls	.L17
 309:Lib/ssc_app/src/el9800appl.c ****             if (pPDO != NULL)
 518              		.loc 1 309 13 is_stmt 1 view .LVU170
 309:Lib/ssc_app/src/el9800appl.c ****             if (pPDO != NULL)
 519              		.loc 1 309 20 is_stmt 0 view .LVU171
 520 00ba 0B4B     		ldr	r3, .L26+4
 521 00bc 03EB4A03 		add	r3, r3, r10, lsl #1
 522 00c0 5888     		ldrh	r0, [r3, #2]
 523 00c2 FFF7FEFF 		bl	OBJ_GetObjectHandle
 524              	.LVL34:
 310:Lib/ssc_app/src/el9800appl.c ****             {
 525              		.loc 1 310 13 is_stmt 1 view .LVU172
 310:Lib/ssc_app/src/el9800appl.c ****             {
 526              		.loc 1 310 16 is_stmt 0 view .LVU173
 527 00c6 0646     		mov	r6, r0
 528 00c8 38B1     		cbz	r0, .L23
 312:Lib/ssc_app/src/el9800appl.c ****                 for (PDOEntryCnt = 0; PDOEntryCnt < PDOSubindex0; PDOEntryCnt++)
 529              		.loc 1 312 17 is_stmt 1 view .LVU174
 312:Lib/ssc_app/src/el9800appl.c ****                 for (PDOEntryCnt = 0; PDOEntryCnt < PDOSubindex0; PDOEntryCnt++)
 530              		.loc 1 312 48 is_stmt 0 view .LVU175
 531 00ca 8369     		ldr	r3, [r0, #24]
 312:Lib/ssc_app/src/el9800appl.c ****                 for (PDOEntryCnt = 0; PDOEntryCnt < PDOSubindex0; PDOEntryCnt++)
 532              		.loc 1 312 30 view .LVU176
 533 00cc B3F80090 		ldrh	r9, [r3]
 534              	.LVL35:
 313:Lib/ssc_app/src/el9800appl.c ****                 {
 535              		.loc 1 313 17 is_stmt 1 view .LVU177
ARM GAS  /tmp/ccLaW9t9.s 			page 17


 313:Lib/ssc_app/src/el9800appl.c ****                 {
 536              		.loc 1 313 34 is_stmt 0 view .LVU178
 537 00d0 5C46     		mov	r4, fp
 313:Lib/ssc_app/src/el9800appl.c ****                 {
 538              		.loc 1 313 17 view .LVU179
 539 00d2 E8E7     		b	.L18
 540              	.LVL36:
 541              	.L22:
 274:Lib/ssc_app/src/el9800appl.c ****     UINT16 OutputSize = 0;
 542              		.loc 1 274 12 view .LVU180
 543 00d4 5F46     		mov	r7, fp
 307:Lib/ssc_app/src/el9800appl.c ****         {
 544              		.loc 1 307 32 view .LVU181
 545 00d6 DA46     		mov	r10, fp
 546 00d8 EBE7     		b	.L16
 547              	.LVL37:
 548              	.L23:
 323:Lib/ssc_app/src/el9800appl.c ****                 result = ALSTATUSCODE_INVALIDINPUTMAPPING;
 549              		.loc 1 323 27 view .LVU182
 550 00da 5F46     		mov	r7, fp
 551              	.LVL38:
 324:Lib/ssc_app/src/el9800appl.c ****                 break;
 552              		.loc 1 324 24 view .LVU183
 553 00dc 4FF0240B 		mov	fp, #36
 554              	.LVL39:
 324:Lib/ssc_app/src/el9800appl.c ****                 break;
 555              		.loc 1 324 24 view .LVU184
 556 00e0 C4E7     		b	.L17
 557              	.L27:
 558 00e2 00BF     		.align	2
 559              	.L26:
 560 00e4 00000000 		.word	.LANCHOR1
 561 00e8 00000000 		.word	.LANCHOR2
 562              		.cfi_endproc
 563              	.LFE130:
 565              		.section	.text.APPL_InputMapping,"ax",%progbits
 566              		.align	1
 567              		.global	APPL_InputMapping
 568              		.syntax unified
 569              		.thumb
 570              		.thumb_func
 572              	APPL_InputMapping:
 573              	.LVL40:
 574              	.LFB131:
 340:Lib/ssc_app/src/el9800appl.c **** 
 341:Lib/ssc_app/src/el9800appl.c **** /////////////////////////////////////////////////////////////////////////////////////////
 342:Lib/ssc_app/src/el9800appl.c **** /**
 343:Lib/ssc_app/src/el9800appl.c **** \param      pData  pointer to input process data
 344:Lib/ssc_app/src/el9800appl.c **** \brief      This function will copies the inputs from the local memory to the ESC memory
 345:Lib/ssc_app/src/el9800appl.c ****             to the hardware
 346:Lib/ssc_app/src/el9800appl.c **** */
 347:Lib/ssc_app/src/el9800appl.c **** ///////////////////////////////////////////////////////////////////////////////////////
 348:Lib/ssc_app/src/el9800appl.c **** #if _STM32_IO4 && AL_EVENT_ENABLED
 349:Lib/ssc_app/src/el9800appl.c **** /* the pragma interrupt_level is used to tell the compiler that these functions will not
 350:Lib/ssc_app/src/el9800appl.c ****    be called at the same time from the main function and the interrupt routine */
 351:Lib/ssc_app/src/el9800appl.c **** #pragma interrupt_level 1
 352:Lib/ssc_app/src/el9800appl.c **** #endif
ARM GAS  /tmp/ccLaW9t9.s 			page 18


 353:Lib/ssc_app/src/el9800appl.c **** void APPL_InputMapping(UINT16 *pData)
 354:Lib/ssc_app/src/el9800appl.c **** {
 575              		.loc 1 354 1 is_stmt 1 view -0
 576              		.cfi_startproc
 577              		@ args = 0, pretend = 0, frame = 0
 578              		@ frame_needed = 0, uses_anonymous_args = 0
 579              		@ link register save eliminated.
 355:Lib/ssc_app/src/el9800appl.c ****     UINT16 j = 0;
 580              		.loc 1 355 5 view .LVU186
 356:Lib/ssc_app/src/el9800appl.c ****     UINT16 *pTmpData = (UINT16 *)pData;
 581              		.loc 1 356 5 view .LVU187
 357:Lib/ssc_app/src/el9800appl.c **** 
 358:Lib/ssc_app/src/el9800appl.c ****     /* we go through all entries of the TxPDO Assign object to get the assigned TxPDOs */
 359:Lib/ssc_app/src/el9800appl.c ****     for (j = 0; j < sTxPDOassign.u16SubIndex0; j++)
 582              		.loc 1 359 5 view .LVU188
 583              		.loc 1 359 12 is_stmt 0 view .LVU189
 584 0000 0022     		movs	r2, #0
 585              		.loc 1 359 5 view .LVU190
 586 0002 05E0     		b	.L29
 587              	.LVL41:
 588              	.L30:
 360:Lib/ssc_app/src/el9800appl.c ****     {
 361:Lib/ssc_app/src/el9800appl.c ****         switch (sTxPDOassign.aEntries[j])
 362:Lib/ssc_app/src/el9800appl.c ****         {
 363:Lib/ssc_app/src/el9800appl.c ****         /* TxPDO 1 */
 364:Lib/ssc_app/src/el9800appl.c ****         case 0x1A00:
 365:Lib/ssc_app/src/el9800appl.c ****             *pTmpData++ = SWAPWORD(((UINT16 *)&sDIInputs)[1]);
 589              		.loc 1 365 13 is_stmt 1 view .LVU191
 590              		.loc 1 365 25 is_stmt 0 view .LVU192
 591 0004 284B     		ldr	r3, .L35
 592 0006 5B88     		ldrh	r3, [r3, #2]
 593 0008 20F8023B 		strh	r3, [r0], #2	@ movhi
 594              	.LVL42:
 366:Lib/ssc_app/src/el9800appl.c ****             break;
 595              		.loc 1 366 13 is_stmt 1 view .LVU193
 596              	.L32:
 359:Lib/ssc_app/src/el9800appl.c ****     {
 597              		.loc 1 359 48 discriminator 2 view .LVU194
 359:Lib/ssc_app/src/el9800appl.c ****     {
 598              		.loc 1 359 49 is_stmt 0 discriminator 2 view .LVU195
 599 000c 0132     		adds	r2, r2, #1
 600              	.LVL43:
 359:Lib/ssc_app/src/el9800appl.c ****     {
 601              		.loc 1 359 49 discriminator 2 view .LVU196
 602 000e 92B2     		uxth	r2, r2
 603              	.LVL44:
 604              	.L29:
 359:Lib/ssc_app/src/el9800appl.c ****     {
 605              		.loc 1 359 17 is_stmt 1 discriminator 1 view .LVU197
 359:Lib/ssc_app/src/el9800appl.c ****     {
 606              		.loc 1 359 33 is_stmt 0 discriminator 1 view .LVU198
 607 0010 264B     		ldr	r3, .L35+4
 608 0012 1B88     		ldrh	r3, [r3]
 359:Lib/ssc_app/src/el9800appl.c ****     {
 609              		.loc 1 359 5 discriminator 1 view .LVU199
 610 0014 9342     		cmp	r3, r2
 611 0016 45D9     		bls	.L34
ARM GAS  /tmp/ccLaW9t9.s 			page 19


 361:Lib/ssc_app/src/el9800appl.c ****         {
 612              		.loc 1 361 9 is_stmt 1 view .LVU200
 361:Lib/ssc_app/src/el9800appl.c ****         {
 613              		.loc 1 361 38 is_stmt 0 view .LVU201
 614 0018 244B     		ldr	r3, .L35+4
 615 001a 03EB4203 		add	r3, r3, r2, lsl #1
 616 001e 5B88     		ldrh	r3, [r3, #2]
 361:Lib/ssc_app/src/el9800appl.c ****         {
 617              		.loc 1 361 9 view .LVU202
 618 0020 B3F5D05F 		cmp	r3, #6656
 619 0024 EED0     		beq	.L30
 620 0026 41F60221 		movw	r1, #6658
 621 002a 8B42     		cmp	r3, r1
 622 002c EED1     		bne	.L32
 367:Lib/ssc_app/src/el9800appl.c ****         /* TxPDO 3 */
 368:Lib/ssc_app/src/el9800appl.c ****         case 0x1A02:
 369:Lib/ssc_app/src/el9800appl.c ****             *pTmpData++ = SWAPWORD(((UINT16 *)&sAIInputs)[1]);
 623              		.loc 1 369 13 is_stmt 1 view .LVU203
 624              	.LVL45:
 625              		.loc 1 369 25 is_stmt 0 view .LVU204
 626 002e 204B     		ldr	r3, .L35+8
 627 0030 5988     		ldrh	r1, [r3, #2]
 628 0032 0180     		strh	r1, [r0]	@ movhi
 370:Lib/ssc_app/src/el9800appl.c ****             *pTmpData++ = SWAPWORD(((UINT16 *)&sAIInputs)[2]);
 629              		.loc 1 370 13 is_stmt 1 view .LVU205
 630              	.LVL46:
 631              		.loc 1 370 25 is_stmt 0 view .LVU206
 632 0034 9988     		ldrh	r1, [r3, #4]
 633 0036 4180     		strh	r1, [r0, #2]	@ movhi
 371:Lib/ssc_app/src/el9800appl.c ****             *pTmpData++ = SWAPWORD(((UINT16 *)&sAIInputs)[3]);
 634              		.loc 1 371 13 is_stmt 1 view .LVU207
 635              	.LVL47:
 636              		.loc 1 371 25 is_stmt 0 view .LVU208
 637 0038 D988     		ldrh	r1, [r3, #6]
 638 003a 8180     		strh	r1, [r0, #4]	@ movhi
 372:Lib/ssc_app/src/el9800appl.c ****             *pTmpData++ = SWAPWORD(((UINT16 *)&sAIInputs)[4]);
 639              		.loc 1 372 13 is_stmt 1 view .LVU209
 640              	.LVL48:
 641              		.loc 1 372 25 is_stmt 0 view .LVU210
 642 003c 1989     		ldrh	r1, [r3, #8]
 643 003e C180     		strh	r1, [r0, #6]	@ movhi
 373:Lib/ssc_app/src/el9800appl.c ****             *pTmpData++ = SWAPWORD(((UINT16 *)&sAIInputs)[5]);
 644              		.loc 1 373 13 is_stmt 1 view .LVU211
 645              	.LVL49:
 646              		.loc 1 373 25 is_stmt 0 view .LVU212
 647 0040 5989     		ldrh	r1, [r3, #10]
 648 0042 0181     		strh	r1, [r0, #8]	@ movhi
 374:Lib/ssc_app/src/el9800appl.c ****             *pTmpData++ = SWAPWORD(((UINT16 *)&sAIInputs)[6]);
 649              		.loc 1 374 13 is_stmt 1 view .LVU213
 650              	.LVL50:
 651              		.loc 1 374 25 is_stmt 0 view .LVU214
 652 0044 9989     		ldrh	r1, [r3, #12]
 653 0046 4181     		strh	r1, [r0, #10]	@ movhi
 375:Lib/ssc_app/src/el9800appl.c ****             *pTmpData++ = SWAPWORD(((UINT16 *)&sAIInputs)[7]);
 654              		.loc 1 375 13 is_stmt 1 view .LVU215
 655              	.LVL51:
 656              		.loc 1 375 25 is_stmt 0 view .LVU216
ARM GAS  /tmp/ccLaW9t9.s 			page 20


 657 0048 D989     		ldrh	r1, [r3, #14]
 658 004a 8181     		strh	r1, [r0, #12]	@ movhi
 376:Lib/ssc_app/src/el9800appl.c ****             *pTmpData++ = SWAPWORD(((UINT16 *)&sAIInputs)[8]);
 659              		.loc 1 376 13 is_stmt 1 view .LVU217
 660              	.LVL52:
 661              		.loc 1 376 25 is_stmt 0 view .LVU218
 662 004c 198A     		ldrh	r1, [r3, #16]
 663 004e C181     		strh	r1, [r0, #14]	@ movhi
 377:Lib/ssc_app/src/el9800appl.c ****             *pTmpData++ = SWAPWORD(((UINT16 *)&sAIInputs)[9]);
 664              		.loc 1 377 13 is_stmt 1 view .LVU219
 665              	.LVL53:
 666              		.loc 1 377 25 is_stmt 0 view .LVU220
 667 0050 598A     		ldrh	r1, [r3, #18]
 668 0052 0182     		strh	r1, [r0, #16]	@ movhi
 378:Lib/ssc_app/src/el9800appl.c ****             *pTmpData++ = SWAPWORD(((UINT16 *)&sAIInputs)[10]);
 669              		.loc 1 378 13 is_stmt 1 view .LVU221
 670              	.LVL54:
 671              		.loc 1 378 25 is_stmt 0 view .LVU222
 672 0054 998A     		ldrh	r1, [r3, #20]
 673 0056 4182     		strh	r1, [r0, #18]	@ movhi
 379:Lib/ssc_app/src/el9800appl.c ****             *pTmpData++ = SWAPWORD(((UINT16 *)&sAIInputs)[11]);
 674              		.loc 1 379 13 is_stmt 1 view .LVU223
 675              	.LVL55:
 676              		.loc 1 379 25 is_stmt 0 view .LVU224
 677 0058 D98A     		ldrh	r1, [r3, #22]
 678 005a 8182     		strh	r1, [r0, #20]	@ movhi
 380:Lib/ssc_app/src/el9800appl.c ****             *pTmpData++ = SWAPWORD(((UINT16 *)&sAIInputs)[12]);
 679              		.loc 1 380 13 is_stmt 1 view .LVU225
 680              	.LVL56:
 681              		.loc 1 380 25 is_stmt 0 view .LVU226
 682 005c 198B     		ldrh	r1, [r3, #24]
 683 005e C182     		strh	r1, [r0, #22]	@ movhi
 381:Lib/ssc_app/src/el9800appl.c ****             *pTmpData++ = SWAPWORD(((UINT16 *)&sAIInputs)[13]);
 684              		.loc 1 381 13 is_stmt 1 view .LVU227
 685              	.LVL57:
 686              		.loc 1 381 25 is_stmt 0 view .LVU228
 687 0060 598B     		ldrh	r1, [r3, #26]
 688 0062 0183     		strh	r1, [r0, #24]	@ movhi
 382:Lib/ssc_app/src/el9800appl.c ****             *pTmpData++ = SWAPWORD(((UINT16 *)&sAIInputs)[14]);
 689              		.loc 1 382 13 is_stmt 1 view .LVU229
 690              	.LVL58:
 691              		.loc 1 382 25 is_stmt 0 view .LVU230
 692 0064 998B     		ldrh	r1, [r3, #28]
 693 0066 4183     		strh	r1, [r0, #26]	@ movhi
 383:Lib/ssc_app/src/el9800appl.c ****             *pTmpData++ = SWAPWORD(((UINT16 *)&sAIInputs)[15]);
 694              		.loc 1 383 13 is_stmt 1 view .LVU231
 695              	.LVL59:
 696              		.loc 1 383 25 is_stmt 0 view .LVU232
 697 0068 D98B     		ldrh	r1, [r3, #30]
 698 006a 8183     		strh	r1, [r0, #28]	@ movhi
 384:Lib/ssc_app/src/el9800appl.c ****             *pTmpData++ = SWAPWORD(((UINT16 *)&sAIInputs)[16]);
 699              		.loc 1 384 13 is_stmt 1 view .LVU233
 700              	.LVL60:
 701              		.loc 1 384 25 is_stmt 0 view .LVU234
 702 006c 198C     		ldrh	r1, [r3, #32]
 703 006e C183     		strh	r1, [r0, #30]	@ movhi
 385:Lib/ssc_app/src/el9800appl.c ****             *pTmpData++ = SWAPWORD(((UINT16 *)&sAIInputs)[17]);
ARM GAS  /tmp/ccLaW9t9.s 			page 21


 704              		.loc 1 385 13 is_stmt 1 view .LVU235
 705              	.LVL61:
 706              		.loc 1 385 25 is_stmt 0 view .LVU236
 707 0070 598C     		ldrh	r1, [r3, #34]
 708 0072 0184     		strh	r1, [r0, #32]	@ movhi
 386:Lib/ssc_app/src/el9800appl.c ****             *pTmpData++ = SWAPWORD(((UINT16 *)&sAIInputs)[18]);
 709              		.loc 1 386 13 is_stmt 1 view .LVU237
 710              	.LVL62:
 711              		.loc 1 386 25 is_stmt 0 view .LVU238
 712 0074 998C     		ldrh	r1, [r3, #36]
 713 0076 4184     		strh	r1, [r0, #34]	@ movhi
 387:Lib/ssc_app/src/el9800appl.c ****             *pTmpData++ = SWAPWORD(((UINT16 *)&sAIInputs)[19]);
 714              		.loc 1 387 13 is_stmt 1 view .LVU239
 715              	.LVL63:
 716              		.loc 1 387 25 is_stmt 0 view .LVU240
 717 0078 D98C     		ldrh	r1, [r3, #38]
 718 007a 8184     		strh	r1, [r0, #36]	@ movhi
 388:Lib/ssc_app/src/el9800appl.c ****             *pTmpData++ = SWAPWORD(((UINT16 *)&sAIInputs)[20]);
 719              		.loc 1 388 13 is_stmt 1 view .LVU241
 720              	.LVL64:
 721              		.loc 1 388 25 is_stmt 0 view .LVU242
 722 007c 198D     		ldrh	r1, [r3, #40]
 723 007e C184     		strh	r1, [r0, #38]	@ movhi
 389:Lib/ssc_app/src/el9800appl.c ****             *pTmpData++ = SWAPWORD(((UINT16 *)&sAIInputs)[21]);
 724              		.loc 1 389 13 is_stmt 1 view .LVU243
 725              	.LVL65:
 726              		.loc 1 389 25 is_stmt 0 view .LVU244
 727 0080 598D     		ldrh	r1, [r3, #42]
 728 0082 0185     		strh	r1, [r0, #40]	@ movhi
 390:Lib/ssc_app/src/el9800appl.c ****             *pTmpData++ = SWAPWORD(((UINT16 *)&sAIInputs)[22]);
 729              		.loc 1 390 13 is_stmt 1 view .LVU245
 730              	.LVL66:
 731              		.loc 1 390 25 is_stmt 0 view .LVU246
 732 0084 998D     		ldrh	r1, [r3, #44]
 733 0086 4185     		strh	r1, [r0, #42]	@ movhi
 391:Lib/ssc_app/src/el9800appl.c ****             *pTmpData++ = SWAPWORD(((UINT16 *)&sAIInputs)[23]);
 734              		.loc 1 391 13 is_stmt 1 view .LVU247
 735              	.LVL67:
 736              		.loc 1 391 25 is_stmt 0 view .LVU248
 737 0088 D98D     		ldrh	r1, [r3, #46]
 738 008a 8185     		strh	r1, [r0, #44]	@ movhi
 392:Lib/ssc_app/src/el9800appl.c ****             *pTmpData++ = SWAPWORD(((UINT16 *)&sAIInputs)[24]);
 739              		.loc 1 392 13 is_stmt 1 view .LVU249
 740              	.LVL68:
 741              		.loc 1 392 25 is_stmt 0 view .LVU250
 742 008c 198E     		ldrh	r1, [r3, #48]
 743 008e C185     		strh	r1, [r0, #46]	@ movhi
 393:Lib/ssc_app/src/el9800appl.c ****             *pTmpData++ = SWAPWORD(((UINT16 *)&sAIInputs)[25]);
 744              		.loc 1 393 13 is_stmt 1 view .LVU251
 745              	.LVL69:
 746              		.loc 1 393 25 is_stmt 0 view .LVU252
 747 0090 598E     		ldrh	r1, [r3, #50]
 748 0092 0186     		strh	r1, [r0, #48]	@ movhi
 394:Lib/ssc_app/src/el9800appl.c ****             *pTmpData++ = SWAPWORD(((UINT16 *)&sAIInputs)[26]);
 749              		.loc 1 394 13 is_stmt 1 view .LVU253
 750              	.LVL70:
 751              		.loc 1 394 25 is_stmt 0 view .LVU254
ARM GAS  /tmp/ccLaW9t9.s 			page 22


 752 0094 998E     		ldrh	r1, [r3, #52]
 753 0096 4186     		strh	r1, [r0, #50]	@ movhi
 395:Lib/ssc_app/src/el9800appl.c ****             *pTmpData++ = SWAPWORD(((UINT16 *)&sAIInputs)[27]);
 754              		.loc 1 395 13 is_stmt 1 view .LVU255
 755              	.LVL71:
 756              		.loc 1 395 25 is_stmt 0 view .LVU256
 757 0098 D98E     		ldrh	r1, [r3, #54]
 758 009a 8186     		strh	r1, [r0, #52]	@ movhi
 396:Lib/ssc_app/src/el9800appl.c ****             *pTmpData++ = SWAPWORD(((UINT16 *)&sAIInputs)[28]);
 759              		.loc 1 396 13 is_stmt 1 view .LVU257
 760              	.LVL72:
 761              		.loc 1 396 25 is_stmt 0 view .LVU258
 762 009c 1B8F     		ldrh	r3, [r3, #56]
 763 009e C386     		strh	r3, [r0, #54]	@ movhi
 397:Lib/ssc_app/src/el9800appl.c ****             break;
 764              		.loc 1 397 13 is_stmt 1 view .LVU259
 396:Lib/ssc_app/src/el9800appl.c ****             *pTmpData++ = SWAPWORD(((UINT16 *)&sAIInputs)[28]);
 765              		.loc 1 396 22 is_stmt 0 view .LVU260
 766 00a0 3830     		adds	r0, r0, #56
 767              	.LVL73:
 768              		.loc 1 397 13 view .LVU261
 769 00a2 B3E7     		b	.L32
 770              	.L34:
 398:Lib/ssc_app/src/el9800appl.c ****         }
 399:Lib/ssc_app/src/el9800appl.c ****     }
 400:Lib/ssc_app/src/el9800appl.c **** }
 771              		.loc 1 400 1 view .LVU262
 772 00a4 7047     		bx	lr
 773              	.L36:
 774 00a6 00BF     		.align	2
 775              	.L35:
 776 00a8 00000000 		.word	.LANCHOR3
 777 00ac 00000000 		.word	.LANCHOR2
 778 00b0 00000000 		.word	.LANCHOR4
 779              		.cfi_endproc
 780              	.LFE131:
 782              		.section	.text.APPL_OutputMapping,"ax",%progbits
 783              		.align	1
 784              		.global	APPL_OutputMapping
 785              		.syntax unified
 786              		.thumb
 787              		.thumb_func
 789              	APPL_OutputMapping:
 790              	.LVL74:
 791              	.LFB132:
 401:Lib/ssc_app/src/el9800appl.c **** 
 402:Lib/ssc_app/src/el9800appl.c **** /////////////////////////////////////////////////////////////////////////////////////////
 403:Lib/ssc_app/src/el9800appl.c **** /**
 404:Lib/ssc_app/src/el9800appl.c **** \param      pData  pointer to output process data
 405:Lib/ssc_app/src/el9800appl.c **** 
 406:Lib/ssc_app/src/el9800appl.c **** \brief    This function will copies the outputs from the ESC memory to the local memory
 407:Lib/ssc_app/src/el9800appl.c ****             to the hardware
 408:Lib/ssc_app/src/el9800appl.c **** */
 409:Lib/ssc_app/src/el9800appl.c **** ///////////////////////////////////////////////////////////////////////////////////////
 410:Lib/ssc_app/src/el9800appl.c **** #if _STM32_IO4 && AL_EVENT_ENABLED
 411:Lib/ssc_app/src/el9800appl.c **** /* the pragma interrupt_level is used to tell the compiler that these functions will not
 412:Lib/ssc_app/src/el9800appl.c ****    be called at the same time from the main function and the interrupt routine */
ARM GAS  /tmp/ccLaW9t9.s 			page 23


 413:Lib/ssc_app/src/el9800appl.c **** #pragma interrupt_level 1
 414:Lib/ssc_app/src/el9800appl.c **** #endif
 415:Lib/ssc_app/src/el9800appl.c **** void APPL_OutputMapping(UINT16 *pData)
 416:Lib/ssc_app/src/el9800appl.c **** {
 792              		.loc 1 416 1 is_stmt 1 view -0
 793              		.cfi_startproc
 794              		@ args = 0, pretend = 0, frame = 0
 795              		@ frame_needed = 0, uses_anonymous_args = 0
 796              		@ link register save eliminated.
 417:Lib/ssc_app/src/el9800appl.c ****     UINT16 j = 0;
 797              		.loc 1 417 5 view .LVU264
 418:Lib/ssc_app/src/el9800appl.c ****     UINT16 *pTmpData = (UINT16 *)pData;
 798              		.loc 1 418 5 view .LVU265
 419:Lib/ssc_app/src/el9800appl.c **** 
 420:Lib/ssc_app/src/el9800appl.c ****     /* we go through all entries of the RxPDO Assign object to get the assigned RxPDOs */
 421:Lib/ssc_app/src/el9800appl.c ****     for (j = 0; j < sRxPDOassign.u16SubIndex0; j++)
 799              		.loc 1 421 5 view .LVU266
 800              		.loc 1 421 12 is_stmt 0 view .LVU267
 801 0000 0023     		movs	r3, #0
 802              		.loc 1 421 5 view .LVU268
 803 0002 01E0     		b	.L38
 804              	.LVL75:
 805              	.L39:
 806              		.loc 1 421 48 is_stmt 1 discriminator 2 view .LVU269
 807              		.loc 1 421 49 is_stmt 0 discriminator 2 view .LVU270
 808 0004 0133     		adds	r3, r3, #1
 809              	.LVL76:
 810              		.loc 1 421 49 discriminator 2 view .LVU271
 811 0006 9BB2     		uxth	r3, r3
 812              	.LVL77:
 813              	.L38:
 814              		.loc 1 421 17 is_stmt 1 discriminator 1 view .LVU272
 815              		.loc 1 421 33 is_stmt 0 discriminator 1 view .LVU273
 816 0008 384A     		ldr	r2, .L42
 817 000a 1288     		ldrh	r2, [r2]
 818              		.loc 1 421 5 discriminator 1 view .LVU274
 819 000c 9A42     		cmp	r2, r3
 820 000e 6CD9     		bls	.L41
 422:Lib/ssc_app/src/el9800appl.c ****     {
 423:Lib/ssc_app/src/el9800appl.c ****         switch (sRxPDOassign.aEntries[j])
 821              		.loc 1 423 9 is_stmt 1 view .LVU275
 822              		.loc 1 423 38 is_stmt 0 view .LVU276
 823 0010 364A     		ldr	r2, .L42
 824 0012 02EB4302 		add	r2, r2, r3, lsl #1
 825 0016 5188     		ldrh	r1, [r2, #2]
 826              		.loc 1 423 9 view .LVU277
 827 0018 41F20162 		movw	r2, #5633
 828 001c 9142     		cmp	r1, r2
 829 001e F1D1     		bne	.L39
 424:Lib/ssc_app/src/el9800appl.c ****         {
 425:Lib/ssc_app/src/el9800appl.c ****         /* RxPDO 2 */
 426:Lib/ssc_app/src/el9800appl.c ****         case 0x1601:
 427:Lib/ssc_app/src/el9800appl.c ****             ((UINT16 *)&sDOOutputs)[1] = SWAPWORD(*pTmpData);
 830              		.loc 1 427 13 is_stmt 1 view .LVU278
 831              		.loc 1 427 42 is_stmt 0 view .LVU279
 832 0020 0188     		ldrh	r1, [r0]
 833              		.loc 1 427 40 view .LVU280
ARM GAS  /tmp/ccLaW9t9.s 			page 24


 834 0022 334A     		ldr	r2, .L42+4
 835 0024 5180     		strh	r1, [r2, #2]	@ movhi
 428:Lib/ssc_app/src/el9800appl.c ****             ((UINT16 *)&sDOOutputs)[2] = (SWAPWORD(*pTmpData) >> 8 & 0xFF) | (SWAPWORD(*(pTmpData +
 836              		.loc 1 428 13 is_stmt 1 view .LVU281
 837              		.loc 1 428 79 is_stmt 0 view .LVU282
 838 0026 B0F802C0 		ldrh	ip, [r0, #2]
 839              		.loc 1 428 76 view .LVU283
 840 002a 090A     		lsrs	r1, r1, #8
 841 002c 41EA0C21 		orr	r1, r1, ip, lsl #8
 842              		.loc 1 428 40 view .LVU284
 843 0030 9180     		strh	r1, [r2, #4]	@ movhi
 429:Lib/ssc_app/src/el9800appl.c ****             ((UINT16 *)&sDOOutputs)[3] = (SWAPWORD(*(pTmpData + 1)) >> 8 & 0xFF) | (SWAPWORD(*(pTmp
 844              		.loc 1 429 13 is_stmt 1 view .LVU285
 845              		.loc 1 429 43 is_stmt 0 view .LVU286
 846 0032 4188     		ldrh	r1, [r0, #2]
 847              		.loc 1 429 85 view .LVU287
 848 0034 B0F804C0 		ldrh	ip, [r0, #4]
 849              		.loc 1 429 82 view .LVU288
 850 0038 090A     		lsrs	r1, r1, #8
 851 003a 41EA0C21 		orr	r1, r1, ip, lsl #8
 852              		.loc 1 429 40 view .LVU289
 853 003e D180     		strh	r1, [r2, #6]	@ movhi
 430:Lib/ssc_app/src/el9800appl.c ****             ((UINT16 *)&sDOOutputs)[4] = (SWAPWORD(*(pTmpData + 2)) >> 8 & 0xFF) | (SWAPWORD(*(pTmp
 854              		.loc 1 430 13 is_stmt 1 view .LVU290
 855              		.loc 1 430 43 is_stmt 0 view .LVU291
 856 0040 8188     		ldrh	r1, [r0, #4]
 857              		.loc 1 430 85 view .LVU292
 858 0042 B0F806C0 		ldrh	ip, [r0, #6]
 859              		.loc 1 430 82 view .LVU293
 860 0046 090A     		lsrs	r1, r1, #8
 861 0048 41EA0C21 		orr	r1, r1, ip, lsl #8
 862              		.loc 1 430 40 view .LVU294
 863 004c 1181     		strh	r1, [r2, #8]	@ movhi
 431:Lib/ssc_app/src/el9800appl.c ****             ((UINT16 *)&sDOOutputs)[5] = (SWAPWORD(*(pTmpData + 3)) >> 8 & 0xFF) | (SWAPWORD(*(pTmp
 864              		.loc 1 431 13 is_stmt 1 view .LVU295
 865              		.loc 1 431 43 is_stmt 0 view .LVU296
 866 004e C188     		ldrh	r1, [r0, #6]
 867              		.loc 1 431 85 view .LVU297
 868 0050 B0F808C0 		ldrh	ip, [r0, #8]
 869              		.loc 1 431 82 view .LVU298
 870 0054 090A     		lsrs	r1, r1, #8
 871 0056 41EA0C21 		orr	r1, r1, ip, lsl #8
 872              		.loc 1 431 40 view .LVU299
 873 005a 5181     		strh	r1, [r2, #10]	@ movhi
 432:Lib/ssc_app/src/el9800appl.c ****             ((UINT16 *)&sDOOutputs)[6] = (SWAPWORD(*(pTmpData + 4)) >> 8 & 0xFF) | (SWAPWORD(*(pTmp
 874              		.loc 1 432 13 is_stmt 1 view .LVU300
 875              		.loc 1 432 43 is_stmt 0 view .LVU301
 876 005c 0189     		ldrh	r1, [r0, #8]
 877              		.loc 1 432 85 view .LVU302
 878 005e B0F80AC0 		ldrh	ip, [r0, #10]
 879              		.loc 1 432 82 view .LVU303
 880 0062 090A     		lsrs	r1, r1, #8
 881 0064 41EA0C21 		orr	r1, r1, ip, lsl #8
 882              		.loc 1 432 40 view .LVU304
 883 0068 9181     		strh	r1, [r2, #12]	@ movhi
 433:Lib/ssc_app/src/el9800appl.c ****             ((UINT16 *)&sDOOutputs)[7] = (SWAPWORD(*(pTmpData + 5)) >> 8 & 0xFF) | (SWAPWORD(*(pTmp
 884              		.loc 1 433 13 is_stmt 1 view .LVU305
ARM GAS  /tmp/ccLaW9t9.s 			page 25


 885              		.loc 1 433 43 is_stmt 0 view .LVU306
 886 006a 4189     		ldrh	r1, [r0, #10]
 887              		.loc 1 433 85 view .LVU307
 888 006c B0F80CC0 		ldrh	ip, [r0, #12]
 889              		.loc 1 433 82 view .LVU308
 890 0070 090A     		lsrs	r1, r1, #8
 891 0072 41EA0C21 		orr	r1, r1, ip, lsl #8
 892              		.loc 1 433 40 view .LVU309
 893 0076 D181     		strh	r1, [r2, #14]	@ movhi
 434:Lib/ssc_app/src/el9800appl.c ****             ((UINT16 *)&sDOOutputs)[8] = (SWAPWORD(*(pTmpData + 6)) >> 8 & 0xFF) | (SWAPWORD(*(pTmp
 894              		.loc 1 434 13 is_stmt 1 view .LVU310
 895              		.loc 1 434 43 is_stmt 0 view .LVU311
 896 0078 8189     		ldrh	r1, [r0, #12]
 897              		.loc 1 434 85 view .LVU312
 898 007a B0F80EC0 		ldrh	ip, [r0, #14]
 899              		.loc 1 434 82 view .LVU313
 900 007e 090A     		lsrs	r1, r1, #8
 901 0080 41EA0C21 		orr	r1, r1, ip, lsl #8
 902              		.loc 1 434 40 view .LVU314
 903 0084 1182     		strh	r1, [r2, #16]	@ movhi
 435:Lib/ssc_app/src/el9800appl.c ****             ((UINT16 *)&sDOOutputs)[9] = (SWAPWORD(*(pTmpData + 7)) >> 8 & 0xFF) | (SWAPWORD(*(pTmp
 904              		.loc 1 435 13 is_stmt 1 view .LVU315
 905              		.loc 1 435 43 is_stmt 0 view .LVU316
 906 0086 C189     		ldrh	r1, [r0, #14]
 907              		.loc 1 435 85 view .LVU317
 908 0088 B0F810C0 		ldrh	ip, [r0, #16]
 909              		.loc 1 435 82 view .LVU318
 910 008c 090A     		lsrs	r1, r1, #8
 911 008e 41EA0C21 		orr	r1, r1, ip, lsl #8
 912              		.loc 1 435 40 view .LVU319
 913 0092 5182     		strh	r1, [r2, #18]	@ movhi
 436:Lib/ssc_app/src/el9800appl.c ****             ((UINT16 *)&sDOOutputs)[10] = (SWAPWORD(*(pTmpData + 8)) >> 8 & 0xFF) | (SWAPWORD(*(pTm
 914              		.loc 1 436 13 is_stmt 1 view .LVU320
 915              		.loc 1 436 44 is_stmt 0 view .LVU321
 916 0094 018A     		ldrh	r1, [r0, #16]
 917              		.loc 1 436 86 view .LVU322
 918 0096 B0F812C0 		ldrh	ip, [r0, #18]
 919              		.loc 1 436 83 view .LVU323
 920 009a 090A     		lsrs	r1, r1, #8
 921 009c 41EA0C21 		orr	r1, r1, ip, lsl #8
 922              		.loc 1 436 41 view .LVU324
 923 00a0 9182     		strh	r1, [r2, #20]	@ movhi
 437:Lib/ssc_app/src/el9800appl.c ****             ((UINT16 *)&sDOOutputs)[11] = (SWAPWORD(*(pTmpData + 9)) >> 8 & 0xFF) | (SWAPWORD(*(pTm
 924              		.loc 1 437 13 is_stmt 1 view .LVU325
 925              		.loc 1 437 44 is_stmt 0 view .LVU326
 926 00a2 418A     		ldrh	r1, [r0, #18]
 927              		.loc 1 437 86 view .LVU327
 928 00a4 B0F814C0 		ldrh	ip, [r0, #20]
 929              		.loc 1 437 83 view .LVU328
 930 00a8 090A     		lsrs	r1, r1, #8
 931 00aa 41EA0C21 		orr	r1, r1, ip, lsl #8
 932              		.loc 1 437 41 view .LVU329
 933 00ae D182     		strh	r1, [r2, #22]	@ movhi
 438:Lib/ssc_app/src/el9800appl.c ****             ((UINT16 *)&sDOOutputs)[12] = (SWAPWORD(*(pTmpData + 10)) >> 8 & 0xFF) | (SWAPWORD(*(pT
 934              		.loc 1 438 13 is_stmt 1 view .LVU330
 935              		.loc 1 438 44 is_stmt 0 view .LVU331
 936 00b0 818A     		ldrh	r1, [r0, #20]
ARM GAS  /tmp/ccLaW9t9.s 			page 26


 937              		.loc 1 438 87 view .LVU332
 938 00b2 B0F816C0 		ldrh	ip, [r0, #22]
 939              		.loc 1 438 84 view .LVU333
 940 00b6 090A     		lsrs	r1, r1, #8
 941 00b8 41EA0C21 		orr	r1, r1, ip, lsl #8
 942              		.loc 1 438 41 view .LVU334
 943 00bc 1183     		strh	r1, [r2, #24]	@ movhi
 439:Lib/ssc_app/src/el9800appl.c ****             ((UINT16 *)&sDOOutputs)[13] = (SWAPWORD(*(pTmpData + 11)) >> 8 & 0xFF) | (SWAPWORD(*(pT
 944              		.loc 1 439 13 is_stmt 1 view .LVU335
 945              		.loc 1 439 44 is_stmt 0 view .LVU336
 946 00be C18A     		ldrh	r1, [r0, #22]
 947              		.loc 1 439 87 view .LVU337
 948 00c0 B0F818C0 		ldrh	ip, [r0, #24]
 949              		.loc 1 439 84 view .LVU338
 950 00c4 090A     		lsrs	r1, r1, #8
 951 00c6 41EA0C21 		orr	r1, r1, ip, lsl #8
 952              		.loc 1 439 41 view .LVU339
 953 00ca 5183     		strh	r1, [r2, #26]	@ movhi
 440:Lib/ssc_app/src/el9800appl.c ****             ((UINT16 *)&sDOOutputs)[14] = (SWAPWORD(*(pTmpData + 12)) >> 8 & 0xFF) | (SWAPWORD(*(pT
 954              		.loc 1 440 13 is_stmt 1 view .LVU340
 955              		.loc 1 440 44 is_stmt 0 view .LVU341
 956 00cc 018B     		ldrh	r1, [r0, #24]
 957              		.loc 1 440 87 view .LVU342
 958 00ce B0F81AC0 		ldrh	ip, [r0, #26]
 959              		.loc 1 440 84 view .LVU343
 960 00d2 090A     		lsrs	r1, r1, #8
 961 00d4 41EA0C21 		orr	r1, r1, ip, lsl #8
 962              		.loc 1 440 41 view .LVU344
 963 00d8 9183     		strh	r1, [r2, #28]	@ movhi
 441:Lib/ssc_app/src/el9800appl.c ****             ((UINT16 *)&sDOOutputs)[15] = (SWAPWORD(*(pTmpData + 13)) >> 8 & 0xFF) | (SWAPWORD(*(pT
 964              		.loc 1 441 13 is_stmt 1 view .LVU345
 965              		.loc 1 441 44 is_stmt 0 view .LVU346
 966 00da 418B     		ldrh	r1, [r0, #26]
 967              		.loc 1 441 87 view .LVU347
 968 00dc B0F81CC0 		ldrh	ip, [r0, #28]
 969              		.loc 1 441 84 view .LVU348
 970 00e0 090A     		lsrs	r1, r1, #8
 971 00e2 41EA0C21 		orr	r1, r1, ip, lsl #8
 972              		.loc 1 441 41 view .LVU349
 973 00e6 D183     		strh	r1, [r2, #30]	@ movhi
 442:Lib/ssc_app/src/el9800appl.c ****             break;
 974              		.loc 1 442 13 is_stmt 1 view .LVU350
 975 00e8 8CE7     		b	.L39
 976              	.L41:
 443:Lib/ssc_app/src/el9800appl.c ****         }
 444:Lib/ssc_app/src/el9800appl.c ****     }
 445:Lib/ssc_app/src/el9800appl.c **** }
 977              		.loc 1 445 1 is_stmt 0 view .LVU351
 978 00ea 7047     		bx	lr
 979              	.L43:
 980              		.align	2
 981              	.L42:
 982 00ec 00000000 		.word	.LANCHOR1
 983 00f0 00000000 		.word	.LANCHOR0
 984              		.cfi_endproc
 985              	.LFE132:
 987              		.section	.text.APPL_Application,"ax",%progbits
ARM GAS  /tmp/ccLaW9t9.s 			page 27


 988              		.align	1
 989              		.global	APPL_Application
 990              		.syntax unified
 991              		.thumb
 992              		.thumb_func
 994              	APPL_Application:
 995              	.LFB133:
 446:Lib/ssc_app/src/el9800appl.c **** 
 447:Lib/ssc_app/src/el9800appl.c **** /////////////////////////////////////////////////////////////////////////////////////////
 448:Lib/ssc_app/src/el9800appl.c **** /**
 449:Lib/ssc_app/src/el9800appl.c **** \brief    This function will called from the synchronisation ISR
 450:Lib/ssc_app/src/el9800appl.c ****             or from the mainloop if no synchronisation is supported
 451:Lib/ssc_app/src/el9800appl.c **** */
 452:Lib/ssc_app/src/el9800appl.c **** ///////////////////////////////////////////////////////////////////////////////////////
 453:Lib/ssc_app/src/el9800appl.c **** 
 454:Lib/ssc_app/src/el9800appl.c **** void APPL_Application(void)
 455:Lib/ssc_app/src/el9800appl.c **** {
 996              		.loc 1 455 1 is_stmt 1 view -0
 997              		.cfi_startproc
 998              		@ args = 0, pretend = 0, frame = 0
 999              		@ frame_needed = 0, uses_anonymous_args = 0
 1000 0000 10B5     		push	{r4, lr}
 1001              		.cfi_def_cfa_offset 8
 1002              		.cfi_offset 4, -8
 1003              		.cfi_offset 14, -4
 456:Lib/ssc_app/src/el9800appl.c ****     //if (sDOOutputs.bLED1 != 0)
 457:Lib/ssc_app/src/el9800appl.c ****     //{
 458:Lib/ssc_app/src/el9800appl.c ****     //    GPIO_SetBits(GPIOB, GPIO_Pin_15);
 459:Lib/ssc_app/src/el9800appl.c ****     //}
 460:Lib/ssc_app/src/el9800appl.c ****     //else
 461:Lib/ssc_app/src/el9800appl.c ****     //{
 462:Lib/ssc_app/src/el9800appl.c ****     //    GPIO_ResetBits(GPIOB, GPIO_Pin_15);
 463:Lib/ssc_app/src/el9800appl.c ****     //}
 464:Lib/ssc_app/src/el9800appl.c **** 
 465:Lib/ssc_app/src/el9800appl.c ****     //if (sDOOutputs.bLED2 != 0)
 466:Lib/ssc_app/src/el9800appl.c ****     //{
 467:Lib/ssc_app/src/el9800appl.c ****     //    GPIO_SetBits(GPIOB, GPIO_Pin_14);
 468:Lib/ssc_app/src/el9800appl.c ****     //}
 469:Lib/ssc_app/src/el9800appl.c ****     //else
 470:Lib/ssc_app/src/el9800appl.c ****     //{
 471:Lib/ssc_app/src/el9800appl.c ****     //    GPIO_ResetBits(GPIOB, GPIO_Pin_14);
 472:Lib/ssc_app/src/el9800appl.c ****     //}
 473:Lib/ssc_app/src/el9800appl.c **** //
 474:Lib/ssc_app/src/el9800appl.c ****     //if (sDOOutputs.bLED3 != 0)
 475:Lib/ssc_app/src/el9800appl.c ****     //{
 476:Lib/ssc_app/src/el9800appl.c ****     //    GPIO_SetBits(GPIOB, GPIO_Pin_13);
 477:Lib/ssc_app/src/el9800appl.c ****     //}
 478:Lib/ssc_app/src/el9800appl.c ****     //else
 479:Lib/ssc_app/src/el9800appl.c ****     //{
 480:Lib/ssc_app/src/el9800appl.c ****     //    GPIO_ResetBits(GPIOB, GPIO_Pin_13);
 481:Lib/ssc_app/src/el9800appl.c ****     //}
 482:Lib/ssc_app/src/el9800appl.c **** 
 483:Lib/ssc_app/src/el9800appl.c ****     Can1_TxMessage.StdId = sDOOutputs.can1_h0;
 1004              		.loc 1 483 5 view .LVU353
 1005              		.loc 1 483 38 is_stmt 0 view .LVU354
 1006 0002 534C     		ldr	r4, .L46
 1007 0004 A388     		ldrh	r3, [r4, #4]
ARM GAS  /tmp/ccLaW9t9.s 			page 28


 1008              		.loc 1 483 26 view .LVU355
 1009 0006 5349     		ldr	r1, .L46+4
 1010 0008 0B60     		str	r3, [r1]
 484:Lib/ssc_app/src/el9800appl.c ****     Can1_TxMessage.ExtId = sDOOutputs.can1_h1;
 1011              		.loc 1 484 5 is_stmt 1 view .LVU356
 1012              		.loc 1 484 38 is_stmt 0 view .LVU357
 1013 000a A379     		ldrb	r3, [r4, #6]	@ zero_extendqisi2
 1014              		.loc 1 484 26 view .LVU358
 1015 000c 4B60     		str	r3, [r1, #4]
 485:Lib/ssc_app/src/el9800appl.c ****     Can1_TxMessage.IDE = sDOOutputs.can1_h2;
 1016              		.loc 1 485 5 is_stmt 1 view .LVU359
 1017              		.loc 1 485 36 is_stmt 0 view .LVU360
 1018 000e E379     		ldrb	r3, [r4, #7]	@ zero_extendqisi2
 1019              		.loc 1 485 24 view .LVU361
 1020 0010 0B72     		strb	r3, [r1, #8]
 486:Lib/ssc_app/src/el9800appl.c ****     Can1_TxMessage.RTR = sDOOutputs.can1_h3;
 1021              		.loc 1 486 5 is_stmt 1 view .LVU362
 1022              		.loc 1 486 36 is_stmt 0 view .LVU363
 1023 0012 237A     		ldrb	r3, [r4, #8]	@ zero_extendqisi2
 1024              		.loc 1 486 24 view .LVU364
 1025 0014 4B72     		strb	r3, [r1, #9]
 487:Lib/ssc_app/src/el9800appl.c ****     Can1_TxMessage.DLC = sDOOutputs.can1_h4;
 1026              		.loc 1 487 5 is_stmt 1 view .LVU365
 1027              		.loc 1 487 36 is_stmt 0 view .LVU366
 1028 0016 637A     		ldrb	r3, [r4, #9]	@ zero_extendqisi2
 1029              		.loc 1 487 24 view .LVU367
 1030 0018 8B72     		strb	r3, [r1, #10]
 488:Lib/ssc_app/src/el9800appl.c **** 
 489:Lib/ssc_app/src/el9800appl.c ****     Can1_TxMessage.Data[0] = sDOOutputs.can1_d0;
 1031              		.loc 1 489 5 is_stmt 1 view .LVU368
 1032              		.loc 1 489 40 is_stmt 0 view .LVU369
 1033 001a A37A     		ldrb	r3, [r4, #10]	@ zero_extendqisi2
 1034              		.loc 1 489 28 view .LVU370
 1035 001c CB72     		strb	r3, [r1, #11]
 490:Lib/ssc_app/src/el9800appl.c ****     Can1_TxMessage.Data[1] = sDOOutputs.can1_d1;
 1036              		.loc 1 490 5 is_stmt 1 view .LVU371
 1037              		.loc 1 490 40 is_stmt 0 view .LVU372
 1038 001e E37A     		ldrb	r3, [r4, #11]	@ zero_extendqisi2
 1039              		.loc 1 490 28 view .LVU373
 1040 0020 0B73     		strb	r3, [r1, #12]
 491:Lib/ssc_app/src/el9800appl.c ****     Can1_TxMessage.Data[2] = sDOOutputs.can1_d2;
 1041              		.loc 1 491 5 is_stmt 1 view .LVU374
 1042              		.loc 1 491 40 is_stmt 0 view .LVU375
 1043 0022 237B     		ldrb	r3, [r4, #12]	@ zero_extendqisi2
 1044              		.loc 1 491 28 view .LVU376
 1045 0024 4B73     		strb	r3, [r1, #13]
 492:Lib/ssc_app/src/el9800appl.c ****     Can1_TxMessage.Data[3] = sDOOutputs.can1_d3;
 1046              		.loc 1 492 5 is_stmt 1 view .LVU377
 1047              		.loc 1 492 40 is_stmt 0 view .LVU378
 1048 0026 637B     		ldrb	r3, [r4, #13]	@ zero_extendqisi2
 1049              		.loc 1 492 28 view .LVU379
 1050 0028 8B73     		strb	r3, [r1, #14]
 493:Lib/ssc_app/src/el9800appl.c ****     Can1_TxMessage.Data[4] = sDOOutputs.can1_d4;
 1051              		.loc 1 493 5 is_stmt 1 view .LVU380
 1052              		.loc 1 493 40 is_stmt 0 view .LVU381
 1053 002a A37B     		ldrb	r3, [r4, #14]	@ zero_extendqisi2
 1054              		.loc 1 493 28 view .LVU382
ARM GAS  /tmp/ccLaW9t9.s 			page 29


 1055 002c CB73     		strb	r3, [r1, #15]
 494:Lib/ssc_app/src/el9800appl.c ****     Can1_TxMessage.Data[5] = sDOOutputs.can1_d5;
 1056              		.loc 1 494 5 is_stmt 1 view .LVU383
 1057              		.loc 1 494 40 is_stmt 0 view .LVU384
 1058 002e E37B     		ldrb	r3, [r4, #15]	@ zero_extendqisi2
 1059              		.loc 1 494 28 view .LVU385
 1060 0030 0B74     		strb	r3, [r1, #16]
 495:Lib/ssc_app/src/el9800appl.c ****     Can1_TxMessage.Data[6] = sDOOutputs.can1_d6;
 1061              		.loc 1 495 5 is_stmt 1 view .LVU386
 1062              		.loc 1 495 40 is_stmt 0 view .LVU387
 1063 0032 237C     		ldrb	r3, [r4, #16]	@ zero_extendqisi2
 1064              		.loc 1 495 28 view .LVU388
 1065 0034 4B74     		strb	r3, [r1, #17]
 496:Lib/ssc_app/src/el9800appl.c ****     Can1_TxMessage.Data[7] = sDOOutputs.can1_d7;
 1066              		.loc 1 496 5 is_stmt 1 view .LVU389
 1067              		.loc 1 496 40 is_stmt 0 view .LVU390
 1068 0036 637C     		ldrb	r3, [r4, #17]	@ zero_extendqisi2
 1069              		.loc 1 496 28 view .LVU391
 1070 0038 8B74     		strb	r3, [r1, #18]
 497:Lib/ssc_app/src/el9800appl.c **** 
 498:Lib/ssc_app/src/el9800appl.c ****     CAN_Transmit(CAN1, &Can1_TxMessage);
 1071              		.loc 1 498 5 is_stmt 1 view .LVU392
 1072 003a 4748     		ldr	r0, .L46+8
 1073 003c FFF7FEFF 		bl	CAN_Transmit
 1074              	.LVL78:
 499:Lib/ssc_app/src/el9800appl.c **** 
 500:Lib/ssc_app/src/el9800appl.c ****     Can2_TxMessage.StdId = sDOOutputs.can2_h0;
 1075              		.loc 1 500 5 view .LVU393
 1076              		.loc 1 500 38 is_stmt 0 view .LVU394
 1077 0040 638A     		ldrh	r3, [r4, #18]
 1078              		.loc 1 500 26 view .LVU395
 1079 0042 4649     		ldr	r1, .L46+12
 1080 0044 0B60     		str	r3, [r1]
 501:Lib/ssc_app/src/el9800appl.c ****     Can2_TxMessage.ExtId = sDOOutputs.can2_h1;
 1081              		.loc 1 501 5 is_stmt 1 view .LVU396
 1082              		.loc 1 501 38 is_stmt 0 view .LVU397
 1083 0046 237D     		ldrb	r3, [r4, #20]	@ zero_extendqisi2
 1084              		.loc 1 501 26 view .LVU398
 1085 0048 4B60     		str	r3, [r1, #4]
 502:Lib/ssc_app/src/el9800appl.c ****     Can2_TxMessage.IDE = sDOOutputs.can2_h2;
 1086              		.loc 1 502 5 is_stmt 1 view .LVU399
 1087              		.loc 1 502 36 is_stmt 0 view .LVU400
 1088 004a 637D     		ldrb	r3, [r4, #21]	@ zero_extendqisi2
 1089              		.loc 1 502 24 view .LVU401
 1090 004c 0B72     		strb	r3, [r1, #8]
 503:Lib/ssc_app/src/el9800appl.c ****     Can2_TxMessage.RTR = sDOOutputs.can2_h3;
 1091              		.loc 1 503 5 is_stmt 1 view .LVU402
 1092              		.loc 1 503 36 is_stmt 0 view .LVU403
 1093 004e A37D     		ldrb	r3, [r4, #22]	@ zero_extendqisi2
 1094              		.loc 1 503 24 view .LVU404
 1095 0050 4B72     		strb	r3, [r1, #9]
 504:Lib/ssc_app/src/el9800appl.c ****     Can2_TxMessage.DLC = sDOOutputs.can2_h4;
 1096              		.loc 1 504 5 is_stmt 1 view .LVU405
 1097              		.loc 1 504 36 is_stmt 0 view .LVU406
 1098 0052 E37D     		ldrb	r3, [r4, #23]	@ zero_extendqisi2
 1099              		.loc 1 504 24 view .LVU407
 1100 0054 8B72     		strb	r3, [r1, #10]
ARM GAS  /tmp/ccLaW9t9.s 			page 30


 505:Lib/ssc_app/src/el9800appl.c **** 
 506:Lib/ssc_app/src/el9800appl.c ****     Can2_TxMessage.Data[0] = sDOOutputs.can2_d0;
 1101              		.loc 1 506 5 is_stmt 1 view .LVU408
 1102              		.loc 1 506 40 is_stmt 0 view .LVU409
 1103 0056 237E     		ldrb	r3, [r4, #24]	@ zero_extendqisi2
 1104              		.loc 1 506 28 view .LVU410
 1105 0058 CB72     		strb	r3, [r1, #11]
 507:Lib/ssc_app/src/el9800appl.c ****     Can2_TxMessage.Data[1] = sDOOutputs.can2_d1;
 1106              		.loc 1 507 5 is_stmt 1 view .LVU411
 1107              		.loc 1 507 40 is_stmt 0 view .LVU412
 1108 005a 637E     		ldrb	r3, [r4, #25]	@ zero_extendqisi2
 1109              		.loc 1 507 28 view .LVU413
 1110 005c 0B73     		strb	r3, [r1, #12]
 508:Lib/ssc_app/src/el9800appl.c ****     Can2_TxMessage.Data[2] = sDOOutputs.can2_d2;
 1111              		.loc 1 508 5 is_stmt 1 view .LVU414
 1112              		.loc 1 508 40 is_stmt 0 view .LVU415
 1113 005e A37E     		ldrb	r3, [r4, #26]	@ zero_extendqisi2
 1114              		.loc 1 508 28 view .LVU416
 1115 0060 4B73     		strb	r3, [r1, #13]
 509:Lib/ssc_app/src/el9800appl.c ****     Can2_TxMessage.Data[3] = sDOOutputs.can2_d3;
 1116              		.loc 1 509 5 is_stmt 1 view .LVU417
 1117              		.loc 1 509 40 is_stmt 0 view .LVU418
 1118 0062 E37E     		ldrb	r3, [r4, #27]	@ zero_extendqisi2
 1119              		.loc 1 509 28 view .LVU419
 1120 0064 8B73     		strb	r3, [r1, #14]
 510:Lib/ssc_app/src/el9800appl.c ****     Can2_TxMessage.Data[4] = sDOOutputs.can2_d4;
 1121              		.loc 1 510 5 is_stmt 1 view .LVU420
 1122              		.loc 1 510 40 is_stmt 0 view .LVU421
 1123 0066 237F     		ldrb	r3, [r4, #28]	@ zero_extendqisi2
 1124              		.loc 1 510 28 view .LVU422
 1125 0068 CB73     		strb	r3, [r1, #15]
 511:Lib/ssc_app/src/el9800appl.c ****     Can2_TxMessage.Data[5] = sDOOutputs.can2_d5;
 1126              		.loc 1 511 5 is_stmt 1 view .LVU423
 1127              		.loc 1 511 40 is_stmt 0 view .LVU424
 1128 006a 637F     		ldrb	r3, [r4, #29]	@ zero_extendqisi2
 1129              		.loc 1 511 28 view .LVU425
 1130 006c 0B74     		strb	r3, [r1, #16]
 512:Lib/ssc_app/src/el9800appl.c ****     Can2_TxMessage.Data[6] = sDOOutputs.can2_d6;
 1131              		.loc 1 512 5 is_stmt 1 view .LVU426
 1132              		.loc 1 512 40 is_stmt 0 view .LVU427
 1133 006e A37F     		ldrb	r3, [r4, #30]	@ zero_extendqisi2
 1134              		.loc 1 512 28 view .LVU428
 1135 0070 4B74     		strb	r3, [r1, #17]
 513:Lib/ssc_app/src/el9800appl.c ****     Can2_TxMessage.Data[7] = sDOOutputs.can2_d7;
 1136              		.loc 1 513 5 is_stmt 1 view .LVU429
 1137              		.loc 1 513 40 is_stmt 0 view .LVU430
 1138 0072 E37F     		ldrb	r3, [r4, #31]	@ zero_extendqisi2
 1139              		.loc 1 513 28 view .LVU431
 1140 0074 8B74     		strb	r3, [r1, #18]
 514:Lib/ssc_app/src/el9800appl.c **** 
 515:Lib/ssc_app/src/el9800appl.c ****     CAN_Transmit(CAN2, &Can2_TxMessage);
 1141              		.loc 1 515 5 is_stmt 1 view .LVU432
 1142 0076 3A48     		ldr	r0, .L46+16
 1143 0078 FFF7FEFF 		bl	CAN_Transmit
 1144              	.LVL79:
 516:Lib/ssc_app/src/el9800appl.c **** 
 517:Lib/ssc_app/src/el9800appl.c ****     sDIInputs.bSwitch1 = 0;
ARM GAS  /tmp/ccLaW9t9.s 			page 31


 1145              		.loc 1 517 5 view .LVU433
 1146              		.loc 1 517 24 is_stmt 0 view .LVU434
 1147 007c 394B     		ldr	r3, .L46+20
 1148 007e 9A78     		ldrb	r2, [r3, #2]	@ zero_extendqisi2
 1149 0080 6FF30002 		bfc	r2, #0, #1
 1150 0084 9A70     		strb	r2, [r3, #2]
 518:Lib/ssc_app/src/el9800appl.c ****     sDIInputs.bSwitch2 = 0;
 1151              		.loc 1 518 5 is_stmt 1 view .LVU435
 1152              		.loc 1 518 24 is_stmt 0 view .LVU436
 1153 0086 D2B2     		uxtb	r2, r2
 1154 0088 6FF34102 		bfc	r2, #1, #1
 1155 008c 9A70     		strb	r2, [r3, #2]
 519:Lib/ssc_app/src/el9800appl.c ****     sDIInputs.bSwitch3 = 0;
 1156              		.loc 1 519 5 is_stmt 1 view .LVU437
 1157              		.loc 1 519 24 is_stmt 0 view .LVU438
 1158 008e D2B2     		uxtb	r2, r2
 1159 0090 6FF38202 		bfc	r2, #2, #1
 1160 0094 9A70     		strb	r2, [r3, #2]
 520:Lib/ssc_app/src/el9800appl.c ****     sDIInputs.bSwitch4 = 0;
 1161              		.loc 1 520 5 is_stmt 1 view .LVU439
 1162              		.loc 1 520 24 is_stmt 0 view .LVU440
 1163 0096 D2B2     		uxtb	r2, r2
 1164 0098 6FF3C302 		bfc	r2, #3, #1
 1165 009c 9A70     		strb	r2, [r3, #2]
 521:Lib/ssc_app/src/el9800appl.c ****     sDIInputs.bSwitch5 = 0;
 1166              		.loc 1 521 5 is_stmt 1 view .LVU441
 1167              		.loc 1 521 24 is_stmt 0 view .LVU442
 1168 009e D2B2     		uxtb	r2, r2
 1169 00a0 6FF30412 		bfc	r2, #4, #1
 1170 00a4 9A70     		strb	r2, [r3, #2]
 522:Lib/ssc_app/src/el9800appl.c ****     sDIInputs.bSwitch6 = 0;
 1171              		.loc 1 522 5 is_stmt 1 view .LVU443
 1172              		.loc 1 522 24 is_stmt 0 view .LVU444
 1173 00a6 D2B2     		uxtb	r2, r2
 1174 00a8 6FF34512 		bfc	r2, #5, #1
 1175 00ac 9A70     		strb	r2, [r3, #2]
 523:Lib/ssc_app/src/el9800appl.c ****     sDIInputs.bSwitch7 = 0;
 1176              		.loc 1 523 5 is_stmt 1 view .LVU445
 1177              		.loc 1 523 24 is_stmt 0 view .LVU446
 1178 00ae D2B2     		uxtb	r2, r2
 1179 00b0 6FF38612 		bfc	r2, #6, #1
 1180 00b4 9A70     		strb	r2, [r3, #2]
 524:Lib/ssc_app/src/el9800appl.c ****     sDIInputs.bSwitch8 = 0;
 1181              		.loc 1 524 5 is_stmt 1 view .LVU447
 1182              		.loc 1 524 24 is_stmt 0 view .LVU448
 1183 00b6 D2B2     		uxtb	r2, r2
 1184 00b8 6FF3C712 		bfc	r2, #7, #1
 1185 00bc 9A70     		strb	r2, [r3, #2]
 525:Lib/ssc_app/src/el9800appl.c **** 
 526:Lib/ssc_app/src/el9800appl.c ****     /* start the conversion of the A/D converter */
 527:Lib/ssc_app/src/el9800appl.c ****     //		while(!(ADC_GetFlagStatus(ADC1, ADC_FLAG_EOC)==SET));
 528:Lib/ssc_app/src/el9800appl.c **** 
 529:Lib/ssc_app/src/el9800appl.c ****     sAIInputs.i16Analoginput = 0;
 1186              		.loc 1 529 5 is_stmt 1 view .LVU449
 1187              		.loc 1 529 30 is_stmt 0 view .LVU450
 1188 00be 2A4B     		ldr	r3, .L46+24
 1189 00c0 0020     		movs	r0, #0
ARM GAS  /tmp/ccLaW9t9.s 			page 32


 1190 00c2 9880     		strh	r0, [r3, #4]	@ movhi
 530:Lib/ssc_app/src/el9800appl.c **** 
 531:Lib/ssc_app/src/el9800appl.c ****     sAIInputs.can1_h0 = Can1_RxMessage.StdId;
 1191              		.loc 1 531 5 is_stmt 1 view .LVU451
 1192              		.loc 1 531 39 is_stmt 0 view .LVU452
 1193 00c4 294A     		ldr	r2, .L46+28
 1194 00c6 1168     		ldr	r1, [r2]
 1195              		.loc 1 531 23 view .LVU453
 1196 00c8 D980     		strh	r1, [r3, #6]	@ movhi
 532:Lib/ssc_app/src/el9800appl.c ****     sAIInputs.can1_h1 = Can1_RxMessage.ExtId;
 1197              		.loc 1 532 5 is_stmt 1 view .LVU454
 1198              		.loc 1 532 39 is_stmt 0 view .LVU455
 1199 00ca 5168     		ldr	r1, [r2, #4]
 1200              		.loc 1 532 23 view .LVU456
 1201 00cc 1972     		strb	r1, [r3, #8]
 533:Lib/ssc_app/src/el9800appl.c ****     sAIInputs.can1_h2 = Can1_RxMessage.IDE;
 1202              		.loc 1 533 5 is_stmt 1 view .LVU457
 1203              		.loc 1 533 39 is_stmt 0 view .LVU458
 1204 00ce 117A     		ldrb	r1, [r2, #8]	@ zero_extendqisi2
 1205              		.loc 1 533 23 view .LVU459
 1206 00d0 5972     		strb	r1, [r3, #9]
 534:Lib/ssc_app/src/el9800appl.c ****     sAIInputs.can1_h3 = Can1_RxMessage.RTR;
 1207              		.loc 1 534 5 is_stmt 1 view .LVU460
 1208              		.loc 1 534 39 is_stmt 0 view .LVU461
 1209 00d2 517A     		ldrb	r1, [r2, #9]	@ zero_extendqisi2
 1210              		.loc 1 534 23 view .LVU462
 1211 00d4 9972     		strb	r1, [r3, #10]
 535:Lib/ssc_app/src/el9800appl.c ****     sAIInputs.can1_h4 = Can1_RxMessage.DLC;
 1212              		.loc 1 535 5 is_stmt 1 view .LVU463
 1213              		.loc 1 535 39 is_stmt 0 view .LVU464
 1214 00d6 917A     		ldrb	r1, [r2, #10]	@ zero_extendqisi2
 1215              		.loc 1 535 23 view .LVU465
 1216 00d8 D972     		strb	r1, [r3, #11]
 536:Lib/ssc_app/src/el9800appl.c **** 
 537:Lib/ssc_app/src/el9800appl.c ****     sAIInputs.can1_d0 = Can1_RxMessage.Data[0];
 1217              		.loc 1 537 5 is_stmt 1 view .LVU466
 1218              		.loc 1 537 44 is_stmt 0 view .LVU467
 1219 00da D17A     		ldrb	r1, [r2, #11]	@ zero_extendqisi2
 1220              		.loc 1 537 23 view .LVU468
 1221 00dc 1973     		strb	r1, [r3, #12]
 538:Lib/ssc_app/src/el9800appl.c ****     sAIInputs.can1_d1 = Can1_RxMessage.Data[1];
 1222              		.loc 1 538 5 is_stmt 1 view .LVU469
 1223              		.loc 1 538 44 is_stmt 0 view .LVU470
 1224 00de 117B     		ldrb	r1, [r2, #12]	@ zero_extendqisi2
 1225              		.loc 1 538 23 view .LVU471
 1226 00e0 5973     		strb	r1, [r3, #13]
 539:Lib/ssc_app/src/el9800appl.c ****     sAIInputs.can1_d2 = Can1_RxMessage.Data[2];
 1227              		.loc 1 539 5 is_stmt 1 view .LVU472
 1228              		.loc 1 539 44 is_stmt 0 view .LVU473
 1229 00e2 517B     		ldrb	r1, [r2, #13]	@ zero_extendqisi2
 1230              		.loc 1 539 23 view .LVU474
 1231 00e4 9973     		strb	r1, [r3, #14]
 540:Lib/ssc_app/src/el9800appl.c ****     sAIInputs.can1_d3 = Can1_RxMessage.Data[3];
 1232              		.loc 1 540 5 is_stmt 1 view .LVU475
 1233              		.loc 1 540 44 is_stmt 0 view .LVU476
 1234 00e6 917B     		ldrb	r1, [r2, #14]	@ zero_extendqisi2
 1235              		.loc 1 540 23 view .LVU477
ARM GAS  /tmp/ccLaW9t9.s 			page 33


 1236 00e8 D973     		strb	r1, [r3, #15]
 541:Lib/ssc_app/src/el9800appl.c ****     sAIInputs.can1_d4 = Can1_RxMessage.Data[4];
 1237              		.loc 1 541 5 is_stmt 1 view .LVU478
 1238              		.loc 1 541 44 is_stmt 0 view .LVU479
 1239 00ea D17B     		ldrb	r1, [r2, #15]	@ zero_extendqisi2
 1240              		.loc 1 541 23 view .LVU480
 1241 00ec 1974     		strb	r1, [r3, #16]
 542:Lib/ssc_app/src/el9800appl.c ****     sAIInputs.can1_d5 = Can1_RxMessage.Data[5];
 1242              		.loc 1 542 5 is_stmt 1 view .LVU481
 1243              		.loc 1 542 44 is_stmt 0 view .LVU482
 1244 00ee 117C     		ldrb	r1, [r2, #16]	@ zero_extendqisi2
 1245              		.loc 1 542 23 view .LVU483
 1246 00f0 5974     		strb	r1, [r3, #17]
 543:Lib/ssc_app/src/el9800appl.c ****     sAIInputs.can1_d6 = Can1_RxMessage.Data[6];
 1247              		.loc 1 543 5 is_stmt 1 view .LVU484
 1248              		.loc 1 543 44 is_stmt 0 view .LVU485
 1249 00f2 517C     		ldrb	r1, [r2, #17]	@ zero_extendqisi2
 1250              		.loc 1 543 23 view .LVU486
 1251 00f4 9974     		strb	r1, [r3, #18]
 544:Lib/ssc_app/src/el9800appl.c ****     sAIInputs.can1_d7 = Can1_RxMessage.Data[7];
 1252              		.loc 1 544 5 is_stmt 1 view .LVU487
 1253              		.loc 1 544 44 is_stmt 0 view .LVU488
 1254 00f6 927C     		ldrb	r2, [r2, #18]	@ zero_extendqisi2
 1255              		.loc 1 544 23 view .LVU489
 1256 00f8 DA74     		strb	r2, [r3, #19]
 545:Lib/ssc_app/src/el9800appl.c **** 
 546:Lib/ssc_app/src/el9800appl.c ****     sAIInputs.can2_h0 = Can2_RxMessage.StdId;
 1257              		.loc 1 546 5 is_stmt 1 view .LVU490
 1258              		.loc 1 546 39 is_stmt 0 view .LVU491
 1259 00fa 1D4A     		ldr	r2, .L46+32
 1260 00fc 1168     		ldr	r1, [r2]
 1261              		.loc 1 546 23 view .LVU492
 1262 00fe 9982     		strh	r1, [r3, #20]	@ movhi
 547:Lib/ssc_app/src/el9800appl.c ****     sAIInputs.can2_h1 = Can2_RxMessage.ExtId;
 1263              		.loc 1 547 5 is_stmt 1 view .LVU493
 1264              		.loc 1 547 39 is_stmt 0 view .LVU494
 1265 0100 5168     		ldr	r1, [r2, #4]
 1266              		.loc 1 547 23 view .LVU495
 1267 0102 9975     		strb	r1, [r3, #22]
 548:Lib/ssc_app/src/el9800appl.c ****     sAIInputs.can2_h2 = Can2_RxMessage.IDE;
 1268              		.loc 1 548 5 is_stmt 1 view .LVU496
 1269              		.loc 1 548 39 is_stmt 0 view .LVU497
 1270 0104 117A     		ldrb	r1, [r2, #8]	@ zero_extendqisi2
 1271              		.loc 1 548 23 view .LVU498
 1272 0106 D975     		strb	r1, [r3, #23]
 549:Lib/ssc_app/src/el9800appl.c ****     sAIInputs.can2_h3 = Can2_RxMessage.RTR;
 1273              		.loc 1 549 5 is_stmt 1 view .LVU499
 1274              		.loc 1 549 39 is_stmt 0 view .LVU500
 1275 0108 517A     		ldrb	r1, [r2, #9]	@ zero_extendqisi2
 1276              		.loc 1 549 23 view .LVU501
 1277 010a 1976     		strb	r1, [r3, #24]
 550:Lib/ssc_app/src/el9800appl.c ****     sAIInputs.can2_h4 = Can2_RxMessage.DLC;
 1278              		.loc 1 550 5 is_stmt 1 view .LVU502
 1279              		.loc 1 550 39 is_stmt 0 view .LVU503
 1280 010c 917A     		ldrb	r1, [r2, #10]	@ zero_extendqisi2
 1281              		.loc 1 550 23 view .LVU504
 1282 010e 5976     		strb	r1, [r3, #25]
ARM GAS  /tmp/ccLaW9t9.s 			page 34


 551:Lib/ssc_app/src/el9800appl.c **** 
 552:Lib/ssc_app/src/el9800appl.c ****     sAIInputs.can2_d0 = Can2_RxMessage.Data[0];
 1283              		.loc 1 552 5 is_stmt 1 view .LVU505
 1284              		.loc 1 552 44 is_stmt 0 view .LVU506
 1285 0110 D17A     		ldrb	r1, [r2, #11]	@ zero_extendqisi2
 1286              		.loc 1 552 23 view .LVU507
 1287 0112 9976     		strb	r1, [r3, #26]
 553:Lib/ssc_app/src/el9800appl.c ****     sAIInputs.can2_d1 = Can2_RxMessage.Data[1];
 1288              		.loc 1 553 5 is_stmt 1 view .LVU508
 1289              		.loc 1 553 44 is_stmt 0 view .LVU509
 1290 0114 117B     		ldrb	r1, [r2, #12]	@ zero_extendqisi2
 1291              		.loc 1 553 23 view .LVU510
 1292 0116 D976     		strb	r1, [r3, #27]
 554:Lib/ssc_app/src/el9800appl.c ****     sAIInputs.can2_d2 = Can2_RxMessage.Data[2];
 1293              		.loc 1 554 5 is_stmt 1 view .LVU511
 1294              		.loc 1 554 44 is_stmt 0 view .LVU512
 1295 0118 517B     		ldrb	r1, [r2, #13]	@ zero_extendqisi2
 1296              		.loc 1 554 23 view .LVU513
 1297 011a 1977     		strb	r1, [r3, #28]
 555:Lib/ssc_app/src/el9800appl.c ****     sAIInputs.can2_d3 = Can2_RxMessage.Data[3];
 1298              		.loc 1 555 5 is_stmt 1 view .LVU514
 1299              		.loc 1 555 44 is_stmt 0 view .LVU515
 1300 011c 917B     		ldrb	r1, [r2, #14]	@ zero_extendqisi2
 1301              		.loc 1 555 23 view .LVU516
 1302 011e 5977     		strb	r1, [r3, #29]
 556:Lib/ssc_app/src/el9800appl.c ****     sAIInputs.can2_d4 = Can2_RxMessage.Data[4];
 1303              		.loc 1 556 5 is_stmt 1 view .LVU517
 1304              		.loc 1 556 44 is_stmt 0 view .LVU518
 1305 0120 D17B     		ldrb	r1, [r2, #15]	@ zero_extendqisi2
 1306              		.loc 1 556 23 view .LVU519
 1307 0122 9977     		strb	r1, [r3, #30]
 557:Lib/ssc_app/src/el9800appl.c ****     sAIInputs.can2_d5 = Can2_RxMessage.Data[5];
 1308              		.loc 1 557 5 is_stmt 1 view .LVU520
 1309              		.loc 1 557 44 is_stmt 0 view .LVU521
 1310 0124 117C     		ldrb	r1, [r2, #16]	@ zero_extendqisi2
 1311              		.loc 1 557 23 view .LVU522
 1312 0126 D977     		strb	r1, [r3, #31]
 558:Lib/ssc_app/src/el9800appl.c ****     sAIInputs.can2_d6 = Can2_RxMessage.Data[6];
 1313              		.loc 1 558 5 is_stmt 1 view .LVU523
 1314              		.loc 1 558 44 is_stmt 0 view .LVU524
 1315 0128 517C     		ldrb	r1, [r2, #17]	@ zero_extendqisi2
 1316              		.loc 1 558 23 view .LVU525
 1317 012a 83F82010 		strb	r1, [r3, #32]
 559:Lib/ssc_app/src/el9800appl.c ****     sAIInputs.can2_d7 = Can2_RxMessage.Data[7];
 1318              		.loc 1 559 5 is_stmt 1 view .LVU526
 1319              		.loc 1 559 44 is_stmt 0 view .LVU527
 1320 012e 927C     		ldrb	r2, [r2, #18]	@ zero_extendqisi2
 1321              		.loc 1 559 23 view .LVU528
 1322 0130 83F82120 		strb	r2, [r3, #33]
 560:Lib/ssc_app/src/el9800appl.c **** 
 561:Lib/ssc_app/src/el9800appl.c ****     /* we toggle the TxPDO Toggle after updating the data of the corresponding TxPDO */
 562:Lib/ssc_app/src/el9800appl.c ****     sAIInputs.bTxPDOToggle ^= 1;
 1323              		.loc 1 562 5 is_stmt 1 view .LVU529
 1324              		.loc 1 562 28 is_stmt 0 view .LVU530
 1325 0134 DA78     		ldrb	r2, [r3, #3]	@ zero_extendqisi2
 1326 0136 C2F3C011 		ubfx	r1, r2, #7, #1
 1327 013a 81F00101 		eor	r1, r1, #1
ARM GAS  /tmp/ccLaW9t9.s 			page 35


 1328 013e 61F3C712 		bfi	r2, r1, #7, #1
 1329 0142 DA70     		strb	r2, [r3, #3]
 563:Lib/ssc_app/src/el9800appl.c **** 
 564:Lib/ssc_app/src/el9800appl.c ****     /* we simulate a problem of the analog input, if the Switch4 is on in this example,
 565:Lib/ssc_app/src/el9800appl.c ****        in this case the TxPDO State has to set to indicate the problem to the master */
 566:Lib/ssc_app/src/el9800appl.c ****     if (sDIInputs.bSwitch4)
 1330              		.loc 1 566 5 is_stmt 1 view .LVU531
 567:Lib/ssc_app/src/el9800appl.c ****         sAIInputs.bTxPDOState = 1;
 568:Lib/ssc_app/src/el9800appl.c ****     else
 569:Lib/ssc_app/src/el9800appl.c ****         sAIInputs.bTxPDOState = 0;
 1331              		.loc 1 569 9 view .LVU532
 1332              		.loc 1 569 31 is_stmt 0 view .LVU533
 1333 0144 D2B2     		uxtb	r2, r2
 1334 0146 60F38612 		bfi	r2, r0, #6, #1
 1335 014a DA70     		strb	r2, [r3, #3]
 570:Lib/ssc_app/src/el9800appl.c **** }
 1336              		.loc 1 570 1 view .LVU534
 1337 014c 10BD     		pop	{r4, pc}
 1338              	.L47:
 1339 014e 00BF     		.align	2
 1340              	.L46:
 1341 0150 00000000 		.word	.LANCHOR0
 1342 0154 00000000 		.word	Can1_TxMessage
 1343 0158 00640040 		.word	1073767424
 1344 015c 00000000 		.word	Can2_TxMessage
 1345 0160 00680040 		.word	1073768448
 1346 0164 00000000 		.word	.LANCHOR3
 1347 0168 00000000 		.word	.LANCHOR4
 1348 016c 00000000 		.word	Can1_RxMessage
 1349 0170 00000000 		.word	Can2_RxMessage
 1350              		.cfi_endproc
 1351              	.LFE133:
 1353              		.section	.text.ReadObject0x1802,"ax",%progbits
 1354              		.align	1
 1355              		.global	ReadObject0x1802
 1356              		.syntax unified
 1357              		.thumb
 1358              		.thumb_func
 1360              	ReadObject0x1802:
 1361              	.LVL80:
 1362              	.LFB134:
 571:Lib/ssc_app/src/el9800appl.c **** 
 572:Lib/ssc_app/src/el9800appl.c **** /////////////////////////////////////////////////////////////////////////////////////////
 573:Lib/ssc_app/src/el9800appl.c **** /**
 574:Lib/ssc_app/src/el9800appl.c ****  \param     index               index of the requested object.
 575:Lib/ssc_app/src/el9800appl.c ****  \param     subindex            subindex of the requested object.
 576:Lib/ssc_app/src/el9800appl.c ****  \param     objSize             size of the requested object data, calculated with OBJ_GetObjectLen
 577:Lib/ssc_app/src/el9800appl.c ****  \param     pData               Pointer to the buffer where the data can be copied to
 578:Lib/ssc_app/src/el9800appl.c ****  \param     bCompleteAccess     Indicates if a complete read of all subindices of the
 579:Lib/ssc_app/src/el9800appl.c ****                                 object shall be done or not
 580:Lib/ssc_app/src/el9800appl.c **** 
 581:Lib/ssc_app/src/el9800appl.c ****  \return    ABORTIDX_XXX
 582:Lib/ssc_app/src/el9800appl.c **** 
 583:Lib/ssc_app/src/el9800appl.c ****  \brief     Handles SDO read requests to TxPDO Parameter
 584:Lib/ssc_app/src/el9800appl.c **** */
 585:Lib/ssc_app/src/el9800appl.c **** ///////////////////////////////////////////////////////////////////////////////////////
 586:Lib/ssc_app/src/el9800appl.c **** UINT8 ReadObject0x1802(UINT16 index, UINT8 subindex, UINT32 dataSize, UINT16 MBXMEM *pData, UINT8 b
ARM GAS  /tmp/ccLaW9t9.s 			page 36


 587:Lib/ssc_app/src/el9800appl.c **** {
 1363              		.loc 1 587 1 is_stmt 1 view -0
 1364              		.cfi_startproc
 1365              		@ args = 4, pretend = 0, frame = 0
 1366              		@ frame_needed = 0, uses_anonymous_args = 0
 1367              		.loc 1 587 1 is_stmt 0 view .LVU536
 1368 0000 10B5     		push	{r4, lr}
 1369              		.cfi_def_cfa_offset 8
 1370              		.cfi_offset 4, -8
 1371              		.cfi_offset 14, -4
 1372 0002 9DF80840 		ldrb	r4, [sp, #8]	@ zero_extendqisi2
 588:Lib/ssc_app/src/el9800appl.c **** 
 589:Lib/ssc_app/src/el9800appl.c ****     if (bCompleteAccess)
 1373              		.loc 1 589 5 is_stmt 1 view .LVU537
 1374              		.loc 1 589 8 is_stmt 0 view .LVU538
 1375 0006 34BB     		cbnz	r4, .L53
 590:Lib/ssc_app/src/el9800appl.c ****         return ABORTIDX_UNSUPPORTED_ACCESS;
 591:Lib/ssc_app/src/el9800appl.c **** 
 592:Lib/ssc_app/src/el9800appl.c ****     if (subindex == 0)
 1376              		.loc 1 592 5 is_stmt 1 view .LVU539
 1377              		.loc 1 592 8 is_stmt 0 view .LVU540
 1378 0008 21B9     		cbnz	r1, .L50
 593:Lib/ssc_app/src/el9800appl.c ****     {
 594:Lib/ssc_app/src/el9800appl.c ****         *pData = TxPDO1802Subindex0;
 1379              		.loc 1 594 9 is_stmt 1 view .LVU541
 1380              		.loc 1 594 16 is_stmt 0 view .LVU542
 1381 000a 154A     		ldr	r2, .L60
 1382              	.LVL81:
 1383              		.loc 1 594 16 view .LVU543
 1384 000c 1288     		ldrh	r2, [r2]
 1385 000e 1A80     		strh	r2, [r3]	@ movhi
 595:Lib/ssc_app/src/el9800appl.c ****     }
 596:Lib/ssc_app/src/el9800appl.c ****     else if (subindex == 6)
 597:Lib/ssc_app/src/el9800appl.c ****     {
 598:Lib/ssc_app/src/el9800appl.c ****         /*clear destination buffer (no excluded TxPDO set)*/
 599:Lib/ssc_app/src/el9800appl.c ****         if (dataSize > 0)
 600:Lib/ssc_app/src/el9800appl.c ****             MBXMEMSET(pData, 0x00, dataSize);
 601:Lib/ssc_app/src/el9800appl.c ****     }
 602:Lib/ssc_app/src/el9800appl.c ****     else if (subindex == 7)
 603:Lib/ssc_app/src/el9800appl.c ****     {
 604:Lib/ssc_app/src/el9800appl.c ****         /*min size is one Byte*/
 605:Lib/ssc_app/src/el9800appl.c ****         UINT8 *pu8Data = (UINT8 *)pData;
 606:Lib/ssc_app/src/el9800appl.c **** 
 607:Lib/ssc_app/src/el9800appl.c ****         // Reset Buffer
 608:Lib/ssc_app/src/el9800appl.c ****         *pu8Data = 0;
 609:Lib/ssc_app/src/el9800appl.c **** 
 610:Lib/ssc_app/src/el9800appl.c ****         *pu8Data = sAIInputs.bTxPDOState;
 611:Lib/ssc_app/src/el9800appl.c ****     }
 612:Lib/ssc_app/src/el9800appl.c ****     else if (subindex == 9)
 613:Lib/ssc_app/src/el9800appl.c ****     {
 614:Lib/ssc_app/src/el9800appl.c ****         /*min size is one Byte*/
 615:Lib/ssc_app/src/el9800appl.c ****         UINT8 *pu8Data = (UINT8 *)pData;
 616:Lib/ssc_app/src/el9800appl.c **** 
 617:Lib/ssc_app/src/el9800appl.c ****         // Reset Buffer
 618:Lib/ssc_app/src/el9800appl.c ****         *pu8Data = 0;
 619:Lib/ssc_app/src/el9800appl.c **** 
 620:Lib/ssc_app/src/el9800appl.c ****         *pu8Data = sAIInputs.bTxPDOToggle;
ARM GAS  /tmp/ccLaW9t9.s 			page 37


 621:Lib/ssc_app/src/el9800appl.c ****     }
 622:Lib/ssc_app/src/el9800appl.c ****     else
 623:Lib/ssc_app/src/el9800appl.c ****         return ABORTIDX_SUBINDEX_NOT_EXISTING;
 624:Lib/ssc_app/src/el9800appl.c **** 
 625:Lib/ssc_app/src/el9800appl.c ****     return 0;
 1386              		.loc 1 625 12 view .LVU544
 1387 0010 0846     		mov	r0, r1
 1388              	.LVL82:
 1389              	.L49:
 626:Lib/ssc_app/src/el9800appl.c **** }
 1390              		.loc 1 626 1 view .LVU545
 1391 0012 10BD     		pop	{r4, pc}
 1392              	.LVL83:
 1393              	.L50:
 596:Lib/ssc_app/src/el9800appl.c ****     {
 1394              		.loc 1 596 10 is_stmt 1 view .LVU546
 596:Lib/ssc_app/src/el9800appl.c ****     {
 1395              		.loc 1 596 13 is_stmt 0 view .LVU547
 1396 0014 0629     		cmp	r1, #6
 1397 0016 0CD0     		beq	.L57
 602:Lib/ssc_app/src/el9800appl.c ****     {
 1398              		.loc 1 602 10 is_stmt 1 view .LVU548
 602:Lib/ssc_app/src/el9800appl.c ****     {
 1399              		.loc 1 602 13 is_stmt 0 view .LVU549
 1400 0018 0729     		cmp	r1, #7
 1401 001a 13D0     		beq	.L58
 612:Lib/ssc_app/src/el9800appl.c ****     {
 1402              		.loc 1 612 10 is_stmt 1 view .LVU550
 612:Lib/ssc_app/src/el9800appl.c ****     {
 1403              		.loc 1 612 13 is_stmt 0 view .LVU551
 1404 001c 0929     		cmp	r1, #9
 1405 001e 1CD1     		bne	.L55
 1406              	.LBB2:
 615:Lib/ssc_app/src/el9800appl.c **** 
 1407              		.loc 1 615 9 is_stmt 1 view .LVU552
 1408              	.LVL84:
 618:Lib/ssc_app/src/el9800appl.c **** 
 1409              		.loc 1 618 9 view .LVU553
 618:Lib/ssc_app/src/el9800appl.c **** 
 1410              		.loc 1 618 18 is_stmt 0 view .LVU554
 1411 0020 0022     		movs	r2, #0
 1412              	.LVL85:
 618:Lib/ssc_app/src/el9800appl.c **** 
 1413              		.loc 1 618 18 view .LVU555
 1414 0022 1A70     		strb	r2, [r3]
 620:Lib/ssc_app/src/el9800appl.c ****     }
 1415              		.loc 1 620 9 is_stmt 1 view .LVU556
 620:Lib/ssc_app/src/el9800appl.c ****     }
 1416              		.loc 1 620 29 is_stmt 0 view .LVU557
 1417 0024 0F4A     		ldr	r2, .L60+4
 1418 0026 D278     		ldrb	r2, [r2, #3]	@ zero_extendqisi2
 1419 0028 C2F3C012 		ubfx	r2, r2, #7, #1
 620:Lib/ssc_app/src/el9800appl.c ****     }
 1420              		.loc 1 620 18 view .LVU558
 1421 002c 1A70     		strb	r2, [r3]
 1422              	.LBE2:
 625:Lib/ssc_app/src/el9800appl.c **** }
ARM GAS  /tmp/ccLaW9t9.s 			page 38


 1423              		.loc 1 625 12 view .LVU559
 1424 002e 2046     		mov	r0, r4
 1425              	.LVL86:
 625:Lib/ssc_app/src/el9800appl.c **** }
 1426              		.loc 1 625 12 view .LVU560
 1427 0030 EFE7     		b	.L49
 1428              	.LVL87:
 1429              	.L57:
 599:Lib/ssc_app/src/el9800appl.c ****             MBXMEMSET(pData, 0x00, dataSize);
 1430              		.loc 1 599 9 is_stmt 1 view .LVU561
 599:Lib/ssc_app/src/el9800appl.c ****             MBXMEMSET(pData, 0x00, dataSize);
 1431              		.loc 1 599 12 is_stmt 0 view .LVU562
 1432 0032 0AB9     		cbnz	r2, .L59
 625:Lib/ssc_app/src/el9800appl.c **** }
 1433              		.loc 1 625 12 view .LVU563
 1434 0034 2046     		mov	r0, r4
 1435              	.LVL88:
 625:Lib/ssc_app/src/el9800appl.c **** }
 1436              		.loc 1 625 12 view .LVU564
 1437 0036 ECE7     		b	.L49
 1438              	.LVL89:
 1439              	.L59:
 600:Lib/ssc_app/src/el9800appl.c ****     }
 1440              		.loc 1 600 13 is_stmt 1 view .LVU565
 1441 0038 0021     		movs	r1, #0
 1442              	.LVL90:
 600:Lib/ssc_app/src/el9800appl.c ****     }
 1443              		.loc 1 600 13 is_stmt 0 view .LVU566
 1444 003a 1846     		mov	r0, r3
 1445              	.LVL91:
 600:Lib/ssc_app/src/el9800appl.c ****     }
 1446              		.loc 1 600 13 view .LVU567
 1447 003c FFF7FEFF 		bl	memset
 1448              	.LVL92:
 625:Lib/ssc_app/src/el9800appl.c **** }
 1449              		.loc 1 625 12 view .LVU568
 1450 0040 2046     		mov	r0, r4
 1451 0042 E6E7     		b	.L49
 1452              	.LVL93:
 1453              	.L58:
 1454              	.LBB3:
 605:Lib/ssc_app/src/el9800appl.c **** 
 1455              		.loc 1 605 9 is_stmt 1 view .LVU569
 608:Lib/ssc_app/src/el9800appl.c **** 
 1456              		.loc 1 608 9 view .LVU570
 608:Lib/ssc_app/src/el9800appl.c **** 
 1457              		.loc 1 608 18 is_stmt 0 view .LVU571
 1458 0044 0022     		movs	r2, #0
 1459              	.LVL94:
 608:Lib/ssc_app/src/el9800appl.c **** 
 1460              		.loc 1 608 18 view .LVU572
 1461 0046 1A70     		strb	r2, [r3]
 610:Lib/ssc_app/src/el9800appl.c ****     }
 1462              		.loc 1 610 9 is_stmt 1 view .LVU573
 610:Lib/ssc_app/src/el9800appl.c ****     }
 1463              		.loc 1 610 29 is_stmt 0 view .LVU574
 1464 0048 064A     		ldr	r2, .L60+4
ARM GAS  /tmp/ccLaW9t9.s 			page 39


 1465 004a D278     		ldrb	r2, [r2, #3]	@ zero_extendqisi2
 1466 004c C2F38012 		ubfx	r2, r2, #6, #1
 610:Lib/ssc_app/src/el9800appl.c ****     }
 1467              		.loc 1 610 18 view .LVU575
 1468 0050 1A70     		strb	r2, [r3]
 1469              	.LBE3:
 625:Lib/ssc_app/src/el9800appl.c **** }
 1470              		.loc 1 625 12 view .LVU576
 1471 0052 2046     		mov	r0, r4
 1472              	.LVL95:
 625:Lib/ssc_app/src/el9800appl.c **** }
 1473              		.loc 1 625 12 view .LVU577
 1474 0054 DDE7     		b	.L49
 1475              	.LVL96:
 1476              	.L53:
 590:Lib/ssc_app/src/el9800appl.c **** 
 1477              		.loc 1 590 16 view .LVU578
 1478 0056 0520     		movs	r0, #5
 1479              	.LVL97:
 590:Lib/ssc_app/src/el9800appl.c **** 
 1480              		.loc 1 590 16 view .LVU579
 1481 0058 DBE7     		b	.L49
 1482              	.LVL98:
 1483              	.L55:
 623:Lib/ssc_app/src/el9800appl.c **** 
 1484              		.loc 1 623 16 view .LVU580
 1485 005a 1120     		movs	r0, #17
 1486              	.LVL99:
 623:Lib/ssc_app/src/el9800appl.c **** 
 1487              		.loc 1 623 16 view .LVU581
 1488 005c D9E7     		b	.L49
 1489              	.L61:
 1490 005e 00BF     		.align	2
 1491              	.L60:
 1492 0060 00000000 		.word	.LANCHOR5
 1493 0064 00000000 		.word	.LANCHOR4
 1494              		.cfi_endproc
 1495              	.LFE134:
 1497              		.section	.text.main,"ax",%progbits
 1498              		.align	1
 1499              		.global	main
 1500              		.syntax unified
 1501              		.thumb
 1502              		.thumb_func
 1504              	main:
 1505              	.LFB135:
 627:Lib/ssc_app/src/el9800appl.c **** 
 628:Lib/ssc_app/src/el9800appl.c **** #if EXPLICIT_DEVICE_ID
 629:Lib/ssc_app/src/el9800appl.c **** /////////////////////////////////////////////////////////////////////////////////////////
 630:Lib/ssc_app/src/el9800appl.c **** /**
 631:Lib/ssc_app/src/el9800appl.c ****  \return    The Explicit Device ID of the EtherCAT slave
 632:Lib/ssc_app/src/el9800appl.c **** 
 633:Lib/ssc_app/src/el9800appl.c ****  \brief     Calculate the Explicit Device ID
 634:Lib/ssc_app/src/el9800appl.c **** */
 635:Lib/ssc_app/src/el9800appl.c **** ///////////////////////////////////////////////////////////////////////////////////////
 636:Lib/ssc_app/src/el9800appl.c **** UINT16 APPL_GetDeviceID()
 637:Lib/ssc_app/src/el9800appl.c **** {
ARM GAS  /tmp/ccLaW9t9.s 			page 40


 638:Lib/ssc_app/src/el9800appl.c ****     UINT16 Value = (UINT16)(SWITCH_8 << 7) | (SWITCH_7 << 6) | (SWITCH_6 << 5) | (SWITCH_5 << 4) | 
 639:Lib/ssc_app/src/el9800appl.c ****     return Value;
 640:Lib/ssc_app/src/el9800appl.c **** }
 641:Lib/ssc_app/src/el9800appl.c **** #endif
 642:Lib/ssc_app/src/el9800appl.c **** 
 643:Lib/ssc_app/src/el9800appl.c **** #if USE_DEFAULT_MAIN
 644:Lib/ssc_app/src/el9800appl.c **** /////////////////////////////////////////////////////////////////////////////////////////
 645:Lib/ssc_app/src/el9800appl.c **** /**
 646:Lib/ssc_app/src/el9800appl.c **** 
 647:Lib/ssc_app/src/el9800appl.c ****  \brief    This is the main function
 648:Lib/ssc_app/src/el9800appl.c **** 
 649:Lib/ssc_app/src/el9800appl.c **** */
 650:Lib/ssc_app/src/el9800appl.c **** ///////////////////////////////////////////////////////////////////////////////////////
 651:Lib/ssc_app/src/el9800appl.c **** uint32_t times = 0x1000000;
 652:Lib/ssc_app/src/el9800appl.c **** #if _STM32_IO8
 653:Lib/ssc_app/src/el9800appl.c **** int main(void)
 654:Lib/ssc_app/src/el9800appl.c **** #else
 655:Lib/ssc_app/src/el9800appl.c **** void main(void)
 656:Lib/ssc_app/src/el9800appl.c **** #endif
 657:Lib/ssc_app/src/el9800appl.c **** {
 1506              		.loc 1 657 1 is_stmt 1 view -0
 1507              		.cfi_startproc
 1508              		@ args = 0, pretend = 0, frame = 16
 1509              		@ frame_needed = 0, uses_anonymous_args = 0
 1510 0000 00B5     		push	{lr}
 1511              		.cfi_def_cfa_offset 4
 1512              		.cfi_offset 14, -4
 1513 0002 85B0     		sub	sp, sp, #20
 1514              		.cfi_def_cfa_offset 24
 658:Lib/ssc_app/src/el9800appl.c ****     RCC_ClocksTypeDef rcc;    
 1515              		.loc 1 658 5 view .LVU583
 659:Lib/ssc_app/src/el9800appl.c ****     RCC_GetClocksFreq(&rcc); 
 1516              		.loc 1 659 5 view .LVU584
 1517 0004 6846     		mov	r0, sp
 1518 0006 FFF7FEFF 		bl	RCC_GetClocksFreq
 1519              	.LVL100:
 660:Lib/ssc_app/src/el9800appl.c **** 
 661:Lib/ssc_app/src/el9800appl.c ****     /* initialize the Hardware and the EtherCAT Slave Controller */
 662:Lib/ssc_app/src/el9800appl.c ****     HW_Init();
 1520              		.loc 1 662 5 view .LVU585
 1521 000a FFF7FEFF 		bl	HW_Init
 1522              	.LVL101:
 663:Lib/ssc_app/src/el9800appl.c **** 
 664:Lib/ssc_app/src/el9800appl.c ****     MainInit();
 1523              		.loc 1 664 5 view .LVU586
 1524 000e FFF7FEFF 		bl	MainInit
 1525              	.LVL102:
 665:Lib/ssc_app/src/el9800appl.c **** 
 666:Lib/ssc_app/src/el9800appl.c ****     bRunApplication = TRUE;
 1526              		.loc 1 666 5 view .LVU587
 1527              		.loc 1 666 21 is_stmt 0 view .LVU588
 1528 0012 074B     		ldr	r3, .L65
 1529 0014 0122     		movs	r2, #1
 1530 0016 1A70     		strb	r2, [r3]
 1531              	.L63:
 667:Lib/ssc_app/src/el9800appl.c ****     do
 1532              		.loc 1 667 5 is_stmt 1 discriminator 1 view .LVU589
ARM GAS  /tmp/ccLaW9t9.s 			page 41


 668:Lib/ssc_app/src/el9800appl.c ****     {
 669:Lib/ssc_app/src/el9800appl.c ****         MainLoop();
 1533              		.loc 1 669 9 discriminator 1 view .LVU590
 1534 0018 FFF7FEFF 		bl	MainLoop
 1535              	.LVL103:
 670:Lib/ssc_app/src/el9800appl.c **** 
 671:Lib/ssc_app/src/el9800appl.c ****     } while (bRunApplication == TRUE);
 1536              		.loc 1 671 13 discriminator 1 view .LVU591
 1537              		.loc 1 671 30 is_stmt 0 discriminator 1 view .LVU592
 1538 001c 044B     		ldr	r3, .L65
 1539 001e 1B78     		ldrb	r3, [r3]	@ zero_extendqisi2
 1540              		.loc 1 671 5 discriminator 1 view .LVU593
 1541 0020 012B     		cmp	r3, #1
 1542 0022 F9D0     		beq	.L63
 672:Lib/ssc_app/src/el9800appl.c **** 
 673:Lib/ssc_app/src/el9800appl.c ****     HW_Release();
 1543              		.loc 1 673 5 is_stmt 1 view .LVU594
 1544 0024 FFF7FEFF 		bl	HW_Release
 1545              	.LVL104:
 674:Lib/ssc_app/src/el9800appl.c **** #if _STM32_IO8
 675:Lib/ssc_app/src/el9800appl.c ****     return 0;
 1546              		.loc 1 675 5 view .LVU595
 676:Lib/ssc_app/src/el9800appl.c **** #endif
 677:Lib/ssc_app/src/el9800appl.c **** }
 1547              		.loc 1 677 1 is_stmt 0 view .LVU596
 1548 0028 0020     		movs	r0, #0
 1549 002a 05B0     		add	sp, sp, #20
 1550              		.cfi_def_cfa_offset 4
 1551              		@ sp needed
 1552 002c 5DF804FB 		ldr	pc, [sp], #4
 1553              	.L66:
 1554              		.align	2
 1555              	.L65:
 1556 0030 00000000 		.word	bRunApplication
 1557              		.cfi_endproc
 1558              	.LFE135:
 1560              		.global	times
 1561              		.global	sModulelist
 1562              		.global	sModulardeviceprofile
 1563              		.global	sAISettings
 1564              		.global	sDOOutputs
 1565              		.global	sAIInputs
 1566              		.global	sDIInputs
 1567              		.global	sTxPDOassign
 1568              		.global	sRxPDOassign
 1569              		.global	sAITxPDOMap
 1570              		.global	sDITxPDOMap
 1571              		.global	TxPDO1802Subindex0
 1572              		.global	sDORxPDOMap
 1573              		.section	.data.TxPDO1802Subindex0,"aw"
 1574              		.align	1
 1575              		.set	.LANCHOR5,. + 0
 1578              	TxPDO1802Subindex0:
 1579 0000 0900     		.short	9
 1580              		.section	.data.sAIInputs,"aw"
 1581              		.align	2
 1582              		.set	.LANCHOR4,. + 0
ARM GAS  /tmp/ccLaW9t9.s 			page 42


 1585              	sAIInputs:
 1586 0000 2B00     		.short	43
 1587 0002 00       		.byte	0
 1588 0003 00       		.byte	0
 1589 0004 FF7F     		.short	32767
 1590 0006 0000     		.short	0
 1591 0008 00       		.byte	0
 1592 0009 00       		.byte	0
 1593 000a 00       		.byte	0
 1594 000b 00       		.byte	0
 1595 000c 00       		.byte	0
 1596 000d 00       		.byte	0
 1597 000e 00       		.byte	0
 1598 000f 00       		.byte	0
 1599 0010 00       		.byte	0
 1600 0011 00       		.byte	0
 1601 0012 00       		.byte	0
 1602 0013 00       		.byte	0
 1603 0014 0000     		.short	0
 1604 0016 00       		.byte	0
 1605 0017 00       		.byte	0
 1606 0018 00       		.byte	0
 1607 0019 00       		.byte	0
 1608 001a 00       		.byte	0
 1609 001b 00       		.byte	0
 1610 001c 00       		.byte	0
 1611 001d 00       		.byte	0
 1612 001e 00       		.byte	0
 1613 001f 00       		.byte	0
 1614 0020 00       		.byte	0
 1615 0021 00       		.byte	0
 1616              		.section	.data.sAISettings,"aw"
 1617              		.align	2
 1620              	sAISettings:
 1621 0000 1400     		.short	20
 1622 0002 00       		.byte	0
 1623 0003 00       		.byte	0
 1624 0004 0000     		.short	0
 1625 0006 0000     		.space	2
 1626 0008 00000000 		.word	0
 1627 000c 0000     		.short	0
 1628 000e 0000     		.short	0
 1629              		.section	.data.sAITxPDOMap,"aw"
 1630              		.align	2
 1633              	sAITxPDOMap:
 1634 0000 2200     		.short	34
 1635 0002 0000     		.space	2
 1636 0004 01012060 		.word	1612710145
 1637 0008 01022060 		.word	1612710401
 1638 000c 02032060 		.word	1612710658
 1639 0010 02052060 		.word	1612711170
 1640 0014 08000000 		.word	8
 1641 0018 01070218 		.word	402786049
 1642 001c 01090218 		.word	402786561
 1643 0020 10112060 		.word	1612714256
 1644 0024 10122060 		.word	1612714512
 1645 0028 08132060 		.word	1612714760
ARM GAS  /tmp/ccLaW9t9.s 			page 43


 1646 002c 08142060 		.word	1612715016
 1647 0030 08152060 		.word	1612715272
 1648 0034 08162060 		.word	1612715528
 1649 0038 08172060 		.word	1612715784
 1650 003c 08182060 		.word	1612716040
 1651 0040 08192060 		.word	1612716296
 1652 0044 08202060 		.word	1612718088
 1653 0048 08212060 		.word	1612718344
 1654 004c 08222060 		.word	1612718600
 1655 0050 08232060 		.word	1612718856
 1656 0054 08242060 		.word	1612719112
 1657 0058 10252060 		.word	1612719376
 1658 005c 08262060 		.word	1612719624
 1659 0060 08272060 		.word	1612719880
 1660 0064 08282060 		.word	1612720136
 1661 0068 08292060 		.word	1612720392
 1662 006c 08302060 		.word	1612722184
 1663 0070 08312060 		.word	1612722440
 1664 0074 08322060 		.word	1612722696
 1665 0078 08332060 		.word	1612722952
 1666 007c 08342060 		.word	1612723208
 1667 0080 08352060 		.word	1612723464
 1668 0084 08362060 		.word	1612723720
 1669 0088 08372060 		.word	1612723976
 1670              		.section	.data.sDIInputs,"aw"
 1671              		.align	2
 1672              		.set	.LANCHOR3,. + 0
 1675              	sDIInputs:
 1676 0000 0800     		.short	8
 1677 0002 00       		.byte	0
 1678 0003 00       		.byte	0
 1679              		.section	.data.sDITxPDOMap,"aw"
 1680              		.align	2
 1683              	sDITxPDOMap:
 1684 0000 0900     		.short	9
 1685 0002 0000     		.space	2
 1686 0004 01010060 		.word	1610612993
 1687 0008 01020060 		.word	1610613249
 1688 000c 01030060 		.word	1610613505
 1689 0010 01040060 		.word	1610613761
 1690 0014 01050060 		.word	1610614017
 1691 0018 01060060 		.word	1610614273
 1692 001c 01070060 		.word	1610614529
 1693 0020 01080060 		.word	1610614785
 1694 0024 08000000 		.word	8
 1695              		.section	.data.sDOOutputs,"aw"
 1696              		.align	2
 1697              		.set	.LANCHOR0,. + 0
 1700              	sDOOutputs:
 1701 0000 2300     		.short	35
 1702 0002 00       		.byte	0
 1703 0003 00       		.space	1
 1704 0004 0000     		.short	0
 1705 0006 00       		.byte	0
 1706 0007 00       		.byte	0
 1707 0008 00       		.byte	0
 1708 0009 00       		.byte	0
ARM GAS  /tmp/ccLaW9t9.s 			page 44


 1709 000a 00       		.byte	0
 1710 000b 00       		.byte	0
 1711 000c 00       		.byte	0
 1712 000d 00       		.byte	0
 1713 000e 00       		.byte	0
 1714 000f 00       		.byte	0
 1715 0010 00       		.byte	0
 1716 0011 00       		.byte	0
 1717 0012 0000     		.short	0
 1718 0014 00       		.byte	0
 1719 0015 00       		.byte	0
 1720 0016 00       		.byte	0
 1721 0017 00       		.byte	0
 1722 0018 00       		.byte	0
 1723 0019 00       		.byte	0
 1724 001a 00       		.byte	0
 1725 001b 00       		.byte	0
 1726 001c 00       		.byte	0
 1727 001d 00       		.byte	0
 1728 001e 00       		.byte	0
 1729 001f 00       		.byte	0
 1730 0020 00       		.byte	0
 1731 0021 00       		.space	1
 1732              		.section	.data.sDORxPDOMap,"aw"
 1733              		.align	2
 1736              	sDORxPDOMap:
 1737 0000 2300     		.short	35
 1738 0002 0000     		.space	2
 1739 0004 01011070 		.word	1880097025
 1740 0008 01021070 		.word	1880097281
 1741 000c 01031070 		.word	1880097537
 1742 0010 01041070 		.word	1880097793
 1743 0014 01051070 		.word	1880098049
 1744 0018 01061070 		.word	1880098305
 1745 001c 01071070 		.word	1880098561
 1746 0020 01081070 		.word	1880098817
 1747 0024 10091070 		.word	1880099088
 1748 0028 08101070 		.word	1880100872
 1749 002c 08111070 		.word	1880101128
 1750 0030 08121070 		.word	1880101384
 1751 0034 08131070 		.word	1880101640
 1752 0038 08141070 		.word	1880101896
 1753 003c 08151070 		.word	1880102152
 1754 0040 08161070 		.word	1880102408
 1755 0044 08171070 		.word	1880102664
 1756 0048 08181070 		.word	1880102920
 1757 004c 08191070 		.word	1880103176
 1758 0050 08201070 		.word	1880104968
 1759 0054 08211070 		.word	1880105224
 1760 0058 10221070 		.word	1880105488
 1761 005c 08231070 		.word	1880105736
 1762 0060 08241070 		.word	1880105992
 1763 0064 08251070 		.word	1880106248
 1764 0068 08261070 		.word	1880106504
 1765 006c 08271070 		.word	1880106760
 1766 0070 08281070 		.word	1880107016
 1767 0074 08291070 		.word	1880107272
ARM GAS  /tmp/ccLaW9t9.s 			page 45


 1768 0078 08301070 		.word	1880109064
 1769 007c 08311070 		.word	1880109320
 1770 0080 08321070 		.word	1880109576
 1771 0084 08331070 		.word	1880109832
 1772 0088 08341070 		.word	1880110088
 1773 008c 08341070 		.word	1880110088
 1774              		.section	.data.sModulardeviceprofile,"aw"
 1775              		.align	2
 1778              	sModulardeviceprofile:
 1779 0000 0200     		.short	2
 1780 0002 1000     		.short	16
 1781 0004 0300     		.short	3
 1782              		.section	.data.sModulelist,"aw"
 1783              		.align	2
 1786              	sModulelist:
 1787 0000 0300     		.short	3
 1788 0002 0000     		.space	2
 1789 0004 64000000 		.word	100
 1790 0008 C8000000 		.word	200
 1791 000c 2C010000 		.word	300
 1792              		.section	.data.sRxPDOassign,"aw"
 1793              		.align	2
 1794              		.set	.LANCHOR1,. + 0
 1797              	sRxPDOassign:
 1798 0000 0100     		.short	1
 1799 0002 0116     		.short	5633
 1800              		.section	.data.sTxPDOassign,"aw"
 1801              		.align	2
 1802              		.set	.LANCHOR2,. + 0
 1805              	sTxPDOassign:
 1806 0000 0200     		.short	2
 1807 0002 001A     		.short	6656
 1808 0004 021A     		.short	6658
 1809              		.section	.data.times,"aw"
 1810              		.align	2
 1813              	times:
 1814 0000 00000001 		.word	16777216
 1815              		.text
 1816              	.Letext0:
 1817              		.file 2 "/usr/share/gcc-arm-none-eabi-10.3-2021.10/arm-none-eabi/include/machine/_default_types.h"
 1818              		.file 3 "/usr/share/gcc-arm-none-eabi-10.3-2021.10/arm-none-eabi/include/sys/_stdint.h"
 1819              		.file 4 "Drivers/CMSIS/Device/ST/STM32F4xx/Include/stm32f4xx.h"
 1820              		.file 5 "Drivers/STM32F4xx_StdPeriph_Driver/inc/stm32f4xx_rcc.h"
 1821              		.file 6 "Drivers/STM32F4xx_StdPeriph_Driver/inc/stm32f4xx_can.h"
 1822              		.file 7 "Lib/ssc/include/sdoserv.h"
 1823              		.file 8 "Lib/ssc/include/objdef.h"
 1824              		.file 9 "Lib/ssc_app/include/el9800appl.h"
 1825              		.file 10 "Lib/ssc_app/include/ecatappl.h"
 1826              		.file 11 "Lib/ssc/include/el9800hw.h"
 1827              		.file 12 "Lib/ssc/include/applInterface.h"
 1828              		.file 13 "<built-in>"
ARM GAS  /tmp/ccLaW9t9.s 			page 46

