Archive member included to satisfy reference by file (symbol)

/usr/share/gcc-arm-none-eabi-10.3-2021.10/bin/../lib/gcc/arm-none-eabi/10.3.1/../../../../arm-none-eabi/lib/thumb/v7e-m+fp/hard/libc_nano.a(lib_a-exit.o)
                              /usr/share/gcc-arm-none-eabi-10.3-2021.10/bin/../lib/gcc/arm-none-eabi/10.3.1/../../../../arm-none-eabi/lib/thumb/v7e-m+fp/hard/crt0.o (exit)
/usr/share/gcc-arm-none-eabi-10.3-2021.10/bin/../lib/gcc/arm-none-eabi/10.3.1/../../../../arm-none-eabi/lib/thumb/v7e-m+fp/hard/libc_nano.a(lib_a-impure.o)
                              /usr/share/gcc-arm-none-eabi-10.3-2021.10/bin/../lib/gcc/arm-none-eabi/10.3.1/../../../../arm-none-eabi/lib/thumb/v7e-m+fp/hard/libc_nano.a(lib_a-exit.o) (_global_impure_ptr)
/usr/share/gcc-arm-none-eabi-10.3-2021.10/bin/../lib/gcc/arm-none-eabi/10.3.1/../../../../arm-none-eabi/lib/thumb/v7e-m+fp/hard/libc_nano.a(lib_a-init.o)
                              /usr/share/gcc-arm-none-eabi-10.3-2021.10/bin/../lib/gcc/arm-none-eabi/10.3.1/../../../../arm-none-eabi/lib/thumb/v7e-m+fp/hard/crt0.o (__libc_init_array)
/usr/share/gcc-arm-none-eabi-10.3-2021.10/bin/../lib/gcc/arm-none-eabi/10.3.1/../../../../arm-none-eabi/lib/thumb/v7e-m+fp/hard/libc_nano.a(lib_a-malloc.o)
                              build/ecatcoe.o (malloc)
/usr/share/gcc-arm-none-eabi-10.3-2021.10/bin/../lib/gcc/arm-none-eabi/10.3.1/../../../../arm-none-eabi/lib/thumb/v7e-m+fp/hard/libc_nano.a(lib_a-memcpy-stub.o)
                              build/mailbox.o (memcpy)
/usr/share/gcc-arm-none-eabi-10.3-2021.10/bin/../lib/gcc/arm-none-eabi/10.3.1/../../../../arm-none-eabi/lib/thumb/v7e-m+fp/hard/libc_nano.a(lib_a-memset.o)
                              /usr/share/gcc-arm-none-eabi-10.3-2021.10/bin/../lib/gcc/arm-none-eabi/10.3.1/../../../../arm-none-eabi/lib/thumb/v7e-m+fp/hard/crt0.o (memset)
/usr/share/gcc-arm-none-eabi-10.3-2021.10/bin/../lib/gcc/arm-none-eabi/10.3.1/../../../../arm-none-eabi/lib/thumb/v7e-m+fp/hard/libc_nano.a(lib_a-nano-freer.o)
                              /usr/share/gcc-arm-none-eabi-10.3-2021.10/bin/../lib/gcc/arm-none-eabi/10.3.1/../../../../arm-none-eabi/lib/thumb/v7e-m+fp/hard/libc_nano.a(lib_a-malloc.o) (_free_r)
/usr/share/gcc-arm-none-eabi-10.3-2021.10/bin/../lib/gcc/arm-none-eabi/10.3.1/../../../../arm-none-eabi/lib/thumb/v7e-m+fp/hard/libc_nano.a(lib_a-nano-mallocr.o)
                              /usr/share/gcc-arm-none-eabi-10.3-2021.10/bin/../lib/gcc/arm-none-eabi/10.3.1/../../../../arm-none-eabi/lib/thumb/v7e-m+fp/hard/libc_nano.a(lib_a-malloc.o) (_malloc_r)
/usr/share/gcc-arm-none-eabi-10.3-2021.10/bin/../lib/gcc/arm-none-eabi/10.3.1/../../../../arm-none-eabi/lib/thumb/v7e-m+fp/hard/libc_nano.a(lib_a-sbrkr.o)
                              /usr/share/gcc-arm-none-eabi-10.3-2021.10/bin/../lib/gcc/arm-none-eabi/10.3.1/../../../../arm-none-eabi/lib/thumb/v7e-m+fp/hard/libc_nano.a(lib_a-nano-mallocr.o) (_sbrk_r)
/usr/share/gcc-arm-none-eabi-10.3-2021.10/bin/../lib/gcc/arm-none-eabi/10.3.1/../../../../arm-none-eabi/lib/thumb/v7e-m+fp/hard/libc_nano.a(lib_a-strlen.o)
                              build/objdef.o (strlen)
/usr/share/gcc-arm-none-eabi-10.3-2021.10/bin/../lib/gcc/arm-none-eabi/10.3.1/../../../../arm-none-eabi/lib/thumb/v7e-m+fp/hard/libc_nano.a(lib_a-mlock.o)
                              /usr/share/gcc-arm-none-eabi-10.3-2021.10/bin/../lib/gcc/arm-none-eabi/10.3.1/../../../../arm-none-eabi/lib/thumb/v7e-m+fp/hard/libc_nano.a(lib_a-nano-freer.o) (__malloc_lock)
/usr/share/gcc-arm-none-eabi-10.3-2021.10/bin/../lib/gcc/arm-none-eabi/10.3.1/../../../../arm-none-eabi/lib/thumb/v7e-m+fp/hard/libc_nano.a(lib_a-reent.o)
                              /usr/share/gcc-arm-none-eabi-10.3-2021.10/bin/../lib/gcc/arm-none-eabi/10.3.1/../../../../arm-none-eabi/lib/thumb/v7e-m+fp/hard/libc_nano.a(lib_a-sbrkr.o) (errno)
/usr/share/gcc-arm-none-eabi-10.3-2021.10/bin/../lib/gcc/arm-none-eabi/10.3.1/../../../../arm-none-eabi/lib/thumb/v7e-m+fp/hard/libc_nano.a(lib_a-lock.o)
                              /usr/share/gcc-arm-none-eabi-10.3-2021.10/bin/../lib/gcc/arm-none-eabi/10.3.1/../../../../arm-none-eabi/lib/thumb/v7e-m+fp/hard/libc_nano.a(lib_a-mlock.o) (__retarget_lock_acquire_recursive)
/usr/share/gcc-arm-none-eabi-10.3-2021.10/bin/../lib/gcc/arm-none-eabi/10.3.1/../../../../arm-none-eabi/lib/thumb/v7e-m+fp/hard/libnosys.a(sbrk.o)
                              /usr/share/gcc-arm-none-eabi-10.3-2021.10/bin/../lib/gcc/arm-none-eabi/10.3.1/../../../../arm-none-eabi/lib/thumb/v7e-m+fp/hard/libc_nano.a(lib_a-sbrkr.o) (_sbrk)
/usr/share/gcc-arm-none-eabi-10.3-2021.10/bin/../lib/gcc/arm-none-eabi/10.3.1/../../../../arm-none-eabi/lib/thumb/v7e-m+fp/hard/libnosys.a(_exit.o)
                              /usr/share/gcc-arm-none-eabi-10.3-2021.10/bin/../lib/gcc/arm-none-eabi/10.3.1/../../../../arm-none-eabi/lib/thumb/v7e-m+fp/hard/libc_nano.a(lib_a-exit.o) (_exit)

Discarded input sections

 .text          0x0000000000000000        0x0 /usr/share/gcc-arm-none-eabi-10.3-2021.10/bin/../lib/gcc/arm-none-eabi/10.3.1/thumb/v7e-m+fp/hard/crti.o
 .data          0x0000000000000000        0x0 /usr/share/gcc-arm-none-eabi-10.3-2021.10/bin/../lib/gcc/arm-none-eabi/10.3.1/thumb/v7e-m+fp/hard/crti.o
 .bss           0x0000000000000000        0x0 /usr/share/gcc-arm-none-eabi-10.3-2021.10/bin/../lib/gcc/arm-none-eabi/10.3.1/thumb/v7e-m+fp/hard/crti.o
 .data          0x0000000000000000        0x4 /usr/share/gcc-arm-none-eabi-10.3-2021.10/bin/../lib/gcc/arm-none-eabi/10.3.1/thumb/v7e-m+fp/hard/crtbegin.o
 .rodata        0x0000000000000000       0x24 /usr/share/gcc-arm-none-eabi-10.3-2021.10/bin/../lib/gcc/arm-none-eabi/10.3.1/thumb/v7e-m+fp/hard/crtbegin.o
 .text          0x0000000000000000       0x7c /usr/share/gcc-arm-none-eabi-10.3-2021.10/bin/../lib/gcc/arm-none-eabi/10.3.1/../../../../arm-none-eabi/lib/thumb/v7e-m+fp/hard/crt0.o
 .data          0x0000000000000000        0x0 /usr/share/gcc-arm-none-eabi-10.3-2021.10/bin/../lib/gcc/arm-none-eabi/10.3.1/../../../../arm-none-eabi/lib/thumb/v7e-m+fp/hard/crt0.o
 .bss           0x0000000000000000        0x0 /usr/share/gcc-arm-none-eabi-10.3-2021.10/bin/../lib/gcc/arm-none-eabi/10.3.1/../../../../arm-none-eabi/lib/thumb/v7e-m+fp/hard/crt0.o
 .ARM.extab     0x0000000000000000        0x0 /usr/share/gcc-arm-none-eabi-10.3-2021.10/bin/../lib/gcc/arm-none-eabi/10.3.1/../../../../arm-none-eabi/lib/thumb/v7e-m+fp/hard/crt0.o
 .ARM.exidx     0x0000000000000000       0x10 /usr/share/gcc-arm-none-eabi-10.3-2021.10/bin/../lib/gcc/arm-none-eabi/10.3.1/../../../../arm-none-eabi/lib/thumb/v7e-m+fp/hard/crt0.o
 .ARM.attributes
                0x0000000000000000       0x1c /usr/share/gcc-arm-none-eabi-10.3-2021.10/bin/../lib/gcc/arm-none-eabi/10.3.1/../../../../arm-none-eabi/lib/thumb/v7e-m+fp/hard/crt0.o
 .text          0x0000000000000000        0x0 build/stm32f4xx_it.o
 .data          0x0000000000000000        0x0 build/stm32f4xx_it.o
 .bss           0x0000000000000000        0x0 build/stm32f4xx_it.o
 .text          0x0000000000000000        0x0 build/misc.o
 .data          0x0000000000000000        0x0 build/misc.o
 .bss           0x0000000000000000        0x0 build/misc.o
 .text.NVIC_SetVectorTable
                0x0000000000000000       0x14 build/misc.o
 .text.NVIC_SystemLPConfig
                0x0000000000000000       0x1c build/misc.o
 .text.SysTick_CLKSourceConfig
                0x0000000000000000       0x20 build/misc.o
 .text          0x0000000000000000        0x0 build/stm32f4xx_adc.o
 .data          0x0000000000000000        0x0 build/stm32f4xx_adc.o
 .bss           0x0000000000000000        0x0 build/stm32f4xx_adc.o
 .text.ADC_DeInit
                0x0000000000000000       0x18 build/stm32f4xx_adc.o
 .text.ADC_Init
                0x0000000000000000       0x54 build/stm32f4xx_adc.o
 .text.ADC_StructInit
                0x0000000000000000       0x14 build/stm32f4xx_adc.o
 .text.ADC_CommonInit
                0x0000000000000000       0x2c build/stm32f4xx_adc.o
 .text.ADC_CommonStructInit
                0x0000000000000000        0xc build/stm32f4xx_adc.o
 .text.ADC_Cmd  0x0000000000000000       0x16 build/stm32f4xx_adc.o
 .text.ADC_AnalogWatchdogCmd
                0x0000000000000000       0x10 build/stm32f4xx_adc.o
 .text.ADC_AnalogWatchdogThresholdsConfig
                0x0000000000000000        0x6 build/stm32f4xx_adc.o
 .text.ADC_AnalogWatchdogSingleChannelConfig
                0x0000000000000000        0xc build/stm32f4xx_adc.o
 .text.ADC_TempSensorVrefintCmd
                0x0000000000000000       0x20 build/stm32f4xx_adc.o
 .text.ADC_VBATCmd
                0x0000000000000000       0x20 build/stm32f4xx_adc.o
 .text.ADC_RegularChannelConfig
                0x0000000000000000       0x98 build/stm32f4xx_adc.o
 .text.ADC_SoftwareStartConv
                0x0000000000000000        0xa build/stm32f4xx_adc.o
 .text.ADC_GetSoftwareStartConvStatus
                0x0000000000000000       0x10 build/stm32f4xx_adc.o
 .text.ADC_EOCOnEachRegularChannelCmd
                0x0000000000000000       0x16 build/stm32f4xx_adc.o
 .text.ADC_ContinuousModeCmd
                0x0000000000000000       0x16 build/stm32f4xx_adc.o
 .text.ADC_DiscModeChannelCountConfig
                0x0000000000000000       0x10 build/stm32f4xx_adc.o
 .text.ADC_DiscModeCmd
                0x0000000000000000       0x16 build/stm32f4xx_adc.o
 .text.ADC_GetConversionValue
                0x0000000000000000        0x6 build/stm32f4xx_adc.o
 .text.ADC_GetMultiModeConversionValue
                0x0000000000000000        0xc build/stm32f4xx_adc.o
 .text.ADC_DMACmd
                0x0000000000000000       0x16 build/stm32f4xx_adc.o
 .text.ADC_DMARequestAfterLastTransferCmd
                0x0000000000000000       0x16 build/stm32f4xx_adc.o
 .text.ADC_MultiModeDMARequestAfterLastTransferCmd
                0x0000000000000000       0x20 build/stm32f4xx_adc.o
 .text.ADC_InjectedChannelConfig
                0x0000000000000000       0x62 build/stm32f4xx_adc.o
 .text.ADC_InjectedSequencerLengthConfig
                0x0000000000000000       0x10 build/stm32f4xx_adc.o
 .text.ADC_SetInjectedOffset
                0x0000000000000000       0x16 build/stm32f4xx_adc.o
 .text.ADC_ExternalTrigInjectedConvConfig
                0x0000000000000000        0xc build/stm32f4xx_adc.o
 .text.ADC_ExternalTrigInjectedConvEdgeConfig
                0x0000000000000000        0xc build/stm32f4xx_adc.o
 .text.ADC_SoftwareStartInjectedConv
                0x0000000000000000        0xa build/stm32f4xx_adc.o
 .text.ADC_GetSoftwareStartInjectedConvCmdStatus
                0x0000000000000000       0x10 build/stm32f4xx_adc.o
 .text.ADC_AutoInjectedConvCmd
                0x0000000000000000       0x16 build/stm32f4xx_adc.o
 .text.ADC_InjectedDiscModeCmd
                0x0000000000000000       0x16 build/stm32f4xx_adc.o
 .text.ADC_GetInjectedConversionValue
                0x0000000000000000       0x1a build/stm32f4xx_adc.o
 .text.ADC_ITConfig
                0x0000000000000000       0x1a build/stm32f4xx_adc.o
 .text.ADC_GetFlagStatus
                0x0000000000000000        0xe build/stm32f4xx_adc.o
 .text.ADC_ClearFlag
                0x0000000000000000        0x6 build/stm32f4xx_adc.o
 .text.ADC_GetITStatus
                0x0000000000000000       0x24 build/stm32f4xx_adc.o
 .text.ADC_ClearITPendingBit
                0x0000000000000000        0x8 build/stm32f4xx_adc.o
 .debug_info    0x0000000000000000      0xdbf build/stm32f4xx_adc.o
 .debug_abbrev  0x0000000000000000      0x1e6 build/stm32f4xx_adc.o
 .debug_loc     0x0000000000000000      0x9e7 build/stm32f4xx_adc.o
 .debug_aranges
                0x0000000000000000      0x148 build/stm32f4xx_adc.o
 .debug_ranges  0x0000000000000000      0x138 build/stm32f4xx_adc.o
 .debug_line    0x0000000000000000      0xaeb build/stm32f4xx_adc.o
 .debug_str     0x0000000000000000      0x854 build/stm32f4xx_adc.o
 .comment       0x0000000000000000       0x4a build/stm32f4xx_adc.o
 .debug_frame   0x0000000000000000      0x2b8 build/stm32f4xx_adc.o
 .ARM.attributes
                0x0000000000000000       0x34 build/stm32f4xx_adc.o
 .text          0x0000000000000000        0x0 build/stm32f4xx_can.o
 .data          0x0000000000000000        0x0 build/stm32f4xx_can.o
 .bss           0x0000000000000000        0x0 build/stm32f4xx_can.o
 .text.CheckITStatus
                0x0000000000000000        0xc build/stm32f4xx_can.o
 .text.CAN_SlaveStartBank
                0x0000000000000000       0x3c build/stm32f4xx_can.o
 .text.CAN_DBGFreeze
                0x0000000000000000       0x16 build/stm32f4xx_can.o
 .text.CAN_TTComModeCmd
                0x0000000000000000       0x5e build/stm32f4xx_can.o
 .text.CAN_TransmitStatus
                0x0000000000000000       0x98 build/stm32f4xx_can.o
 .text.CAN_CancelTransmit
                0x0000000000000000       0x2a build/stm32f4xx_can.o
 .text.CAN_FIFORelease
                0x0000000000000000       0x16 build/stm32f4xx_can.o
 .text.CAN_MessagePending
                0x0000000000000000       0x1a build/stm32f4xx_can.o
 .text.CAN_OperatingModeRequest
                0x0000000000000000       0xa2 build/stm32f4xx_can.o
 .text.CAN_Sleep
                0x0000000000000000       0x1e build/stm32f4xx_can.o
 .text.CAN_WakeUp
                0x0000000000000000       0x2a build/stm32f4xx_can.o
 .text.CAN_GetLastErrorCode
                0x0000000000000000        0x8 build/stm32f4xx_can.o
 .text.CAN_GetReceiveErrorCounter
                0x0000000000000000        0x6 build/stm32f4xx_can.o
 .text.CAN_GetLSBTransmitErrorCounter
                0x0000000000000000        0x8 build/stm32f4xx_can.o
 .text.CAN_GetFlagStatus
                0x0000000000000000       0x72 build/stm32f4xx_can.o
 .text.CAN_ClearFlag
                0x0000000000000000       0x38 build/stm32f4xx_can.o
 .text.CAN_GetITStatus
                0x0000000000000000      0x114 build/stm32f4xx_can.o
 .text.CAN_ClearITPendingBit
                0x0000000000000000       0xc0 build/stm32f4xx_can.o
 .text          0x0000000000000000        0x0 build/stm32f4xx_cec.o
 .data          0x0000000000000000        0x0 build/stm32f4xx_cec.o
 .bss           0x0000000000000000        0x0 build/stm32f4xx_cec.o
 .debug_info    0x0000000000000000       0x64 build/stm32f4xx_cec.o
 .debug_abbrev  0x0000000000000000       0x26 build/stm32f4xx_cec.o
 .debug_aranges
                0x0000000000000000       0x18 build/stm32f4xx_cec.o
 .debug_line    0x0000000000000000       0x1d build/stm32f4xx_cec.o
 .debug_str     0x0000000000000000      0x1aa build/stm32f4xx_cec.o
 .comment       0x0000000000000000       0x4a build/stm32f4xx_cec.o
 .ARM.attributes
                0x0000000000000000       0x34 build/stm32f4xx_cec.o
 .text          0x0000000000000000        0x0 build/stm32f4xx_crc.o
 .data          0x0000000000000000        0x0 build/stm32f4xx_crc.o
 .bss           0x0000000000000000        0x0 build/stm32f4xx_crc.o
 .text.CRC_ResetDR
                0x0000000000000000        0xc build/stm32f4xx_crc.o
 .text.CRC_CalcCRC
                0x0000000000000000        0xc build/stm32f4xx_crc.o
 .text.CRC_CalcBlockCRC
                0x0000000000000000       0x2c build/stm32f4xx_crc.o
 .text.CRC_GetCRC
                0x0000000000000000        0xc build/stm32f4xx_crc.o
 .text.CRC_SetIDRegister
                0x0000000000000000        0xc build/stm32f4xx_crc.o
 .text.CRC_GetIDRegister
                0x0000000000000000        0xc build/stm32f4xx_crc.o
 .debug_info    0x0000000000000000      0x203 build/stm32f4xx_crc.o
 .debug_abbrev  0x0000000000000000      0x132 build/stm32f4xx_crc.o
 .debug_loc     0x0000000000000000       0xa3 build/stm32f4xx_crc.o
 .debug_aranges
                0x0000000000000000       0x48 build/stm32f4xx_crc.o
 .debug_ranges  0x0000000000000000       0x38 build/stm32f4xx_crc.o
 .debug_line    0x0000000000000000      0x23b build/stm32f4xx_crc.o
 .debug_str     0x0000000000000000      0x284 build/stm32f4xx_crc.o
 .comment       0x0000000000000000       0x4a build/stm32f4xx_crc.o
 .debug_frame   0x0000000000000000       0x7c build/stm32f4xx_crc.o
 .ARM.attributes
                0x0000000000000000       0x34 build/stm32f4xx_crc.o
 .text          0x0000000000000000        0x0 build/stm32f4xx_cryp.o
 .data          0x0000000000000000        0x0 build/stm32f4xx_cryp.o
 .bss           0x0000000000000000        0x0 build/stm32f4xx_cryp.o
 .text.CRYP_DeInit
                0x0000000000000000       0x14 build/stm32f4xx_cryp.o
 .text.CRYP_Init
                0x0000000000000000       0x60 build/stm32f4xx_cryp.o
 .text.CRYP_StructInit
                0x0000000000000000        0xc build/stm32f4xx_cryp.o
 .text.CRYP_KeyInit
                0x0000000000000000       0x28 build/stm32f4xx_cryp.o
 .text.CRYP_KeyStructInit
                0x0000000000000000       0x14 build/stm32f4xx_cryp.o
 .text.CRYP_IVInit
                0x0000000000000000       0x18 build/stm32f4xx_cryp.o
 .text.CRYP_IVStructInit
                0x0000000000000000        0xc build/stm32f4xx_cryp.o
 .text.CRYP_PhaseConfig
                0x0000000000000000       0x14 build/stm32f4xx_cryp.o
 .text.CRYP_FIFOFlush
                0x0000000000000000       0x10 build/stm32f4xx_cryp.o
 .text.CRYP_Cmd
                0x0000000000000000       0x20 build/stm32f4xx_cryp.o
 .text.CRYP_DataIn
                0x0000000000000000        0xc build/stm32f4xx_cryp.o
 .text.CRYP_DataOut
                0x0000000000000000        0xc build/stm32f4xx_cryp.o
 .text.CRYP_SaveContext
                0x0000000000000000      0x100 build/stm32f4xx_cryp.o
 .text.CRYP_RestoreContext
                0x0000000000000000       0x8c build/stm32f4xx_cryp.o
 .text.CRYP_DMACmd
                0x0000000000000000       0x20 build/stm32f4xx_cryp.o
 .text.CRYP_ITConfig
                0x0000000000000000       0x20 build/stm32f4xx_cryp.o
 .text.CRYP_GetITStatus
                0x0000000000000000       0x14 build/stm32f4xx_cryp.o
 .text.CRYP_GetCmdStatus
                0x0000000000000000       0x18 build/stm32f4xx_cryp.o
 .text.CRYP_GetFlagStatus
                0x0000000000000000       0x20 build/stm32f4xx_cryp.o
 .debug_info    0x0000000000000000      0x94d build/stm32f4xx_cryp.o
 .debug_abbrev  0x0000000000000000      0x1fe build/stm32f4xx_cryp.o
 .debug_loc     0x0000000000000000      0x2a6 build/stm32f4xx_cryp.o
 .debug_aranges
                0x0000000000000000       0xb0 build/stm32f4xx_cryp.o
 .debug_ranges  0x0000000000000000       0xa0 build/stm32f4xx_cryp.o
 .debug_line    0x0000000000000000      0x8b0 build/stm32f4xx_cryp.o
 .debug_str     0x0000000000000000      0x700 build/stm32f4xx_cryp.o
 .comment       0x0000000000000000       0x4a build/stm32f4xx_cryp.o
 .debug_frame   0x0000000000000000      0x15c build/stm32f4xx_cryp.o
 .ARM.attributes
                0x0000000000000000       0x34 build/stm32f4xx_cryp.o
 .text          0x0000000000000000        0x0 build/stm32f4xx_cryp_aes.o
 .data          0x0000000000000000        0x0 build/stm32f4xx_cryp_aes.o
 .bss           0x0000000000000000        0x0 build/stm32f4xx_cryp_aes.o
 .text.CRYP_AES_ECB
                0x0000000000000000      0x19a build/stm32f4xx_cryp_aes.o
 .text.CRYP_AES_CBC
                0x0000000000000000      0x1de build/stm32f4xx_cryp_aes.o
 .text.CRYP_AES_CTR
                0x0000000000000000      0x17e build/stm32f4xx_cryp_aes.o
 .text.CRYP_AES_GCM
                0x0000000000000000      0x466 build/stm32f4xx_cryp_aes.o
 .text.CRYP_AES_CCM
                0x0000000000000000      0x5b6 build/stm32f4xx_cryp_aes.o
 .debug_info    0x0000000000000000     0x2b3e build/stm32f4xx_cryp_aes.o
 .debug_abbrev  0x0000000000000000      0x282 build/stm32f4xx_cryp_aes.o
 .debug_loc     0x0000000000000000     0x2607 build/stm32f4xx_cryp_aes.o
 .debug_aranges
                0x0000000000000000       0x40 build/stm32f4xx_cryp_aes.o
 .debug_ranges  0x0000000000000000       0x30 build/stm32f4xx_cryp_aes.o
 .debug_line    0x0000000000000000     0x23da build/stm32f4xx_cryp_aes.o
 .debug_str     0x0000000000000000      0x58f build/stm32f4xx_cryp_aes.o
 .comment       0x0000000000000000       0x4a build/stm32f4xx_cryp_aes.o
 .debug_frame   0x0000000000000000       0xf0 build/stm32f4xx_cryp_aes.o
 .ARM.attributes
                0x0000000000000000       0x34 build/stm32f4xx_cryp_aes.o
 .text          0x0000000000000000        0x0 build/stm32f4xx_cryp_des.o
 .data          0x0000000000000000        0x0 build/stm32f4xx_cryp_des.o
 .bss           0x0000000000000000        0x0 build/stm32f4xx_cryp_des.o
 .text.CRYP_DES_ECB
                0x0000000000000000       0xbe build/stm32f4xx_cryp_des.o
 .text.CRYP_DES_CBC
                0x0000000000000000       0xce build/stm32f4xx_cryp_des.o
 .debug_info    0x0000000000000000      0x796 build/stm32f4xx_cryp_des.o
 .debug_abbrev  0x0000000000000000      0x1b7 build/stm32f4xx_cryp_des.o
 .debug_loc     0x0000000000000000      0x51e build/stm32f4xx_cryp_des.o
 .debug_aranges
                0x0000000000000000       0x28 build/stm32f4xx_cryp_des.o
 .debug_ranges  0x0000000000000000       0x18 build/stm32f4xx_cryp_des.o
 .debug_line    0x0000000000000000      0x4d2 build/stm32f4xx_cryp_des.o
 .debug_str     0x0000000000000000      0x490 build/stm32f4xx_cryp_des.o
 .comment       0x0000000000000000       0x4a build/stm32f4xx_cryp_des.o
 .debug_frame   0x0000000000000000       0x60 build/stm32f4xx_cryp_des.o
 .ARM.attributes
                0x0000000000000000       0x34 build/stm32f4xx_cryp_des.o
 .text          0x0000000000000000        0x0 build/stm32f4xx_cryp_tdes.o
 .data          0x0000000000000000        0x0 build/stm32f4xx_cryp_tdes.o
 .bss           0x0000000000000000        0x0 build/stm32f4xx_cryp_tdes.o
 .text.CRYP_TDES_ECB
                0x0000000000000000       0xd6 build/stm32f4xx_cryp_tdes.o
 .text.CRYP_TDES_CBC
                0x0000000000000000       0xe6 build/stm32f4xx_cryp_tdes.o
 .debug_info    0x0000000000000000      0x8cf build/stm32f4xx_cryp_tdes.o
 .debug_abbrev  0x0000000000000000      0x1cf build/stm32f4xx_cryp_tdes.o
 .debug_loc     0x0000000000000000      0x63e build/stm32f4xx_cryp_tdes.o
 .debug_aranges
                0x0000000000000000       0x28 build/stm32f4xx_cryp_tdes.o
 .debug_ranges  0x0000000000000000       0x18 build/stm32f4xx_cryp_tdes.o
 .debug_line    0x0000000000000000      0x5e1 build/stm32f4xx_cryp_tdes.o
 .debug_str     0x0000000000000000      0x496 build/stm32f4xx_cryp_tdes.o
 .comment       0x0000000000000000       0x4a build/stm32f4xx_cryp_tdes.o
 .debug_frame   0x0000000000000000       0x60 build/stm32f4xx_cryp_tdes.o
 .ARM.attributes
                0x0000000000000000       0x34 build/stm32f4xx_cryp_tdes.o
 .text          0x0000000000000000        0x0 build/stm32f4xx_dac.o
 .data          0x0000000000000000        0x0 build/stm32f4xx_dac.o
 .bss           0x0000000000000000        0x0 build/stm32f4xx_dac.o
 .text.DAC_DeInit
                0x0000000000000000       0x18 build/stm32f4xx_dac.o
 .text.DAC_Init
                0x0000000000000000       0x30 build/stm32f4xx_dac.o
 .text.DAC_StructInit
                0x0000000000000000        0xc build/stm32f4xx_dac.o
 .text.DAC_Cmd  0x0000000000000000       0x28 build/stm32f4xx_dac.o
 .text.DAC_SoftwareTriggerCmd
                0x0000000000000000       0x2c build/stm32f4xx_dac.o
 .text.DAC_DualSoftwareTriggerCmd
                0x0000000000000000       0x20 build/stm32f4xx_dac.o
 .text.DAC_WaveGenerationCmd
                0x0000000000000000       0x20 build/stm32f4xx_dac.o
 .text.DAC_SetChannel1Data
                0x0000000000000000       0x20 build/stm32f4xx_dac.o
 .text.DAC_SetChannel2Data
                0x0000000000000000       0x20 build/stm32f4xx_dac.o
 .text.DAC_SetDualChannelData
                0x0000000000000000       0x18 build/stm32f4xx_dac.o
 .text.DAC_GetDataOutputValue
                0x0000000000000000       0x24 build/stm32f4xx_dac.o
 .text.DAC_DMACmd
                0x0000000000000000       0x2c build/stm32f4xx_dac.o
 .text.DAC_ITConfig
                0x0000000000000000       0x20 build/stm32f4xx_dac.o
 .text.DAC_GetFlagStatus
                0x0000000000000000       0x18 build/stm32f4xx_dac.o
 .text.DAC_ClearFlag
                0x0000000000000000        0xc build/stm32f4xx_dac.o
 .text.DAC_GetITStatus
                0x0000000000000000       0x20 build/stm32f4xx_dac.o
 .text.DAC_ClearITPendingBit
                0x0000000000000000        0xc build/stm32f4xx_dac.o
 .debug_info    0x0000000000000000      0x736 build/stm32f4xx_dac.o
 .debug_abbrev  0x0000000000000000      0x1f2 build/stm32f4xx_dac.o
 .debug_loc     0x0000000000000000      0x5bc build/stm32f4xx_dac.o
 .debug_aranges
                0x0000000000000000       0xa0 build/stm32f4xx_dac.o
 .debug_ranges  0x0000000000000000       0x90 build/stm32f4xx_dac.o
 .debug_line    0x0000000000000000      0x53b build/stm32f4xx_dac.o
 .debug_str     0x0000000000000000      0x4a3 build/stm32f4xx_dac.o
 .comment       0x0000000000000000       0x4a build/stm32f4xx_dac.o
 .debug_frame   0x0000000000000000      0x14c build/stm32f4xx_dac.o
 .ARM.attributes
                0x0000000000000000       0x34 build/stm32f4xx_dac.o
 .text          0x0000000000000000        0x0 build/stm32f4xx_dbgmcu.o
 .data          0x0000000000000000        0x0 build/stm32f4xx_dbgmcu.o
 .bss           0x0000000000000000        0x0 build/stm32f4xx_dbgmcu.o
 .text.DBGMCU_GetREVID
                0x0000000000000000        0xc build/stm32f4xx_dbgmcu.o
 .text.DBGMCU_GetDEVID
                0x0000000000000000       0x10 build/stm32f4xx_dbgmcu.o
 .text.DBGMCU_Config
                0x0000000000000000       0x1c build/stm32f4xx_dbgmcu.o
 .text.DBGMCU_APB1PeriphConfig
                0x0000000000000000       0x1c build/stm32f4xx_dbgmcu.o
 .text.DBGMCU_APB2PeriphConfig
                0x0000000000000000       0x1c build/stm32f4xx_dbgmcu.o
 .debug_info    0x0000000000000000      0x1d8 build/stm32f4xx_dbgmcu.o
 .debug_abbrev  0x0000000000000000       0xf9 build/stm32f4xx_dbgmcu.o
 .debug_loc     0x0000000000000000       0xc6 build/stm32f4xx_dbgmcu.o
 .debug_aranges
                0x0000000000000000       0x40 build/stm32f4xx_dbgmcu.o
 .debug_ranges  0x0000000000000000       0x30 build/stm32f4xx_dbgmcu.o
 .debug_line    0x0000000000000000      0x207 build/stm32f4xx_dbgmcu.o
 .debug_str     0x0000000000000000      0x279 build/stm32f4xx_dbgmcu.o
 .comment       0x0000000000000000       0x4a build/stm32f4xx_dbgmcu.o
 .debug_frame   0x0000000000000000       0x60 build/stm32f4xx_dbgmcu.o
 .ARM.attributes
                0x0000000000000000       0x34 build/stm32f4xx_dbgmcu.o
 .text          0x0000000000000000        0x0 build/stm32f4xx_dcmi.o
 .data          0x0000000000000000        0x0 build/stm32f4xx_dcmi.o
 .bss           0x0000000000000000        0x0 build/stm32f4xx_dcmi.o
 .text.DCMI_DeInit
                0x0000000000000000       0x1c build/stm32f4xx_dcmi.o
 .text.DCMI_Init
                0x0000000000000000       0x48 build/stm32f4xx_dcmi.o
 .text.DCMI_StructInit
                0x0000000000000000       0x12 build/stm32f4xx_dcmi.o
 .text.DCMI_CROPConfig
                0x0000000000000000       0x1c build/stm32f4xx_dcmi.o
 .text.DCMI_CROPCmd
                0x0000000000000000       0x20 build/stm32f4xx_dcmi.o
 .text.DCMI_SetEmbeddedSynchroCodes
                0x0000000000000000       0x20 build/stm32f4xx_dcmi.o
 .text.DCMI_JPEGCmd
                0x0000000000000000       0x20 build/stm32f4xx_dcmi.o
 .text.DCMI_Cmd
                0x0000000000000000       0x20 build/stm32f4xx_dcmi.o
 .text.DCMI_CaptureCmd
                0x0000000000000000       0x20 build/stm32f4xx_dcmi.o
 .text.DCMI_ReadData
                0x0000000000000000        0xc build/stm32f4xx_dcmi.o
 .text.DCMI_ITConfig
                0x0000000000000000       0x20 build/stm32f4xx_dcmi.o
 .text.DCMI_GetFlagStatus
                0x0000000000000000       0x28 build/stm32f4xx_dcmi.o
 .text.DCMI_ClearFlag
                0x0000000000000000        0xc build/stm32f4xx_dcmi.o
 .text.DCMI_GetITStatus
                0x0000000000000000       0x14 build/stm32f4xx_dcmi.o
 .text.DCMI_ClearITPendingBit
                0x0000000000000000        0xc build/stm32f4xx_dcmi.o
 .debug_info    0x0000000000000000      0x5a4 build/stm32f4xx_dcmi.o
 .debug_abbrev  0x0000000000000000      0x1cc build/stm32f4xx_dcmi.o
 .debug_loc     0x0000000000000000      0x274 build/stm32f4xx_dcmi.o
 .debug_aranges
                0x0000000000000000       0x90 build/stm32f4xx_dcmi.o
 .debug_ranges  0x0000000000000000       0x80 build/stm32f4xx_dcmi.o
 .debug_line    0x0000000000000000      0x49b build/stm32f4xx_dcmi.o
 .debug_str     0x0000000000000000      0x512 build/stm32f4xx_dcmi.o
 .comment       0x0000000000000000       0x4a build/stm32f4xx_dcmi.o
 .debug_frame   0x0000000000000000      0x110 build/stm32f4xx_dcmi.o
 .ARM.attributes
                0x0000000000000000       0x34 build/stm32f4xx_dcmi.o
 .text          0x0000000000000000        0x0 build/stm32f4xx_dma.o
 .data          0x0000000000000000        0x0 build/stm32f4xx_dma.o
 .bss           0x0000000000000000        0x0 build/stm32f4xx_dma.o
 .text.DMA_DeInit
                0x0000000000000000      0x158 build/stm32f4xx_dma.o
 .text.DMA_Init
                0x0000000000000000       0x58 build/stm32f4xx_dma.o
 .text.DMA_StructInit
                0x0000000000000000       0x22 build/stm32f4xx_dma.o
 .text.DMA_Cmd  0x0000000000000000       0x16 build/stm32f4xx_dma.o
 .text.DMA_PeriphIncOffsetSizeConfig
                0x0000000000000000       0x16 build/stm32f4xx_dma.o
 .text.DMA_FlowControllerConfig
                0x0000000000000000       0x16 build/stm32f4xx_dma.o
 .text.DMA_SetCurrDataCounter
                0x0000000000000000        0x4 build/stm32f4xx_dma.o
 .text.DMA_GetCurrDataCounter
                0x0000000000000000        0x6 build/stm32f4xx_dma.o
 .text.DMA_DoubleBufferModeConfig
                0x0000000000000000       0x18 build/stm32f4xx_dma.o
 .text.DMA_DoubleBufferModeCmd
                0x0000000000000000       0x16 build/stm32f4xx_dma.o
 .text.DMA_MemoryTargetConfig
                0x0000000000000000        0xa build/stm32f4xx_dma.o
 .text.DMA_GetCurrentMemoryTarget
                0x0000000000000000        0xc build/stm32f4xx_dma.o
 .text.DMA_GetCmdStatus
                0x0000000000000000       0x10 build/stm32f4xx_dma.o
 .text.DMA_GetFIFOStatus
                0x0000000000000000        0x8 build/stm32f4xx_dma.o
 .text.DMA_GetFlagStatus
                0x0000000000000000       0x38 build/stm32f4xx_dma.o
 .text.DMA_ClearFlag
                0x0000000000000000       0x34 build/stm32f4xx_dma.o
 .text.DMA_ITConfig
                0x0000000000000000       0x3a build/stm32f4xx_dma.o
 .text.DMA_GetITStatus
                0x0000000000000000       0x60 build/stm32f4xx_dma.o
 .text.DMA_ClearITPendingBit
                0x0000000000000000       0x34 build/stm32f4xx_dma.o
 .debug_info    0x0000000000000000      0x7d4 build/stm32f4xx_dma.o
 .debug_abbrev  0x0000000000000000      0x180 build/stm32f4xx_dma.o
 .debug_loc     0x0000000000000000      0x4c3 build/stm32f4xx_dma.o
 .debug_aranges
                0x0000000000000000       0xb0 build/stm32f4xx_dma.o
 .debug_ranges  0x0000000000000000       0xa0 build/stm32f4xx_dma.o
 .debug_line    0x0000000000000000      0x7de build/stm32f4xx_dma.o
 .debug_str     0x0000000000000000      0x57b build/stm32f4xx_dma.o
 .comment       0x0000000000000000       0x4a build/stm32f4xx_dma.o
 .debug_frame   0x0000000000000000      0x158 build/stm32f4xx_dma.o
 .ARM.attributes
                0x0000000000000000       0x34 build/stm32f4xx_dma.o
 .text          0x0000000000000000        0x0 build/stm32f4xx_dma2d.o
 .data          0x0000000000000000        0x0 build/stm32f4xx_dma2d.o
 .bss           0x0000000000000000        0x0 build/stm32f4xx_dma2d.o
 .text.DMA2D_DeInit
                0x0000000000000000       0x18 build/stm32f4xx_dma2d.o
 .text.DMA2D_Init
                0x0000000000000000       0xcc build/stm32f4xx_dma2d.o
 .text.DMA2D_StructInit
                0x0000000000000000       0x18 build/stm32f4xx_dma2d.o
 .text.DMA2D_StartTransfer
                0x0000000000000000       0x10 build/stm32f4xx_dma2d.o
 .text.DMA2D_AbortTransfer
                0x0000000000000000       0x10 build/stm32f4xx_dma2d.o
 .text.DMA2D_Suspend
                0x0000000000000000       0x20 build/stm32f4xx_dma2d.o
 .text.DMA2D_FGConfig
                0x0000000000000000       0x74 build/stm32f4xx_dma2d.o
 .text.DMA2D_FG_StructInit
                0x0000000000000000       0x1a build/stm32f4xx_dma2d.o
 .text.DMA2D_BGConfig
                0x0000000000000000       0x74 build/stm32f4xx_dma2d.o
 .text.DMA2D_BG_StructInit
                0x0000000000000000       0x1a build/stm32f4xx_dma2d.o
 .text.DMA2D_FGStart
                0x0000000000000000       0x20 build/stm32f4xx_dma2d.o
 .text.DMA2D_BGStart
                0x0000000000000000       0x20 build/stm32f4xx_dma2d.o
 .text.DMA2D_DeadTimeConfig
                0x0000000000000000       0x30 build/stm32f4xx_dma2d.o
 .text.DMA2D_LineWatermarkConfig
                0x0000000000000000        0xc build/stm32f4xx_dma2d.o
 .text.DMA2D_ITConfig
                0x0000000000000000       0x1c build/stm32f4xx_dma2d.o
 .text.DMA2D_GetFlagStatus
                0x0000000000000000       0x14 build/stm32f4xx_dma2d.o
 .text.DMA2D_ClearFlag
                0x0000000000000000        0xc build/stm32f4xx_dma2d.o
 .text.DMA2D_GetITStatus
                0x0000000000000000       0x24 build/stm32f4xx_dma2d.o
 .text.DMA2D_ClearITPendingBit
                0x0000000000000000        0xc build/stm32f4xx_dma2d.o
 .debug_info    0x0000000000000000      0x926 build/stm32f4xx_dma2d.o
 .debug_abbrev  0x0000000000000000      0x210 build/stm32f4xx_dma2d.o
 .debug_loc     0x0000000000000000      0x5af build/stm32f4xx_dma2d.o
 .debug_aranges
                0x0000000000000000       0xb0 build/stm32f4xx_dma2d.o
 .debug_ranges  0x0000000000000000       0xa0 build/stm32f4xx_dma2d.o
 .debug_line    0x0000000000000000      0x783 build/stm32f4xx_dma2d.o
 .debug_str     0x0000000000000000      0x786 build/stm32f4xx_dma2d.o
 .comment       0x0000000000000000       0x4a build/stm32f4xx_dma2d.o
 .debug_frame   0x0000000000000000      0x170 build/stm32f4xx_dma2d.o
 .ARM.attributes
                0x0000000000000000       0x34 build/stm32f4xx_dma2d.o
 .text          0x0000000000000000        0x0 build/stm32f4xx_dsi.o
 .data          0x0000000000000000        0x0 build/stm32f4xx_dsi.o
 .bss           0x0000000000000000        0x0 build/stm32f4xx_dsi.o
 .debug_info    0x0000000000000000       0x64 build/stm32f4xx_dsi.o
 .debug_abbrev  0x0000000000000000       0x26 build/stm32f4xx_dsi.o
 .debug_aranges
                0x0000000000000000       0x18 build/stm32f4xx_dsi.o
 .debug_line    0x0000000000000000       0x1d build/stm32f4xx_dsi.o
 .debug_str     0x0000000000000000      0x1aa build/stm32f4xx_dsi.o
 .comment       0x0000000000000000       0x4a build/stm32f4xx_dsi.o
 .ARM.attributes
                0x0000000000000000       0x34 build/stm32f4xx_dsi.o
 .text          0x0000000000000000        0x0 build/stm32f4xx_exti.o
 .data          0x0000000000000000        0x0 build/stm32f4xx_exti.o
 .bss           0x0000000000000000        0x0 build/stm32f4xx_exti.o
 .text.EXTI_DeInit
                0x0000000000000000       0x1c build/stm32f4xx_exti.o
 .text.EXTI_StructInit
                0x0000000000000000        0xe build/stm32f4xx_exti.o
 .text.EXTI_GenerateSWInterrupt
                0x0000000000000000       0x10 build/stm32f4xx_exti.o
 .text.EXTI_GetFlagStatus
                0x0000000000000000       0x14 build/stm32f4xx_exti.o
 .text.EXTI_ClearFlag
                0x0000000000000000        0xc build/stm32f4xx_exti.o
 .text.EXTI_GetITStatus
                0x0000000000000000       0x14 build/stm32f4xx_exti.o
 .text          0x0000000000000000        0x0 build/stm32f4xx_flash.o
 .data          0x0000000000000000        0x0 build/stm32f4xx_flash.o
 .bss           0x0000000000000000        0x0 build/stm32f4xx_flash.o
 .text.FLASH_SetLatency
                0x0000000000000000        0xc build/stm32f4xx_flash.o
 .text.FLASH_PrefetchBufferCmd
                0x0000000000000000       0x20 build/stm32f4xx_flash.o
 .text.FLASH_InstructionCacheCmd
                0x0000000000000000       0x20 build/stm32f4xx_flash.o
 .text.FLASH_DataCacheCmd
                0x0000000000000000       0x20 build/stm32f4xx_flash.o
 .text.FLASH_InstructionCacheReset
                0x0000000000000000       0x10 build/stm32f4xx_flash.o
 .text.FLASH_DataCacheReset
                0x0000000000000000       0x10 build/stm32f4xx_flash.o
 .text.FLASH_Unlock
                0x0000000000000000       0x20 build/stm32f4xx_flash.o
 .text.FLASH_Lock
                0x0000000000000000       0x10 build/stm32f4xx_flash.o
 .text.FLASH_OB_Unlock
                0x0000000000000000       0x20 build/stm32f4xx_flash.o
 .text.FLASH_OB_Lock
                0x0000000000000000       0x10 build/stm32f4xx_flash.o
 .text.FLASH_OB_PCROPSelectionConfig
                0x0000000000000000       0x14 build/stm32f4xx_flash.o
 .text.FLASH_OB_BootConfig
                0x0000000000000000       0x18 build/stm32f4xx_flash.o
 .text.FLASH_OB_BORConfig
                0x0000000000000000       0x18 build/stm32f4xx_flash.o
 .text.FLASH_OB_GetUser
                0x0000000000000000       0x10 build/stm32f4xx_flash.o
 .text.FLASH_OB_GetWRP
                0x0000000000000000        0xc build/stm32f4xx_flash.o
 .text.FLASH_OB_GetWRP1
                0x0000000000000000        0xc build/stm32f4xx_flash.o
 .text.FLASH_OB_GetPCROP
                0x0000000000000000        0xc build/stm32f4xx_flash.o
 .text.FLASH_OB_GetPCROP1
                0x0000000000000000        0xc build/stm32f4xx_flash.o
 .text.FLASH_OB_GetRDP
                0x0000000000000000       0x18 build/stm32f4xx_flash.o
 .text.FLASH_OB_GetBOR
                0x0000000000000000       0x10 build/stm32f4xx_flash.o
 .text.FLASH_ITConfig
                0x0000000000000000       0x1c build/stm32f4xx_flash.o
 .text.FLASH_GetFlagStatus
                0x0000000000000000       0x14 build/stm32f4xx_flash.o
 .text.FLASH_ClearFlag
                0x0000000000000000        0xc build/stm32f4xx_flash.o
 .text.FLASH_GetStatus
                0x0000000000000000       0x50 build/stm32f4xx_flash.o
 .text.FLASH_WaitForLastOperation
                0x0000000000000000       0x30 build/stm32f4xx_flash.o
 .text.FLASH_EraseSector
                0x0000000000000000       0x70 build/stm32f4xx_flash.o
 .text.FLASH_EraseAllSectors
                0x0000000000000000       0x60 build/stm32f4xx_flash.o
 .text.FLASH_EraseAllBank1Sectors
                0x0000000000000000       0x60 build/stm32f4xx_flash.o
 .text.FLASH_EraseAllBank2Sectors
                0x0000000000000000       0x60 build/stm32f4xx_flash.o
 .text.FLASH_ProgramDoubleWord
                0x0000000000000000       0x44 build/stm32f4xx_flash.o
 .text.FLASH_ProgramWord
                0x0000000000000000       0x40 build/stm32f4xx_flash.o
 .text.FLASH_ProgramHalfWord
                0x0000000000000000       0x40 build/stm32f4xx_flash.o
 .text.FLASH_ProgramByte
                0x0000000000000000       0x3c build/stm32f4xx_flash.o
 .text.FLASH_OB_WRPConfig
                0x0000000000000000       0x34 build/stm32f4xx_flash.o
 .text.FLASH_OB_WRP1Config
                0x0000000000000000       0x34 build/stm32f4xx_flash.o
 .text.FLASH_OB_PCROPConfig
                0x0000000000000000       0x34 build/stm32f4xx_flash.o
 .text.FLASH_OB_PCROP1Config
                0x0000000000000000       0x34 build/stm32f4xx_flash.o
 .text.FLASH_OB_RDPConfig
                0x0000000000000000       0x18 build/stm32f4xx_flash.o
 .text.FLASH_OB_UserConfig
                0x0000000000000000       0x30 build/stm32f4xx_flash.o
 .text.FLASH_OB_Launch
                0x0000000000000000       0x18 build/stm32f4xx_flash.o
 .debug_info    0x0000000000000000      0xb6a build/stm32f4xx_flash.o
 .debug_abbrev  0x0000000000000000      0x197 build/stm32f4xx_flash.o
 .debug_loc     0x0000000000000000      0x923 build/stm32f4xx_flash.o
 .debug_aranges
                0x0000000000000000      0x158 build/stm32f4xx_flash.o
 .debug_ranges  0x0000000000000000      0x148 build/stm32f4xx_flash.o
 .debug_line    0x0000000000000000      0xb05 build/stm32f4xx_flash.o
 .debug_str     0x0000000000000000      0x6d8 build/stm32f4xx_flash.o
 .comment       0x0000000000000000       0x4a build/stm32f4xx_flash.o
 .debug_frame   0x0000000000000000      0x344 build/stm32f4xx_flash.o
 .ARM.attributes
                0x0000000000000000       0x34 build/stm32f4xx_flash.o
 .text          0x0000000000000000        0x0 build/stm32f4xx_flash_ramfunc.o
 .data          0x0000000000000000        0x0 build/stm32f4xx_flash_ramfunc.o
 .bss           0x0000000000000000        0x0 build/stm32f4xx_flash_ramfunc.o
 .RamFunc       0x0000000000000000       0x40 build/stm32f4xx_flash_ramfunc.o
 .debug_info    0x0000000000000000      0x12b build/stm32f4xx_flash_ramfunc.o
 .debug_abbrev  0x0000000000000000       0xd2 build/stm32f4xx_flash_ramfunc.o
 .debug_aranges
                0x0000000000000000       0x28 build/stm32f4xx_flash_ramfunc.o
 .debug_ranges  0x0000000000000000       0x18 build/stm32f4xx_flash_ramfunc.o
 .debug_line    0x0000000000000000      0x184 build/stm32f4xx_flash_ramfunc.o
 .debug_str     0x0000000000000000      0x22c build/stm32f4xx_flash_ramfunc.o
 .comment       0x0000000000000000       0x4a build/stm32f4xx_flash_ramfunc.o
 .debug_frame   0x0000000000000000       0x30 build/stm32f4xx_flash_ramfunc.o
 .ARM.attributes
                0x0000000000000000       0x34 build/stm32f4xx_flash_ramfunc.o
 .text          0x0000000000000000        0x0 build/stm32f4xx_fmpi2c.o
 .data          0x0000000000000000        0x0 build/stm32f4xx_fmpi2c.o
 .bss           0x0000000000000000        0x0 build/stm32f4xx_fmpi2c.o
 .debug_info    0x0000000000000000       0x64 build/stm32f4xx_fmpi2c.o
 .debug_abbrev  0x0000000000000000       0x26 build/stm32f4xx_fmpi2c.o
 .debug_aranges
                0x0000000000000000       0x18 build/stm32f4xx_fmpi2c.o
 .debug_line    0x0000000000000000       0x1d build/stm32f4xx_fmpi2c.o
 .debug_str     0x0000000000000000      0x1ad build/stm32f4xx_fmpi2c.o
 .comment       0x0000000000000000       0x4a build/stm32f4xx_fmpi2c.o
 .ARM.attributes
                0x0000000000000000       0x34 build/stm32f4xx_fmpi2c.o
 .text          0x0000000000000000        0x0 build/stm32f4xx_fsmc.o
 .data          0x0000000000000000        0x0 build/stm32f4xx_fsmc.o
 .bss           0x0000000000000000        0x0 build/stm32f4xx_fsmc.o
 .text.FSMC_NORSRAMDeInit
                0x0000000000000000       0x36 build/stm32f4xx_fsmc.o
 .text.FSMC_NORSRAMInit
                0x0000000000000000       0xec build/stm32f4xx_fsmc.o
 .text.FSMC_NORSRAMStructInit
                0x0000000000000000       0x34 build/stm32f4xx_fsmc.o
 .text.FSMC_NORSRAMCmd
                0x0000000000000000       0x2c build/stm32f4xx_fsmc.o
 .text.FSMC_NANDDeInit
                0x0000000000000000       0x38 build/stm32f4xx_fsmc.o
 .text.FSMC_NANDInit
                0x0000000000000000       0xb8 build/stm32f4xx_fsmc.o
 .text.FSMC_NANDStructInit
                0x0000000000000000       0x36 build/stm32f4xx_fsmc.o
 .text.FSMC_NANDCmd
                0x0000000000000000       0x50 build/stm32f4xx_fsmc.o
 .text.FSMC_NANDECCCmd
                0x0000000000000000       0x50 build/stm32f4xx_fsmc.o
 .text.FSMC_GetECC
                0x0000000000000000       0x16 build/stm32f4xx_fsmc.o
 .text.FSMC_PCCARDDeInit
                0x0000000000000000       0x22 build/stm32f4xx_fsmc.o
 .text.FSMC_PCCARDInit
                0x0000000000000000       0x8a build/stm32f4xx_fsmc.o
 .text.FSMC_PCCARDStructInit
                0x0000000000000000       0x3c build/stm32f4xx_fsmc.o
 .text.FSMC_PCCARDCmd
                0x0000000000000000       0x2c build/stm32f4xx_fsmc.o
 .text.FSMC_ITConfig
                0x0000000000000000       0x74 build/stm32f4xx_fsmc.o
 .text.FSMC_GetFlagStatus
                0x0000000000000000       0x30 build/stm32f4xx_fsmc.o
 .text.FSMC_ClearFlag
                0x0000000000000000       0x3c build/stm32f4xx_fsmc.o
 .text.FSMC_GetITStatus
                0x0000000000000000       0x3a build/stm32f4xx_fsmc.o
 .text.FSMC_ClearITPendingBit
                0x0000000000000000       0x3c build/stm32f4xx_fsmc.o
 .rodata.FSMC_DefaultTimingStruct
                0x0000000000000000       0x1c build/stm32f4xx_fsmc.o
 .debug_info    0x0000000000000000      0xa76 build/stm32f4xx_fsmc.o
 .debug_abbrev  0x0000000000000000      0x1e5 build/stm32f4xx_fsmc.o
 .debug_loc     0x0000000000000000      0x958 build/stm32f4xx_fsmc.o
 .debug_aranges
                0x0000000000000000       0xb0 build/stm32f4xx_fsmc.o
 .debug_ranges  0x0000000000000000       0xa0 build/stm32f4xx_fsmc.o
 .debug_line    0x0000000000000000      0xa49 build/stm32f4xx_fsmc.o
 .debug_str     0x0000000000000000      0x813 build/stm32f4xx_fsmc.o
 .comment       0x0000000000000000       0x4a build/stm32f4xx_fsmc.o
 .debug_frame   0x0000000000000000      0x16c build/stm32f4xx_fsmc.o
 .ARM.attributes
                0x0000000000000000       0x34 build/stm32f4xx_fsmc.o
 .text          0x0000000000000000        0x0 build/stm32f4xx_gpio.o
 .data          0x0000000000000000        0x0 build/stm32f4xx_gpio.o
 .bss           0x0000000000000000        0x0 build/stm32f4xx_gpio.o
 .text.GPIO_DeInit
                0x0000000000000000      0x144 build/stm32f4xx_gpio.o
 .text.GPIO_StructInit
                0x0000000000000000       0x12 build/stm32f4xx_gpio.o
 .text.GPIO_PinLockConfig
                0x0000000000000000       0x24 build/stm32f4xx_gpio.o
 .text.GPIO_ReadInputDataBit
                0x0000000000000000        0xe build/stm32f4xx_gpio.o
 .text.GPIO_ReadInputData
                0x0000000000000000        0x6 build/stm32f4xx_gpio.o
 .text.GPIO_ReadOutputDataBit
                0x0000000000000000        0xe build/stm32f4xx_gpio.o
 .text.GPIO_ReadOutputData
                0x0000000000000000        0x6 build/stm32f4xx_gpio.o
 .text.GPIO_WriteBit
                0x0000000000000000        0xa build/stm32f4xx_gpio.o
 .text.GPIO_Write
                0x0000000000000000        0x4 build/stm32f4xx_gpio.o
 .text          0x0000000000000000        0x0 build/stm32f4xx_hash.o
 .data          0x0000000000000000        0x0 build/stm32f4xx_hash.o
 .bss           0x0000000000000000        0x0 build/stm32f4xx_hash.o
 .text.HASH_DeInit
                0x0000000000000000       0x14 build/stm32f4xx_hash.o
 .text.HASH_Init
                0x0000000000000000       0x50 build/stm32f4xx_hash.o
 .text.HASH_StructInit
                0x0000000000000000        0xc build/stm32f4xx_hash.o
 .text.HASH_Reset
                0x0000000000000000       0x10 build/stm32f4xx_hash.o
 .text.HASH_SetLastWordValidBitsNbr
                0x0000000000000000       0x18 build/stm32f4xx_hash.o
 .text.HASH_DataIn
                0x0000000000000000        0xc build/stm32f4xx_hash.o
 .text.HASH_GetInFIFOWordsNbr
                0x0000000000000000       0x10 build/stm32f4xx_hash.o
 .text.HASH_GetDigest
                0x0000000000000000       0x30 build/stm32f4xx_hash.o
 .text.HASH_StartDigest
                0x0000000000000000       0x10 build/stm32f4xx_hash.o
 .text.HASH_SaveContext
                0x0000000000000000       0x34 build/stm32f4xx_hash.o
 .text.HASH_RestoreContext
                0x0000000000000000       0x3c build/stm32f4xx_hash.o
 .text.HASH_AutoStartDigest
                0x0000000000000000       0x20 build/stm32f4xx_hash.o
 .text.HASH_DMACmd
                0x0000000000000000       0x20 build/stm32f4xx_hash.o
 .text.HASH_ITConfig
                0x0000000000000000       0x1c build/stm32f4xx_hash.o
 .text.HASH_GetFlagStatus
                0x0000000000000000       0x20 build/stm32f4xx_hash.o
 .text.HASH_ClearFlag
                0x0000000000000000        0xc build/stm32f4xx_hash.o
 .text.HASH_GetITStatus
                0x0000000000000000       0x18 build/stm32f4xx_hash.o
 .text.HASH_ClearITPendingBit
                0x0000000000000000        0xc build/stm32f4xx_hash.o
 .debug_info    0x0000000000000000      0x662 build/stm32f4xx_hash.o
 .debug_abbrev  0x0000000000000000      0x22a build/stm32f4xx_hash.o
 .debug_loc     0x0000000000000000      0x25e build/stm32f4xx_hash.o
 .debug_aranges
                0x0000000000000000       0xa8 build/stm32f4xx_hash.o
 .debug_ranges  0x0000000000000000       0x98 build/stm32f4xx_hash.o
 .debug_line    0x0000000000000000      0x58e build/stm32f4xx_hash.o
 .debug_str     0x0000000000000000      0x4ab build/stm32f4xx_hash.o
 .comment       0x0000000000000000       0x4a build/stm32f4xx_hash.o
 .debug_frame   0x0000000000000000      0x144 build/stm32f4xx_hash.o
 .ARM.attributes
                0x0000000000000000       0x34 build/stm32f4xx_hash.o
 .text          0x0000000000000000        0x0 build/stm32f4xx_hash_md5.o
 .data          0x0000000000000000        0x0 build/stm32f4xx_hash_md5.o
 .bss           0x0000000000000000        0x0 build/stm32f4xx_hash_md5.o
 .text.HASH_MD5
                0x0000000000000000       0x90 build/stm32f4xx_hash_md5.o
 .text.HMAC_MD5
                0x0000000000000000      0x146 build/stm32f4xx_hash_md5.o
 .debug_info    0x0000000000000000      0x686 build/stm32f4xx_hash_md5.o
 .debug_abbrev  0x0000000000000000      0x1d0 build/stm32f4xx_hash_md5.o
 .debug_loc     0x0000000000000000      0x567 build/stm32f4xx_hash_md5.o
 .debug_aranges
                0x0000000000000000       0x28 build/stm32f4xx_hash_md5.o
 .debug_ranges  0x0000000000000000       0x18 build/stm32f4xx_hash_md5.o
 .debug_line    0x0000000000000000      0x60d build/stm32f4xx_hash_md5.o
 .debug_str     0x0000000000000000      0x396 build/stm32f4xx_hash_md5.o
 .comment       0x0000000000000000       0x4a build/stm32f4xx_hash_md5.o
 .debug_frame   0x0000000000000000       0x64 build/stm32f4xx_hash_md5.o
 .ARM.attributes
                0x0000000000000000       0x34 build/stm32f4xx_hash_md5.o
 .text          0x0000000000000000        0x0 build/stm32f4xx_hash_sha1.o
 .data          0x0000000000000000        0x0 build/stm32f4xx_hash_sha1.o
 .bss           0x0000000000000000        0x0 build/stm32f4xx_hash_sha1.o
 .text.HASH_SHA1
                0x0000000000000000       0x94 build/stm32f4xx_hash_sha1.o
 .text.HMAC_SHA1
                0x0000000000000000      0x14a build/stm32f4xx_hash_sha1.o
 .debug_info    0x0000000000000000      0x6d5 build/stm32f4xx_hash_sha1.o
 .debug_abbrev  0x0000000000000000      0x1d0 build/stm32f4xx_hash_sha1.o
 .debug_loc     0x0000000000000000      0x5af build/stm32f4xx_hash_sha1.o
 .debug_aranges
                0x0000000000000000       0x28 build/stm32f4xx_hash_sha1.o
 .debug_ranges  0x0000000000000000       0x18 build/stm32f4xx_hash_sha1.o
 .debug_line    0x0000000000000000      0x650 build/stm32f4xx_hash_sha1.o
 .debug_str     0x0000000000000000      0x39b build/stm32f4xx_hash_sha1.o
 .comment       0x0000000000000000       0x4a build/stm32f4xx_hash_sha1.o
 .debug_frame   0x0000000000000000       0x64 build/stm32f4xx_hash_sha1.o
 .ARM.attributes
                0x0000000000000000       0x34 build/stm32f4xx_hash_sha1.o
 .text          0x0000000000000000        0x0 build/stm32f4xx_i2c.o
 .data          0x0000000000000000        0x0 build/stm32f4xx_i2c.o
 .bss           0x0000000000000000        0x0 build/stm32f4xx_i2c.o
 .text.I2C_DeInit
                0x0000000000000000       0x64 build/stm32f4xx_i2c.o
 .text.I2C_Init
                0x0000000000000000       0xdc build/stm32f4xx_i2c.o
 .text.I2C_StructInit
                0x0000000000000000       0x1c build/stm32f4xx_i2c.o
 .text.I2C_Cmd  0x0000000000000000       0x1c build/stm32f4xx_i2c.o
 .text.I2C_AnalogFilterCmd
                0x0000000000000000       0x1c build/stm32f4xx_i2c.o
 .text.I2C_DigitalFilterConfig
                0x0000000000000000       0x12 build/stm32f4xx_i2c.o
 .text.I2C_GenerateSTART
                0x0000000000000000       0x1c build/stm32f4xx_i2c.o
 .text.I2C_GenerateSTOP
                0x0000000000000000       0x1c build/stm32f4xx_i2c.o
 .text.I2C_Send7bitAddress
                0x0000000000000000       0x12 build/stm32f4xx_i2c.o
 .text.I2C_AcknowledgeConfig
                0x0000000000000000       0x1c build/stm32f4xx_i2c.o
 .text.I2C_OwnAddress2Config
                0x0000000000000000       0x12 build/stm32f4xx_i2c.o
 .text.I2C_DualAddressCmd
                0x0000000000000000       0x1c build/stm32f4xx_i2c.o
 .text.I2C_GeneralCallCmd
                0x0000000000000000       0x1c build/stm32f4xx_i2c.o
 .text.I2C_SoftwareResetCmd
                0x0000000000000000       0x1c build/stm32f4xx_i2c.o
 .text.I2C_StretchClockCmd
                0x0000000000000000       0x1c build/stm32f4xx_i2c.o
 .text.I2C_FastModeDutyCycleConfig
                0x0000000000000000       0x20 build/stm32f4xx_i2c.o
 .text.I2C_NACKPositionConfig
                0x0000000000000000       0x20 build/stm32f4xx_i2c.o
 .text.I2C_SMBusAlertConfig
                0x0000000000000000       0x20 build/stm32f4xx_i2c.o
 .text.I2C_ARPCmd
                0x0000000000000000       0x1c build/stm32f4xx_i2c.o
 .text.I2C_SendData
                0x0000000000000000        0x4 build/stm32f4xx_i2c.o
 .text.I2C_ReceiveData
                0x0000000000000000        0x6 build/stm32f4xx_i2c.o
 .text.I2C_TransmitPEC
                0x0000000000000000       0x1c build/stm32f4xx_i2c.o
 .text.I2C_PECPositionConfig
                0x0000000000000000       0x20 build/stm32f4xx_i2c.o
 .text.I2C_CalculatePEC
                0x0000000000000000       0x1c build/stm32f4xx_i2c.o
 .text.I2C_GetPEC
                0x0000000000000000        0x8 build/stm32f4xx_i2c.o
 .text.I2C_DMACmd
                0x0000000000000000       0x1c build/stm32f4xx_i2c.o
 .text.I2C_DMALastTransferCmd
                0x0000000000000000       0x1c build/stm32f4xx_i2c.o
 .text.I2C_ReadRegister
                0x0000000000000000       0x18 build/stm32f4xx_i2c.o
 .text.I2C_ITConfig
                0x0000000000000000       0x18 build/stm32f4xx_i2c.o
 .text.I2C_CheckEvent
                0x0000000000000000       0x1c build/stm32f4xx_i2c.o
 .text.I2C_GetLastEvent
                0x0000000000000000       0x10 build/stm32f4xx_i2c.o
 .text.I2C_GetFlagStatus
                0x0000000000000000       0x38 build/stm32f4xx_i2c.o
 .text.I2C_ClearFlag
                0x0000000000000000        0xc build/stm32f4xx_i2c.o
 .text.I2C_GetITStatus
                0x0000000000000000       0x20 build/stm32f4xx_i2c.o
 .text.I2C_ClearITPendingBit
                0x0000000000000000        0xc build/stm32f4xx_i2c.o
 .debug_info    0x0000000000000000      0xd64 build/stm32f4xx_i2c.o
 .debug_abbrev  0x0000000000000000      0x1ef build/stm32f4xx_i2c.o
 .debug_loc     0x0000000000000000      0x7f5 build/stm32f4xx_i2c.o
 .debug_aranges
                0x0000000000000000      0x130 build/stm32f4xx_i2c.o
 .debug_ranges  0x0000000000000000      0x120 build/stm32f4xx_i2c.o
 .debug_line    0x0000000000000000      0x9ab build/stm32f4xx_i2c.o
 .debug_str     0x0000000000000000      0x714 build/stm32f4xx_i2c.o
 .comment       0x0000000000000000       0x4a build/stm32f4xx_i2c.o
 .debug_frame   0x0000000000000000      0x270 build/stm32f4xx_i2c.o
 .ARM.attributes
                0x0000000000000000       0x34 build/stm32f4xx_i2c.o
 .text          0x0000000000000000        0x0 build/stm32f4xx_iwdg.o
 .data          0x0000000000000000        0x0 build/stm32f4xx_iwdg.o
 .bss           0x0000000000000000        0x0 build/stm32f4xx_iwdg.o
 .text.IWDG_WriteAccessCmd
                0x0000000000000000        0xc build/stm32f4xx_iwdg.o
 .text.IWDG_SetPrescaler
                0x0000000000000000        0xc build/stm32f4xx_iwdg.o
 .text.IWDG_SetReload
                0x0000000000000000        0xc build/stm32f4xx_iwdg.o
 .text.IWDG_ReloadCounter
                0x0000000000000000       0x10 build/stm32f4xx_iwdg.o
 .text.IWDG_Enable
                0x0000000000000000       0x10 build/stm32f4xx_iwdg.o
 .text.IWDG_GetFlagStatus
                0x0000000000000000       0x14 build/stm32f4xx_iwdg.o
 .debug_info    0x0000000000000000      0x201 build/stm32f4xx_iwdg.o
 .debug_abbrev  0x0000000000000000      0x13b build/stm32f4xx_iwdg.o
 .debug_loc     0x0000000000000000       0x65 build/stm32f4xx_iwdg.o
 .debug_aranges
                0x0000000000000000       0x48 build/stm32f4xx_iwdg.o
 .debug_ranges  0x0000000000000000       0x38 build/stm32f4xx_iwdg.o
 .debug_line    0x0000000000000000      0x1f8 build/stm32f4xx_iwdg.o
 .debug_str     0x0000000000000000      0x2a5 build/stm32f4xx_iwdg.o
 .comment       0x0000000000000000       0x4a build/stm32f4xx_iwdg.o
 .debug_frame   0x0000000000000000       0x70 build/stm32f4xx_iwdg.o
 .ARM.attributes
                0x0000000000000000       0x34 build/stm32f4xx_iwdg.o
 .text          0x0000000000000000        0x0 build/stm32f4xx_lptim.o
 .data          0x0000000000000000        0x0 build/stm32f4xx_lptim.o
 .bss           0x0000000000000000        0x0 build/stm32f4xx_lptim.o
 .debug_info    0x0000000000000000       0x64 build/stm32f4xx_lptim.o
 .debug_abbrev  0x0000000000000000       0x26 build/stm32f4xx_lptim.o
 .debug_aranges
                0x0000000000000000       0x18 build/stm32f4xx_lptim.o
 .debug_line    0x0000000000000000       0x1d build/stm32f4xx_lptim.o
 .debug_str     0x0000000000000000      0x1ac build/stm32f4xx_lptim.o
 .comment       0x0000000000000000       0x4a build/stm32f4xx_lptim.o
 .ARM.attributes
                0x0000000000000000       0x34 build/stm32f4xx_lptim.o
 .text          0x0000000000000000        0x0 build/stm32f4xx_ltdc.o
 .data          0x0000000000000000        0x0 build/stm32f4xx_ltdc.o
 .bss           0x0000000000000000        0x0 build/stm32f4xx_ltdc.o
 .text.LTDC_DeInit
                0x0000000000000000       0x18 build/stm32f4xx_ltdc.o
 .text.LTDC_Init
                0x0000000000000000       0xa4 build/stm32f4xx_ltdc.o
 .text.LTDC_StructInit
                0x0000000000000000       0x22 build/stm32f4xx_ltdc.o
 .text.LTDC_Cmd
                0x0000000000000000       0x20 build/stm32f4xx_ltdc.o
 .text.LTDC_DitherCmd
                0x0000000000000000       0x20 build/stm32f4xx_ltdc.o
 .text.LTDC_GetRGBWidth
                0x0000000000000000       0x34 build/stm32f4xx_ltdc.o
 .text.LTDC_RGBStructInit
                0x0000000000000000        0xa build/stm32f4xx_ltdc.o
 .text.LTDC_LIPConfig
                0x0000000000000000        0xc build/stm32f4xx_ltdc.o
 .text.LTDC_ReloadConfig
                0x0000000000000000        0xc build/stm32f4xx_ltdc.o
 .text.LTDC_LayerInit
                0x0000000000000000       0x9c build/stm32f4xx_ltdc.o
 .text.LTDC_LayerStructInit
                0x0000000000000000       0x2c build/stm32f4xx_ltdc.o
 .text.LTDC_LayerCmd
                0x0000000000000000       0x16 build/stm32f4xx_ltdc.o
 .text.LTDC_GetPosStatus
                0x0000000000000000       0x1c build/stm32f4xx_ltdc.o
 .text.LTDC_PosStructInit
                0x0000000000000000        0x8 build/stm32f4xx_ltdc.o
 .text.LTDC_GetCDStatus
                0x0000000000000000       0x14 build/stm32f4xx_ltdc.o
 .text.LTDC_ColorKeyingConfig
                0x0000000000000000       0x48 build/stm32f4xx_ltdc.o
 .text.LTDC_ColorKeyingStructInit
                0x0000000000000000        0xa build/stm32f4xx_ltdc.o
 .text.LTDC_CLUTCmd
                0x0000000000000000       0x20 build/stm32f4xx_ltdc.o
 .text.LTDC_CLUTInit
                0x0000000000000000       0x1c build/stm32f4xx_ltdc.o
 .text.LTDC_CLUTStructInit
                0x0000000000000000        0xc build/stm32f4xx_ltdc.o
 .text.LTDC_LayerPosition
                0x0000000000000000       0x84 build/stm32f4xx_ltdc.o
 .text.LTDC_LayerAlpha
                0x0000000000000000        0x4 build/stm32f4xx_ltdc.o
 .text.LTDC_LayerAddress
                0x0000000000000000        0x4 build/stm32f4xx_ltdc.o
 .text.LTDC_LayerSize
                0x0000000000000000       0x74 build/stm32f4xx_ltdc.o
 .text.LTDC_LayerPixelFormat
                0x0000000000000000       0x7a build/stm32f4xx_ltdc.o
 .text.LTDC_ITConfig
                0x0000000000000000       0x1c build/stm32f4xx_ltdc.o
 .text.LTDC_GetFlagStatus
                0x0000000000000000       0x14 build/stm32f4xx_ltdc.o
 .text.LTDC_ClearFlag
                0x0000000000000000        0xc build/stm32f4xx_ltdc.o
 .text.LTDC_GetITStatus
                0x0000000000000000       0x20 build/stm32f4xx_ltdc.o
 .text.LTDC_ClearITPendingBit
                0x0000000000000000        0xc build/stm32f4xx_ltdc.o
 .debug_info    0x0000000000000000      0xea1 build/stm32f4xx_ltdc.o
 .debug_abbrev  0x0000000000000000      0x204 build/stm32f4xx_ltdc.o
 .debug_loc     0x0000000000000000      0x743 build/stm32f4xx_ltdc.o
 .debug_aranges
                0x0000000000000000      0x108 build/stm32f4xx_ltdc.o
 .debug_ranges  0x0000000000000000       0xf8 build/stm32f4xx_ltdc.o
 .debug_line    0x0000000000000000      0xb53 build/stm32f4xx_ltdc.o
 .debug_str     0x0000000000000000      0xa78 build/stm32f4xx_ltdc.o
 .comment       0x0000000000000000       0x4a build/stm32f4xx_ltdc.o
 .debug_frame   0x0000000000000000      0x254 build/stm32f4xx_ltdc.o
 .ARM.attributes
                0x0000000000000000       0x34 build/stm32f4xx_ltdc.o
 .text          0x0000000000000000        0x0 build/stm32f4xx_pwr.o
 .data          0x0000000000000000        0x0 build/stm32f4xx_pwr.o
 .bss           0x0000000000000000        0x0 build/stm32f4xx_pwr.o
 .text.PWR_DeInit
                0x0000000000000000       0x18 build/stm32f4xx_pwr.o
 .text.PWR_BackupAccessCmd
                0x0000000000000000        0xc build/stm32f4xx_pwr.o
 .text.PWR_PVDLevelConfig
                0x0000000000000000       0x14 build/stm32f4xx_pwr.o
 .text.PWR_PVDCmd
                0x0000000000000000        0xc build/stm32f4xx_pwr.o
 .text.PWR_WakeUpPinCmd
                0x0000000000000000        0xc build/stm32f4xx_pwr.o
 .text.PWR_BackupRegulatorCmd
                0x0000000000000000        0xc build/stm32f4xx_pwr.o
 .text.PWR_MainRegulatorModeConfig
                0x0000000000000000       0x14 build/stm32f4xx_pwr.o
 .text.PWR_OverDriveCmd
                0x0000000000000000        0xc build/stm32f4xx_pwr.o
 .text.PWR_OverDriveSWCmd
                0x0000000000000000        0xc build/stm32f4xx_pwr.o
 .text.PWR_UnderDriveCmd
                0x0000000000000000       0x20 build/stm32f4xx_pwr.o
 .text.PWR_FlashPowerDownCmd
                0x0000000000000000        0xc build/stm32f4xx_pwr.o
 .text.PWR_EnterSTOPMode
                0x0000000000000000       0x38 build/stm32f4xx_pwr.o
 .text.PWR_EnterUnderDriveSTOPMode
                0x0000000000000000       0x38 build/stm32f4xx_pwr.o
 .text.PWR_EnterSTANDBYMode
                0x0000000000000000       0x20 build/stm32f4xx_pwr.o
 .text.PWR_GetFlagStatus
                0x0000000000000000       0x14 build/stm32f4xx_pwr.o
 .text.PWR_ClearFlag
                0x0000000000000000       0x10 build/stm32f4xx_pwr.o
 .debug_info    0x0000000000000000      0x67d build/stm32f4xx_pwr.o
 .debug_abbrev  0x0000000000000000      0x1d0 build/stm32f4xx_pwr.o
 .debug_loc     0x0000000000000000      0x12d build/stm32f4xx_pwr.o
 .debug_aranges
                0x0000000000000000       0x98 build/stm32f4xx_pwr.o
 .debug_ranges  0x0000000000000000       0x88 build/stm32f4xx_pwr.o
 .debug_line    0x0000000000000000      0x498 build/stm32f4xx_pwr.o
 .debug_str     0x0000000000000000      0x41f build/stm32f4xx_pwr.o
 .comment       0x0000000000000000       0x4a build/stm32f4xx_pwr.o
 .debug_frame   0x0000000000000000      0x118 build/stm32f4xx_pwr.o
 .ARM.attributes
                0x0000000000000000       0x34 build/stm32f4xx_pwr.o
 .text          0x0000000000000000        0x0 build/stm32f4xx_qspi.o
 .data          0x0000000000000000        0x0 build/stm32f4xx_qspi.o
 .bss           0x0000000000000000        0x0 build/stm32f4xx_qspi.o
 .debug_info    0x0000000000000000       0x64 build/stm32f4xx_qspi.o
 .debug_abbrev  0x0000000000000000       0x26 build/stm32f4xx_qspi.o
 .debug_aranges
                0x0000000000000000       0x18 build/stm32f4xx_qspi.o
 .debug_line    0x0000000000000000       0x1d build/stm32f4xx_qspi.o
 .debug_str     0x0000000000000000      0x1ab build/stm32f4xx_qspi.o
 .comment       0x0000000000000000       0x4a build/stm32f4xx_qspi.o
 .ARM.attributes
                0x0000000000000000       0x34 build/stm32f4xx_qspi.o
 .text          0x0000000000000000        0x0 build/stm32f4xx_rcc.o
 .data          0x0000000000000000        0x0 build/stm32f4xx_rcc.o
 .bss           0x0000000000000000        0x0 build/stm32f4xx_rcc.o
 .text.RCC_DeInit
                0x0000000000000000       0x48 build/stm32f4xx_rcc.o
 .text.RCC_HSEConfig
                0x0000000000000000       0x10 build/stm32f4xx_rcc.o
 .text.RCC_AdjustHSICalibrationValue
                0x0000000000000000       0x14 build/stm32f4xx_rcc.o
 .text.RCC_HSICmd
                0x0000000000000000        0xc build/stm32f4xx_rcc.o
 .text.RCC_LSEConfig
                0x0000000000000000       0x30 build/stm32f4xx_rcc.o
 .text.RCC_LSICmd
                0x0000000000000000        0xc build/stm32f4xx_rcc.o
 .text.RCC_PLLConfig
                0x0000000000000000       0x20 build/stm32f4xx_rcc.o
 .text.RCC_PLLCmd
                0x0000000000000000        0xc build/stm32f4xx_rcc.o
 .text.RCC_PLLI2SConfig
                0x0000000000000000       0x14 build/stm32f4xx_rcc.o
 .text.RCC_PLLI2SCmd
                0x0000000000000000        0xc build/stm32f4xx_rcc.o
 .text.RCC_PLLSAIConfig
                0x0000000000000000       0x18 build/stm32f4xx_rcc.o
 .text.RCC_PLLSAICmd
                0x0000000000000000        0xc build/stm32f4xx_rcc.o
 .text.RCC_ClockSecuritySystemCmd
                0x0000000000000000        0xc build/stm32f4xx_rcc.o
 .text.RCC_MCO1Config
                0x0000000000000000       0x14 build/stm32f4xx_rcc.o
 .text.RCC_MCO2Config
                0x0000000000000000       0x14 build/stm32f4xx_rcc.o
 .text.RCC_SYSCLKConfig
                0x0000000000000000       0x14 build/stm32f4xx_rcc.o
 .text.RCC_GetSYSCLKSource
                0x0000000000000000       0x10 build/stm32f4xx_rcc.o
 .text.RCC_HCLKConfig
                0x0000000000000000       0x14 build/stm32f4xx_rcc.o
 .text.RCC_PCLK1Config
                0x0000000000000000       0x14 build/stm32f4xx_rcc.o
 .text.RCC_PCLK2Config
                0x0000000000000000       0x14 build/stm32f4xx_rcc.o
 .text.RCC_GetClocksFreq
                0x0000000000000000       0xb8 build/stm32f4xx_rcc.o
 .text.RCC_RTCCLKConfig
                0x0000000000000000       0x34 build/stm32f4xx_rcc.o
 .text.RCC_RTCCLKCmd
                0x0000000000000000        0xc build/stm32f4xx_rcc.o
 .text.RCC_BackupResetCmd
                0x0000000000000000        0xc build/stm32f4xx_rcc.o
 .text.RCC_I2SCLKConfig
                0x0000000000000000        0xc build/stm32f4xx_rcc.o
 .text.RCC_SAIBlockACLKConfig
                0x0000000000000000       0x18 build/stm32f4xx_rcc.o
 .text.RCC_SAIBlockBCLKConfig
                0x0000000000000000       0x18 build/stm32f4xx_rcc.o
 .text.RCC_SAIPLLI2SClkDivConfig
                0x0000000000000000       0x18 build/stm32f4xx_rcc.o
 .text.RCC_SAIPLLSAIClkDivConfig
                0x0000000000000000       0x1c build/stm32f4xx_rcc.o
 .text.RCC_LTDCCLKDivConfig
                0x0000000000000000       0x18 build/stm32f4xx_rcc.o
 .text.RCC_TIMCLKPresConfig
                0x0000000000000000        0xc build/stm32f4xx_rcc.o
 .text.RCC_AHB2PeriphClockCmd
                0x0000000000000000       0x1c build/stm32f4xx_rcc.o
 .text.RCC_AHB3PeriphClockCmd
                0x0000000000000000       0x1c build/stm32f4xx_rcc.o
 .text.RCC_AHB1PeriphResetCmd
                0x0000000000000000       0x1c build/stm32f4xx_rcc.o
 .text.RCC_AHB2PeriphResetCmd
                0x0000000000000000       0x1c build/stm32f4xx_rcc.o
 .text.RCC_AHB3PeriphResetCmd
                0x0000000000000000       0x1c build/stm32f4xx_rcc.o
 .text.RCC_AHB1PeriphClockLPModeCmd
                0x0000000000000000       0x1c build/stm32f4xx_rcc.o
 .text.RCC_AHB2PeriphClockLPModeCmd
                0x0000000000000000       0x1c build/stm32f4xx_rcc.o
 .text.RCC_AHB3PeriphClockLPModeCmd
                0x0000000000000000       0x1c build/stm32f4xx_rcc.o
 .text.RCC_APB1PeriphClockLPModeCmd
                0x0000000000000000       0x1c build/stm32f4xx_rcc.o
 .text.RCC_APB2PeriphClockLPModeCmd
                0x0000000000000000       0x1c build/stm32f4xx_rcc.o
 .text.RCC_LSEModeConfig
                0x0000000000000000       0x20 build/stm32f4xx_rcc.o
 .text.RCC_ITConfig
                0x0000000000000000       0x1c build/stm32f4xx_rcc.o
 .text.RCC_GetFlagStatus
                0x0000000000000000       0x34 build/stm32f4xx_rcc.o
 .text.RCC_WaitForHSEStartUp
                0x0000000000000000       0x30 build/stm32f4xx_rcc.o
 .text.RCC_ClearFlag
                0x0000000000000000       0x10 build/stm32f4xx_rcc.o
 .text.RCC_GetITStatus
                0x0000000000000000       0x14 build/stm32f4xx_rcc.o
 .text.RCC_ClearITPendingBit
                0x0000000000000000        0xc build/stm32f4xx_rcc.o
 .data.APBAHBPrescTable
                0x0000000000000000       0x10 build/stm32f4xx_rcc.o
 .text          0x0000000000000000        0x0 build/stm32f4xx_rng.o
 .data          0x0000000000000000        0x0 build/stm32f4xx_rng.o
 .bss           0x0000000000000000        0x0 build/stm32f4xx_rng.o
 .text.RNG_DeInit
                0x0000000000000000       0x14 build/stm32f4xx_rng.o
 .text.RNG_Cmd  0x0000000000000000       0x20 build/stm32f4xx_rng.o
 .text.RNG_GetRandomNumber
                0x0000000000000000        0xc build/stm32f4xx_rng.o
 .text.RNG_ITConfig
                0x0000000000000000       0x20 build/stm32f4xx_rng.o
 .text.RNG_GetFlagStatus
                0x0000000000000000       0x14 build/stm32f4xx_rng.o
 .text.RNG_ClearFlag
                0x0000000000000000       0x10 build/stm32f4xx_rng.o
 .text.RNG_GetITStatus
                0x0000000000000000       0x14 build/stm32f4xx_rng.o
 .text.RNG_ClearITPendingBit
                0x0000000000000000       0x10 build/stm32f4xx_rng.o
 .debug_info    0x0000000000000000      0x2d9 build/stm32f4xx_rng.o
 .debug_abbrev  0x0000000000000000      0x187 build/stm32f4xx_rng.o
 .debug_loc     0x0000000000000000      0x114 build/stm32f4xx_rng.o
 .debug_aranges
                0x0000000000000000       0x58 build/stm32f4xx_rng.o
 .debug_ranges  0x0000000000000000       0x48 build/stm32f4xx_rng.o
 .debug_line    0x0000000000000000      0x2a0 build/stm32f4xx_rng.o
 .debug_str     0x0000000000000000      0x2c9 build/stm32f4xx_rng.o
 .comment       0x0000000000000000       0x4a build/stm32f4xx_rng.o
 .debug_frame   0x0000000000000000       0x98 build/stm32f4xx_rng.o
 .ARM.attributes
                0x0000000000000000       0x34 build/stm32f4xx_rng.o
 .text          0x0000000000000000        0x0 build/stm32f4xx_rtc.o
 .data          0x0000000000000000        0x0 build/stm32f4xx_rtc.o
 .bss           0x0000000000000000        0x0 build/stm32f4xx_rtc.o
 .text.RTC_ByteToBcd2
                0x0000000000000000       0x18 build/stm32f4xx_rtc.o
 .text.RTC_Bcd2ToByte
                0x0000000000000000       0x12 build/stm32f4xx_rtc.o
 .text.RTC_StructInit
                0x0000000000000000        0xe build/stm32f4xx_rtc.o
 .text.RTC_WriteProtectionCmd
                0x0000000000000000       0x1c build/stm32f4xx_rtc.o
 .text.RTC_EnterInitMode
                0x0000000000000000       0x50 build/stm32f4xx_rtc.o
 .text.RTC_ExitInitMode
                0x0000000000000000       0x10 build/stm32f4xx_rtc.o
 .text.RTC_Init
                0x0000000000000000       0x48 build/stm32f4xx_rtc.o
 .text.RTC_WaitForSynchro
                0x0000000000000000       0x50 build/stm32f4xx_rtc.o
 .text.RTC_DeInit
                0x0000000000000000       0x98 build/stm32f4xx_rtc.o
 .text.RTC_RefClockCmd
                0x0000000000000000       0x40 build/stm32f4xx_rtc.o
 .text.RTC_BypassShadowCmd
                0x0000000000000000       0x30 build/stm32f4xx_rtc.o
 .text.RTC_SetTime
                0x0000000000000000       0xa4 build/stm32f4xx_rtc.o
 .text.RTC_TimeStructInit
                0x0000000000000000        0xc build/stm32f4xx_rtc.o
 .text.RTC_GetTime
                0x0000000000000000       0x44 build/stm32f4xx_rtc.o
 .text.RTC_GetSubSecond
                0x0000000000000000        0xc build/stm32f4xx_rtc.o
 .text.RTC_SetDate
                0x0000000000000000       0x94 build/stm32f4xx_rtc.o
 .text.RTC_DateStructInit
                0x0000000000000000        0xe build/stm32f4xx_rtc.o
 .text.RTC_GetDate
                0x0000000000000000       0x40 build/stm32f4xx_rtc.o
 .text.RTC_SetAlarm
                0x0000000000000000       0xa4 build/stm32f4xx_rtc.o
 .text.RTC_AlarmStructInit
                0x0000000000000000       0x14 build/stm32f4xx_rtc.o
 .text.RTC_GetAlarm
                0x0000000000000000       0x70 build/stm32f4xx_rtc.o
 .text.RTC_AlarmCmd
                0x0000000000000000       0x64 build/stm32f4xx_rtc.o
 .text.RTC_AlarmSubSecondConfig
                0x0000000000000000       0x2c build/stm32f4xx_rtc.o
 .text.RTC_GetAlarmSubSecond
                0x0000000000000000       0x20 build/stm32f4xx_rtc.o
 .text.RTC_WakeUpClockConfig
                0x0000000000000000       0x24 build/stm32f4xx_rtc.o
 .text.RTC_SetWakeUpCounter
                0x0000000000000000       0x18 build/stm32f4xx_rtc.o
 .text.RTC_GetWakeUpCounter
                0x0000000000000000        0xc build/stm32f4xx_rtc.o
 .text.RTC_WakeUpCmd
                0x0000000000000000       0x64 build/stm32f4xx_rtc.o
 .text.RTC_DayLightSavingConfig
                0x0000000000000000       0x2c build/stm32f4xx_rtc.o
 .text.RTC_GetStoreOperation
                0x0000000000000000       0x10 build/stm32f4xx_rtc.o
 .text.RTC_OutputConfig
                0x0000000000000000       0x2c build/stm32f4xx_rtc.o
 .text.RTC_CoarseCalibConfig
                0x0000000000000000       0x30 build/stm32f4xx_rtc.o
 .text.RTC_CoarseCalibCmd
                0x0000000000000000       0x40 build/stm32f4xx_rtc.o
 .text.RTC_CalibOutputCmd
                0x0000000000000000       0x30 build/stm32f4xx_rtc.o
 .text.RTC_CalibOutputConfig
                0x0000000000000000       0x24 build/stm32f4xx_rtc.o
 .text.RTC_SmoothCalibConfig
                0x0000000000000000       0x54 build/stm32f4xx_rtc.o
 .text.RTC_TimeStampCmd
                0x0000000000000000       0x30 build/stm32f4xx_rtc.o
 .text.RTC_GetTimeStamp
                0x0000000000000000       0x7c build/stm32f4xx_rtc.o
 .text.RTC_GetTimeStampSubSecond
                0x0000000000000000        0xc build/stm32f4xx_rtc.o
 .text.RTC_TamperTriggerConfig
                0x0000000000000000       0x20 build/stm32f4xx_rtc.o
 .text.RTC_TamperCmd
                0x0000000000000000       0x1c build/stm32f4xx_rtc.o
 .text.RTC_TamperFilterConfig
                0x0000000000000000       0x18 build/stm32f4xx_rtc.o
 .text.RTC_TamperSamplingFreqConfig
                0x0000000000000000       0x18 build/stm32f4xx_rtc.o
 .text.RTC_TamperPinsPrechargeDuration
                0x0000000000000000       0x18 build/stm32f4xx_rtc.o
 .text.RTC_TimeStampOnTamperDetectionCmd
                0x0000000000000000       0x20 build/stm32f4xx_rtc.o
 .text.RTC_TamperPullUpCmd
                0x0000000000000000       0x20 build/stm32f4xx_rtc.o
 .text.RTC_WriteBackupRegister
                0x0000000000000000       0x20 build/stm32f4xx_rtc.o
 .text.RTC_ReadBackupRegister
                0x0000000000000000       0x20 build/stm32f4xx_rtc.o
 .text.RTC_TamperPinSelection
                0x0000000000000000       0x18 build/stm32f4xx_rtc.o
 .text.RTC_TimeStampPinSelection
                0x0000000000000000       0x18 build/stm32f4xx_rtc.o
 .text.RTC_OutputTypeConfig
                0x0000000000000000       0x18 build/stm32f4xx_rtc.o
 .text.RTC_SynchroShiftConfig
                0x0000000000000000       0x60 build/stm32f4xx_rtc.o
 .text.RTC_ITConfig
                0x0000000000000000       0x48 build/stm32f4xx_rtc.o
 .text.RTC_GetFlagStatus
                0x0000000000000000       0x24 build/stm32f4xx_rtc.o
 .text.RTC_ClearFlag
                0x0000000000000000       0x1c build/stm32f4xx_rtc.o
 .text.RTC_GetITStatus
                0x0000000000000000       0x2c build/stm32f4xx_rtc.o
 .text.RTC_ClearITPendingBit
                0x0000000000000000       0x1c build/stm32f4xx_rtc.o
 .debug_info    0x0000000000000000     0x1514 build/stm32f4xx_rtc.o
 .debug_abbrev  0x0000000000000000      0x214 build/stm32f4xx_rtc.o
 .debug_loc     0x0000000000000000     0x123d build/stm32f4xx_rtc.o
 .debug_aranges
                0x0000000000000000      0x1e0 build/stm32f4xx_rtc.o
 .debug_ranges  0x0000000000000000      0x1d0 build/stm32f4xx_rtc.o
 .debug_line    0x0000000000000000     0x15c3 build/stm32f4xx_rtc.o
 .debug_str     0x0000000000000000      0xb81 build/stm32f4xx_rtc.o
 .comment       0x0000000000000000       0x4a build/stm32f4xx_rtc.o
 .debug_frame   0x0000000000000000      0x4a4 build/stm32f4xx_rtc.o
 .ARM.attributes
                0x0000000000000000       0x34 build/stm32f4xx_rtc.o
 .text          0x0000000000000000        0x0 build/stm32f4xx_sai.o
 .data          0x0000000000000000        0x0 build/stm32f4xx_sai.o
 .bss           0x0000000000000000        0x0 build/stm32f4xx_sai.o
 .text.SAI_DeInit
                0x0000000000000000       0x24 build/stm32f4xx_sai.o
 .text.SAI_Init
                0x0000000000000000       0x48 build/stm32f4xx_sai.o
 .text.SAI_FrameInit
                0x0000000000000000       0x30 build/stm32f4xx_sai.o
 .text.SAI_SlotInit
                0x0000000000000000       0x2c build/stm32f4xx_sai.o
 .text.SAI_StructInit
                0x0000000000000000       0x1a build/stm32f4xx_sai.o
 .text.SAI_FrameStructInit
                0x0000000000000000       0x12 build/stm32f4xx_sai.o
 .text.SAI_SlotStructInit
                0x0000000000000000        0xe build/stm32f4xx_sai.o
 .text.SAI_Cmd  0x0000000000000000       0x16 build/stm32f4xx_sai.o
 .text.SAI_MonoModeConfig
                0x0000000000000000       0x12 build/stm32f4xx_sai.o
 .text.SAI_TRIStateConfig
                0x0000000000000000       0x12 build/stm32f4xx_sai.o
 .text.SAI_CompandingModeConfig
                0x0000000000000000       0x10 build/stm32f4xx_sai.o
 .text.SAI_MuteModeCmd
                0x0000000000000000       0x16 build/stm32f4xx_sai.o
 .text.SAI_MuteValueConfig
                0x0000000000000000       0x10 build/stm32f4xx_sai.o
 .text.SAI_MuteFrameCounterConfig
                0x0000000000000000       0x12 build/stm32f4xx_sai.o
 .text.SAI_FlushFIFO
                0x0000000000000000        0xa build/stm32f4xx_sai.o
 .text.SAI_ReceiveData
                0x0000000000000000        0x4 build/stm32f4xx_sai.o
 .text.SAI_SendData
                0x0000000000000000        0x4 build/stm32f4xx_sai.o
 .text.SAI_DMACmd
                0x0000000000000000       0x16 build/stm32f4xx_sai.o
 .text.SAI_ITConfig
                0x0000000000000000       0x14 build/stm32f4xx_sai.o
 .text.SAI_GetFlagStatus
                0x0000000000000000        0xe build/stm32f4xx_sai.o
 .text.SAI_ClearFlag
                0x0000000000000000        0x8 build/stm32f4xx_sai.o
 .text.SAI_GetITStatus
                0x0000000000000000       0x18 build/stm32f4xx_sai.o
 .text.SAI_ClearITPendingBit
                0x0000000000000000        0x8 build/stm32f4xx_sai.o
 .text.SAI_GetCmdStatus
                0x0000000000000000       0x10 build/stm32f4xx_sai.o
 .text.SAI_GetFIFOStatus
                0x0000000000000000        0x8 build/stm32f4xx_sai.o
 .debug_info    0x0000000000000000      0x8f1 build/stm32f4xx_sai.o
 .debug_abbrev  0x0000000000000000      0x1cd build/stm32f4xx_sai.o
 .debug_loc     0x0000000000000000      0x38e build/stm32f4xx_sai.o
 .debug_aranges
                0x0000000000000000       0xe0 build/stm32f4xx_sai.o
 .debug_ranges  0x0000000000000000       0xd0 build/stm32f4xx_sai.o
 .debug_line    0x0000000000000000      0x680 build/stm32f4xx_sai.o
 .debug_str     0x0000000000000000      0x609 build/stm32f4xx_sai.o
 .comment       0x0000000000000000       0x4a build/stm32f4xx_sai.o
 .debug_frame   0x0000000000000000      0x1cc build/stm32f4xx_sai.o
 .ARM.attributes
                0x0000000000000000       0x34 build/stm32f4xx_sai.o
 .text          0x0000000000000000        0x0 build/stm32f4xx_sdio.o
 .data          0x0000000000000000        0x0 build/stm32f4xx_sdio.o
 .bss           0x0000000000000000        0x0 build/stm32f4xx_sdio.o
 .text.SDIO_DeInit
                0x0000000000000000       0x18 build/stm32f4xx_sdio.o
 .text.SDIO_Init
                0x0000000000000000       0x34 build/stm32f4xx_sdio.o
 .text.SDIO_StructInit
                0x0000000000000000       0x10 build/stm32f4xx_sdio.o
 .text.SDIO_ClockCmd
                0x0000000000000000        0xc build/stm32f4xx_sdio.o
 .text.SDIO_SetPowerState
                0x0000000000000000        0xc build/stm32f4xx_sdio.o
 .text.SDIO_GetPowerState
                0x0000000000000000       0x10 build/stm32f4xx_sdio.o
 .text.SDIO_SendCommand
                0x0000000000000000       0x30 build/stm32f4xx_sdio.o
 .text.SDIO_CmdStructInit
                0x0000000000000000        0xe build/stm32f4xx_sdio.o
 .text.SDIO_GetCommandResponse
                0x0000000000000000        0xc build/stm32f4xx_sdio.o
 .text.SDIO_GetResponse
                0x0000000000000000       0x18 build/stm32f4xx_sdio.o
 .text.SDIO_DataConfig
                0x0000000000000000       0x30 build/stm32f4xx_sdio.o
 .text.SDIO_DataStructInit
                0x0000000000000000       0x14 build/stm32f4xx_sdio.o
 .text.SDIO_GetDataCounter
                0x0000000000000000        0xc build/stm32f4xx_sdio.o
 .text.SDIO_ReadData
                0x0000000000000000        0xc build/stm32f4xx_sdio.o
 .text.SDIO_WriteData
                0x0000000000000000        0xc build/stm32f4xx_sdio.o
 .text.SDIO_GetFIFOCount
                0x0000000000000000        0xc build/stm32f4xx_sdio.o
 .text.SDIO_StartSDIOReadWait
                0x0000000000000000        0xc build/stm32f4xx_sdio.o
 .text.SDIO_StopSDIOReadWait
                0x0000000000000000        0xc build/stm32f4xx_sdio.o
 .text.SDIO_SetSDIOReadWaitMode
                0x0000000000000000        0xc build/stm32f4xx_sdio.o
 .text.SDIO_SetSDIOOperation
                0x0000000000000000        0xc build/stm32f4xx_sdio.o
 .text.SDIO_SendSDIOSuspendCmd
                0x0000000000000000        0xc build/stm32f4xx_sdio.o
 .text.SDIO_CommandCompletionCmd
                0x0000000000000000        0xc build/stm32f4xx_sdio.o
 .text.SDIO_CEATAITCmd
                0x0000000000000000       0x14 build/stm32f4xx_sdio.o
 .text.SDIO_SendCEATACmd
                0x0000000000000000        0xc build/stm32f4xx_sdio.o
 .text.SDIO_DMACmd
                0x0000000000000000        0xc build/stm32f4xx_sdio.o
 .text.SDIO_ITConfig
                0x0000000000000000       0x1c build/stm32f4xx_sdio.o
 .text.SDIO_GetFlagStatus
                0x0000000000000000       0x14 build/stm32f4xx_sdio.o
 .text.SDIO_ClearFlag
                0x0000000000000000        0xc build/stm32f4xx_sdio.o
 .text.SDIO_GetITStatus
                0x0000000000000000       0x14 build/stm32f4xx_sdio.o
 .text.SDIO_ClearITPendingBit
                0x0000000000000000        0xc build/stm32f4xx_sdio.o
 .debug_info    0x0000000000000000      0x8ba build/stm32f4xx_sdio.o
 .debug_abbrev  0x0000000000000000      0x1be build/stm32f4xx_sdio.o
 .debug_loc     0x0000000000000000      0x26f build/stm32f4xx_sdio.o
 .debug_aranges
                0x0000000000000000      0x108 build/stm32f4xx_sdio.o
 .debug_ranges  0x0000000000000000       0xf8 build/stm32f4xx_sdio.o
 .debug_line    0x0000000000000000      0x657 build/stm32f4xx_sdio.o
 .debug_str     0x0000000000000000      0x690 build/stm32f4xx_sdio.o
 .comment       0x0000000000000000       0x4a build/stm32f4xx_sdio.o
 .debug_frame   0x0000000000000000      0x224 build/stm32f4xx_sdio.o
 .ARM.attributes
                0x0000000000000000       0x34 build/stm32f4xx_sdio.o
 .text          0x0000000000000000        0x0 build/stm32f4xx_spdifrx.o
 .data          0x0000000000000000        0x0 build/stm32f4xx_spdifrx.o
 .bss           0x0000000000000000        0x0 build/stm32f4xx_spdifrx.o
 .debug_info    0x0000000000000000       0x64 build/stm32f4xx_spdifrx.o
 .debug_abbrev  0x0000000000000000       0x26 build/stm32f4xx_spdifrx.o
 .debug_aranges
                0x0000000000000000       0x18 build/stm32f4xx_spdifrx.o
 .debug_line    0x0000000000000000       0x1d build/stm32f4xx_spdifrx.o
 .debug_str     0x0000000000000000      0x1ae build/stm32f4xx_spdifrx.o
 .comment       0x0000000000000000       0x4a build/stm32f4xx_spdifrx.o
 .ARM.attributes
                0x0000000000000000       0x34 build/stm32f4xx_spdifrx.o
 .text          0x0000000000000000        0x0 build/stm32f4xx_spi.o
 .data          0x0000000000000000        0x0 build/stm32f4xx_spi.o
 .bss           0x0000000000000000        0x0 build/stm32f4xx_spi.o
 .text.I2S_Init
                0x0000000000000000      0x120 build/stm32f4xx_spi.o
 .text.SPI_StructInit
                0x0000000000000000       0x18 build/stm32f4xx_spi.o
 .text.I2S_StructInit
                0x0000000000000000       0x12 build/stm32f4xx_spi.o
 .text.I2S_Cmd  0x0000000000000000       0x1c build/stm32f4xx_spi.o
 .text.SPI_DataSizeConfig
                0x0000000000000000       0x16 build/stm32f4xx_spi.o
 .text.SPI_BiDirectionalLineConfig
                0x0000000000000000       0x20 build/stm32f4xx_spi.o
 .text.SPI_NSSInternalSoftwareConfig
                0x0000000000000000       0x22 build/stm32f4xx_spi.o
 .text.SPI_SSOutputCmd
                0x0000000000000000       0x1c build/stm32f4xx_spi.o
 .text.SPI_TIModeCmd
                0x0000000000000000       0x1c build/stm32f4xx_spi.o
 .text.I2S_FullDuplexConfig
                0x0000000000000000       0x52 build/stm32f4xx_spi.o
 .text.SPI_CalculateCRC
                0x0000000000000000       0x1c build/stm32f4xx_spi.o
 .text.SPI_TransmitCRC
                0x0000000000000000        0xc build/stm32f4xx_spi.o
 .text.SPI_GetCRC
                0x0000000000000000       0x10 build/stm32f4xx_spi.o
 .text.SPI_GetCRCPolynomial
                0x0000000000000000        0x6 build/stm32f4xx_spi.o
 .text.SPI_I2S_DMACmd
                0x0000000000000000       0x18 build/stm32f4xx_spi.o
 .text.SPI_I2S_ITConfig
                0x0000000000000000       0x20 build/stm32f4xx_spi.o
 .text.SPI_I2S_ClearFlag
                0x0000000000000000        0x8 build/stm32f4xx_spi.o
 .text.SPI_I2S_GetITStatus
                0x0000000000000000       0x2c build/stm32f4xx_spi.o
 .text.SPI_I2S_ClearITPendingBit
                0x0000000000000000       0x12 build/stm32f4xx_spi.o
 .text          0x0000000000000000        0x0 build/stm32f4xx_syscfg.o
 .data          0x0000000000000000        0x0 build/stm32f4xx_syscfg.o
 .bss           0x0000000000000000        0x0 build/stm32f4xx_syscfg.o
 .text.SYSCFG_DeInit
                0x0000000000000000       0x18 build/stm32f4xx_syscfg.o
 .text.SYSCFG_MemoryRemapConfig
                0x0000000000000000        0xc build/stm32f4xx_syscfg.o
 .text.SYSCFG_MemorySwappingBank
                0x0000000000000000        0xc build/stm32f4xx_syscfg.o
 .text.SYSCFG_ETH_MediaInterfaceConfig
                0x0000000000000000        0xc build/stm32f4xx_syscfg.o
 .text.SYSCFG_CompensationCellCmd
                0x0000000000000000        0xc build/stm32f4xx_syscfg.o
 .text.SYSCFG_GetCompensationCellStatus
                0x0000000000000000       0x18 build/stm32f4xx_syscfg.o
 .text          0x0000000000000000        0x0 build/stm32f4xx_tim.o
 .data          0x0000000000000000        0x0 build/stm32f4xx_tim.o
 .bss           0x0000000000000000        0x0 build/stm32f4xx_tim.o
 .text.TI1_Config
                0x0000000000000000       0x4c build/stm32f4xx_tim.o
 .text.TI2_Config
                0x0000000000000000       0x56 build/stm32f4xx_tim.o
 .text.TI3_Config
                0x0000000000000000       0x46 build/stm32f4xx_tim.o
 .text.TI4_Config
                0x0000000000000000       0x58 build/stm32f4xx_tim.o
 .text.TIM_TimeBaseStructInit
                0x0000000000000000       0x12 build/stm32f4xx_tim.o
 .text.TIM_PrescalerConfig
                0x0000000000000000        0x6 build/stm32f4xx_tim.o
 .text.TIM_CounterModeConfig
                0x0000000000000000        0xe build/stm32f4xx_tim.o
 .text.TIM_SetCounter
                0x0000000000000000        0x4 build/stm32f4xx_tim.o
 .text.TIM_SetAutoreload
                0x0000000000000000        0x4 build/stm32f4xx_tim.o
 .text.TIM_GetCounter
                0x0000000000000000        0x4 build/stm32f4xx_tim.o
 .text.TIM_GetPrescaler
                0x0000000000000000        0x6 build/stm32f4xx_tim.o
 .text.TIM_UpdateDisableConfig
                0x0000000000000000       0x1c build/stm32f4xx_tim.o
 .text.TIM_UpdateRequestConfig
                0x0000000000000000       0x1c build/stm32f4xx_tim.o
 .text.TIM_ARRPreloadConfig
                0x0000000000000000       0x1c build/stm32f4xx_tim.o
 .text.TIM_SelectOnePulseMode
                0x0000000000000000       0x16 build/stm32f4xx_tim.o
 .text.TIM_SetClockDivision
                0x0000000000000000       0x16 build/stm32f4xx_tim.o
 .text.TIM_OC1Init
                0x0000000000000000       0x78 build/stm32f4xx_tim.o
 .text.TIM_OC2Init
                0x0000000000000000       0x98 build/stm32f4xx_tim.o
 .text.TIM_OC3Init
                0x0000000000000000       0x94 build/stm32f4xx_tim.o
 .text.TIM_OC4Init
                0x0000000000000000       0x80 build/stm32f4xx_tim.o
 .text.TIM_OCStructInit
                0x0000000000000000       0x14 build/stm32f4xx_tim.o
 .text.TIM_SelectOCxM
                0x0000000000000000       0x66 build/stm32f4xx_tim.o
 .text.TIM_SetCompare1
                0x0000000000000000        0x4 build/stm32f4xx_tim.o
 .text.TIM_SetCompare2
                0x0000000000000000        0x4 build/stm32f4xx_tim.o
 .text.TIM_SetCompare3
                0x0000000000000000        0x4 build/stm32f4xx_tim.o
 .text.TIM_SetCompare4
                0x0000000000000000        0x4 build/stm32f4xx_tim.o
 .text.TIM_ForcedOC1Config
                0x0000000000000000        0xe build/stm32f4xx_tim.o
 .text.TIM_ForcedOC2Config
                0x0000000000000000       0x12 build/stm32f4xx_tim.o
 .text.TIM_ForcedOC3Config
                0x0000000000000000        0xe build/stm32f4xx_tim.o
 .text.TIM_ForcedOC4Config
                0x0000000000000000       0x12 build/stm32f4xx_tim.o
 .text.TIM_OC1PreloadConfig
                0x0000000000000000        0xe build/stm32f4xx_tim.o
 .text.TIM_OC2PreloadConfig
                0x0000000000000000       0x12 build/stm32f4xx_tim.o
 .text.TIM_OC3PreloadConfig
                0x0000000000000000        0xe build/stm32f4xx_tim.o
 .text.TIM_OC4PreloadConfig
                0x0000000000000000       0x12 build/stm32f4xx_tim.o
 .text.TIM_OC1FastConfig
                0x0000000000000000        0xe build/stm32f4xx_tim.o
 .text.TIM_OC2FastConfig
                0x0000000000000000       0x12 build/stm32f4xx_tim.o
 .text.TIM_OC3FastConfig
                0x0000000000000000        0xe build/stm32f4xx_tim.o
 .text.TIM_OC4FastConfig
                0x0000000000000000       0x12 build/stm32f4xx_tim.o
 .text.TIM_ClearOC1Ref
                0x0000000000000000        0xe build/stm32f4xx_tim.o
 .text.TIM_ClearOC2Ref
                0x0000000000000000       0x10 build/stm32f4xx_tim.o
 .text.TIM_ClearOC3Ref
                0x0000000000000000        0xe build/stm32f4xx_tim.o
 .text.TIM_ClearOC4Ref
                0x0000000000000000       0x10 build/stm32f4xx_tim.o
 .text.TIM_OC1PolarityConfig
                0x0000000000000000        0xe build/stm32f4xx_tim.o
 .text.TIM_OC1NPolarityConfig
                0x0000000000000000        0xe build/stm32f4xx_tim.o
 .text.TIM_OC2PolarityConfig
                0x0000000000000000       0x12 build/stm32f4xx_tim.o
 .text.TIM_OC2NPolarityConfig
                0x0000000000000000       0x12 build/stm32f4xx_tim.o
 .text.TIM_OC3PolarityConfig
                0x0000000000000000       0x12 build/stm32f4xx_tim.o
 .text.TIM_OC3NPolarityConfig
                0x0000000000000000       0x12 build/stm32f4xx_tim.o
 .text.TIM_OC4PolarityConfig
                0x0000000000000000       0x12 build/stm32f4xx_tim.o
 .text.TIM_CCxCmd
                0x0000000000000000       0x22 build/stm32f4xx_tim.o
 .text.TIM_CCxNCmd
                0x0000000000000000       0x22 build/stm32f4xx_tim.o
 .text.TIM_ICStructInit
                0x0000000000000000       0x10 build/stm32f4xx_tim.o
 .text.TIM_GetCapture1
                0x0000000000000000        0x4 build/stm32f4xx_tim.o
 .text.TIM_GetCapture2
                0x0000000000000000        0x4 build/stm32f4xx_tim.o
 .text.TIM_GetCapture3
                0x0000000000000000        0x4 build/stm32f4xx_tim.o
 .text.TIM_GetCapture4
                0x0000000000000000        0x4 build/stm32f4xx_tim.o
 .text.TIM_SetIC1Prescaler
                0x0000000000000000       0x16 build/stm32f4xx_tim.o
 .text.TIM_SetIC2Prescaler
                0x0000000000000000       0x1a build/stm32f4xx_tim.o
 .text.TIM_PWMIConfig
                0x0000000000000000       0x6c build/stm32f4xx_tim.o
 .text.TIM_SetIC3Prescaler
                0x0000000000000000       0x16 build/stm32f4xx_tim.o
 .text.TIM_SetIC4Prescaler
                0x0000000000000000       0x1a build/stm32f4xx_tim.o
 .text.TIM_ICInit
                0x0000000000000000       0x62 build/stm32f4xx_tim.o
 .text.TIM_BDTRConfig
                0x0000000000000000       0x2c build/stm32f4xx_tim.o
 .text.TIM_BDTRStructInit
                0x0000000000000000       0x12 build/stm32f4xx_tim.o
 .text.TIM_CtrlPWMOutputs
                0x0000000000000000       0x24 build/stm32f4xx_tim.o
 .text.TIM_SelectCOM
                0x0000000000000000       0x1c build/stm32f4xx_tim.o
 .text.TIM_CCPreloadControl
                0x0000000000000000       0x1c build/stm32f4xx_tim.o
 .text.TIM_GenerateEvent
                0x0000000000000000        0x4 build/stm32f4xx_tim.o
 .text.TIM_GetFlagStatus
                0x0000000000000000        0xe build/stm32f4xx_tim.o
 .text.TIM_GetITStatus
                0x0000000000000000       0x18 build/stm32f4xx_tim.o
 .text.TIM_DMAConfig
                0x0000000000000000        0x8 build/stm32f4xx_tim.o
 .text.TIM_DMACmd
                0x0000000000000000       0x18 build/stm32f4xx_tim.o
 .text.TIM_SelectCCDMA
                0x0000000000000000       0x1c build/stm32f4xx_tim.o
 .text.TIM_InternalClockConfig
                0x0000000000000000        0xe build/stm32f4xx_tim.o
 .text.TIM_SelectInputTrigger
                0x0000000000000000        0xe build/stm32f4xx_tim.o
 .text.TIM_ITRxExternalClockConfig
                0x0000000000000000       0x14 build/stm32f4xx_tim.o
 .text.TIM_TIxExternalClockConfig
                0x0000000000000000       0x2e build/stm32f4xx_tim.o
 .text.TIM_SelectOutputTrigger
                0x0000000000000000       0x16 build/stm32f4xx_tim.o
 .text.TIM_SelectSlaveMode
                0x0000000000000000       0x16 build/stm32f4xx_tim.o
 .text.TIM_SelectMasterSlaveMode
                0x0000000000000000       0x16 build/stm32f4xx_tim.o
 .text.TIM_ETRConfig
                0x0000000000000000       0x18 build/stm32f4xx_tim.o
 .text.TIM_ETRClockMode1Config
                0x0000000000000000       0x14 build/stm32f4xx_tim.o
 .text.TIM_ETRClockMode2Config
                0x0000000000000000       0x14 build/stm32f4xx_tim.o
 .text.TIM_EncoderInterfaceConfig
                0x0000000000000000       0x46 build/stm32f4xx_tim.o
 .text.TIM_SelectHallSensor
                0x0000000000000000       0x1c build/stm32f4xx_tim.o
 .text.TIM_RemapConfig
                0x0000000000000000        0x6 build/stm32f4xx_tim.o
 .text          0x0000000000000000        0x0 build/stm32f4xx_usart.o
 .data          0x0000000000000000        0x0 build/stm32f4xx_usart.o
 .bss           0x0000000000000000        0x0 build/stm32f4xx_usart.o
 .text.USART_DeInit
                0x0000000000000000       0xfc build/stm32f4xx_usart.o
 .text.USART_Init
                0x0000000000000000       0xcc build/stm32f4xx_usart.o
 .text.USART_StructInit
                0x0000000000000000       0x16 build/stm32f4xx_usart.o
 .text.USART_ClockInit
                0x0000000000000000       0x26 build/stm32f4xx_usart.o
 .text.USART_ClockStructInit
                0x0000000000000000        0xc build/stm32f4xx_usart.o
 .text.USART_Cmd
                0x0000000000000000       0x1c build/stm32f4xx_usart.o
 .text.USART_SetPrescaler
                0x0000000000000000       0x12 build/stm32f4xx_usart.o
 .text.USART_OverSampling8Cmd
                0x0000000000000000       0x1c build/stm32f4xx_usart.o
 .text.USART_OneBitMethodCmd
                0x0000000000000000       0x1c build/stm32f4xx_usart.o
 .text.USART_SendData
                0x0000000000000000        0x8 build/stm32f4xx_usart.o
 .text.USART_ReceiveData
                0x0000000000000000        0x8 build/stm32f4xx_usart.o
 .text.USART_SetAddress
                0x0000000000000000       0x16 build/stm32f4xx_usart.o
 .text.USART_ReceiverWakeUpCmd
                0x0000000000000000       0x1c build/stm32f4xx_usart.o
 .text.USART_WakeUpConfig
                0x0000000000000000       0x16 build/stm32f4xx_usart.o
 .text.USART_LINBreakDetectLengthConfig
                0x0000000000000000       0x16 build/stm32f4xx_usart.o
 .text.USART_LINCmd
                0x0000000000000000       0x1c build/stm32f4xx_usart.o
 .text.USART_SendBreak
                0x0000000000000000        0xc build/stm32f4xx_usart.o
 .text.USART_HalfDuplexCmd
                0x0000000000000000       0x1c build/stm32f4xx_usart.o
 .text.USART_SetGuardTime
                0x0000000000000000       0x12 build/stm32f4xx_usart.o
 .text.USART_SmartCardCmd
                0x0000000000000000       0x1c build/stm32f4xx_usart.o
 .text.USART_SmartCardNACKCmd
                0x0000000000000000       0x1c build/stm32f4xx_usart.o
 .text.USART_IrDAConfig
                0x0000000000000000       0x16 build/stm32f4xx_usart.o
 .text.USART_IrDACmd
                0x0000000000000000       0x1c build/stm32f4xx_usart.o
 .text.USART_DMACmd
                0x0000000000000000       0x18 build/stm32f4xx_usart.o
 .text.USART_ITConfig
                0x0000000000000000       0x36 build/stm32f4xx_usart.o
 .text.USART_GetFlagStatus
                0x0000000000000000        0xe build/stm32f4xx_usart.o
 .text.USART_ClearFlag
                0x0000000000000000        0x8 build/stm32f4xx_usart.o
 .text.USART_GetITStatus
                0x0000000000000000       0x4a build/stm32f4xx_usart.o
 .text.USART_ClearITPendingBit
                0x0000000000000000       0x10 build/stm32f4xx_usart.o
 .debug_info    0x0000000000000000      0xc72 build/stm32f4xx_usart.o
 .debug_abbrev  0x0000000000000000      0x1cd build/stm32f4xx_usart.o
 .debug_loc     0x0000000000000000      0x7ec build/stm32f4xx_usart.o
 .debug_aranges
                0x0000000000000000      0x100 build/stm32f4xx_usart.o
 .debug_ranges  0x0000000000000000       0xf0 build/stm32f4xx_usart.o
 .debug_line    0x0000000000000000      0x8f1 build/stm32f4xx_usart.o
 .debug_str     0x0000000000000000      0x708 build/stm32f4xx_usart.o
 .comment       0x0000000000000000       0x4a build/stm32f4xx_usart.o
 .debug_frame   0x0000000000000000      0x204 build/stm32f4xx_usart.o
 .ARM.attributes
                0x0000000000000000       0x34 build/stm32f4xx_usart.o
 .text          0x0000000000000000        0x0 build/stm32f4xx_wwdg.o
 .data          0x0000000000000000        0x0 build/stm32f4xx_wwdg.o
 .bss           0x0000000000000000        0x0 build/stm32f4xx_wwdg.o
 .text.WWDG_DeInit
                0x0000000000000000       0x18 build/stm32f4xx_wwdg.o
 .text.WWDG_SetPrescaler
                0x0000000000000000       0x14 build/stm32f4xx_wwdg.o
 .text.WWDG_SetWindowValue
                0x0000000000000000       0x28 build/stm32f4xx_wwdg.o
 .text.WWDG_EnableIT
                0x0000000000000000       0x10 build/stm32f4xx_wwdg.o
 .text.WWDG_SetCounter
                0x0000000000000000       0x10 build/stm32f4xx_wwdg.o
 .text.WWDG_Enable
                0x0000000000000000       0x10 build/stm32f4xx_wwdg.o
 .text.WWDG_GetFlagStatus
                0x0000000000000000       0x14 build/stm32f4xx_wwdg.o
 .text.WWDG_ClearFlag
                0x0000000000000000        0xc build/stm32f4xx_wwdg.o
 .debug_info    0x0000000000000000      0x299 build/stm32f4xx_wwdg.o
 .debug_abbrev  0x0000000000000000      0x197 build/stm32f4xx_wwdg.o
 .debug_loc     0x0000000000000000       0xb5 build/stm32f4xx_wwdg.o
 .debug_aranges
                0x0000000000000000       0x58 build/stm32f4xx_wwdg.o
 .debug_ranges  0x0000000000000000       0x48 build/stm32f4xx_wwdg.o
 .debug_line    0x0000000000000000      0x2a5 build/stm32f4xx_wwdg.o
 .debug_str     0x0000000000000000      0x2c7 build/stm32f4xx_wwdg.o
 .comment       0x0000000000000000       0x4a build/stm32f4xx_wwdg.o
 .debug_frame   0x0000000000000000       0xa0 build/stm32f4xx_wwdg.o
 .ARM.attributes
                0x0000000000000000       0x34 build/stm32f4xx_wwdg.o
 .text          0x0000000000000000        0x0 build/EXIT.o
 .data          0x0000000000000000        0x0 build/EXIT.o
 .bss           0x0000000000000000        0x0 build/EXIT.o
 .text          0x0000000000000000        0x0 build/RST.o
 .data          0x0000000000000000        0x0 build/RST.o
 .bss           0x0000000000000000        0x0 build/RST.o
 .text.rst_low  0x0000000000000000       0x10 build/RST.o
 .text          0x0000000000000000        0x0 build/SPI1.o
 .data          0x0000000000000000        0x0 build/SPI1.o
 .bss           0x0000000000000000        0x0 build/SPI1.o
 .text          0x0000000000000000        0x0 build/Timer.o
 .data          0x0000000000000000        0x0 build/Timer.o
 .bss           0x0000000000000000        0x0 build/Timer.o
 .text          0x0000000000000000        0x0 build/bsp_can.o
 .data          0x0000000000000000        0x0 build/bsp_can.o
 .bss           0x0000000000000000        0x0 build/bsp_can.o
 .bss.can1_rx_flag
                0x0000000000000000        0x1 build/bsp_can.o
 .bss.flag      0x0000000000000000        0x4 build/bsp_can.o
 .text          0x0000000000000000        0x0 build/bsp_led.o
 .data          0x0000000000000000        0x0 build/bsp_led.o
 .bss           0x0000000000000000        0x0 build/bsp_led.o
 .text          0x0000000000000000        0x0 build/bsp_spi2.o
 .data          0x0000000000000000        0x0 build/bsp_spi2.o
 .bss           0x0000000000000000        0x0 build/bsp_spi2.o
 .text.SPI2_GPIO_Init
                0x0000000000000000       0x98 build/bsp_spi2.o
 .text.SPI2_Init
                0x0000000000000000       0x64 build/bsp_spi2.o
 .text.spi2_w_cmd
                0x0000000000000000       0x20 build/bsp_spi2.o
 .text.spi2_r_cmd
                0x0000000000000000       0x1c build/bsp_spi2.o
 .text.spi2_wr_cmd
                0x0000000000000000        0xc build/bsp_spi2.o
 .bss.rxBuffer  0x0000000000000000        0xa build/bsp_spi2.o
 .bss.txBuffer  0x0000000000000000        0xa build/bsp_spi2.o
 .debug_info    0x0000000000000000      0x8c2 build/bsp_spi2.o
 .debug_abbrev  0x0000000000000000      0x1dd build/bsp_spi2.o
 .debug_loc     0x0000000000000000       0x5f build/bsp_spi2.o
 .debug_aranges
                0x0000000000000000       0x40 build/bsp_spi2.o
 .debug_ranges  0x0000000000000000       0x30 build/bsp_spi2.o
 .debug_line    0x0000000000000000      0x2f0 build/bsp_spi2.o
 .debug_str     0x0000000000000000      0x685 build/bsp_spi2.o
 .comment       0x0000000000000000       0x4a build/bsp_spi2.o
 .debug_frame   0x0000000000000000       0x9c build/bsp_spi2.o
 .ARM.attributes
                0x0000000000000000       0x34 build/bsp_spi2.o
 .text          0x0000000000000000        0x0 build/system_stm32f4xx.o
 .data          0x0000000000000000        0x0 build/system_stm32f4xx.o
 .bss           0x0000000000000000        0x0 build/system_stm32f4xx.o
 .text.SystemCoreClockUpdate
                0x0000000000000000       0xa0 build/system_stm32f4xx.o
 .data.AHBPrescTable
                0x0000000000000000       0x10 build/system_stm32f4xx.o
 .data.SystemCoreClock
                0x0000000000000000        0x4 build/system_stm32f4xx.o
 .text          0x0000000000000000        0x0 build/bootmode.o
 .data          0x0000000000000000        0x0 build/bootmode.o
 .bss           0x0000000000000000        0x0 build/bootmode.o
 .debug_info    0x0000000000000000       0x72 build/bootmode.o
 .debug_abbrev  0x0000000000000000       0x26 build/bootmode.o
 .debug_aranges
                0x0000000000000000       0x18 build/bootmode.o
 .debug_line    0x0000000000000000       0x1d build/bootmode.o
 .debug_str     0x0000000000000000      0x19b build/bootmode.o
 .comment       0x0000000000000000       0x4a build/bootmode.o
 .ARM.attributes
                0x0000000000000000       0x34 build/bootmode.o
 .text          0x0000000000000000        0x0 build/diag.o
 .data          0x0000000000000000        0x0 build/diag.o
 .bss           0x0000000000000000        0x0 build/diag.o
 .debug_info    0x0000000000000000       0x72 build/diag.o
 .debug_abbrev  0x0000000000000000       0x26 build/diag.o
 .debug_aranges
                0x0000000000000000       0x18 build/diag.o
 .debug_line    0x0000000000000000       0x1d build/diag.o
 .debug_str     0x0000000000000000      0x197 build/diag.o
 .comment       0x0000000000000000       0x4a build/diag.o
 .ARM.attributes
                0x0000000000000000       0x34 build/diag.o
 .text          0x0000000000000000        0x0 build/ecataoe.o
 .data          0x0000000000000000        0x0 build/ecataoe.o
 .bss           0x0000000000000000        0x0 build/ecataoe.o
 .debug_info    0x0000000000000000       0x72 build/ecataoe.o
 .debug_abbrev  0x0000000000000000       0x26 build/ecataoe.o
 .debug_aranges
                0x0000000000000000       0x18 build/ecataoe.o
 .debug_line    0x0000000000000000       0x1d build/ecataoe.o
 .debug_str     0x0000000000000000      0x19a build/ecataoe.o
 .comment       0x0000000000000000       0x4a build/ecataoe.o
 .ARM.attributes
                0x0000000000000000       0x34 build/ecataoe.o
 .text          0x0000000000000000        0x0 build/ecatcoe.o
 .data          0x0000000000000000        0x0 build/ecatcoe.o
 .bss           0x0000000000000000        0x0 build/ecatcoe.o
 .text          0x0000000000000000        0x0 build/ecateoe.o
 .data          0x0000000000000000        0x0 build/ecateoe.o
 .bss           0x0000000000000000        0x0 build/ecateoe.o
 .debug_info    0x0000000000000000       0x72 build/ecateoe.o
 .debug_abbrev  0x0000000000000000       0x26 build/ecateoe.o
 .debug_aranges
                0x0000000000000000       0x18 build/ecateoe.o
 .debug_line    0x0000000000000000       0x1d build/ecateoe.o
 .debug_str     0x0000000000000000      0x19a build/ecateoe.o
 .comment       0x0000000000000000       0x4a build/ecateoe.o
 .ARM.attributes
                0x0000000000000000       0x34 build/ecateoe.o
 .text          0x0000000000000000        0x0 build/ecatfoe.o
 .data          0x0000000000000000        0x0 build/ecatfoe.o
 .bss           0x0000000000000000        0x0 build/ecatfoe.o
 .debug_info    0x0000000000000000       0x72 build/ecatfoe.o
 .debug_abbrev  0x0000000000000000       0x26 build/ecatfoe.o
 .debug_aranges
                0x0000000000000000       0x18 build/ecatfoe.o
 .debug_line    0x0000000000000000       0x1d build/ecatfoe.o
 .debug_str     0x0000000000000000      0x19a build/ecatfoe.o
 .comment       0x0000000000000000       0x4a build/ecatfoe.o
 .ARM.attributes
                0x0000000000000000       0x34 build/ecatfoe.o
 .text          0x0000000000000000        0x0 build/ecatslv.o
 .data          0x0000000000000000        0x0 build/ecatslv.o
 .bss           0x0000000000000000        0x0 build/ecatslv.o
 .text.ECAT_StateChange
                0x0000000000000000      0x144 build/ecatslv.o
 .text          0x0000000000000000        0x0 build/ecatsoe.o
 .data          0x0000000000000000        0x0 build/ecatsoe.o
 .bss           0x0000000000000000        0x0 build/ecatsoe.o
 .debug_info    0x0000000000000000       0x72 build/ecatsoe.o
 .debug_abbrev  0x0000000000000000       0x26 build/ecatsoe.o
 .debug_aranges
                0x0000000000000000       0x18 build/ecatsoe.o
 .debug_line    0x0000000000000000       0x1d build/ecatsoe.o
 .debug_str     0x0000000000000000      0x19a build/ecatsoe.o
 .comment       0x0000000000000000       0x4a build/ecatsoe.o
 .ARM.attributes
                0x0000000000000000       0x34 build/ecatsoe.o
 .text          0x0000000000000000        0x0 build/emcy.o
 .data          0x0000000000000000        0x0 build/emcy.o
 .bss           0x0000000000000000        0x0 build/emcy.o
 .debug_info    0x0000000000000000       0x72 build/emcy.o
 .debug_abbrev  0x0000000000000000       0x26 build/emcy.o
 .debug_aranges
                0x0000000000000000       0x18 build/emcy.o
 .debug_line    0x0000000000000000       0x1d build/emcy.o
 .debug_str     0x0000000000000000      0x197 build/emcy.o
 .comment       0x0000000000000000       0x4a build/emcy.o
 .ARM.attributes
                0x0000000000000000       0x34 build/emcy.o
 .text          0x0000000000000000        0x0 build/eoeappl.o
 .data          0x0000000000000000        0x0 build/eoeappl.o
 .bss           0x0000000000000000        0x0 build/eoeappl.o
 .debug_info    0x0000000000000000       0x72 build/eoeappl.o
 .debug_abbrev  0x0000000000000000       0x26 build/eoeappl.o
 .debug_aranges
                0x0000000000000000       0x18 build/eoeappl.o
 .debug_line    0x0000000000000000       0x1d build/eoeappl.o
 .debug_str     0x0000000000000000      0x19a build/eoeappl.o
 .comment       0x0000000000000000       0x4a build/eoeappl.o
 .ARM.attributes
                0x0000000000000000       0x34 build/eoeappl.o
 .text          0x0000000000000000        0x0 build/fc1100hw.o
 .data          0x0000000000000000        0x0 build/fc1100hw.o
 .bss           0x0000000000000000        0x0 build/fc1100hw.o
 .debug_info    0x0000000000000000       0x72 build/fc1100hw.o
 .debug_abbrev  0x0000000000000000       0x26 build/fc1100hw.o
 .debug_aranges
                0x0000000000000000       0x18 build/fc1100hw.o
 .debug_line    0x0000000000000000       0x1d build/fc1100hw.o
 .debug_str     0x0000000000000000      0x19b build/fc1100hw.o
 .comment       0x0000000000000000       0x4a build/fc1100hw.o
 .ARM.attributes
                0x0000000000000000       0x34 build/fc1100hw.o
 .text          0x0000000000000000        0x0 build/mailbox.o
 .data          0x0000000000000000        0x0 build/mailbox.o
 .bss           0x0000000000000000        0x0 build/mailbox.o
 .text          0x0000000000000000        0x0 build/objdef.o
 .data          0x0000000000000000        0x0 build/objdef.o
 .bss           0x0000000000000000        0x0 build/objdef.o
 .text          0x0000000000000000        0x0 build/sdoserv.o
 .data          0x0000000000000000        0x0 build/sdoserv.o
 .bss           0x0000000000000000        0x0 build/sdoserv.o
 .text          0x0000000000000000        0x0 build/aoeappl.o
 .data          0x0000000000000000        0x0 build/aoeappl.o
 .bss           0x0000000000000000        0x0 build/aoeappl.o
 .debug_info    0x0000000000000000       0x72 build/aoeappl.o
 .debug_abbrev  0x0000000000000000       0x26 build/aoeappl.o
 .debug_aranges
                0x0000000000000000       0x18 build/aoeappl.o
 .debug_line    0x0000000000000000       0x1d build/aoeappl.o
 .debug_str     0x0000000000000000      0x19e build/aoeappl.o
 .comment       0x0000000000000000       0x4a build/aoeappl.o
 .ARM.attributes
                0x0000000000000000       0x34 build/aoeappl.o
 .text          0x0000000000000000        0x0 build/coeappl.o
 .data          0x0000000000000000        0x0 build/coeappl.o
 .bss           0x0000000000000000        0x0 build/coeappl.o
 .text          0x0000000000000000        0x0 build/ecatappl.o
 .data          0x0000000000000000        0x0 build/ecatappl.o
 .bss           0x0000000000000000        0x0 build/ecatappl.o
 .bss.bEcatWaitForInputUpdate
                0x0000000000000000        0x1 build/ecatappl.o
 .bss.bEtherCATErrorLed
                0x0000000000000000        0x1 build/ecatappl.o
 .bss.bEtherCATRunLed
                0x0000000000000000        0x1 build/ecatappl.o
 .bss.pAPPL_EEPROM_Read
                0x0000000000000000        0x4 build/ecatappl.o
 .bss.pAPPL_EEPROM_Reload
                0x0000000000000000        0x4 build/ecatappl.o
 .bss.pAPPL_EEPROM_Write
                0x0000000000000000        0x4 build/ecatappl.o
 .text          0x0000000000000000        0x0 build/el9800appl.o
 .data          0x0000000000000000        0x0 build/el9800appl.o
 .bss           0x0000000000000000        0x0 build/el9800appl.o
 .data.times    0x0000000000000000        0x4 build/el9800appl.o
 .text          0x0000000000000000        0x0 build/el9800hw.o
 .data          0x0000000000000000        0x0 build/el9800hw.o
 .bss           0x0000000000000000        0x0 build/el9800hw.o
 .text          0x0000000000000000        0x0 build/foeappl.o
 .data          0x0000000000000000        0x0 build/foeappl.o
 .bss           0x0000000000000000        0x0 build/foeappl.o
 .debug_info    0x0000000000000000       0x72 build/foeappl.o
 .debug_abbrev  0x0000000000000000       0x26 build/foeappl.o
 .debug_aranges
                0x0000000000000000       0x18 build/foeappl.o
 .debug_line    0x0000000000000000       0x1d build/foeappl.o
 .debug_str     0x0000000000000000      0x19e build/foeappl.o
 .comment       0x0000000000000000       0x4a build/foeappl.o
 .ARM.attributes
                0x0000000000000000       0x34 build/foeappl.o
 .text          0x0000000000000000       0x14 build/startup_stm32f405xx.o
 .data          0x0000000000000000        0x0 build/startup_stm32f405xx.o
 .bss           0x0000000000000000        0x0 build/startup_stm32f405xx.o
 .text          0x0000000000000000        0x0 /usr/share/gcc-arm-none-eabi-10.3-2021.10/bin/../lib/gcc/arm-none-eabi/10.3.1/../../../../arm-none-eabi/lib/thumb/v7e-m+fp/hard/libc_nano.a(lib_a-exit.o)
 .data          0x0000000000000000        0x0 /usr/share/gcc-arm-none-eabi-10.3-2021.10/bin/../lib/gcc/arm-none-eabi/10.3.1/../../../../arm-none-eabi/lib/thumb/v7e-m+fp/hard/libc_nano.a(lib_a-exit.o)
 .bss           0x0000000000000000        0x0 /usr/share/gcc-arm-none-eabi-10.3-2021.10/bin/../lib/gcc/arm-none-eabi/10.3.1/../../../../arm-none-eabi/lib/thumb/v7e-m+fp/hard/libc_nano.a(lib_a-exit.o)
 .text.exit     0x0000000000000000       0x28 /usr/share/gcc-arm-none-eabi-10.3-2021.10/bin/../lib/gcc/arm-none-eabi/10.3.1/../../../../arm-none-eabi/lib/thumb/v7e-m+fp/hard/libc_nano.a(lib_a-exit.o)
 .debug_frame   0x0000000000000000       0x28 /usr/share/gcc-arm-none-eabi-10.3-2021.10/bin/../lib/gcc/arm-none-eabi/10.3.1/../../../../arm-none-eabi/lib/thumb/v7e-m+fp/hard/libc_nano.a(lib_a-exit.o)
 .ARM.attributes
                0x0000000000000000       0x34 /usr/share/gcc-arm-none-eabi-10.3-2021.10/bin/../lib/gcc/arm-none-eabi/10.3.1/../../../../arm-none-eabi/lib/thumb/v7e-m+fp/hard/libc_nano.a(lib_a-exit.o)
 .text          0x0000000000000000        0x0 /usr/share/gcc-arm-none-eabi-10.3-2021.10/bin/../lib/gcc/arm-none-eabi/10.3.1/../../../../arm-none-eabi/lib/thumb/v7e-m+fp/hard/libc_nano.a(lib_a-impure.o)
 .data          0x0000000000000000        0x0 /usr/share/gcc-arm-none-eabi-10.3-2021.10/bin/../lib/gcc/arm-none-eabi/10.3.1/../../../../arm-none-eabi/lib/thumb/v7e-m+fp/hard/libc_nano.a(lib_a-impure.o)
 .bss           0x0000000000000000        0x0 /usr/share/gcc-arm-none-eabi-10.3-2021.10/bin/../lib/gcc/arm-none-eabi/10.3.1/../../../../arm-none-eabi/lib/thumb/v7e-m+fp/hard/libc_nano.a(lib_a-impure.o)
 .rodata._global_impure_ptr
                0x0000000000000000        0x4 /usr/share/gcc-arm-none-eabi-10.3-2021.10/bin/../lib/gcc/arm-none-eabi/10.3.1/../../../../arm-none-eabi/lib/thumb/v7e-m+fp/hard/libc_nano.a(lib_a-impure.o)
 .text          0x0000000000000000        0x0 /usr/share/gcc-arm-none-eabi-10.3-2021.10/bin/../lib/gcc/arm-none-eabi/10.3.1/../../../../arm-none-eabi/lib/thumb/v7e-m+fp/hard/libc_nano.a(lib_a-init.o)
 .data          0x0000000000000000        0x0 /usr/share/gcc-arm-none-eabi-10.3-2021.10/bin/../lib/gcc/arm-none-eabi/10.3.1/../../../../arm-none-eabi/lib/thumb/v7e-m+fp/hard/libc_nano.a(lib_a-init.o)
 .bss           0x0000000000000000        0x0 /usr/share/gcc-arm-none-eabi-10.3-2021.10/bin/../lib/gcc/arm-none-eabi/10.3.1/../../../../arm-none-eabi/lib/thumb/v7e-m+fp/hard/libc_nano.a(lib_a-init.o)
 .text          0x0000000000000000        0x0 /usr/share/gcc-arm-none-eabi-10.3-2021.10/bin/../lib/gcc/arm-none-eabi/10.3.1/../../../../arm-none-eabi/lib/thumb/v7e-m+fp/hard/libc_nano.a(lib_a-malloc.o)
 .data          0x0000000000000000        0x0 /usr/share/gcc-arm-none-eabi-10.3-2021.10/bin/../lib/gcc/arm-none-eabi/10.3.1/../../../../arm-none-eabi/lib/thumb/v7e-m+fp/hard/libc_nano.a(lib_a-malloc.o)
 .bss           0x0000000000000000        0x0 /usr/share/gcc-arm-none-eabi-10.3-2021.10/bin/../lib/gcc/arm-none-eabi/10.3.1/../../../../arm-none-eabi/lib/thumb/v7e-m+fp/hard/libc_nano.a(lib_a-malloc.o)
 .text          0x0000000000000000        0x0 /usr/share/gcc-arm-none-eabi-10.3-2021.10/bin/../lib/gcc/arm-none-eabi/10.3.1/../../../../arm-none-eabi/lib/thumb/v7e-m+fp/hard/libc_nano.a(lib_a-memcpy-stub.o)
 .data          0x0000000000000000        0x0 /usr/share/gcc-arm-none-eabi-10.3-2021.10/bin/../lib/gcc/arm-none-eabi/10.3.1/../../../../arm-none-eabi/lib/thumb/v7e-m+fp/hard/libc_nano.a(lib_a-memcpy-stub.o)
 .bss           0x0000000000000000        0x0 /usr/share/gcc-arm-none-eabi-10.3-2021.10/bin/../lib/gcc/arm-none-eabi/10.3.1/../../../../arm-none-eabi/lib/thumb/v7e-m+fp/hard/libc_nano.a(lib_a-memcpy-stub.o)
 .text          0x0000000000000000        0x0 /usr/share/gcc-arm-none-eabi-10.3-2021.10/bin/../lib/gcc/arm-none-eabi/10.3.1/../../../../arm-none-eabi/lib/thumb/v7e-m+fp/hard/libc_nano.a(lib_a-memset.o)
 .data          0x0000000000000000        0x0 /usr/share/gcc-arm-none-eabi-10.3-2021.10/bin/../lib/gcc/arm-none-eabi/10.3.1/../../../../arm-none-eabi/lib/thumb/v7e-m+fp/hard/libc_nano.a(lib_a-memset.o)
 .bss           0x0000000000000000        0x0 /usr/share/gcc-arm-none-eabi-10.3-2021.10/bin/../lib/gcc/arm-none-eabi/10.3.1/../../../../arm-none-eabi/lib/thumb/v7e-m+fp/hard/libc_nano.a(lib_a-memset.o)
 .text          0x0000000000000000        0x0 /usr/share/gcc-arm-none-eabi-10.3-2021.10/bin/../lib/gcc/arm-none-eabi/10.3.1/../../../../arm-none-eabi/lib/thumb/v7e-m+fp/hard/libc_nano.a(lib_a-nano-freer.o)
 .data          0x0000000000000000        0x0 /usr/share/gcc-arm-none-eabi-10.3-2021.10/bin/../lib/gcc/arm-none-eabi/10.3.1/../../../../arm-none-eabi/lib/thumb/v7e-m+fp/hard/libc_nano.a(lib_a-nano-freer.o)
 .bss           0x0000000000000000        0x0 /usr/share/gcc-arm-none-eabi-10.3-2021.10/bin/../lib/gcc/arm-none-eabi/10.3.1/../../../../arm-none-eabi/lib/thumb/v7e-m+fp/hard/libc_nano.a(lib_a-nano-freer.o)
 .text          0x0000000000000000        0x0 /usr/share/gcc-arm-none-eabi-10.3-2021.10/bin/../lib/gcc/arm-none-eabi/10.3.1/../../../../arm-none-eabi/lib/thumb/v7e-m+fp/hard/libc_nano.a(lib_a-nano-mallocr.o)
 .data          0x0000000000000000        0x0 /usr/share/gcc-arm-none-eabi-10.3-2021.10/bin/../lib/gcc/arm-none-eabi/10.3.1/../../../../arm-none-eabi/lib/thumb/v7e-m+fp/hard/libc_nano.a(lib_a-nano-mallocr.o)
 .bss           0x0000000000000000        0x0 /usr/share/gcc-arm-none-eabi-10.3-2021.10/bin/../lib/gcc/arm-none-eabi/10.3.1/../../../../arm-none-eabi/lib/thumb/v7e-m+fp/hard/libc_nano.a(lib_a-nano-mallocr.o)
 .text          0x0000000000000000        0x0 /usr/share/gcc-arm-none-eabi-10.3-2021.10/bin/../lib/gcc/arm-none-eabi/10.3.1/../../../../arm-none-eabi/lib/thumb/v7e-m+fp/hard/libc_nano.a(lib_a-sbrkr.o)
 .data          0x0000000000000000        0x0 /usr/share/gcc-arm-none-eabi-10.3-2021.10/bin/../lib/gcc/arm-none-eabi/10.3.1/../../../../arm-none-eabi/lib/thumb/v7e-m+fp/hard/libc_nano.a(lib_a-sbrkr.o)
 .bss           0x0000000000000000        0x0 /usr/share/gcc-arm-none-eabi-10.3-2021.10/bin/../lib/gcc/arm-none-eabi/10.3.1/../../../../arm-none-eabi/lib/thumb/v7e-m+fp/hard/libc_nano.a(lib_a-sbrkr.o)
 .data          0x0000000000000000        0x0 /usr/share/gcc-arm-none-eabi-10.3-2021.10/bin/../lib/gcc/arm-none-eabi/10.3.1/../../../../arm-none-eabi/lib/thumb/v7e-m+fp/hard/libc_nano.a(lib_a-strlen.o)
 .bss           0x0000000000000000        0x0 /usr/share/gcc-arm-none-eabi-10.3-2021.10/bin/../lib/gcc/arm-none-eabi/10.3.1/../../../../arm-none-eabi/lib/thumb/v7e-m+fp/hard/libc_nano.a(lib_a-strlen.o)
 .text          0x0000000000000000        0x0 /usr/share/gcc-arm-none-eabi-10.3-2021.10/bin/../lib/gcc/arm-none-eabi/10.3.1/../../../../arm-none-eabi/lib/thumb/v7e-m+fp/hard/libc_nano.a(lib_a-mlock.o)
 .data          0x0000000000000000        0x0 /usr/share/gcc-arm-none-eabi-10.3-2021.10/bin/../lib/gcc/arm-none-eabi/10.3.1/../../../../arm-none-eabi/lib/thumb/v7e-m+fp/hard/libc_nano.a(lib_a-mlock.o)
 .bss           0x0000000000000000        0x0 /usr/share/gcc-arm-none-eabi-10.3-2021.10/bin/../lib/gcc/arm-none-eabi/10.3.1/../../../../arm-none-eabi/lib/thumb/v7e-m+fp/hard/libc_nano.a(lib_a-mlock.o)
 .text          0x0000000000000000        0x0 /usr/share/gcc-arm-none-eabi-10.3-2021.10/bin/../lib/gcc/arm-none-eabi/10.3.1/../../../../arm-none-eabi/lib/thumb/v7e-m+fp/hard/libc_nano.a(lib_a-reent.o)
 .data          0x0000000000000000        0x0 /usr/share/gcc-arm-none-eabi-10.3-2021.10/bin/../lib/gcc/arm-none-eabi/10.3.1/../../../../arm-none-eabi/lib/thumb/v7e-m+fp/hard/libc_nano.a(lib_a-reent.o)
 .bss           0x0000000000000000        0x0 /usr/share/gcc-arm-none-eabi-10.3-2021.10/bin/../lib/gcc/arm-none-eabi/10.3.1/../../../../arm-none-eabi/lib/thumb/v7e-m+fp/hard/libc_nano.a(lib_a-reent.o)
 .text.cleanup_glue
                0x0000000000000000       0x1a /usr/share/gcc-arm-none-eabi-10.3-2021.10/bin/../lib/gcc/arm-none-eabi/10.3.1/../../../../arm-none-eabi/lib/thumb/v7e-m+fp/hard/libc_nano.a(lib_a-reent.o)
 .text._reclaim_reent
                0x0000000000000000       0xb8 /usr/share/gcc-arm-none-eabi-10.3-2021.10/bin/../lib/gcc/arm-none-eabi/10.3.1/../../../../arm-none-eabi/lib/thumb/v7e-m+fp/hard/libc_nano.a(lib_a-reent.o)
 .text          0x0000000000000000        0x0 /usr/share/gcc-arm-none-eabi-10.3-2021.10/bin/../lib/gcc/arm-none-eabi/10.3.1/../../../../arm-none-eabi/lib/thumb/v7e-m+fp/hard/libc_nano.a(lib_a-lock.o)
 .data          0x0000000000000000        0x0 /usr/share/gcc-arm-none-eabi-10.3-2021.10/bin/../lib/gcc/arm-none-eabi/10.3.1/../../../../arm-none-eabi/lib/thumb/v7e-m+fp/hard/libc_nano.a(lib_a-lock.o)
 .bss           0x0000000000000000        0x0 /usr/share/gcc-arm-none-eabi-10.3-2021.10/bin/../lib/gcc/arm-none-eabi/10.3.1/../../../../arm-none-eabi/lib/thumb/v7e-m+fp/hard/libc_nano.a(lib_a-lock.o)
 .text.__retarget_lock_init
                0x0000000000000000        0x2 /usr/share/gcc-arm-none-eabi-10.3-2021.10/bin/../lib/gcc/arm-none-eabi/10.3.1/../../../../arm-none-eabi/lib/thumb/v7e-m+fp/hard/libc_nano.a(lib_a-lock.o)
 .text.__retarget_lock_init_recursive
                0x0000000000000000        0x2 /usr/share/gcc-arm-none-eabi-10.3-2021.10/bin/../lib/gcc/arm-none-eabi/10.3.1/../../../../arm-none-eabi/lib/thumb/v7e-m+fp/hard/libc_nano.a(lib_a-lock.o)
 .text.__retarget_lock_close
                0x0000000000000000        0x2 /usr/share/gcc-arm-none-eabi-10.3-2021.10/bin/../lib/gcc/arm-none-eabi/10.3.1/../../../../arm-none-eabi/lib/thumb/v7e-m+fp/hard/libc_nano.a(lib_a-lock.o)
 .text.__retarget_lock_close_recursive
                0x0000000000000000        0x2 /usr/share/gcc-arm-none-eabi-10.3-2021.10/bin/../lib/gcc/arm-none-eabi/10.3.1/../../../../arm-none-eabi/lib/thumb/v7e-m+fp/hard/libc_nano.a(lib_a-lock.o)
 .text.__retarget_lock_acquire
                0x0000000000000000        0x2 /usr/share/gcc-arm-none-eabi-10.3-2021.10/bin/../lib/gcc/arm-none-eabi/10.3.1/../../../../arm-none-eabi/lib/thumb/v7e-m+fp/hard/libc_nano.a(lib_a-lock.o)
 .text.__retarget_lock_try_acquire
                0x0000000000000000        0x4 /usr/share/gcc-arm-none-eabi-10.3-2021.10/bin/../lib/gcc/arm-none-eabi/10.3.1/../../../../arm-none-eabi/lib/thumb/v7e-m+fp/hard/libc_nano.a(lib_a-lock.o)
 .text.__retarget_lock_try_acquire_recursive
                0x0000000000000000        0x4 /usr/share/gcc-arm-none-eabi-10.3-2021.10/bin/../lib/gcc/arm-none-eabi/10.3.1/../../../../arm-none-eabi/lib/thumb/v7e-m+fp/hard/libc_nano.a(lib_a-lock.o)
 .text.__retarget_lock_release
                0x0000000000000000        0x2 /usr/share/gcc-arm-none-eabi-10.3-2021.10/bin/../lib/gcc/arm-none-eabi/10.3.1/../../../../arm-none-eabi/lib/thumb/v7e-m+fp/hard/libc_nano.a(lib_a-lock.o)
 .bss.__lock___arc4random_mutex
                0x0000000000000000        0x1 /usr/share/gcc-arm-none-eabi-10.3-2021.10/bin/../lib/gcc/arm-none-eabi/10.3.1/../../../../arm-none-eabi/lib/thumb/v7e-m+fp/hard/libc_nano.a(lib_a-lock.o)
 .bss.__lock___at_quick_exit_mutex
                0x0000000000000000        0x1 /usr/share/gcc-arm-none-eabi-10.3-2021.10/bin/../lib/gcc/arm-none-eabi/10.3.1/../../../../arm-none-eabi/lib/thumb/v7e-m+fp/hard/libc_nano.a(lib_a-lock.o)
 .bss.__lock___atexit_recursive_mutex
                0x0000000000000000        0x1 /usr/share/gcc-arm-none-eabi-10.3-2021.10/bin/../lib/gcc/arm-none-eabi/10.3.1/../../../../arm-none-eabi/lib/thumb/v7e-m+fp/hard/libc_nano.a(lib_a-lock.o)
 .bss.__lock___dd_hash_mutex
                0x0000000000000000        0x1 /usr/share/gcc-arm-none-eabi-10.3-2021.10/bin/../lib/gcc/arm-none-eabi/10.3.1/../../../../arm-none-eabi/lib/thumb/v7e-m+fp/hard/libc_nano.a(lib_a-lock.o)
 .bss.__lock___env_recursive_mutex
                0x0000000000000000        0x1 /usr/share/gcc-arm-none-eabi-10.3-2021.10/bin/../lib/gcc/arm-none-eabi/10.3.1/../../../../arm-none-eabi/lib/thumb/v7e-m+fp/hard/libc_nano.a(lib_a-lock.o)
 .bss.__lock___sfp_recursive_mutex
                0x0000000000000000        0x1 /usr/share/gcc-arm-none-eabi-10.3-2021.10/bin/../lib/gcc/arm-none-eabi/10.3.1/../../../../arm-none-eabi/lib/thumb/v7e-m+fp/hard/libc_nano.a(lib_a-lock.o)
 .bss.__lock___sinit_recursive_mutex
                0x0000000000000000        0x1 /usr/share/gcc-arm-none-eabi-10.3-2021.10/bin/../lib/gcc/arm-none-eabi/10.3.1/../../../../arm-none-eabi/lib/thumb/v7e-m+fp/hard/libc_nano.a(lib_a-lock.o)
 .bss.__lock___tz_mutex
                0x0000000000000000        0x1 /usr/share/gcc-arm-none-eabi-10.3-2021.10/bin/../lib/gcc/arm-none-eabi/10.3.1/../../../../arm-none-eabi/lib/thumb/v7e-m+fp/hard/libc_nano.a(lib_a-lock.o)
 .text          0x0000000000000000        0x0 /usr/share/gcc-arm-none-eabi-10.3-2021.10/bin/../lib/gcc/arm-none-eabi/10.3.1/../../../../arm-none-eabi/lib/thumb/v7e-m+fp/hard/libnosys.a(sbrk.o)
 .data          0x0000000000000000        0x0 /usr/share/gcc-arm-none-eabi-10.3-2021.10/bin/../lib/gcc/arm-none-eabi/10.3.1/../../../../arm-none-eabi/lib/thumb/v7e-m+fp/hard/libnosys.a(sbrk.o)
 .bss           0x0000000000000000        0x0 /usr/share/gcc-arm-none-eabi-10.3-2021.10/bin/../lib/gcc/arm-none-eabi/10.3.1/../../../../arm-none-eabi/lib/thumb/v7e-m+fp/hard/libnosys.a(sbrk.o)
 .text          0x0000000000000000        0x0 /usr/share/gcc-arm-none-eabi-10.3-2021.10/bin/../lib/gcc/arm-none-eabi/10.3.1/../../../../arm-none-eabi/lib/thumb/v7e-m+fp/hard/libnosys.a(_exit.o)
 .data          0x0000000000000000        0x0 /usr/share/gcc-arm-none-eabi-10.3-2021.10/bin/../lib/gcc/arm-none-eabi/10.3.1/../../../../arm-none-eabi/lib/thumb/v7e-m+fp/hard/libnosys.a(_exit.o)
 .bss           0x0000000000000000        0x0 /usr/share/gcc-arm-none-eabi-10.3-2021.10/bin/../lib/gcc/arm-none-eabi/10.3.1/../../../../arm-none-eabi/lib/thumb/v7e-m+fp/hard/libnosys.a(_exit.o)
 .text._exit    0x0000000000000000        0x4 /usr/share/gcc-arm-none-eabi-10.3-2021.10/bin/../lib/gcc/arm-none-eabi/10.3.1/../../../../arm-none-eabi/lib/thumb/v7e-m+fp/hard/libnosys.a(_exit.o)
 .debug_frame   0x0000000000000000       0x20 /usr/share/gcc-arm-none-eabi-10.3-2021.10/bin/../lib/gcc/arm-none-eabi/10.3.1/../../../../arm-none-eabi/lib/thumb/v7e-m+fp/hard/libnosys.a(_exit.o)
 .ARM.attributes
                0x0000000000000000       0x34 /usr/share/gcc-arm-none-eabi-10.3-2021.10/bin/../lib/gcc/arm-none-eabi/10.3.1/../../../../arm-none-eabi/lib/thumb/v7e-m+fp/hard/libnosys.a(_exit.o)
 .text          0x0000000000000000        0x0 /usr/share/gcc-arm-none-eabi-10.3-2021.10/bin/../lib/gcc/arm-none-eabi/10.3.1/thumb/v7e-m+fp/hard/crtend.o
 .data          0x0000000000000000        0x0 /usr/share/gcc-arm-none-eabi-10.3-2021.10/bin/../lib/gcc/arm-none-eabi/10.3.1/thumb/v7e-m+fp/hard/crtend.o
 .bss           0x0000000000000000        0x0 /usr/share/gcc-arm-none-eabi-10.3-2021.10/bin/../lib/gcc/arm-none-eabi/10.3.1/thumb/v7e-m+fp/hard/crtend.o
 .rodata        0x0000000000000000       0x24 /usr/share/gcc-arm-none-eabi-10.3-2021.10/bin/../lib/gcc/arm-none-eabi/10.3.1/thumb/v7e-m+fp/hard/crtend.o
 .eh_frame      0x0000000000000000        0x4 /usr/share/gcc-arm-none-eabi-10.3-2021.10/bin/../lib/gcc/arm-none-eabi/10.3.1/thumb/v7e-m+fp/hard/crtend.o
 .ARM.attributes
                0x0000000000000000       0x34 /usr/share/gcc-arm-none-eabi-10.3-2021.10/bin/../lib/gcc/arm-none-eabi/10.3.1/thumb/v7e-m+fp/hard/crtend.o
 .text          0x0000000000000000        0x0 /usr/share/gcc-arm-none-eabi-10.3-2021.10/bin/../lib/gcc/arm-none-eabi/10.3.1/thumb/v7e-m+fp/hard/crtn.o
 .data          0x0000000000000000        0x0 /usr/share/gcc-arm-none-eabi-10.3-2021.10/bin/../lib/gcc/arm-none-eabi/10.3.1/thumb/v7e-m+fp/hard/crtn.o
 .bss           0x0000000000000000        0x0 /usr/share/gcc-arm-none-eabi-10.3-2021.10/bin/../lib/gcc/arm-none-eabi/10.3.1/thumb/v7e-m+fp/hard/crtn.o

Memory Configuration

Name             Origin             Length             Attributes
RAM              0x0000000020000000 0x0000000000020000 xrw
CCMRAM           0x0000000010000000 0x0000000000010000 xrw
FLASH            0x0000000008000000 0x0000000000100000 xr
*default*        0x0000000000000000 0xffffffffffffffff

Linker script and memory map

LOAD /usr/share/gcc-arm-none-eabi-10.3-2021.10/bin/../lib/gcc/arm-none-eabi/10.3.1/thumb/v7e-m+fp/hard/crti.o
LOAD /usr/share/gcc-arm-none-eabi-10.3-2021.10/bin/../lib/gcc/arm-none-eabi/10.3.1/thumb/v7e-m+fp/hard/crtbegin.o
LOAD /usr/share/gcc-arm-none-eabi-10.3-2021.10/bin/../lib/gcc/arm-none-eabi/10.3.1/../../../../arm-none-eabi/lib/thumb/v7e-m+fp/hard/crt0.o
LOAD build/stm32f4xx_it.o
LOAD build/misc.o
LOAD build/stm32f4xx_adc.o
LOAD build/stm32f4xx_can.o
LOAD build/stm32f4xx_cec.o
LOAD build/stm32f4xx_crc.o
LOAD build/stm32f4xx_cryp.o
LOAD build/stm32f4xx_cryp_aes.o
LOAD build/stm32f4xx_cryp_des.o
LOAD build/stm32f4xx_cryp_tdes.o
LOAD build/stm32f4xx_dac.o
LOAD build/stm32f4xx_dbgmcu.o
LOAD build/stm32f4xx_dcmi.o
LOAD build/stm32f4xx_dma.o
LOAD build/stm32f4xx_dma2d.o
LOAD build/stm32f4xx_dsi.o
LOAD build/stm32f4xx_exti.o
LOAD build/stm32f4xx_flash.o
LOAD build/stm32f4xx_flash_ramfunc.o
LOAD build/stm32f4xx_fmpi2c.o
LOAD build/stm32f4xx_fsmc.o
LOAD build/stm32f4xx_gpio.o
LOAD build/stm32f4xx_hash.o
LOAD build/stm32f4xx_hash_md5.o
LOAD build/stm32f4xx_hash_sha1.o
LOAD build/stm32f4xx_i2c.o
LOAD build/stm32f4xx_iwdg.o
LOAD build/stm32f4xx_lptim.o
LOAD build/stm32f4xx_ltdc.o
LOAD build/stm32f4xx_pwr.o
LOAD build/stm32f4xx_qspi.o
LOAD build/stm32f4xx_rcc.o
LOAD build/stm32f4xx_rng.o
LOAD build/stm32f4xx_rtc.o
LOAD build/stm32f4xx_sai.o
LOAD build/stm32f4xx_sdio.o
LOAD build/stm32f4xx_spdifrx.o
LOAD build/stm32f4xx_spi.o
LOAD build/stm32f4xx_syscfg.o
LOAD build/stm32f4xx_tim.o
LOAD build/stm32f4xx_usart.o
LOAD build/stm32f4xx_wwdg.o
LOAD build/EXIT.o
LOAD build/RST.o
LOAD build/SPI1.o
LOAD build/Timer.o
LOAD build/bsp_can.o
LOAD build/bsp_led.o
LOAD build/bsp_spi2.o
LOAD build/system_stm32f4xx.o
LOAD build/bootmode.o
LOAD build/diag.o
LOAD build/ecataoe.o
LOAD build/ecatcoe.o
LOAD build/ecateoe.o
LOAD build/ecatfoe.o
LOAD build/ecatslv.o
LOAD build/ecatsoe.o
LOAD build/emcy.o
LOAD build/eoeappl.o
LOAD build/fc1100hw.o
LOAD build/mailbox.o
LOAD build/objdef.o
LOAD build/sdoserv.o
LOAD build/aoeappl.o
LOAD build/coeappl.o
LOAD build/ecatappl.o
LOAD build/el9800appl.o
LOAD build/el9800hw.o
LOAD build/foeappl.o
LOAD build/startup_stm32f405xx.o
LOAD /usr/share/gcc-arm-none-eabi-10.3-2021.10/bin/../lib/gcc/arm-none-eabi/10.3.1/../../../../arm-none-eabi/lib/thumb/v7e-m+fp/hard/libc_nano.a
LOAD /usr/share/gcc-arm-none-eabi-10.3-2021.10/bin/../lib/gcc/arm-none-eabi/10.3.1/../../../../arm-none-eabi/lib/thumb/v7e-m+fp/hard/libm.a
LOAD /usr/share/gcc-arm-none-eabi-10.3-2021.10/bin/../lib/gcc/arm-none-eabi/10.3.1/../../../../arm-none-eabi/lib/thumb/v7e-m+fp/hard/libnosys.a
START GROUP
LOAD /usr/share/gcc-arm-none-eabi-10.3-2021.10/bin/../lib/gcc/arm-none-eabi/10.3.1/thumb/v7e-m+fp/hard/libgcc.a
LOAD /usr/share/gcc-arm-none-eabi-10.3-2021.10/bin/../lib/gcc/arm-none-eabi/10.3.1/../../../../arm-none-eabi/lib/thumb/v7e-m+fp/hard/libc_nano.a
END GROUP
START GROUP
LOAD /usr/share/gcc-arm-none-eabi-10.3-2021.10/bin/../lib/gcc/arm-none-eabi/10.3.1/thumb/v7e-m+fp/hard/libgcc.a
LOAD /usr/share/gcc-arm-none-eabi-10.3-2021.10/bin/../lib/gcc/arm-none-eabi/10.3.1/../../../../arm-none-eabi/lib/thumb/v7e-m+fp/hard/libc_nano.a
END GROUP
LOAD /usr/share/gcc-arm-none-eabi-10.3-2021.10/bin/../lib/gcc/arm-none-eabi/10.3.1/thumb/v7e-m+fp/hard/crtend.o
LOAD /usr/share/gcc-arm-none-eabi-10.3-2021.10/bin/../lib/gcc/arm-none-eabi/10.3.1/thumb/v7e-m+fp/hard/crtn.o
                0x0000000020020000                _estack = (ORIGIN (RAM) + LENGTH (RAM))
                0x0000000000000200                _Min_Heap_Size = 0x200
                0x0000000000000400                _Min_Stack_Size = 0x400

.isr_vector     0x0000000008000000      0x188
                0x0000000008000000                . = ALIGN (0x4)
 *(.isr_vector)
 .isr_vector    0x0000000008000000      0x188 build/startup_stm32f405xx.o
                0x0000000008000000                g_pfnVectors
                0x0000000008000188                . = ALIGN (0x4)

.text           0x0000000008000188     0x5fb4
                0x0000000008000188                . = ALIGN (0x4)
 *(.text)
 .text          0x0000000008000188       0x40 /usr/share/gcc-arm-none-eabi-10.3-2021.10/bin/../lib/gcc/arm-none-eabi/10.3.1/thumb/v7e-m+fp/hard/crtbegin.o
 .text          0x00000000080001c8       0x10 /usr/share/gcc-arm-none-eabi-10.3-2021.10/bin/../lib/gcc/arm-none-eabi/10.3.1/../../../../arm-none-eabi/lib/thumb/v7e-m+fp/hard/libc_nano.a(lib_a-strlen.o)
                0x00000000080001c8                strlen
 *(.text*)
 .text.NMI_Handler
                0x00000000080001d8        0x2 build/stm32f4xx_it.o
                0x00000000080001d8                NMI_Handler
 .text.HardFault_Handler
                0x00000000080001da        0x2 build/stm32f4xx_it.o
                0x00000000080001da                HardFault_Handler
 .text.MemManage_Handler
                0x00000000080001dc        0x2 build/stm32f4xx_it.o
                0x00000000080001dc                MemManage_Handler
 .text.BusFault_Handler
                0x00000000080001de        0x2 build/stm32f4xx_it.o
                0x00000000080001de                BusFault_Handler
 .text.UsageFault_Handler
                0x00000000080001e0        0x2 build/stm32f4xx_it.o
                0x00000000080001e0                UsageFault_Handler
 .text.SVC_Handler
                0x00000000080001e2        0x2 build/stm32f4xx_it.o
                0x00000000080001e2                SVC_Handler
 .text.DebugMon_Handler
                0x00000000080001e4        0x2 build/stm32f4xx_it.o
                0x00000000080001e4                DebugMon_Handler
 .text.PendSV_Handler
                0x00000000080001e6        0x2 build/stm32f4xx_it.o
                0x00000000080001e6                PendSV_Handler
 .text.SysTick_Handler
                0x00000000080001e8        0x2 build/stm32f4xx_it.o
                0x00000000080001e8                SysTick_Handler
 *fill*         0x00000000080001ea        0x2 
 .text.NVIC_PriorityGroupConfig
                0x00000000080001ec       0x14 build/misc.o
                0x00000000080001ec                NVIC_PriorityGroupConfig
 .text.NVIC_Init
                0x0000000008000200       0x64 build/misc.o
                0x0000000008000200                NVIC_Init
 .text.CAN_DeInit
                0x0000000008000264       0x38 build/stm32f4xx_can.o
                0x0000000008000264                CAN_DeInit
 .text.CAN_Init
                0x000000000800029c      0x10e build/stm32f4xx_can.o
                0x000000000800029c                CAN_Init
 *fill*         0x00000000080003aa        0x2 
 .text.CAN_FilterInit
                0x00000000080003ac      0x10c build/stm32f4xx_can.o
                0x00000000080003ac                CAN_FilterInit
 .text.CAN_StructInit
                0x00000000080004b8       0x20 build/stm32f4xx_can.o
                0x00000000080004b8                CAN_StructInit
 .text.CAN_Transmit
                0x00000000080004d8       0xd6 build/stm32f4xx_can.o
                0x00000000080004d8                CAN_Transmit
 .text.CAN_Receive
                0x00000000080005ae       0xac build/stm32f4xx_can.o
                0x00000000080005ae                CAN_Receive
 .text.CAN_ITConfig
                0x000000000800065a       0x14 build/stm32f4xx_can.o
                0x000000000800065a                CAN_ITConfig
 *fill*         0x000000000800066e        0x2 
 .text.EXTI_Init
                0x0000000008000670       0x90 build/stm32f4xx_exti.o
                0x0000000008000670                EXTI_Init
 .text.EXTI_ClearITPendingBit
                0x0000000008000700        0xc build/stm32f4xx_exti.o
                0x0000000008000700                EXTI_ClearITPendingBit
 .text.GPIO_Init
                0x000000000800070c       0xa6 build/stm32f4xx_gpio.o
                0x000000000800070c                GPIO_Init
 .text.GPIO_SetBits
                0x00000000080007b2        0x4 build/stm32f4xx_gpio.o
                0x00000000080007b2                GPIO_SetBits
 .text.GPIO_ResetBits
                0x00000000080007b6        0x4 build/stm32f4xx_gpio.o
                0x00000000080007b6                GPIO_ResetBits
 .text.GPIO_ToggleBits
                0x00000000080007ba        0x8 build/stm32f4xx_gpio.o
                0x00000000080007ba                GPIO_ToggleBits
 .text.GPIO_PinAFConfig
                0x00000000080007c2       0x34 build/stm32f4xx_gpio.o
                0x00000000080007c2                GPIO_PinAFConfig
 *fill*         0x00000000080007f6        0x2 
 .text.RCC_AHB1PeriphClockCmd
                0x00000000080007f8       0x1c build/stm32f4xx_rcc.o
                0x00000000080007f8                RCC_AHB1PeriphClockCmd
 .text.RCC_APB1PeriphClockCmd
                0x0000000008000814       0x1c build/stm32f4xx_rcc.o
                0x0000000008000814                RCC_APB1PeriphClockCmd
 .text.RCC_APB2PeriphClockCmd
                0x0000000008000830       0x1c build/stm32f4xx_rcc.o
                0x0000000008000830                RCC_APB2PeriphClockCmd
 .text.RCC_APB1PeriphResetCmd
                0x000000000800084c       0x1c build/stm32f4xx_rcc.o
                0x000000000800084c                RCC_APB1PeriphResetCmd
 .text.RCC_APB2PeriphResetCmd
                0x0000000008000868       0x1c build/stm32f4xx_rcc.o
                0x0000000008000868                RCC_APB2PeriphResetCmd
 .text.SPI_I2S_DeInit
                0x0000000008000884       0xc4 build/stm32f4xx_spi.o
                0x0000000008000884                SPI_I2S_DeInit
 .text.SPI_Init
                0x0000000008000948       0x4e build/stm32f4xx_spi.o
                0x0000000008000948                SPI_Init
 .text.SPI_Cmd  0x0000000008000996       0x1c build/stm32f4xx_spi.o
                0x0000000008000996                SPI_Cmd
 .text.SPI_I2S_ReceiveData
                0x00000000080009b2        0x6 build/stm32f4xx_spi.o
                0x00000000080009b2                SPI_I2S_ReceiveData
 .text.SPI_I2S_SendData
                0x00000000080009b8        0x4 build/stm32f4xx_spi.o
                0x00000000080009b8                SPI_I2S_SendData
 .text.SPI_I2S_GetFlagStatus
                0x00000000080009bc        0xe build/stm32f4xx_spi.o
                0x00000000080009bc                SPI_I2S_GetFlagStatus
 *fill*         0x00000000080009ca        0x2 
 .text.SYSCFG_EXTILineConfig
                0x00000000080009cc       0x38 build/stm32f4xx_syscfg.o
                0x00000000080009cc                SYSCFG_EXTILineConfig
 .text.TIM_DeInit
                0x0000000008000a04      0x198 build/stm32f4xx_tim.o
                0x0000000008000a04                TIM_DeInit
 .text.TIM_TimeBaseInit
                0x0000000008000b9c       0x7c build/stm32f4xx_tim.o
                0x0000000008000b9c                TIM_TimeBaseInit
 .text.TIM_Cmd  0x0000000008000c18       0x1c build/stm32f4xx_tim.o
                0x0000000008000c18                TIM_Cmd
 .text.TIM_ITConfig
                0x0000000008000c34       0x18 build/stm32f4xx_tim.o
                0x0000000008000c34                TIM_ITConfig
 .text.TIM_ClearFlag
                0x0000000008000c4c        0x8 build/stm32f4xx_tim.o
                0x0000000008000c4c                TIM_ClearFlag
 .text.TIM_ClearITPendingBit
                0x0000000008000c54        0x8 build/stm32f4xx_tim.o
                0x0000000008000c54                TIM_ClearITPendingBit
 .text.EXTI8_Configuration
                0x0000000008000c5c       0x78 build/EXIT.o
                0x0000000008000c5c                EXTI8_Configuration
 .text.EXTI0_Configuration
                0x0000000008000cd4       0x74 build/EXIT.o
                0x0000000008000cd4                EXTI0_Configuration
 .text.EXTI1_Configuration
                0x0000000008000d48       0x74 build/EXIT.o
                0x0000000008000d48                EXTI1_Configuration
 .text.rst_high
                0x0000000008000dbc       0x10 build/RST.o
                0x0000000008000dbc                rst_high
 .text.rst_setup
                0x0000000008000dcc       0x3c build/RST.o
                0x0000000008000dcc                rst_setup
 .text.SPI1_Init
                0x0000000008000e08       0x5c build/SPI1.o
                0x0000000008000e08                SPI1_Init
 .text.SPI1_GPIO_Init
                0x0000000008000e64       0xa0 build/SPI1.o
                0x0000000008000e64                SPI1_GPIO_Init
 .text.WR_CMD   0x0000000008000f04       0x34 build/SPI1.o
                0x0000000008000f04                WR_CMD
 .text.TIM_Configuration
                0x0000000008000f38       0x7e build/Timer.o
                0x0000000008000f38                TIM_Configuration
 *fill*         0x0000000008000fb6        0x2 
 .text.CAN1_GPIO_Config
                0x0000000008000fb8       0x6c build/bsp_can.o
 .text.CAN2_GPIO_Config
                0x0000000008001024       0x68 build/bsp_can.o
 .text.CAN1_Mode_Config
                0x000000000800108c       0x60 build/bsp_can.o
 .text.CAN2_Mode_Config
                0x00000000080010ec       0x68 build/bsp_can.o
 .text.CAN1_NVIC_Config
                0x0000000008001154       0x2e build/bsp_can.o
 .text.CAN2_NVIC_Config
                0x0000000008001182       0x2e build/bsp_can.o
 .text.CAN1_Filter_Config
                0x00000000080011b0       0x44 build/bsp_can.o
 .text.CAN2_Filter_Config
                0x00000000080011f4       0x48 build/bsp_can.o
 .text.CAN1_Config
                0x000000000800123c       0x14 build/bsp_can.o
                0x000000000800123c                CAN1_Config
 .text.CAN2_Config
                0x0000000008001250       0x14 build/bsp_can.o
                0x0000000008001250                CAN2_Config
 .text.CAN1_RX0_IRQHandler
                0x0000000008001264       0x24 build/bsp_can.o
                0x0000000008001264                CAN1_RX0_IRQHandler
 .text.CAN2_RX0_IRQHandler
                0x0000000008001288       0x24 build/bsp_can.o
                0x0000000008001288                CAN2_RX0_IRQHandler
 .text.led_setup
                0x00000000080012ac       0x78 build/bsp_led.o
                0x00000000080012ac                led_setup
 .text.SetSysClock
                0x0000000008001324       0xc4 build/system_stm32f4xx.o
 .text.SystemInit
                0x00000000080013e8       0x50 build/system_stm32f4xx.o
                0x00000000080013e8                SystemInit
 .text.COE_Init
                0x0000000008001438       0x14 build/ecatcoe.o
                0x0000000008001438                COE_Init
 .text.COE_ServiceInd
                0x000000000800144c       0x2c build/ecatcoe.o
                0x000000000800144c                COE_ServiceInd
 .text.COE_ContinueInd
                0x0000000008001478       0x50 build/ecatcoe.o
                0x0000000008001478                COE_ContinueInd
 .text.ResetALEventMask
                0x00000000080014c8       0x40 build/ecatslv.o
                0x00000000080014c8                ResetALEventMask
 .text.SetALEventMask
                0x0000000008001508       0x40 build/ecatslv.o
                0x0000000008001508                SetALEventMask
 .text.UpdateEEPROMLoadedState
                0x0000000008001548       0x40 build/ecatslv.o
                0x0000000008001548                UpdateEEPROMLoadedState
 .text.GetSyncMan
                0x0000000008001588       0x1c build/ecatslv.o
                0x0000000008001588                GetSyncMan
 .text.DisableSyncManChannel
                0x00000000080015a4       0x38 build/ecatslv.o
                0x00000000080015a4                DisableSyncManChannel
 .text.EnableSyncManChannel
                0x00000000080015dc       0x36 build/ecatslv.o
                0x00000000080015dc                EnableSyncManChannel
 *fill*         0x0000000008001612        0x2 
 .text.CheckSmSettings
                0x0000000008001614      0x2c0 build/ecatslv.o
                0x0000000008001614                CheckSmSettings
 .text.StartInputHandler
                0x00000000080018d4      0x598 build/ecatslv.o
                0x00000000080018d4                StartInputHandler
 .text.StartOutputHandler
                0x0000000008001e6c       0x3c build/ecatslv.o
                0x0000000008001e6c                StartOutputHandler
 .text.StopOutputHandler
                0x0000000008001ea8       0x14 build/ecatslv.o
                0x0000000008001ea8                StopOutputHandler
 .text.StopInputHandler
                0x0000000008001ebc       0xc8 build/ecatslv.o
                0x0000000008001ebc                StopInputHandler
 .text.BackToInitTransition
                0x0000000008001f84        0xc build/ecatslv.o
                0x0000000008001f84                BackToInitTransition
 .text.SetALStatus
                0x0000000008001f90       0x4c build/ecatslv.o
                0x0000000008001f90                SetALStatus
 .text.AL_ControlInd
                0x0000000008001fdc      0x540 build/ecatslv.o
                0x0000000008001fdc                AL_ControlInd
 .text.AL_ControlRes
                0x000000000800251c      0x224 build/ecatslv.o
                0x000000000800251c                AL_ControlRes
 .text.DC_CheckWatchdog
                0x0000000008002740       0xe0 build/ecatslv.o
                0x0000000008002740                DC_CheckWatchdog
 .text.CheckIfEcatError
                0x0000000008002820       0x98 build/ecatslv.o
                0x0000000008002820                CheckIfEcatError
 .text.ECAT_Init
                0x00000000080028b8      0x114 build/ecatslv.o
                0x00000000080028b8                ECAT_Init
 .text.ECAT_Main
                0x00000000080029cc      0x150 build/ecatslv.o
                0x00000000080029cc                ECAT_Main
 .text.PutInMbxQueue
                0x0000000008002b1c       0x2a build/mailbox.o
                0x0000000008002b1c                PutInMbxQueue
 .text.GetOutOfMbxQueue
                0x0000000008002b46       0x28 build/mailbox.o
                0x0000000008002b46                GetOutOfMbxQueue
 *fill*         0x0000000008002b6e        0x2 
 .text.MBX_Init
                0x0000000008002b70       0xd4 build/mailbox.o
                0x0000000008002b70                MBX_Init
 .text.MBX_StartMailboxHandler
                0x0000000008002c44       0x98 build/mailbox.o
                0x0000000008002c44                MBX_StartMailboxHandler
 .text.MBX_StopMailboxHandler
                0x0000000008002cdc       0xf4 build/mailbox.o
                0x0000000008002cdc                MBX_StopMailboxHandler
 .text.MailboxServiceInd
                0x0000000008002dd0       0x16 build/mailbox.o
                0x0000000008002dd0                MailboxServiceInd
 *fill*         0x0000000008002de6        0x2 
 .text.MBX_CopyToSendMailbox
                0x0000000008002de8       0xe8 build/mailbox.o
                0x0000000008002de8                MBX_CopyToSendMailbox
 .text.MBX_MailboxReadInd
                0x0000000008002ed0       0x94 build/mailbox.o
                0x0000000008002ed0                MBX_MailboxReadInd
 .text.MBX_MailboxRepeatReq
                0x0000000008002f64       0x60 build/mailbox.o
                0x0000000008002f64                MBX_MailboxRepeatReq
 .text.MBX_MailboxSendReq
                0x0000000008002fc4       0x88 build/mailbox.o
                0x0000000008002fc4                MBX_MailboxSendReq
 .text.MBX_MailboxWriteInd
                0x000000000800304c       0x70 build/mailbox.o
                0x000000000800304c                MBX_MailboxWriteInd
 .text.MBX_CheckAndCopyMailbox
                0x00000000080030bc      0x108 build/mailbox.o
                0x00000000080030bc                MBX_CheckAndCopyMailbox
 .text.MBX_Main
                0x00000000080031c4       0x4c build/mailbox.o
                0x00000000080031c4                MBX_Main
 .text.OBJ_GetObjectHandle
                0x0000000008003210       0x16 build/objdef.o
                0x0000000008003210                OBJ_GetObjectHandle
 .text.OBJ_GetObjectLength
                0x0000000008003226       0x8e build/objdef.o
                0x0000000008003226                OBJ_GetObjectLength
 .text.OBJ_CopyNumberToString
                0x00000000080032b4       0x48 build/objdef.o
                0x00000000080032b4                OBJ_CopyNumberToString
 .text.OBJ_GetDesc
                0x00000000080032fc       0xd0 build/objdef.o
                0x00000000080032fc                OBJ_GetDesc
 .text.OBJ_GetEntryDesc
                0x00000000080033cc       0x22 build/objdef.o
                0x00000000080033cc                OBJ_GetEntryDesc
 .text.OBJ_GetNoOfObjects
                0x00000000080033ee       0x6a build/objdef.o
                0x00000000080033ee                OBJ_GetNoOfObjects
 .text.OBJ_GetObjectList
                0x0000000008003458       0xbc build/objdef.o
                0x0000000008003458                OBJ_GetObjectList
 .text.OBJ_GetObjDesc
                0x0000000008003514        0x4 build/objdef.o
                0x0000000008003514                OBJ_GetObjDesc
 .text.OBJ_GetEntryOffset
                0x0000000008003518      0x180 build/objdef.o
                0x0000000008003518                OBJ_GetEntryOffset
 .text.CheckSyncTypeValue
                0x0000000008003698      0x12c build/objdef.o
                0x0000000008003698                CheckSyncTypeValue
 .text.OBJ_Read
                0x00000000080037c4      0x464 build/objdef.o
                0x00000000080037c4                OBJ_Read
 .text.OBJ_Write
                0x0000000008003c28      0x548 build/objdef.o
                0x0000000008003c28                OBJ_Write
 .text.SdoUploadSegmentInd
                0x0000000008004170      0x13c build/sdoserv.o
 .text.SdoDownloadSegmentInd
                0x00000000080042ac      0x260 build/sdoserv.o
 .text.SdoRes   0x000000000800450c       0xd8 build/sdoserv.o
                0x000000000800450c                SdoRes
 .text.SDOS_SdoInd
                0x00000000080045e4      0x458 build/sdoserv.o
                0x00000000080045e4                SDOS_SdoInd
 .text.SDOS_SdoRes
                0x0000000008004a3c       0xd4 build/sdoserv.o
                0x0000000008004a3c                SDOS_SdoRes
 .text.SDOS_SdoInfoInd
                0x0000000008004b10      0x2d8 build/sdoserv.o
                0x0000000008004b10                SDOS_SdoInfoInd
 .text.COE_GetObjectDictionary
                0x0000000008004de8        0xc build/coeappl.o
                0x0000000008004de8                COE_GetObjectDictionary
 .text.COE_AddObjectToDic
                0x0000000008004df4       0x74 build/coeappl.o
                0x0000000008004df4                COE_AddObjectToDic
 .text.COE_RemoveDicEntry
                0x0000000008004e68       0x3c build/coeappl.o
                0x0000000008004e68                COE_RemoveDicEntry
 .text.COE_ClearObjDictionary
                0x0000000008004ea4       0x20 build/coeappl.o
                0x0000000008004ea4                COE_ClearObjDictionary
 .text.AddObjectsToObjDictionary
                0x0000000008004ec4       0x24 build/coeappl.o
                0x0000000008004ec4                AddObjectsToObjDictionary
 .text.COE_ObjDictionaryInit
                0x0000000008004ee8       0x28 build/coeappl.o
                0x0000000008004ee8                COE_ObjDictionaryInit
 .text.COE_ObjInit
                0x0000000008004f10       0xa8 build/coeappl.o
                0x0000000008004f10                COE_ObjInit
 .text.COE_Main
                0x0000000008004fb8       0xb0 build/coeappl.o
                0x0000000008004fb8                COE_Main
 .text.PDO_InputMapping
                0x0000000008005068       0x28 build/ecatappl.o
                0x0000000008005068                PDO_InputMapping
 .text.PDO_OutputMapping
                0x0000000008005090       0x28 build/ecatappl.o
                0x0000000008005090                PDO_OutputMapping
 .text.ECAT_CheckTimer
                0x00000000080050b8       0x3c build/ecatappl.o
                0x00000000080050b8                ECAT_CheckTimer
 .text.HandleBusCycleCalculation
                0x00000000080050f4       0x9c build/ecatappl.o
                0x00000000080050f4                HandleBusCycleCalculation
 .text.Sync1_Isr
                0x0000000008005190       0x40 build/ecatappl.o
                0x0000000008005190                Sync1_Isr
 .text.MainInit
                0x00000000080051d0       0x40 build/ecatappl.o
                0x00000000080051d0                MainInit
 .text.ECAT_Application
                0x0000000008005210        0x8 build/ecatappl.o
                0x0000000008005210                ECAT_Application
 .text.PDI_Isr  0x0000000008005218      0x118 build/ecatappl.o
                0x0000000008005218                PDI_Isr
 .text.Sync0_Isr
                0x0000000008005330      0x108 build/ecatappl.o
                0x0000000008005330                Sync0_Isr
 .text.MainLoop
                0x0000000008005438       0xa0 build/ecatappl.o
                0x0000000008005438                MainLoop
 .text.APPL_AckErrorInd
                0x00000000080054d8        0x2 build/el9800appl.o
                0x00000000080054d8                APPL_AckErrorInd
 .text.APPL_StartMailboxHandler
                0x00000000080054da        0x4 build/el9800appl.o
                0x00000000080054da                APPL_StartMailboxHandler
 .text.APPL_StopMailboxHandler
                0x00000000080054de        0x4 build/el9800appl.o
                0x00000000080054de                APPL_StopMailboxHandler
 .text.APPL_StartInputHandler
                0x00000000080054e2        0x4 build/el9800appl.o
                0x00000000080054e2                APPL_StartInputHandler
 .text.APPL_StopInputHandler
                0x00000000080054e6        0x4 build/el9800appl.o
                0x00000000080054e6                APPL_StopInputHandler
 .text.APPL_StartOutputHandler
                0x00000000080054ea        0x4 build/el9800appl.o
                0x00000000080054ea                APPL_StartOutputHandler
 *fill*         0x00000000080054ee        0x2 
 .text.APPL_StopOutputHandler
                0x00000000080054f0       0x8c build/el9800appl.o
                0x00000000080054f0                APPL_StopOutputHandler
 .text.APPL_GenerateMapping
                0x000000000800557c       0xec build/el9800appl.o
                0x000000000800557c                APPL_GenerateMapping
 .text.APPL_InputMapping
                0x0000000008005668      0x104 build/el9800appl.o
                0x0000000008005668                APPL_InputMapping
 .text.APPL_OutputMapping
                0x000000000800576c       0xf4 build/el9800appl.o
                0x000000000800576c                APPL_OutputMapping
 .text.APPL_Application
                0x0000000008005860      0x1f4 build/el9800appl.o
                0x0000000008005860                APPL_Application
 .text.ReadObject0x1802
                0x0000000008005a54       0x68 build/el9800appl.o
                0x0000000008005a54                ReadObject0x1802
 .text.main     0x0000000008005abc       0x28 build/el9800appl.o
                0x0000000008005abc                main
 .text.AddressingEsc
                0x0000000008005ae4       0x30 build/el9800hw.o
 .text.ISR_AddressingEsc
                0x0000000008005b14       0x30 build/el9800hw.o
 .text.GPIO_Config
                0x0000000008005b44       0x90 build/el9800hw.o
                0x0000000008005b44                GPIO_Config
 .text.HW_Release
                0x0000000008005bd4        0x2 build/el9800hw.o
                0x0000000008005bd4                HW_Release
 *fill*         0x0000000008005bd6        0x2 
 .text.HW_EscRead
                0x0000000008005bd8       0x3c build/el9800hw.o
                0x0000000008005bd8                HW_EscRead
 .text.HW_EscReadIsr
                0x0000000008005c14       0x3c build/el9800hw.o
                0x0000000008005c14                HW_EscReadIsr
 .text.GetInterruptRegister
                0x0000000008005c50       0x30 build/el9800hw.o
 .text.HW_GetALEventRegister
                0x0000000008005c80       0x10 build/el9800hw.o
                0x0000000008005c80                HW_GetALEventRegister
 .text.ISR_GetInterruptRegister
                0x0000000008005c90       0x34 build/el9800hw.o
 .text.HW_GetALEventRegister_Isr
                0x0000000008005cc4       0x10 build/el9800hw.o
                0x0000000008005cc4                HW_GetALEventRegister_Isr
 .text.HW_EscWrite
                0x0000000008005cd4       0x40 build/el9800hw.o
                0x0000000008005cd4                HW_EscWrite
 .text.HW_Init  0x0000000008005d14       0x84 build/el9800hw.o
                0x0000000008005d14                HW_Init
 .text.HW_EscWriteIsr
                0x0000000008005d98       0x3c build/el9800hw.o
                0x0000000008005d98                HW_EscWriteIsr
 .text.EXTI3_IRQHandler
                0x0000000008005dd4        0xe build/el9800hw.o
                0x0000000008005dd4                EXTI3_IRQHandler
 .text.EXTI1_IRQHandler
                0x0000000008005de2        0xe build/el9800hw.o
                0x0000000008005de2                EXTI1_IRQHandler
 .text.EXTI0_IRQHandler
                0x0000000008005df0        0xe build/el9800hw.o
                0x0000000008005df0                EXTI0_IRQHandler
 *fill*         0x0000000008005dfe        0x2 
 .text.TIM2_IRQHandler
                0x0000000008005e00       0x24 build/el9800hw.o
                0x0000000008005e00                TIM2_IRQHandler
 .text.Reset_Handler
                0x0000000008005e24       0x50 build/startup_stm32f405xx.o
                0x0000000008005e24                Reset_Handler
 .text.Default_Handler
                0x0000000008005e74        0x2 build/startup_stm32f405xx.o
                0x0000000008005e74                RTC_Alarm_IRQHandler
                0x0000000008005e74                HASH_RNG_IRQHandler
                0x0000000008005e74                EXTI2_IRQHandler
                0x0000000008005e74                TIM8_CC_IRQHandler
                0x0000000008005e74                TIM1_CC_IRQHandler
                0x0000000008005e74                DMA2_Stream5_IRQHandler
                0x0000000008005e74                DMA1_Stream5_IRQHandler
                0x0000000008005e74                PVD_IRQHandler
                0x0000000008005e74                SDIO_IRQHandler
                0x0000000008005e74                TAMP_STAMP_IRQHandler
                0x0000000008005e74                CAN2_RX1_IRQHandler
                0x0000000008005e74                TIM8_TRG_COM_TIM14_IRQHandler
                0x0000000008005e74                TIM1_UP_TIM10_IRQHandler
                0x0000000008005e74                TIM8_UP_TIM13_IRQHandler
                0x0000000008005e74                I2C3_ER_IRQHandler
                0x0000000008005e74                I2C2_EV_IRQHandler
                0x0000000008005e74                DMA1_Stream2_IRQHandler
                0x0000000008005e74                FPU_IRQHandler
                0x0000000008005e74                OTG_HS_WKUP_IRQHandler
                0x0000000008005e74                CAN2_SCE_IRQHandler
                0x0000000008005e74                DMA2_Stream2_IRQHandler
                0x0000000008005e74                SPI1_IRQHandler
                0x0000000008005e74                TIM6_DAC_IRQHandler
                0x0000000008005e74                TIM1_BRK_TIM9_IRQHandler
                0x0000000008005e74                DMA2_Stream3_IRQHandler
                0x0000000008005e74                USART6_IRQHandler
                0x0000000008005e74                USART3_IRQHandler
                0x0000000008005e74                CAN1_RX1_IRQHandler
                0x0000000008005e74                UART5_IRQHandler
                0x0000000008005e74                DMA2_Stream0_IRQHandler
                0x0000000008005e74                TIM4_IRQHandler
                0x0000000008005e74                I2C1_EV_IRQHandler
                0x0000000008005e74                DMA1_Stream6_IRQHandler
                0x0000000008005e74                DMA1_Stream1_IRQHandler
                0x0000000008005e74                UART4_IRQHandler
                0x0000000008005e74                TIM3_IRQHandler
                0x0000000008005e74                RCC_IRQHandler
                0x0000000008005e74                TIM8_BRK_TIM12_IRQHandler
                0x0000000008005e74                Default_Handler
                0x0000000008005e74                EXTI15_10_IRQHandler
                0x0000000008005e74                ADC_IRQHandler
                0x0000000008005e74                DMA1_Stream7_IRQHandler
                0x0000000008005e74                TIM7_IRQHandler
                0x0000000008005e74                CAN2_TX_IRQHandler
                0x0000000008005e74                TIM5_IRQHandler
                0x0000000008005e74                DMA2_Stream7_IRQHandler
                0x0000000008005e74                I2C3_EV_IRQHandler
                0x0000000008005e74                EXTI9_5_IRQHandler
                0x0000000008005e74                RTC_WKUP_IRQHandler
                0x0000000008005e74                SPI2_IRQHandler
                0x0000000008005e74                OTG_HS_EP1_IN_IRQHandler
                0x0000000008005e74                DMA1_Stream0_IRQHandler
                0x0000000008005e74                CAN1_TX_IRQHandler
                0x0000000008005e74                EXTI4_IRQHandler
                0x0000000008005e74                FSMC_IRQHandler
                0x0000000008005e74                OTG_HS_EP1_OUT_IRQHandler
                0x0000000008005e74                WWDG_IRQHandler
                0x0000000008005e74                OTG_FS_WKUP_IRQHandler
                0x0000000008005e74                TIM1_TRG_COM_TIM11_IRQHandler
                0x0000000008005e74                OTG_HS_IRQHandler
                0x0000000008005e74                USART2_IRQHandler
                0x0000000008005e74                I2C2_ER_IRQHandler
                0x0000000008005e74                DMA2_Stream1_IRQHandler
                0x0000000008005e74                CAN1_SCE_IRQHandler
                0x0000000008005e74                FLASH_IRQHandler
                0x0000000008005e74                DMA2_Stream4_IRQHandler
                0x0000000008005e74                USART1_IRQHandler
                0x0000000008005e74                OTG_FS_IRQHandler
                0x0000000008005e74                SPI3_IRQHandler
                0x0000000008005e74                DMA1_Stream4_IRQHandler
                0x0000000008005e74                I2C1_ER_IRQHandler
                0x0000000008005e74                DMA2_Stream6_IRQHandler
                0x0000000008005e74                DMA1_Stream3_IRQHandler
 *fill*         0x0000000008005e76        0x2 
 .text.__libc_init_array
                0x0000000008005e78       0x48 /usr/share/gcc-arm-none-eabi-10.3-2021.10/bin/../lib/gcc/arm-none-eabi/10.3.1/../../../../arm-none-eabi/lib/thumb/v7e-m+fp/hard/libc_nano.a(lib_a-init.o)
                0x0000000008005e78                __libc_init_array
 .text.malloc   0x0000000008005ec0       0x10 /usr/share/gcc-arm-none-eabi-10.3-2021.10/bin/../lib/gcc/arm-none-eabi/10.3.1/../../../../arm-none-eabi/lib/thumb/v7e-m+fp/hard/libc_nano.a(lib_a-malloc.o)
                0x0000000008005ec0                malloc
 .text.free     0x0000000008005ed0       0x10 /usr/share/gcc-arm-none-eabi-10.3-2021.10/bin/../lib/gcc/arm-none-eabi/10.3.1/../../../../arm-none-eabi/lib/thumb/v7e-m+fp/hard/libc_nano.a(lib_a-malloc.o)
                0x0000000008005ed0                free
 .text.memcpy   0x0000000008005ee0       0x1c /usr/share/gcc-arm-none-eabi-10.3-2021.10/bin/../lib/gcc/arm-none-eabi/10.3.1/../../../../arm-none-eabi/lib/thumb/v7e-m+fp/hard/libc_nano.a(lib_a-memcpy-stub.o)
                0x0000000008005ee0                memcpy
 .text.memset   0x0000000008005efc       0x10 /usr/share/gcc-arm-none-eabi-10.3-2021.10/bin/../lib/gcc/arm-none-eabi/10.3.1/../../../../arm-none-eabi/lib/thumb/v7e-m+fp/hard/libc_nano.a(lib_a-memset.o)
                0x0000000008005efc                memset
 .text._free_r  0x0000000008005f0c       0x98 /usr/share/gcc-arm-none-eabi-10.3-2021.10/bin/../lib/gcc/arm-none-eabi/10.3.1/../../../../arm-none-eabi/lib/thumb/v7e-m+fp/hard/libc_nano.a(lib_a-nano-freer.o)
                0x0000000008005f0c                _free_r
 .text.sbrk_aligned
                0x0000000008005fa4       0x40 /usr/share/gcc-arm-none-eabi-10.3-2021.10/bin/../lib/gcc/arm-none-eabi/10.3.1/../../../../arm-none-eabi/lib/thumb/v7e-m+fp/hard/libc_nano.a(lib_a-nano-mallocr.o)
 .text._malloc_r
                0x0000000008005fe4       0xe8 /usr/share/gcc-arm-none-eabi-10.3-2021.10/bin/../lib/gcc/arm-none-eabi/10.3.1/../../../../arm-none-eabi/lib/thumb/v7e-m+fp/hard/libc_nano.a(lib_a-nano-mallocr.o)
                0x0000000008005fe4                _malloc_r
 .text._sbrk_r  0x00000000080060cc       0x20 /usr/share/gcc-arm-none-eabi-10.3-2021.10/bin/../lib/gcc/arm-none-eabi/10.3.1/../../../../arm-none-eabi/lib/thumb/v7e-m+fp/hard/libc_nano.a(lib_a-sbrkr.o)
                0x00000000080060cc                _sbrk_r
 .text.__malloc_lock
                0x00000000080060ec        0xc /usr/share/gcc-arm-none-eabi-10.3-2021.10/bin/../lib/gcc/arm-none-eabi/10.3.1/../../../../arm-none-eabi/lib/thumb/v7e-m+fp/hard/libc_nano.a(lib_a-mlock.o)
                0x00000000080060ec                __malloc_lock
 .text.__malloc_unlock
                0x00000000080060f8        0xc /usr/share/gcc-arm-none-eabi-10.3-2021.10/bin/../lib/gcc/arm-none-eabi/10.3.1/../../../../arm-none-eabi/lib/thumb/v7e-m+fp/hard/libc_nano.a(lib_a-mlock.o)
                0x00000000080060f8                __malloc_unlock
 .text.__retarget_lock_acquire_recursive
                0x0000000008006104        0x2 /usr/share/gcc-arm-none-eabi-10.3-2021.10/bin/../lib/gcc/arm-none-eabi/10.3.1/../../../../arm-none-eabi/lib/thumb/v7e-m+fp/hard/libc_nano.a(lib_a-lock.o)
                0x0000000008006104                __retarget_lock_acquire_recursive
 .text.__retarget_lock_release_recursive
                0x0000000008006106        0x2 /usr/share/gcc-arm-none-eabi-10.3-2021.10/bin/../lib/gcc/arm-none-eabi/10.3.1/../../../../arm-none-eabi/lib/thumb/v7e-m+fp/hard/libc_nano.a(lib_a-lock.o)
                0x0000000008006106                __retarget_lock_release_recursive
 .text._sbrk    0x0000000008006108       0x1c /usr/share/gcc-arm-none-eabi-10.3-2021.10/bin/../lib/gcc/arm-none-eabi/10.3.1/../../../../arm-none-eabi/lib/thumb/v7e-m+fp/hard/libnosys.a(sbrk.o)
                0x0000000008006108                _sbrk
 *(.glue_7)
 .glue_7        0x0000000008006124        0x0 linker stubs
 *(.glue_7t)
 .glue_7t       0x0000000008006124        0x0 linker stubs
 *(.eh_frame)
 .eh_frame      0x0000000008006124        0x0 /usr/share/gcc-arm-none-eabi-10.3-2021.10/bin/../lib/gcc/arm-none-eabi/10.3.1/thumb/v7e-m+fp/hard/crtbegin.o
 *(.init)
 .init          0x0000000008006124        0x4 /usr/share/gcc-arm-none-eabi-10.3-2021.10/bin/../lib/gcc/arm-none-eabi/10.3.1/thumb/v7e-m+fp/hard/crti.o
                0x0000000008006124                _init
 .init          0x0000000008006128        0x8 /usr/share/gcc-arm-none-eabi-10.3-2021.10/bin/../lib/gcc/arm-none-eabi/10.3.1/thumb/v7e-m+fp/hard/crtn.o
 *(.fini)
 .fini          0x0000000008006130        0x4 /usr/share/gcc-arm-none-eabi-10.3-2021.10/bin/../lib/gcc/arm-none-eabi/10.3.1/thumb/v7e-m+fp/hard/crti.o
                0x0000000008006130                _fini
 .fini          0x0000000008006134        0x8 /usr/share/gcc-arm-none-eabi-10.3-2021.10/bin/../lib/gcc/arm-none-eabi/10.3.1/thumb/v7e-m+fp/hard/crtn.o
                0x000000000800613c                . = ALIGN (0x4)
                0x000000000800613c                _etext = .

.vfp11_veneer   0x000000000800613c        0x0
 .vfp11_veneer  0x000000000800613c        0x0 linker stubs

.v4_bx          0x000000000800613c        0x0
 .v4_bx         0x000000000800613c        0x0 linker stubs

.iplt           0x000000000800613c        0x0
 .iplt          0x000000000800613c        0x0 /usr/share/gcc-arm-none-eabi-10.3-2021.10/bin/../lib/gcc/arm-none-eabi/10.3.1/thumb/v7e-m+fp/hard/crtbegin.o

.rodata         0x000000000800613c      0xe88
                0x000000000800613c                . = ALIGN (0x4)
 *(.rodata)
 *(.rodata*)
 .rodata.cBitMask
                0x000000000800613c       0x20 build/objdef.o
                0x000000000800613c                cBitMask
 .rodata.cAbortCode
                0x000000000800615c       0x78 build/sdoserv.o
                0x000000000800615c                cAbortCode
 .rodata.aName0x1000
                0x00000000080061d4        0xc build/coeappl.o
                0x00000000080061d4                aName0x1000
 .rodata.aName0x1001
                0x00000000080061e0        0xf build/coeappl.o
                0x00000000080061e0                aName0x1001
 *fill*         0x00000000080061ef        0x1 
 .rodata.aName0x1008
                0x00000000080061f0        0xc build/coeappl.o
                0x00000000080061f0                aName0x1008
 .rodata.aName0x1009
                0x00000000080061fc       0x11 build/coeappl.o
                0x00000000080061fc                aName0x1009
 *fill*         0x000000000800620d        0x3 
 .rodata.aName0x100A
                0x0000000008006210       0x11 build/coeappl.o
                0x0000000008006210                aName0x100A
 *fill*         0x0000000008006221        0x3 
 .rodata.aName0x1018
                0x0000000008006224       0x39 build/coeappl.o
                0x0000000008006224                aName0x1018
 *fill*         0x000000000800625d        0x3 
 .rodata.aName0x10F1
                0x0000000008006260       0x3f build/coeappl.o
                0x0000000008006260                aName0x10F1
 *fill*         0x000000000800629f        0x1 
 .rodata.aName0x1601
                0x00000000080062a0        0xf build/coeappl.o
                0x00000000080062a0                aName0x1601
 *fill*         0x00000000080062af        0x1 
 .rodata.aName0x1802
                0x00000000080062b0       0x3f build/coeappl.o
                0x00000000080062b0                aName0x1802
 *fill*         0x00000000080062ef        0x1 
 .rodata.aName0x1A00
                0x00000000080062f0        0xf build/coeappl.o
                0x00000000080062f0                aName0x1A00
 *fill*         0x00000000080062ff        0x1 
 .rodata.aName0x1A02
                0x0000000008006300        0xf build/coeappl.o
                0x0000000008006300                aName0x1A02
 *fill*         0x000000000800630f        0x1 
 .rodata.aName0x1C00
                0x0000000008006310       0x12 build/coeappl.o
                0x0000000008006310                aName0x1C00
 *fill*         0x0000000008006322        0x2 
 .rodata.aName0x1C12
                0x0000000008006324        0xd build/coeappl.o
                0x0000000008006324                aName0x1C12
 *fill*         0x0000000008006331        0x3 
 .rodata.aName0x1C13
                0x0000000008006334        0xd build/coeappl.o
                0x0000000008006334                aName0x1C13
 *fill*         0x0000000008006341        0x3 
 .rodata.aName0x1C32
                0x0000000008006344      0x100 build/coeappl.o
                0x0000000008006344                aName0x1C32
 .rodata.aName0x1C33
                0x0000000008006444       0xff build/coeappl.o
                0x0000000008006444                aName0x1C33
 *fill*         0x0000000008006543        0x1 
 .rodata.aName0x6000
                0x0000000008006544       0x55 build/coeappl.o
                0x0000000008006544                aName0x6000
 *fill*         0x0000000008006599        0x3 
 .rodata.aName0x6020
                0x000000000800659c      0x192 build/coeappl.o
                0x000000000800659c                aName0x6020
 *fill*         0x000000000800672e        0x2 
 .rodata.aName0x7010
                0x0000000008006730      0x116 build/coeappl.o
                0x0000000008006730                aName0x7010
 *fill*         0x0000000008006846        0x2 
 .rodata.aName0x8020
                0x0000000008006848       0x73 build/coeappl.o
                0x0000000008006848                aName0x8020
 *fill*         0x00000000080068bb        0x1 
 .rodata.aName0xF000
                0x00000000080068bc       0x49 build/coeappl.o
                0x00000000080068bc                aName0xF000
 *fill*         0x0000000008006905        0x3 
 .rodata.aName0xF010
                0x0000000008006908       0x14 build/coeappl.o
                0x0000000008006908                aName0xF010
 .rodata.asEntryDesc0x0800
                0x000000000800691c       0x12 build/coeappl.o
                0x000000000800691c                asEntryDesc0x0800
 *fill*         0x000000000800692e        0x2 
 .rodata.asEntryDesc0x1018
                0x0000000008006930       0x1e build/coeappl.o
                0x0000000008006930                asEntryDesc0x1018
 *fill*         0x000000000800694e        0x2 
 .rodata.asEntryDesc0x10F1
                0x0000000008006950       0x12 build/coeappl.o
                0x0000000008006950                asEntryDesc0x10F1
 *fill*         0x0000000008006962        0x2 
 .rodata.asEntryDesc0x1601
                0x0000000008006964       0xd8 build/coeappl.o
                0x0000000008006964                asEntryDesc0x1601
 .rodata.asEntryDesc0x1802
                0x0000000008006a3c       0x3c build/coeappl.o
                0x0000000008006a3c                asEntryDesc0x1802
 .rodata.asEntryDesc0x1A00
                0x0000000008006a78       0x3c build/coeappl.o
                0x0000000008006a78                asEntryDesc0x1A00
 .rodata.asEntryDesc0x1A02
                0x0000000008006ab4      0x108 build/coeappl.o
                0x0000000008006ab4                asEntryDesc0x1A02
 .rodata.asEntryDesc0x1C00
                0x0000000008006bbc        0xc build/coeappl.o
                0x0000000008006bbc                asEntryDesc0x1C00
 .rodata.asEntryDesc0x1C3x
                0x0000000008006bc8       0xc6 build/coeappl.o
                0x0000000008006bc8                asEntryDesc0x1C3x
 *fill*         0x0000000008006c8e        0x2 
 .rodata.asEntryDesc0x6000
                0x0000000008006c90       0x3c build/coeappl.o
                0x0000000008006c90                asEntryDesc0x6000
 .rodata.asEntryDesc0x6020
                0x0000000008006ccc      0x13e build/coeappl.o
                0x0000000008006ccc                asEntryDesc0x6020
 *fill*         0x0000000008006e0a        0x2 
 .rodata.asEntryDesc0x7010
                0x0000000008006e0c       0xd8 build/coeappl.o
                0x0000000008006e0c                asEntryDesc0x7010
 .rodata.asEntryDesc0x8020
                0x0000000008006ee4       0x7e build/coeappl.o
                0x0000000008006ee4                asEntryDesc0x8020
 *fill*         0x0000000008006f62        0x2 
 .rodata.asEntryDesc0xF000
                0x0000000008006f64       0x12 build/coeappl.o
                0x0000000008006f64                asEntryDesc0xF000
 *fill*         0x0000000008006f76        0x2 
 .rodata.asEntryDesc0xF010
                0x0000000008006f78       0x18 build/coeappl.o
                0x0000000008006f78                asEntryDesc0xF010
 .rodata.asPDOAssignEntryDesc
                0x0000000008006f90        0xc build/coeappl.o
                0x0000000008006f90                asPDOAssignEntryDesc
 .rodata.sEntryDesc0x1000
                0x0000000008006f9c        0x6 build/coeappl.o
                0x0000000008006f9c                sEntryDesc0x1000
 *fill*         0x0000000008006fa2        0x2 
 .rodata.sEntryDesc0x1001
                0x0000000008006fa4        0x6 build/coeappl.o
                0x0000000008006fa4                sEntryDesc0x1001
 *fill*         0x0000000008006faa        0x2 
 .rodata.sEntryDesc0x1008
                0x0000000008006fac        0x6 build/coeappl.o
                0x0000000008006fac                sEntryDesc0x1008
 *fill*         0x0000000008006fb2        0x2 
 .rodata.sEntryDesc0x1009
                0x0000000008006fb4        0x6 build/coeappl.o
                0x0000000008006fb4                sEntryDesc0x1009
 *fill*         0x0000000008006fba        0x2 
 .rodata.sEntryDesc0x100A
                0x0000000008006fbc        0x6 build/coeappl.o
                0x0000000008006fbc                sEntryDesc0x100A
                0x0000000008006fc4                . = ALIGN (0x4)
 *fill*         0x0000000008006fc2        0x2 

.rel.dyn        0x0000000008006fc4        0x0
 .rel.iplt      0x0000000008006fc4        0x0 /usr/share/gcc-arm-none-eabi-10.3-2021.10/bin/../lib/gcc/arm-none-eabi/10.3.1/thumb/v7e-m+fp/hard/crtbegin.o

.ARM.extab
 *(.ARM.extab* .gnu.linkonce.armextab.*)

.ARM            0x0000000008006fc4        0x0
                0x0000000008006fc4                __exidx_start = .
 *(.ARM.exidx*)
                0x0000000008006fc4                __exidx_end = .

.preinit_array  0x0000000008006fc4        0x0
                0x0000000008006fc4                PROVIDE (__preinit_array_start = .)
 *(.preinit_array*)
                0x0000000008006fc4                PROVIDE (__preinit_array_end = .)

.init_array     0x0000000008006fc4        0x4
                0x0000000008006fc4                PROVIDE (__init_array_start = .)
 *(SORT_BY_NAME(.init_array.*))
 *(.init_array*)
 .init_array    0x0000000008006fc4        0x4 /usr/share/gcc-arm-none-eabi-10.3-2021.10/bin/../lib/gcc/arm-none-eabi/10.3.1/thumb/v7e-m+fp/hard/crtbegin.o
                0x0000000008006fc8                PROVIDE (__init_array_end = .)

.fini_array     0x0000000008006fc8        0x4
                [!provide]                        PROVIDE (__fini_array_start = .)
 *(SORT_BY_NAME(.fini_array.*))
 *(.fini_array*)
 .fini_array    0x0000000008006fc8        0x4 /usr/share/gcc-arm-none-eabi-10.3-2021.10/bin/../lib/gcc/arm-none-eabi/10.3.1/thumb/v7e-m+fp/hard/crtbegin.o
                [!provide]                        PROVIDE (__fini_array_end = .)
                0x0000000008006fcc                _sidata = LOADADDR (.data)

.data           0x0000000020000000      0x6e4 load address 0x0000000008006fcc
                0x0000000020000000                . = ALIGN (0x4)
                0x0000000020000000                _sdata = .
 *(.data)
 *(.data*)
 .data.aSubindexDesc
                0x0000000020000000        0xd build/objdef.o
                0x0000000020000000                aSubindexDesc
 *fill*         0x000000002000000d        0x3 
 .data.sErrorSettings
                0x0000000020000010        0xc build/objdef.o
                0x0000000020000010                sErrorSettings
 .data.ApplicationObjDic
                0x000000002000001c      0x230 build/coeappl.o
                0x000000002000001c                ApplicationObjDic
 .data.GenObjDic
                0x000000002000024c      0x1b8 build/coeappl.o
                0x000000002000024c                GenObjDic
 .data.acDevicename
                0x0000000020000404        0xb build/coeappl.o
                0x0000000020000404                acDevicename
 *fill*         0x000000002000040f        0x1 
 .data.acHardwareversion
                0x0000000020000410        0x5 build/coeappl.o
                0x0000000020000410                acHardwareversion
 *fill*         0x0000000020000415        0x3 
 .data.acSoftwareversion
                0x0000000020000418        0x5 build/coeappl.o
                0x0000000020000418                acSoftwareversion
 *fill*         0x000000002000041d        0x3 
 .data.apEnum0800
                0x0000000020000420        0x8 build/coeappl.o
                0x0000000020000420                apEnum0800
 .data.sEnum0800_Value00
                0x0000000020000428       0x18 build/coeappl.o
                0x0000000020000428                sEnum0800_Value00
 .data.sEnum0800_Value01
                0x0000000020000440       0x1a build/coeappl.o
                0x0000000020000440                sEnum0800_Value01
 *fill*         0x000000002000045a        0x2 
 .data.sIdentity
                0x000000002000045c       0x14 build/coeappl.o
                0x000000002000045c                sIdentity
 .data.sSyncmanagertype
                0x0000000020000470        0x6 build/coeappl.o
                0x0000000020000470                sSyncmanagertype
 *fill*         0x0000000020000476        0x2 
 .data.u32Devicetype
                0x0000000020000478        0x4 build/coeappl.o
                0x0000000020000478                u32Devicetype
 .data.TxPDO1802Subindex0
                0x000000002000047c        0x2 build/el9800appl.o
                0x000000002000047c                TxPDO1802Subindex0
 *fill*         0x000000002000047e        0x2 
 .data.sAIInputs
                0x0000000020000480       0x3c build/el9800appl.o
                0x0000000020000480                sAIInputs
 .data.sAISettings
                0x00000000200004bc       0x10 build/el9800appl.o
                0x00000000200004bc                sAISettings
 .data.sAITxPDOMap
                0x00000000200004cc       0xb0 build/el9800appl.o
                0x00000000200004cc                sAITxPDOMap
 .data.sDIInputs
                0x000000002000057c        0x4 build/el9800appl.o
                0x000000002000057c                sDIInputs
 .data.sDITxPDOMap
                0x0000000020000580       0x28 build/el9800appl.o
                0x0000000020000580                sDITxPDOMap
 .data.sDOOutputs
                0x00000000200005a8       0x22 build/el9800appl.o
                0x00000000200005a8                sDOOutputs
 *fill*         0x00000000200005ca        0x2 
 .data.sDORxPDOMap
                0x00000000200005cc       0x90 build/el9800appl.o
                0x00000000200005cc                sDORxPDOMap
 .data.sModulardeviceprofile
                0x000000002000065c        0x6 build/el9800appl.o
                0x000000002000065c                sModulardeviceprofile
 *fill*         0x0000000020000662        0x2 
 .data.sModulelist
                0x0000000020000664       0x10 build/el9800appl.o
                0x0000000020000664                sModulelist
 .data.sRxPDOassign
                0x0000000020000674        0x4 build/el9800appl.o
                0x0000000020000674                sRxPDOassign
 .data.sTxPDOassign
                0x0000000020000678        0x6 build/el9800appl.o
                0x0000000020000678                sTxPDOassign
 *fill*         0x000000002000067e        0x2 
 .data._impure_ptr
                0x0000000020000680        0x4 /usr/share/gcc-arm-none-eabi-10.3-2021.10/bin/../lib/gcc/arm-none-eabi/10.3.1/../../../../arm-none-eabi/lib/thumb/v7e-m+fp/hard/libc_nano.a(lib_a-impure.o)
                0x0000000020000680                _impure_ptr
 .data.impure_data
                0x0000000020000684       0x60 /usr/share/gcc-arm-none-eabi-10.3-2021.10/bin/../lib/gcc/arm-none-eabi/10.3.1/../../../../arm-none-eabi/lib/thumb/v7e-m+fp/hard/libc_nano.a(lib_a-impure.o)
                0x00000000200006e4                . = ALIGN (0x4)
                0x00000000200006e4                _edata = .
                0x00000000080076b0                _siccmram = LOADADDR (.ccmram)

.igot.plt       0x00000000200006e4        0x0 load address 0x00000000080076b0
 .igot.plt      0x00000000200006e4        0x0 /usr/share/gcc-arm-none-eabi-10.3-2021.10/bin/../lib/gcc/arm-none-eabi/10.3.1/thumb/v7e-m+fp/hard/crtbegin.o

.ccmram         0x0000000010000000        0x0 load address 0x00000000080076b0
                0x0000000010000000                . = ALIGN (0x4)
                0x0000000010000000                _sccmram = .
 *(.ccmram)
 *(.ccmram*)
                0x0000000010000000                . = ALIGN (0x4)
                0x0000000010000000                _eccmram = .
                0x0000000010000000                . = ALIGN (0x4)

.bss            0x00000000200006e4      0x4cc
                0x00000000200006e4                _sbss = .
                0x00000000200006e4                __bss_start__ = _sbss
 *(.bss)
 .bss           0x00000000200006e4       0x1c /usr/share/gcc-arm-none-eabi-10.3-2021.10/bin/../lib/gcc/arm-none-eabi/10.3.1/thumb/v7e-m+fp/hard/crtbegin.o
 *(.bss*)
 .bss.Can1_RxMessage
                0x0000000020000700       0x14 build/bsp_can.o
                0x0000000020000700                Can1_RxMessage
 .bss.Can1_TxMessage
                0x0000000020000714       0x14 build/bsp_can.o
                0x0000000020000714                Can1_TxMessage
 .bss.Can2_RxMessage
                0x0000000020000728       0x14 build/bsp_can.o
                0x0000000020000728                Can2_RxMessage
 .bss.Can2_TxMessage
                0x000000002000073c       0x14 build/bsp_can.o
                0x000000002000073c                Can2_TxMessage
 .bss.pCoeSendStored
                0x0000000020000750        0x4 build/ecatcoe.o
                0x0000000020000750                pCoeSendStored
 .bss.EcatWdValue
                0x0000000020000754        0x2 build/ecatslv.o
                0x0000000020000754                EcatWdValue
 .bss.EepromLoaded
                0x0000000020000756        0x1 build/ecatslv.o
                0x0000000020000756                EepromLoaded
 *fill*         0x0000000020000757        0x1 
 .bss.EsmTimeoutCounter
                0x0000000020000758        0x2 build/ecatslv.o
                0x0000000020000758                EsmTimeoutCounter
 .bss.LatchInputSync0Counter
                0x000000002000075a        0x2 build/ecatslv.o
                0x000000002000075a                LatchInputSync0Counter
 .bss.LatchInputSync0Value
                0x000000002000075c        0x2 build/ecatslv.o
                0x000000002000075c                LatchInputSync0Value
 .bss.SMActivate
                0x000000002000075e        0x2 build/ecatslv.o
                0x000000002000075e                SMActivate
 .bss.Sync0WdCounter
                0x0000000020000760        0x2 build/ecatslv.o
                0x0000000020000760                Sync0WdCounter
 .bss.Sync0WdValue
                0x0000000020000762        0x2 build/ecatslv.o
                0x0000000020000762                Sync0WdValue
 .bss.Sync1WdCounter
                0x0000000020000764        0x2 build/ecatslv.o
                0x0000000020000764                Sync1WdCounter
 .bss.Sync1WdValue
                0x0000000020000766        0x2 build/ecatslv.o
                0x0000000020000766                Sync1WdValue
 .bss.SyncManInfo
                0x0000000020000768        0x8 build/ecatslv.o
                0x0000000020000768                SyncManInfo
 .bss.b3BufferMode
                0x0000000020000770        0x1 build/ecatslv.o
                0x0000000020000770                b3BufferMode
 .bss.bApplEsmPending
                0x0000000020000771        0x1 build/ecatslv.o
                0x0000000020000771                bApplEsmPending
 .bss.bDcRunning
                0x0000000020000772        0x1 build/ecatslv.o
                0x0000000020000772                bDcRunning
 .bss.bDcSyncActive
                0x0000000020000773        0x1 build/ecatslv.o
                0x0000000020000773                bDcSyncActive
 .bss.bEcatFirstOutputsReceived
                0x0000000020000774        0x1 build/ecatslv.o
                0x0000000020000774                bEcatFirstOutputsReceived
 .bss.bEcatInputUpdateRunning
                0x0000000020000775        0x1 build/ecatslv.o
                0x0000000020000775                bEcatInputUpdateRunning
 .bss.bEcatOutputUpdateRunning
                0x0000000020000776        0x1 build/ecatslv.o
                0x0000000020000776                bEcatOutputUpdateRunning
 .bss.bEcatWaitForAlControlRes
                0x0000000020000777        0x1 build/ecatslv.o
                0x0000000020000777                bEcatWaitForAlControlRes
 .bss.bEscIntEnabled
                0x0000000020000778        0x1 build/ecatslv.o
                0x0000000020000778                bEscIntEnabled
 .bss.bLocalErrorFlag
                0x0000000020000779        0x1 build/ecatslv.o
                0x0000000020000779                bLocalErrorFlag
 .bss.bSmSyncSequenceValid
                0x000000002000077a        0x1 build/ecatslv.o
                0x000000002000077a                bSmSyncSequenceValid
 .bss.bWdTrigger
                0x000000002000077b        0x1 build/ecatslv.o
                0x000000002000077b                bWdTrigger
 .bss.i16WaitForPllRunningCnt
                0x000000002000077c        0x2 build/ecatslv.o
                0x000000002000077c                i16WaitForPllRunningCnt
 .bss.i16WaitForPllRunningTimeout
                0x000000002000077e        0x2 build/ecatslv.o
                0x000000002000077e                i16WaitForPllRunningTimeout
 .bss.nAlStatus
                0x0000000020000780        0x1 build/ecatslv.o
                0x0000000020000780                nAlStatus
 *fill*         0x0000000020000781        0x1 
 .bss.nEcatStateTrans
                0x0000000020000782        0x2 build/ecatslv.o
                0x0000000020000782                nEcatStateTrans
 .bss.nEscAddrInputData
                0x0000000020000784        0x2 build/ecatslv.o
                0x0000000020000784                nEscAddrInputData
 .bss.nEscAddrOutputData
                0x0000000020000786        0x2 build/ecatslv.o
                0x0000000020000786                nEscAddrOutputData
 .bss.nMaxEscAddress
                0x0000000020000788        0x2 build/ecatslv.o
                0x0000000020000788                nMaxEscAddress
 .bss.nMaxSyncMan
                0x000000002000078a        0x1 build/ecatslv.o
                0x000000002000078a                nMaxSyncMan
 *fill*         0x000000002000078b        0x1 
 .bss.nPdInputSize
                0x000000002000078c        0x2 build/ecatslv.o
                0x000000002000078c                nPdInputSize
 .bss.nPdOutputSize
                0x000000002000078e        0x2 build/ecatslv.o
                0x000000002000078e                nPdOutputSize
 .bss.u16ALEventMask
                0x0000000020000790        0x2 build/ecatslv.o
                0x0000000020000790                u16ALEventMask
 .bss.u16LocalErrorCode
                0x0000000020000792        0x2 build/ecatslv.o
                0x0000000020000792                u16LocalErrorCode
 .bss.u16SmSync0Counter
                0x0000000020000794        0x2 build/ecatslv.o
                0x0000000020000794                u16SmSync0Counter
 .bss.u16SmSync0Value
                0x0000000020000796        0x2 build/ecatslv.o
                0x0000000020000796                u16SmSync0Value
 .bss.u16dummy  0x0000000020000798        0x2 build/ecatslv.o
                0x0000000020000798                u16dummy
 *fill*         0x000000002000079a        0x2 
 .bss.asMbx     0x000000002000079c      0x200 build/mailbox.o
                0x000000002000079c                asMbx
 .bss.bMbxRepeatToggle
                0x000000002000099c        0x1 build/mailbox.o
                0x000000002000099c                bMbxRepeatToggle
 .bss.bMbxRunning
                0x000000002000099d        0x1 build/mailbox.o
                0x000000002000099d                bMbxRunning
 .bss.bNoMbxMemoryAvailable
                0x000000002000099e        0x1 build/mailbox.o
                0x000000002000099e                bNoMbxMemoryAvailable
 .bss.bReceiveMbxIsLocked
                0x000000002000099f        0x1 build/mailbox.o
                0x000000002000099f                bReceiveMbxIsLocked
 .bss.bSendMbxIsFull
                0x00000000200009a0        0x1 build/mailbox.o
                0x00000000200009a0                bSendMbxIsFull
 *fill*         0x00000000200009a1        0x3 
 .bss.psReadMbx
                0x00000000200009a4        0x4 build/mailbox.o
                0x00000000200009a4                psReadMbx
 .bss.psRepeatMbx
                0x00000000200009a8        0x4 build/mailbox.o
                0x00000000200009a8                psRepeatMbx
 .bss.psStoreMbx
                0x00000000200009ac        0x4 build/mailbox.o
                0x00000000200009ac                psStoreMbx
 .bss.psWriteMbx
                0x00000000200009b0        0x4 build/mailbox.o
                0x00000000200009b0                psWriteMbx
 .bss.sMbxReceiveQueue
                0x00000000200009b4       0x34 build/mailbox.o
                0x00000000200009b4                sMbxReceiveQueue
 .bss.sMbxSendQueue
                0x00000000200009e8       0x34 build/mailbox.o
                0x00000000200009e8                sMbxSendQueue
 .bss.u16EscAddrReceiveMbx
                0x0000000020000a1c        0x2 build/mailbox.o
                0x0000000020000a1c                u16EscAddrReceiveMbx
 .bss.u16EscAddrSendMbx
                0x0000000020000a1e        0x2 build/mailbox.o
                0x0000000020000a1e                u16EscAddrSendMbx
 .bss.u16ReceiveMbxSize
                0x0000000020000a20        0x2 build/mailbox.o
                0x0000000020000a20                u16ReceiveMbxSize
 .bss.u16SendMbxSize
                0x0000000020000a22        0x2 build/mailbox.o
                0x0000000020000a22                u16SendMbxSize
 .bss.u8MailboxSendReqStored
                0x0000000020000a24        0x1 build/mailbox.o
                0x0000000020000a24                u8MailboxSendReqStored
 .bss.u8MbxReadCounter
                0x0000000020000a25        0x1 build/mailbox.o
                0x0000000020000a25                u8MbxReadCounter
 .bss.u8MbxWriteCounter
                0x0000000020000a26        0x1 build/mailbox.o
                0x0000000020000a26                u8MbxWriteCounter
 .bss.bSyncSetByUser
                0x0000000020000a27        0x1 build/objdef.o
                0x0000000020000a27                bSyncSetByUser
 .bss.sCycleDiag
                0x0000000020000a28        0x2 build/objdef.o
                0x0000000020000a28                sCycleDiag
 *fill*         0x0000000020000a2a        0x2 
 .bss.sSyncManInPar
                0x0000000020000a2c       0x44 build/objdef.o
                0x0000000020000a2c                sSyncManInPar
 .bss.sSyncManOutPar
                0x0000000020000a70       0x44 build/objdef.o
                0x0000000020000a70                sSyncManOutPar
 .bss.aSdoInfoHeader
                0x0000000020000ab4        0xe build/sdoserv.o
                0x0000000020000ab4                aSdoInfoHeader
 .bss.bSdoInWork
                0x0000000020000ac2        0x1 build/sdoserv.o
                0x0000000020000ac2                bSdoInWork
 .bss.bSdoSegAccess
                0x0000000020000ac3        0x1 build/sdoserv.o
                0x0000000020000ac3                bSdoSegAccess
 .bss.bSdoSegFollows
                0x0000000020000ac4        0x1 build/sdoserv.o
                0x0000000020000ac4                bSdoSegFollows
 .bss.bSdoSegLastToggle
                0x0000000020000ac5        0x1 build/sdoserv.o
                0x0000000020000ac5                bSdoSegLastToggle
 .bss.bStoreCompleteAccess
                0x0000000020000ac6        0x1 build/sdoserv.o
                0x0000000020000ac6                bStoreCompleteAccess
 *fill*         0x0000000020000ac7        0x1 
 .bss.nSdoInfoFragmentsLeft
                0x0000000020000ac8        0x2 build/sdoserv.o
                0x0000000020000ac8                nSdoInfoFragmentsLeft
 .bss.nSdoInfoIndex
                0x0000000020000aca        0x2 build/sdoserv.o
                0x0000000020000aca                nSdoInfoIndex
 .bss.nSdoSegBytesToHandle
                0x0000000020000acc        0x4 build/sdoserv.o
                0x0000000020000acc                nSdoSegBytesToHandle
 .bss.nSdoSegCompleteSize
                0x0000000020000ad0        0x4 build/sdoserv.o
                0x0000000020000ad0                nSdoSegCompleteSize
 .bss.nSdoSegIndex
                0x0000000020000ad4        0x2 build/sdoserv.o
                0x0000000020000ad4                nSdoSegIndex
 .bss.nSdoSegService
                0x0000000020000ad6        0x1 build/sdoserv.o
                0x0000000020000ad6                nSdoSegService
 .bss.nSdoSegSubindex
                0x0000000020000ad7        0x1 build/sdoserv.o
                0x0000000020000ad7                nSdoSegSubindex
 .bss.pSdoInfoObjEntry
                0x0000000020000ad8        0x4 build/sdoserv.o
                0x0000000020000ad8                pSdoInfoObjEntry
 .bss.pSdoPendFunc
                0x0000000020000adc        0x4 build/sdoserv.o
                0x0000000020000adc                pSdoPendFunc
 .bss.pSdoResStored
                0x0000000020000ae0        0x4 build/sdoserv.o
                0x0000000020000ae0                pSdoResStored
 .bss.pSdoSegData
                0x0000000020000ae4        0x4 build/sdoserv.o
                0x0000000020000ae4                pSdoSegData
 .bss.pSdoSegObjEntry
                0x0000000020000ae8        0x4 build/sdoserv.o
                0x0000000020000ae8                pSdoSegObjEntry
 .bss.pStoreData
                0x0000000020000aec        0x4 build/sdoserv.o
                0x0000000020000aec                pStoreData
 .bss.u16StoreIndex
                0x0000000020000af0        0x2 build/sdoserv.o
                0x0000000020000af0                u16StoreIndex
 *fill*         0x0000000020000af2        0x2 
 .bss.u32StoreDataSize
                0x0000000020000af4        0x4 build/sdoserv.o
                0x0000000020000af4                u32StoreDataSize
 .bss.u8PendingSdo
                0x0000000020000af8        0x1 build/sdoserv.o
                0x0000000020000af8                u8PendingSdo
 .bss.u8StoreSubindex
                0x0000000020000af9        0x1 build/sdoserv.o
                0x0000000020000af9                u8StoreSubindex
 *fill*         0x0000000020000afa        0x2 
 .bss.ObjDicList
                0x0000000020000afc        0x4 build/coeappl.o
                0x0000000020000afc                ObjDicList
 .bss.u16ErrorRegister
                0x0000000020000b00        0x2 build/coeappl.o
                0x0000000020000b00                u16ErrorRegister
 *fill*         0x0000000020000b02        0x2 
 .bss.StartTimerCnt
                0x0000000020000b04        0x4 build/ecatappl.o
                0x0000000020000b04                StartTimerCnt
 .bss.aPdInputData
                0x0000000020000b08       0x44 build/ecatappl.o
                0x0000000020000b08                aPdInputData
 .bss.aPdOutputData
                0x0000000020000b4c       0x44 build/ecatappl.o
                0x0000000020000b4c                aPdOutputData
 .bss.bCycleTimeMeasurementStarted
                0x0000000020000b90        0x1 build/ecatappl.o
                0x0000000020000b90                bCycleTimeMeasurementStarted
 .bss.bInitFinished
                0x0000000020000b91        0x1 build/ecatappl.o
                0x0000000020000b91                bInitFinished
 .bss.bRunApplication
                0x0000000020000b92        0x1 build/ecatappl.o
                0x0000000020000b92                bRunApplication
 *fill*         0x0000000020000b93        0x1 
 .bss.u16BusCycleCntMs
                0x0000000020000b94        0x2 build/ecatappl.o
                0x0000000020000b94                u16BusCycleCntMs
 *fill*         0x0000000020000b96        0x2 
 .bss.EscALEvent
                0x0000000020000b98        0x2 build/el9800hw.o
                0x0000000020000b98                EscALEvent
 *fill*         0x0000000020000b9a        0x2 
 .bss.__malloc_free_list
                0x0000000020000b9c        0x4 /usr/share/gcc-arm-none-eabi-10.3-2021.10/bin/../lib/gcc/arm-none-eabi/10.3.1/../../../../arm-none-eabi/lib/thumb/v7e-m+fp/hard/libc_nano.a(lib_a-nano-mallocr.o)
                0x0000000020000b9c                __malloc_free_list
 .bss.__malloc_sbrk_start
                0x0000000020000ba0        0x4 /usr/share/gcc-arm-none-eabi-10.3-2021.10/bin/../lib/gcc/arm-none-eabi/10.3.1/../../../../arm-none-eabi/lib/thumb/v7e-m+fp/hard/libc_nano.a(lib_a-nano-mallocr.o)
                0x0000000020000ba0                __malloc_sbrk_start
 .bss.errno     0x0000000020000ba4        0x4 /usr/share/gcc-arm-none-eabi-10.3-2021.10/bin/../lib/gcc/arm-none-eabi/10.3.1/../../../../arm-none-eabi/lib/thumb/v7e-m+fp/hard/libc_nano.a(lib_a-reent.o)
                0x0000000020000ba4                errno
 .bss.__lock___malloc_recursive_mutex
                0x0000000020000ba8        0x1 /usr/share/gcc-arm-none-eabi-10.3-2021.10/bin/../lib/gcc/arm-none-eabi/10.3.1/../../../../arm-none-eabi/lib/thumb/v7e-m+fp/hard/libc_nano.a(lib_a-lock.o)
                0x0000000020000ba8                __lock___malloc_recursive_mutex
 *fill*         0x0000000020000ba9        0x3 
 .bss.heap_end.0
                0x0000000020000bac        0x4 /usr/share/gcc-arm-none-eabi-10.3-2021.10/bin/../lib/gcc/arm-none-eabi/10.3.1/../../../../arm-none-eabi/lib/thumb/v7e-m+fp/hard/libnosys.a(sbrk.o)
 *(COMMON)
                0x0000000020000bb0                . = ALIGN (0x4)
                0x0000000020000bb0                _ebss = .
                0x0000000020000bb0                __bss_end__ = _ebss

._user_heap_stack
                0x0000000020000bb0      0x600
                0x0000000020000bb0                . = ALIGN (0x8)
                0x0000000020000bb0                PROVIDE (end = .)
                [!provide]                        PROVIDE (_end = .)
                0x0000000020000db0                . = (. + _Min_Heap_Size)
 *fill*         0x0000000020000bb0      0x200 
                0x00000000200011b0                . = (. + _Min_Stack_Size)
 *fill*         0x0000000020000db0      0x400 
                0x00000000200011b0                . = ALIGN (0x8)

/DISCARD/
 libc.a(*)
 libm.a(*)
 libgcc.a(*)

.ARM.attributes
                0x0000000000000000       0x30
 *(.ARM.attributes)
 .ARM.attributes
                0x0000000000000000       0x1e /usr/share/gcc-arm-none-eabi-10.3-2021.10/bin/../lib/gcc/arm-none-eabi/10.3.1/thumb/v7e-m+fp/hard/crti.o
 .ARM.attributes
                0x000000000000001e       0x34 /usr/share/gcc-arm-none-eabi-10.3-2021.10/bin/../lib/gcc/arm-none-eabi/10.3.1/thumb/v7e-m+fp/hard/crtbegin.o
 .ARM.attributes
                0x0000000000000052       0x34 build/stm32f4xx_it.o
 .ARM.attributes
                0x0000000000000086       0x34 build/misc.o
 .ARM.attributes
                0x00000000000000ba       0x34 build/stm32f4xx_can.o
 .ARM.attributes
                0x00000000000000ee       0x34 build/stm32f4xx_exti.o
 .ARM.attributes
                0x0000000000000122       0x34 build/stm32f4xx_gpio.o
 .ARM.attributes
                0x0000000000000156       0x34 build/stm32f4xx_rcc.o
 .ARM.attributes
                0x000000000000018a       0x34 build/stm32f4xx_spi.o
 .ARM.attributes
                0x00000000000001be       0x34 build/stm32f4xx_syscfg.o
 .ARM.attributes
                0x00000000000001f2       0x34 build/stm32f4xx_tim.o
 .ARM.attributes
                0x0000000000000226       0x34 build/EXIT.o
 .ARM.attributes
                0x000000000000025a       0x34 build/RST.o
 .ARM.attributes
                0x000000000000028e       0x34 build/SPI1.o
 .ARM.attributes
                0x00000000000002c2       0x34 build/Timer.o
 .ARM.attributes
                0x00000000000002f6       0x34 build/bsp_can.o
 .ARM.attributes
                0x000000000000032a       0x34 build/bsp_led.o
 .ARM.attributes
                0x000000000000035e       0x34 build/system_stm32f4xx.o
 .ARM.attributes
                0x0000000000000392       0x34 build/ecatcoe.o
 .ARM.attributes
                0x00000000000003c6       0x34 build/ecatslv.o
 .ARM.attributes
                0x00000000000003fa       0x34 build/mailbox.o
 .ARM.attributes
                0x000000000000042e       0x34 build/objdef.o
 .ARM.attributes
                0x0000000000000462       0x34 build/sdoserv.o
 .ARM.attributes
                0x0000000000000496       0x34 build/coeappl.o
 .ARM.attributes
                0x00000000000004ca       0x34 build/ecatappl.o
 .ARM.attributes
                0x00000000000004fe       0x34 build/el9800appl.o
 .ARM.attributes
                0x0000000000000532       0x34 build/el9800hw.o
 .ARM.attributes
                0x0000000000000566       0x21 build/startup_stm32f405xx.o
 .ARM.attributes
                0x0000000000000587       0x34 /usr/share/gcc-arm-none-eabi-10.3-2021.10/bin/../lib/gcc/arm-none-eabi/10.3.1/../../../../arm-none-eabi/lib/thumb/v7e-m+fp/hard/libc_nano.a(lib_a-impure.o)
 .ARM.attributes
                0x00000000000005bb       0x34 /usr/share/gcc-arm-none-eabi-10.3-2021.10/bin/../lib/gcc/arm-none-eabi/10.3.1/../../../../arm-none-eabi/lib/thumb/v7e-m+fp/hard/libc_nano.a(lib_a-init.o)
 .ARM.attributes
                0x00000000000005ef       0x34 /usr/share/gcc-arm-none-eabi-10.3-2021.10/bin/../lib/gcc/arm-none-eabi/10.3.1/../../../../arm-none-eabi/lib/thumb/v7e-m+fp/hard/libc_nano.a(lib_a-malloc.o)
 .ARM.attributes
                0x0000000000000623       0x34 /usr/share/gcc-arm-none-eabi-10.3-2021.10/bin/../lib/gcc/arm-none-eabi/10.3.1/../../../../arm-none-eabi/lib/thumb/v7e-m+fp/hard/libc_nano.a(lib_a-memcpy-stub.o)
 .ARM.attributes
                0x0000000000000657       0x34 /usr/share/gcc-arm-none-eabi-10.3-2021.10/bin/../lib/gcc/arm-none-eabi/10.3.1/../../../../arm-none-eabi/lib/thumb/v7e-m+fp/hard/libc_nano.a(lib_a-memset.o)
 .ARM.attributes
                0x000000000000068b       0x34 /usr/share/gcc-arm-none-eabi-10.3-2021.10/bin/../lib/gcc/arm-none-eabi/10.3.1/../../../../arm-none-eabi/lib/thumb/v7e-m+fp/hard/libc_nano.a(lib_a-nano-freer.o)
 .ARM.attributes
                0x00000000000006bf       0x34 /usr/share/gcc-arm-none-eabi-10.3-2021.10/bin/../lib/gcc/arm-none-eabi/10.3.1/../../../../arm-none-eabi/lib/thumb/v7e-m+fp/hard/libc_nano.a(lib_a-nano-mallocr.o)
 .ARM.attributes
                0x00000000000006f3       0x34 /usr/share/gcc-arm-none-eabi-10.3-2021.10/bin/../lib/gcc/arm-none-eabi/10.3.1/../../../../arm-none-eabi/lib/thumb/v7e-m+fp/hard/libc_nano.a(lib_a-sbrkr.o)
 .ARM.attributes
                0x0000000000000727       0x17 /usr/share/gcc-arm-none-eabi-10.3-2021.10/bin/../lib/gcc/arm-none-eabi/10.3.1/../../../../arm-none-eabi/lib/thumb/v7e-m+fp/hard/libc_nano.a(lib_a-strlen.o)
 .ARM.attributes
                0x000000000000073e       0x34 /usr/share/gcc-arm-none-eabi-10.3-2021.10/bin/../lib/gcc/arm-none-eabi/10.3.1/../../../../arm-none-eabi/lib/thumb/v7e-m+fp/hard/libc_nano.a(lib_a-mlock.o)
 .ARM.attributes
                0x0000000000000772       0x34 /usr/share/gcc-arm-none-eabi-10.3-2021.10/bin/../lib/gcc/arm-none-eabi/10.3.1/../../../../arm-none-eabi/lib/thumb/v7e-m+fp/hard/libc_nano.a(lib_a-reent.o)
 .ARM.attributes
                0x00000000000007a6       0x34 /usr/share/gcc-arm-none-eabi-10.3-2021.10/bin/../lib/gcc/arm-none-eabi/10.3.1/../../../../arm-none-eabi/lib/thumb/v7e-m+fp/hard/libc_nano.a(lib_a-lock.o)
 .ARM.attributes
                0x00000000000007da       0x34 /usr/share/gcc-arm-none-eabi-10.3-2021.10/bin/../lib/gcc/arm-none-eabi/10.3.1/../../../../arm-none-eabi/lib/thumb/v7e-m+fp/hard/libnosys.a(sbrk.o)
 .ARM.attributes
                0x000000000000080e       0x1e /usr/share/gcc-arm-none-eabi-10.3-2021.10/bin/../lib/gcc/arm-none-eabi/10.3.1/thumb/v7e-m+fp/hard/crtn.o
OUTPUT(build/stm32F4_ax58100_hw.elf elf32-littlearm)
LOAD linker stubs
LOAD /usr/share/gcc-arm-none-eabi-10.3-2021.10/bin/../lib/gcc/arm-none-eabi/10.3.1/../../../../arm-none-eabi/lib/thumb/v7e-m+fp/hard/libc.a
LOAD /usr/share/gcc-arm-none-eabi-10.3-2021.10/bin/../lib/gcc/arm-none-eabi/10.3.1/../../../../arm-none-eabi/lib/thumb/v7e-m+fp/hard/libm.a
LOAD /usr/share/gcc-arm-none-eabi-10.3-2021.10/bin/../lib/gcc/arm-none-eabi/10.3.1/thumb/v7e-m+fp/hard/libgcc.a

.debug_info     0x0000000000000000    0x135fd
 .debug_info    0x0000000000000000      0x10e build/stm32f4xx_it.o
 .debug_info    0x000000000000010e      0x57c build/misc.o
 .debug_info    0x000000000000068a      0xe4b build/stm32f4xx_can.o
 .debug_info    0x00000000000014d5      0x361 build/stm32f4xx_exti.o
 .debug_info    0x0000000000001836      0x8b1 build/stm32f4xx_gpio.o
 .debug_info    0x00000000000020e7     0x1007 build/stm32f4xx_rcc.o
 .debug_info    0x00000000000030ee      0xda4 build/stm32f4xx_spi.o
 .debug_info    0x0000000000003e92      0x2e0 build/stm32f4xx_syscfg.o
 .debug_info    0x0000000000004172     0x2456 build/stm32f4xx_tim.o
 .debug_info    0x00000000000065c8      0x8d5 build/EXIT.o
 .debug_info    0x0000000000006e9d      0x382 build/RST.o
 .debug_info    0x000000000000721f      0x73d build/SPI1.o
 .debug_info    0x000000000000795c      0x742 build/Timer.o
 .debug_info    0x000000000000809e      0xfe7 build/bsp_can.o
 .debug_info    0x0000000000009085      0x32e build/bsp_led.o
 .debug_info    0x00000000000093b3      0x661 build/system_stm32f4xx.o
 .debug_info    0x0000000000009a14      0x520 build/ecatcoe.o
 .debug_info    0x0000000000009f34     0x1997 build/ecatslv.o
 .debug_info    0x000000000000b8cb      0xc4c build/mailbox.o
 .debug_info    0x000000000000c517     0x1139 build/objdef.o
 .debug_info    0x000000000000d650     0x133f build/sdoserv.o
 .debug_info    0x000000000000e98f     0x15f1 build/coeappl.o
 .debug_info    0x000000000000ff80      0xe94 build/ecatappl.o
 .debug_info    0x0000000000010e14     0x146f build/el9800appl.o
 .debug_info    0x0000000000012283     0x1358 build/el9800hw.o
 .debug_info    0x00000000000135db       0x22 build/startup_stm32f405xx.o

.debug_abbrev   0x0000000000000000     0x31c5
 .debug_abbrev  0x0000000000000000       0x44 build/stm32f4xx_it.o
 .debug_abbrev  0x0000000000000044      0x187 build/misc.o
 .debug_abbrev  0x00000000000001cb      0x25b build/stm32f4xx_can.o
 .debug_abbrev  0x0000000000000426      0x1f5 build/stm32f4xx_exti.o
 .debug_abbrev  0x000000000000061b      0x20e build/stm32f4xx_gpio.o
 .debug_abbrev  0x0000000000000829      0x204 build/stm32f4xx_rcc.o
 .debug_abbrev  0x0000000000000a2d      0x1ce build/stm32f4xx_spi.o
 .debug_abbrev  0x0000000000000bfb      0x175 build/stm32f4xx_syscfg.o
 .debug_abbrev  0x0000000000000d70      0x1e1 build/stm32f4xx_tim.o
 .debug_abbrev  0x0000000000000f51      0x176 build/EXIT.o
 .debug_abbrev  0x00000000000010c7      0x150 build/RST.o
 .debug_abbrev  0x0000000000001217      0x19f build/SPI1.o
 .debug_abbrev  0x00000000000013b6      0x165 build/Timer.o
 .debug_abbrev  0x000000000000151b      0x20c build/bsp_can.o
 .debug_abbrev  0x0000000000001727      0x145 build/bsp_led.o
 .debug_abbrev  0x000000000000186c      0x187 build/system_stm32f4xx.o
 .debug_abbrev  0x00000000000019f3      0x1da build/ecatcoe.o
 .debug_abbrev  0x0000000000001bcd      0x307 build/ecatslv.o
 .debug_abbrev  0x0000000000001ed4      0x233 build/mailbox.o
 .debug_abbrev  0x0000000000002107      0x2a1 build/objdef.o
 .debug_abbrev  0x00000000000023a8      0x2fe build/sdoserv.o
 .debug_abbrev  0x00000000000026a6      0x237 build/coeappl.o
 .debug_abbrev  0x00000000000028dd      0x2b5 build/ecatappl.o
 .debug_abbrev  0x0000000000002b92      0x2de build/el9800appl.o
 .debug_abbrev  0x0000000000002e70      0x343 build/el9800hw.o
 .debug_abbrev  0x00000000000031b3       0x12 build/startup_stm32f405xx.o

.debug_aranges  0x0000000000000000      0xdf0
 .debug_aranges
                0x0000000000000000       0x60 build/stm32f4xx_it.o
 .debug_aranges
                0x0000000000000060       0x40 build/misc.o
 .debug_aranges
                0x00000000000000a0       0xe0 build/stm32f4xx_can.o
 .debug_aranges
                0x0000000000000180       0x58 build/stm32f4xx_exti.o
 .debug_aranges
                0x00000000000001d8       0x88 build/stm32f4xx_gpio.o
 .debug_aranges
                0x0000000000000260      0x1c0 build/stm32f4xx_rcc.o
 .debug_aranges
                0x0000000000000420       0xe0 build/stm32f4xx_spi.o
 .debug_aranges
                0x0000000000000500       0x50 build/stm32f4xx_syscfg.o
 .debug_aranges
                0x0000000000000550      0x2f8 build/stm32f4xx_tim.o
 .debug_aranges
                0x0000000000000848       0x30 build/EXIT.o
 .debug_aranges
                0x0000000000000878       0x30 build/RST.o
 .debug_aranges
                0x00000000000008a8       0x30 build/SPI1.o
 .debug_aranges
                0x00000000000008d8       0x20 build/Timer.o
 .debug_aranges
                0x00000000000008f8       0x78 build/bsp_can.o
 .debug_aranges
                0x0000000000000970       0x20 build/bsp_led.o
 .debug_aranges
                0x0000000000000990       0x30 build/system_stm32f4xx.o
 .debug_aranges
                0x00000000000009c0       0x30 build/ecatcoe.o
 .debug_aranges
                0x00000000000009f0       0xb8 build/ecatslv.o
 .debug_aranges
                0x0000000000000aa8       0x80 build/mailbox.o
 .debug_aranges
                0x0000000000000b28       0x78 build/objdef.o
 .debug_aranges
                0x0000000000000ba0       0x48 build/sdoserv.o
 .debug_aranges
                0x0000000000000be8       0x58 build/coeappl.o
 .debug_aranges
                0x0000000000000c40       0x68 build/ecatappl.o
 .debug_aranges
                0x0000000000000ca8       0x80 build/el9800appl.o
 .debug_aranges
                0x0000000000000d28       0xa0 build/el9800hw.o
 .debug_aranges
                0x0000000000000dc8       0x28 build/startup_stm32f405xx.o

.debug_ranges   0x0000000000000000     0x1168
 .debug_ranges  0x0000000000000000       0x50 build/stm32f4xx_it.o
 .debug_ranges  0x0000000000000050       0x30 build/misc.o
 .debug_ranges  0x0000000000000080       0xd0 build/stm32f4xx_can.o
 .debug_ranges  0x0000000000000150       0x48 build/stm32f4xx_exti.o
 .debug_ranges  0x0000000000000198       0x78 build/stm32f4xx_gpio.o
 .debug_ranges  0x0000000000000210      0x1b0 build/stm32f4xx_rcc.o
 .debug_ranges  0x00000000000003c0       0xd0 build/stm32f4xx_spi.o
 .debug_ranges  0x0000000000000490       0x40 build/stm32f4xx_syscfg.o
 .debug_ranges  0x00000000000004d0      0x2e8 build/stm32f4xx_tim.o
 .debug_ranges  0x00000000000007b8       0x20 build/EXIT.o
 .debug_ranges  0x00000000000007d8       0x20 build/RST.o
 .debug_ranges  0x00000000000007f8       0x20 build/SPI1.o
 .debug_ranges  0x0000000000000818       0x10 build/Timer.o
 .debug_ranges  0x0000000000000828       0x68 build/bsp_can.o
 .debug_ranges  0x0000000000000890       0x10 build/bsp_led.o
 .debug_ranges  0x00000000000008a0       0x20 build/system_stm32f4xx.o
 .debug_ranges  0x00000000000008c0       0x20 build/ecatcoe.o
 .debug_ranges  0x00000000000008e0       0xf0 build/ecatslv.o
 .debug_ranges  0x00000000000009d0       0xe8 build/mailbox.o
 .debug_ranges  0x0000000000000ab8      0x338 build/objdef.o
 .debug_ranges  0x0000000000000df0      0x130 build/sdoserv.o
 .debug_ranges  0x0000000000000f20       0xa0 build/coeappl.o
 .debug_ranges  0x0000000000000fc0       0x88 build/ecatappl.o
 .debug_ranges  0x0000000000001048       0x70 build/el9800appl.o
 .debug_ranges  0x00000000000010b8       0x90 build/el9800hw.o
 .debug_ranges  0x0000000000001148       0x20 build/startup_stm32f405xx.o

.debug_line     0x0000000000000000     0xc88c
 .debug_line    0x0000000000000000      0x12a build/stm32f4xx_it.o
 .debug_line    0x000000000000012a      0x2c9 build/misc.o
 .debug_line    0x00000000000003f3      0xe4b build/stm32f4xx_can.o
 .debug_line    0x000000000000123e      0x36a build/stm32f4xx_exti.o
 .debug_line    0x00000000000015a8      0x55c build/stm32f4xx_gpio.o
 .debug_line    0x0000000000001b04      0xc6c build/stm32f4xx_rcc.o
 .debug_line    0x0000000000002770      0x854 build/stm32f4xx_spi.o
 .debug_line    0x0000000000002fc4      0x270 build/stm32f4xx_syscfg.o
 .debug_line    0x0000000000003234     0x18fb build/stm32f4xx_tim.o
 .debug_line    0x0000000000004b2f      0x314 build/EXIT.o
 .debug_line    0x0000000000004e43      0x1d7 build/RST.o
 .debug_line    0x000000000000501a      0x2cb build/SPI1.o
 .debug_line    0x00000000000052e5      0x1df build/Timer.o
 .debug_line    0x00000000000054c4      0x4c6 build/bsp_can.o
 .debug_line    0x000000000000598a      0x1fc build/bsp_led.o
 .debug_line    0x0000000000005b86      0x3c0 build/system_stm32f4xx.o
 .debug_line    0x0000000000005f46      0x177 build/ecatcoe.o
 .debug_line    0x00000000000060bd     0x1b5d build/ecatslv.o
 .debug_line    0x0000000000007c1a      0x958 build/mailbox.o
 .debug_line    0x0000000000008572     0x1313 build/objdef.o
 .debug_line    0x0000000000009885      0xf80 build/sdoserv.o
 .debug_line    0x000000000000a805      0x523 build/coeappl.o
 .debug_line    0x000000000000ad28      0x70a build/ecatappl.o
 .debug_line    0x000000000000b432      0xccc build/el9800appl.o
 .debug_line    0x000000000000c0fe      0x718 build/el9800hw.o
 .debug_line    0x000000000000c816       0x76 build/startup_stm32f405xx.o

.debug_str      0x0000000000000000     0x4cf0
 .debug_str     0x0000000000000000      0x1e7 build/stm32f4xx_it.o
                                        0x21b (size before relaxing)
 .debug_str     0x00000000000001e7      0x27c build/misc.o
                                        0x407 (size before relaxing)
 .debug_str     0x0000000000000463      0x52a build/stm32f4xx_can.o
                                        0x78e (size before relaxing)
 .debug_str     0x000000000000098d      0x1bb build/stm32f4xx_exti.o
                                        0x385 (size before relaxing)
 .debug_str     0x0000000000000b48      0x315 build/stm32f4xx_gpio.o
                                        0x4f0 (size before relaxing)
 .debug_str     0x0000000000000e5d      0x772 build/stm32f4xx_rcc.o
                                        0x9fb (size before relaxing)
 .debug_str     0x00000000000015cf      0x3b5 build/stm32f4xx_spi.o
                                        0x716 (size before relaxing)
 .debug_str     0x0000000000001984      0x16b build/stm32f4xx_syscfg.o
                                        0x35e (size before relaxing)
 .debug_str     0x0000000000001aef      0xb63 build/stm32f4xx_tim.o
                                        0xe37 (size before relaxing)
 .debug_str     0x0000000000002652      0x585 build/EXIT.o
                                        0xa91 (size before relaxing)
 .debug_str     0x0000000000002bd7       0x32 build/RST.o
                                        0x39b (size before relaxing)
 .debug_str     0x0000000000002c09       0x51 build/SPI1.o
                                        0x561 (size before relaxing)
 .debug_str     0x0000000000002c5a       0x43 build/Timer.o
                                        0x968 (size before relaxing)
 .debug_str     0x0000000000002c9d      0x155 build/bsp_can.o
                                        0xd54 (size before relaxing)
 .debug_str     0x0000000000002df2       0x20 build/bsp_led.o
                                        0x372 (size before relaxing)
 .debug_str     0x0000000000002e12       0xa4 build/system_stm32f4xx.o
                                        0x3fa (size before relaxing)
 .debug_str     0x0000000000002eb6      0x1c6 build/ecatcoe.o
                                        0x398 (size before relaxing)
 .debug_str     0x000000000000307c      0x905 build/ecatslv.o
                                       0x10a8 (size before relaxing)
 .debug_str     0x0000000000003981      0x1d1 build/mailbox.o
                                        0x574 (size before relaxing)
 .debug_str     0x0000000000003b52      0x2a8 build/objdef.o
                                        0x6f3 (size before relaxing)
 .debug_str     0x0000000000003dfa      0x301 build/sdoserv.o
                                        0x802 (size before relaxing)
 .debug_str     0x00000000000040fb      0x822 build/coeappl.o
                                        0xce1 (size before relaxing)
 .debug_str     0x000000000000491d      0x20c build/ecatappl.o
                                        0xde5 (size before relaxing)
 .debug_str     0x0000000000004b29       0xc8 build/el9800appl.o
                                        0xa51 (size before relaxing)
 .debug_str     0x0000000000004bf1       0xdb build/el9800hw.o
                                        0xc50 (size before relaxing)
 .debug_str     0x0000000000004ccc       0x24 build/startup_stm32f405xx.o
                                         0x6a (size before relaxing)

.comment        0x0000000000000000       0x49
 .comment       0x0000000000000000       0x49 build/stm32f4xx_it.o
                                         0x4a (size before relaxing)
 .comment       0x0000000000000049       0x4a build/misc.o
 .comment       0x0000000000000049       0x4a build/stm32f4xx_can.o
 .comment       0x0000000000000049       0x4a build/stm32f4xx_exti.o
 .comment       0x0000000000000049       0x4a build/stm32f4xx_gpio.o
 .comment       0x0000000000000049       0x4a build/stm32f4xx_rcc.o
 .comment       0x0000000000000049       0x4a build/stm32f4xx_spi.o
 .comment       0x0000000000000049       0x4a build/stm32f4xx_syscfg.o
 .comment       0x0000000000000049       0x4a build/stm32f4xx_tim.o
 .comment       0x0000000000000049       0x4a build/EXIT.o
 .comment       0x0000000000000049       0x4a build/RST.o
 .comment       0x0000000000000049       0x4a build/SPI1.o
 .comment       0x0000000000000049       0x4a build/Timer.o
 .comment       0x0000000000000049       0x4a build/bsp_can.o
 .comment       0x0000000000000049       0x4a build/bsp_led.o
 .comment       0x0000000000000049       0x4a build/system_stm32f4xx.o
 .comment       0x0000000000000049       0x4a build/ecatcoe.o
 .comment       0x0000000000000049       0x4a build/ecatslv.o
 .comment       0x0000000000000049       0x4a build/mailbox.o
 .comment       0x0000000000000049       0x4a build/objdef.o
 .comment       0x0000000000000049       0x4a build/sdoserv.o
 .comment       0x0000000000000049       0x4a build/coeappl.o
 .comment       0x0000000000000049       0x4a build/ecatappl.o
 .comment       0x0000000000000049       0x4a build/el9800appl.o
 .comment       0x0000000000000049       0x4a build/el9800hw.o

.debug_frame    0x0000000000000000     0x224c
 .debug_frame   0x0000000000000000       0xa0 build/stm32f4xx_it.o
 .debug_frame   0x00000000000000a0       0x60 build/misc.o
 .debug_frame   0x0000000000000100      0x1f0 build/stm32f4xx_can.o
 .debug_frame   0x00000000000002f0       0xa0 build/stm32f4xx_exti.o
 .debug_frame   0x0000000000000390      0x118 build/stm32f4xx_gpio.o
 .debug_frame   0x00000000000004a8      0x378 build/stm32f4xx_rcc.o
 .debug_frame   0x0000000000000820      0x1cc build/stm32f4xx_spi.o
 .debug_frame   0x00000000000009ec       0x94 build/stm32f4xx_syscfg.o
 .debug_frame   0x0000000000000a80      0x674 build/stm32f4xx_tim.o
 .debug_frame   0x00000000000010f4       0x70 build/EXIT.o
 .debug_frame   0x0000000000001164       0x5c build/RST.o
 .debug_frame   0x00000000000011c0       0x6c build/SPI1.o
 .debug_frame   0x000000000000122c       0x30 build/Timer.o
 .debug_frame   0x000000000000125c      0x168 build/bsp_can.o
 .debug_frame   0x00000000000013c4       0x34 build/bsp_led.o
 .debug_frame   0x00000000000013f8       0x54 build/system_stm32f4xx.o
 .debug_frame   0x000000000000144c       0x50 build/ecatcoe.o
 .debug_frame   0x000000000000149c      0x23c build/ecatslv.o
 .debug_frame   0x00000000000016d8      0x168 build/mailbox.o
 .debug_frame   0x0000000000001840      0x17c build/objdef.o
 .debug_frame   0x00000000000019bc       0xfc build/sdoserv.o
 .debug_frame   0x0000000000001ab8       0xd8 build/coeappl.o
 .debug_frame   0x0000000000001b90      0x108 build/ecatappl.o
 .debug_frame   0x0000000000001c98      0x118 build/el9800appl.o
 .debug_frame   0x0000000000001db0      0x1ec build/el9800hw.o
 .debug_frame   0x0000000000001f9c       0x2c /usr/share/gcc-arm-none-eabi-10.3-2021.10/bin/../lib/gcc/arm-none-eabi/10.3.1/../../../../arm-none-eabi/lib/thumb/v7e-m+fp/hard/libc_nano.a(lib_a-init.o)
 .debug_frame   0x0000000000001fc8       0x30 /usr/share/gcc-arm-none-eabi-10.3-2021.10/bin/../lib/gcc/arm-none-eabi/10.3.1/../../../../arm-none-eabi/lib/thumb/v7e-m+fp/hard/libc_nano.a(lib_a-malloc.o)
 .debug_frame   0x0000000000001ff8       0x28 /usr/share/gcc-arm-none-eabi-10.3-2021.10/bin/../lib/gcc/arm-none-eabi/10.3.1/../../../../arm-none-eabi/lib/thumb/v7e-m+fp/hard/libc_nano.a(lib_a-memcpy-stub.o)
 .debug_frame   0x0000000000002020       0x20 /usr/share/gcc-arm-none-eabi-10.3-2021.10/bin/../lib/gcc/arm-none-eabi/10.3.1/../../../../arm-none-eabi/lib/thumb/v7e-m+fp/hard/libc_nano.a(lib_a-memset.o)
 .debug_frame   0x0000000000002040       0x38 /usr/share/gcc-arm-none-eabi-10.3-2021.10/bin/../lib/gcc/arm-none-eabi/10.3.1/../../../../arm-none-eabi/lib/thumb/v7e-m+fp/hard/libc_nano.a(lib_a-nano-freer.o)
 .debug_frame   0x0000000000002078       0x4c /usr/share/gcc-arm-none-eabi-10.3-2021.10/bin/../lib/gcc/arm-none-eabi/10.3.1/../../../../arm-none-eabi/lib/thumb/v7e-m+fp/hard/libc_nano.a(lib_a-nano-mallocr.o)
 .debug_frame   0x00000000000020c4       0x2c /usr/share/gcc-arm-none-eabi-10.3-2021.10/bin/../lib/gcc/arm-none-eabi/10.3.1/../../../../arm-none-eabi/lib/thumb/v7e-m+fp/hard/libc_nano.a(lib_a-sbrkr.o)
 .debug_frame   0x00000000000020f0       0x30 /usr/share/gcc-arm-none-eabi-10.3-2021.10/bin/../lib/gcc/arm-none-eabi/10.3.1/../../../../arm-none-eabi/lib/thumb/v7e-m+fp/hard/libc_nano.a(lib_a-mlock.o)
 .debug_frame   0x0000000000002120       0x5c /usr/share/gcc-arm-none-eabi-10.3-2021.10/bin/../lib/gcc/arm-none-eabi/10.3.1/../../../../arm-none-eabi/lib/thumb/v7e-m+fp/hard/libc_nano.a(lib_a-reent.o)
 .debug_frame   0x000000000000217c       0xb0 /usr/share/gcc-arm-none-eabi-10.3-2021.10/bin/../lib/gcc/arm-none-eabi/10.3.1/../../../../arm-none-eabi/lib/thumb/v7e-m+fp/hard/libc_nano.a(lib_a-lock.o)
 .debug_frame   0x000000000000222c       0x20 /usr/share/gcc-arm-none-eabi-10.3-2021.10/bin/../lib/gcc/arm-none-eabi/10.3.1/../../../../arm-none-eabi/lib/thumb/v7e-m+fp/hard/libnosys.a(sbrk.o)

.debug_loc      0x0000000000000000     0xa7a0
 .debug_loc     0x0000000000000000      0x187 build/misc.o
 .debug_loc     0x0000000000000187     0x1038 build/stm32f4xx_can.o
 .debug_loc     0x00000000000011bf      0x13d build/stm32f4xx_exti.o
 .debug_loc     0x00000000000012fc      0x417 build/stm32f4xx_gpio.o
 .debug_loc     0x0000000000001713      0xba6 build/stm32f4xx_rcc.o
 .debug_loc     0x00000000000022b9      0x859 build/stm32f4xx_spi.o
 .debug_loc     0x0000000000002b12       0x90 build/stm32f4xx_syscfg.o
 .debug_loc     0x0000000000002ba2     0x18e1 build/stm32f4xx_tim.o
 .debug_loc     0x0000000000004483       0x3a build/SPI1.o
 .debug_loc     0x00000000000044bd       0x25 build/Timer.o
 .debug_loc     0x00000000000044e2      0x158 build/system_stm32f4xx.o
 .debug_loc     0x000000000000463a      0x14c build/ecatcoe.o
 .debug_loc     0x0000000000004786     0x1436 build/ecatslv.o
 .debug_loc     0x0000000000005bbc      0x65a build/mailbox.o
 .debug_loc     0x0000000000006216     0x1fbc build/objdef.o
 .debug_loc     0x00000000000081d2     0x1417 build/sdoserv.o
 .debug_loc     0x00000000000095e9      0x2bb build/coeappl.o
 .debug_loc     0x00000000000098a4      0x10a build/ecatappl.o
 .debug_loc     0x00000000000099ae      0x8d8 build/el9800appl.o
 .debug_loc     0x000000000000a286      0x51a build/el9800hw.o

Cross Reference Table

Symbol                                            File
ADC_AnalogWatchdogCmd                             build/stm32f4xx_adc.o
ADC_AnalogWatchdogSingleChannelConfig             build/stm32f4xx_adc.o
ADC_AnalogWatchdogThresholdsConfig                build/stm32f4xx_adc.o
ADC_AutoInjectedConvCmd                           build/stm32f4xx_adc.o
ADC_ClearFlag                                     build/stm32f4xx_adc.o
ADC_ClearITPendingBit                             build/stm32f4xx_adc.o
ADC_Cmd                                           build/stm32f4xx_adc.o
ADC_CommonInit                                    build/stm32f4xx_adc.o
ADC_CommonStructInit                              build/stm32f4xx_adc.o
ADC_ContinuousModeCmd                             build/stm32f4xx_adc.o
ADC_DMACmd                                        build/stm32f4xx_adc.o
ADC_DMARequestAfterLastTransferCmd                build/stm32f4xx_adc.o
ADC_DeInit                                        build/stm32f4xx_adc.o
ADC_DiscModeChannelCountConfig                    build/stm32f4xx_adc.o
ADC_DiscModeCmd                                   build/stm32f4xx_adc.o
ADC_EOCOnEachRegularChannelCmd                    build/stm32f4xx_adc.o
ADC_ExternalTrigInjectedConvConfig                build/stm32f4xx_adc.o
ADC_ExternalTrigInjectedConvEdgeConfig            build/stm32f4xx_adc.o
ADC_GetConversionValue                            build/stm32f4xx_adc.o
ADC_GetFlagStatus                                 build/stm32f4xx_adc.o
ADC_GetITStatus                                   build/stm32f4xx_adc.o
ADC_GetInjectedConversionValue                    build/stm32f4xx_adc.o
ADC_GetMultiModeConversionValue                   build/stm32f4xx_adc.o
ADC_GetSoftwareStartConvStatus                    build/stm32f4xx_adc.o
ADC_GetSoftwareStartInjectedConvCmdStatus         build/stm32f4xx_adc.o
ADC_IRQHandler                                    build/startup_stm32f405xx.o
ADC_ITConfig                                      build/stm32f4xx_adc.o
ADC_Init                                          build/stm32f4xx_adc.o
ADC_InjectedChannelConfig                         build/stm32f4xx_adc.o
ADC_InjectedDiscModeCmd                           build/stm32f4xx_adc.o
ADC_InjectedSequencerLengthConfig                 build/stm32f4xx_adc.o
ADC_MultiModeDMARequestAfterLastTransferCmd       build/stm32f4xx_adc.o
ADC_RegularChannelConfig                          build/stm32f4xx_adc.o
ADC_SetInjectedOffset                             build/stm32f4xx_adc.o
ADC_SoftwareStartConv                             build/stm32f4xx_adc.o
ADC_SoftwareStartInjectedConv                     build/stm32f4xx_adc.o
ADC_StructInit                                    build/stm32f4xx_adc.o
ADC_TempSensorVrefintCmd                          build/stm32f4xx_adc.o
ADC_VBATCmd                                       build/stm32f4xx_adc.o
AHBPrescTable                                     build/system_stm32f4xx.o
AL_ControlInd                                     build/ecatslv.o
AL_ControlRes                                     build/ecatslv.o
APPL_AckErrorInd                                  build/el9800appl.o
                                                  build/ecatslv.o
APPL_Application                                  build/el9800appl.o
                                                  build/ecatappl.o
APPL_GenerateMapping                              build/el9800appl.o
                                                  build/ecatslv.o
APPL_InputMapping                                 build/el9800appl.o
                                                  build/ecatappl.o
APPL_OutputMapping                                build/el9800appl.o
                                                  build/ecatappl.o
APPL_StartInputHandler                            build/el9800appl.o
                                                  build/ecatslv.o
APPL_StartMailboxHandler                          build/el9800appl.o
                                                  build/ecatslv.o
APPL_StartOutputHandler                           build/el9800appl.o
                                                  build/ecatslv.o
APPL_StopInputHandler                             build/el9800appl.o
                                                  build/ecatslv.o
APPL_StopMailboxHandler                           build/el9800appl.o
                                                  build/ecatslv.o
APPL_StopOutputHandler                            build/el9800appl.o
                                                  build/ecatslv.o
AddObjectsToObjDictionary                         build/coeappl.o
ApplicationObjDic                                 build/coeappl.o
BackToInitTransition                              build/ecatslv.o
BusFault_Handler                                  build/stm32f4xx_it.o
CAN1_Config                                       build/bsp_can.o
                                                  build/ecatappl.o
CAN1_RX0_IRQHandler                               build/bsp_can.o
CAN1_RX1_IRQHandler                               build/startup_stm32f405xx.o
CAN1_SCE_IRQHandler                               build/startup_stm32f405xx.o
CAN1_TX_IRQHandler                                build/startup_stm32f405xx.o
CAN2_Config                                       build/bsp_can.o
                                                  build/ecatappl.o
CAN2_RX0_IRQHandler                               build/bsp_can.o
CAN2_RX1_IRQHandler                               build/startup_stm32f405xx.o
CAN2_SCE_IRQHandler                               build/startup_stm32f405xx.o
CAN2_TX_IRQHandler                                build/startup_stm32f405xx.o
CAN_CancelTransmit                                build/stm32f4xx_can.o
CAN_ClearFlag                                     build/stm32f4xx_can.o
CAN_ClearITPendingBit                             build/stm32f4xx_can.o
CAN_DBGFreeze                                     build/stm32f4xx_can.o
CAN_DeInit                                        build/stm32f4xx_can.o
                                                  build/bsp_can.o
CAN_FIFORelease                                   build/stm32f4xx_can.o
CAN_FilterInit                                    build/stm32f4xx_can.o
                                                  build/bsp_can.o
CAN_GetFlagStatus                                 build/stm32f4xx_can.o
CAN_GetITStatus                                   build/stm32f4xx_can.o
CAN_GetLSBTransmitErrorCounter                    build/stm32f4xx_can.o
CAN_GetLastErrorCode                              build/stm32f4xx_can.o
CAN_GetReceiveErrorCounter                        build/stm32f4xx_can.o
CAN_ITConfig                                      build/stm32f4xx_can.o
                                                  build/bsp_can.o
CAN_Init                                          build/stm32f4xx_can.o
                                                  build/bsp_can.o
CAN_MessagePending                                build/stm32f4xx_can.o
CAN_OperatingModeRequest                          build/stm32f4xx_can.o
CAN_Receive                                       build/stm32f4xx_can.o
                                                  build/bsp_can.o
CAN_SlaveStartBank                                build/stm32f4xx_can.o
CAN_Sleep                                         build/stm32f4xx_can.o
CAN_StructInit                                    build/stm32f4xx_can.o
                                                  build/bsp_can.o
CAN_TTComModeCmd                                  build/stm32f4xx_can.o
CAN_Transmit                                      build/stm32f4xx_can.o
                                                  build/el9800appl.o
CAN_TransmitStatus                                build/stm32f4xx_can.o
CAN_WakeUp                                        build/stm32f4xx_can.o
COE_AddObjectToDic                                build/coeappl.o
COE_ClearObjDictionary                            build/coeappl.o
COE_ContinueInd                                   build/ecatcoe.o
                                                  build/mailbox.o
COE_GetObjectDictionary                           build/coeappl.o
                                                  build/objdef.o
COE_Init                                          build/ecatcoe.o
                                                  build/ecatslv.o
COE_Main                                          build/coeappl.o
                                                  build/ecatappl.o
COE_ObjDictionaryInit                             build/coeappl.o
COE_ObjInit                                       build/coeappl.o
                                                  build/ecatappl.o
COE_RemoveDicEntry                                build/coeappl.o
COE_ServiceInd                                    build/ecatcoe.o
                                                  build/mailbox.o
CRC_CalcBlockCRC                                  build/stm32f4xx_crc.o
CRC_CalcCRC                                       build/stm32f4xx_crc.o
CRC_GetCRC                                        build/stm32f4xx_crc.o
CRC_GetIDRegister                                 build/stm32f4xx_crc.o
CRC_ResetDR                                       build/stm32f4xx_crc.o
CRC_SetIDRegister                                 build/stm32f4xx_crc.o
CRYP_AES_CBC                                      build/stm32f4xx_cryp_aes.o
CRYP_AES_CCM                                      build/stm32f4xx_cryp_aes.o
CRYP_AES_CTR                                      build/stm32f4xx_cryp_aes.o
CRYP_AES_ECB                                      build/stm32f4xx_cryp_aes.o
CRYP_AES_GCM                                      build/stm32f4xx_cryp_aes.o
CRYP_Cmd                                          build/stm32f4xx_cryp.o
                                                  build/stm32f4xx_cryp_tdes.o
                                                  build/stm32f4xx_cryp_des.o
                                                  build/stm32f4xx_cryp_aes.o
CRYP_DES_CBC                                      build/stm32f4xx_cryp_des.o
CRYP_DES_ECB                                      build/stm32f4xx_cryp_des.o
CRYP_DMACmd                                       build/stm32f4xx_cryp.o
CRYP_DataIn                                       build/stm32f4xx_cryp.o
                                                  build/stm32f4xx_cryp_tdes.o
                                                  build/stm32f4xx_cryp_des.o
                                                  build/stm32f4xx_cryp_aes.o
CRYP_DataOut                                      build/stm32f4xx_cryp.o
                                                  build/stm32f4xx_cryp_tdes.o
                                                  build/stm32f4xx_cryp_des.o
                                                  build/stm32f4xx_cryp_aes.o
CRYP_DeInit                                       build/stm32f4xx_cryp.o
CRYP_FIFOFlush                                    build/stm32f4xx_cryp.o
                                                  build/stm32f4xx_cryp_tdes.o
                                                  build/stm32f4xx_cryp_des.o
                                                  build/stm32f4xx_cryp_aes.o
CRYP_GetCmdStatus                                 build/stm32f4xx_cryp.o
                                                  build/stm32f4xx_cryp_tdes.o
                                                  build/stm32f4xx_cryp_des.o
                                                  build/stm32f4xx_cryp_aes.o
CRYP_GetFlagStatus                                build/stm32f4xx_cryp.o
                                                  build/stm32f4xx_cryp_tdes.o
                                                  build/stm32f4xx_cryp_des.o
                                                  build/stm32f4xx_cryp_aes.o
CRYP_GetITStatus                                  build/stm32f4xx_cryp.o
CRYP_ITConfig                                     build/stm32f4xx_cryp.o
CRYP_IVInit                                       build/stm32f4xx_cryp.o
                                                  build/stm32f4xx_cryp_tdes.o
                                                  build/stm32f4xx_cryp_des.o
                                                  build/stm32f4xx_cryp_aes.o
CRYP_IVStructInit                                 build/stm32f4xx_cryp.o
CRYP_Init                                         build/stm32f4xx_cryp.o
                                                  build/stm32f4xx_cryp_tdes.o
                                                  build/stm32f4xx_cryp_des.o
                                                  build/stm32f4xx_cryp_aes.o
CRYP_KeyInit                                      build/stm32f4xx_cryp.o
                                                  build/stm32f4xx_cryp_tdes.o
                                                  build/stm32f4xx_cryp_des.o
                                                  build/stm32f4xx_cryp_aes.o
CRYP_KeyStructInit                                build/stm32f4xx_cryp.o
                                                  build/stm32f4xx_cryp_tdes.o
                                                  build/stm32f4xx_cryp_des.o
                                                  build/stm32f4xx_cryp_aes.o
CRYP_PhaseConfig                                  build/stm32f4xx_cryp.o
                                                  build/stm32f4xx_cryp_aes.o
CRYP_RestoreContext                               build/stm32f4xx_cryp.o
CRYP_SaveContext                                  build/stm32f4xx_cryp.o
CRYP_StructInit                                   build/stm32f4xx_cryp.o
CRYP_TDES_CBC                                     build/stm32f4xx_cryp_tdes.o
CRYP_TDES_ECB                                     build/stm32f4xx_cryp_tdes.o
Can1_RxMessage                                    build/bsp_can.o
                                                  build/el9800appl.o
Can1_TxMessage                                    build/bsp_can.o
                                                  build/el9800appl.o
Can2_RxMessage                                    build/bsp_can.o
                                                  build/el9800appl.o
Can2_TxMessage                                    build/bsp_can.o
                                                  build/el9800appl.o
CheckIfEcatError                                  build/ecatslv.o
                                                  build/ecatappl.o
CheckSmSettings                                   build/ecatslv.o
CheckSyncTypeValue                                build/objdef.o
DAC_ClearFlag                                     build/stm32f4xx_dac.o
DAC_ClearITPendingBit                             build/stm32f4xx_dac.o
DAC_Cmd                                           build/stm32f4xx_dac.o
DAC_DMACmd                                        build/stm32f4xx_dac.o
DAC_DeInit                                        build/stm32f4xx_dac.o
DAC_DualSoftwareTriggerCmd                        build/stm32f4xx_dac.o
DAC_GetDataOutputValue                            build/stm32f4xx_dac.o
DAC_GetFlagStatus                                 build/stm32f4xx_dac.o
DAC_GetITStatus                                   build/stm32f4xx_dac.o
DAC_ITConfig                                      build/stm32f4xx_dac.o
DAC_Init                                          build/stm32f4xx_dac.o
DAC_SetChannel1Data                               build/stm32f4xx_dac.o
DAC_SetChannel2Data                               build/stm32f4xx_dac.o
DAC_SetDualChannelData                            build/stm32f4xx_dac.o
DAC_SoftwareTriggerCmd                            build/stm32f4xx_dac.o
DAC_StructInit                                    build/stm32f4xx_dac.o
DAC_WaveGenerationCmd                             build/stm32f4xx_dac.o
DBGMCU_APB1PeriphConfig                           build/stm32f4xx_dbgmcu.o
DBGMCU_APB2PeriphConfig                           build/stm32f4xx_dbgmcu.o
DBGMCU_Config                                     build/stm32f4xx_dbgmcu.o
DBGMCU_GetDEVID                                   build/stm32f4xx_dbgmcu.o
DBGMCU_GetREVID                                   build/stm32f4xx_dbgmcu.o
DCMI_CROPCmd                                      build/stm32f4xx_dcmi.o
DCMI_CROPConfig                                   build/stm32f4xx_dcmi.o
DCMI_CaptureCmd                                   build/stm32f4xx_dcmi.o
DCMI_ClearFlag                                    build/stm32f4xx_dcmi.o
DCMI_ClearITPendingBit                            build/stm32f4xx_dcmi.o
DCMI_Cmd                                          build/stm32f4xx_dcmi.o
DCMI_DeInit                                       build/stm32f4xx_dcmi.o
DCMI_GetFlagStatus                                build/stm32f4xx_dcmi.o
DCMI_GetITStatus                                  build/stm32f4xx_dcmi.o
DCMI_ITConfig                                     build/stm32f4xx_dcmi.o
DCMI_Init                                         build/stm32f4xx_dcmi.o
DCMI_JPEGCmd                                      build/stm32f4xx_dcmi.o
DCMI_ReadData                                     build/stm32f4xx_dcmi.o
DCMI_SetEmbeddedSynchroCodes                      build/stm32f4xx_dcmi.o
DCMI_StructInit                                   build/stm32f4xx_dcmi.o
DC_CheckWatchdog                                  build/ecatslv.o
                                                  build/ecatappl.o
DMA1_Stream0_IRQHandler                           build/startup_stm32f405xx.o
DMA1_Stream1_IRQHandler                           build/startup_stm32f405xx.o
DMA1_Stream2_IRQHandler                           build/startup_stm32f405xx.o
DMA1_Stream3_IRQHandler                           build/startup_stm32f405xx.o
DMA1_Stream4_IRQHandler                           build/startup_stm32f405xx.o
DMA1_Stream5_IRQHandler                           build/startup_stm32f405xx.o
DMA1_Stream6_IRQHandler                           build/startup_stm32f405xx.o
DMA1_Stream7_IRQHandler                           build/startup_stm32f405xx.o
DMA2D_AbortTransfer                               build/stm32f4xx_dma2d.o
DMA2D_BGConfig                                    build/stm32f4xx_dma2d.o
DMA2D_BGStart                                     build/stm32f4xx_dma2d.o
DMA2D_BG_StructInit                               build/stm32f4xx_dma2d.o
DMA2D_ClearFlag                                   build/stm32f4xx_dma2d.o
DMA2D_ClearITPendingBit                           build/stm32f4xx_dma2d.o
DMA2D_DeInit                                      build/stm32f4xx_dma2d.o
DMA2D_DeadTimeConfig                              build/stm32f4xx_dma2d.o
DMA2D_FGConfig                                    build/stm32f4xx_dma2d.o
DMA2D_FGStart                                     build/stm32f4xx_dma2d.o
DMA2D_FG_StructInit                               build/stm32f4xx_dma2d.o
DMA2D_GetFlagStatus                               build/stm32f4xx_dma2d.o
DMA2D_GetITStatus                                 build/stm32f4xx_dma2d.o
DMA2D_ITConfig                                    build/stm32f4xx_dma2d.o
DMA2D_Init                                        build/stm32f4xx_dma2d.o
DMA2D_LineWatermarkConfig                         build/stm32f4xx_dma2d.o
DMA2D_StartTransfer                               build/stm32f4xx_dma2d.o
DMA2D_StructInit                                  build/stm32f4xx_dma2d.o
DMA2D_Suspend                                     build/stm32f4xx_dma2d.o
DMA2_Stream0_IRQHandler                           build/startup_stm32f405xx.o
DMA2_Stream1_IRQHandler                           build/startup_stm32f405xx.o
DMA2_Stream2_IRQHandler                           build/startup_stm32f405xx.o
DMA2_Stream3_IRQHandler                           build/startup_stm32f405xx.o
DMA2_Stream4_IRQHandler                           build/startup_stm32f405xx.o
DMA2_Stream5_IRQHandler                           build/startup_stm32f405xx.o
DMA2_Stream6_IRQHandler                           build/startup_stm32f405xx.o
DMA2_Stream7_IRQHandler                           build/startup_stm32f405xx.o
DMA_ClearFlag                                     build/stm32f4xx_dma.o
DMA_ClearITPendingBit                             build/stm32f4xx_dma.o
DMA_Cmd                                           build/stm32f4xx_dma.o
DMA_DeInit                                        build/stm32f4xx_dma.o
DMA_DoubleBufferModeCmd                           build/stm32f4xx_dma.o
DMA_DoubleBufferModeConfig                        build/stm32f4xx_dma.o
DMA_FlowControllerConfig                          build/stm32f4xx_dma.o
DMA_GetCmdStatus                                  build/stm32f4xx_dma.o
DMA_GetCurrDataCounter                            build/stm32f4xx_dma.o
DMA_GetCurrentMemoryTarget                        build/stm32f4xx_dma.o
DMA_GetFIFOStatus                                 build/stm32f4xx_dma.o
DMA_GetFlagStatus                                 build/stm32f4xx_dma.o
DMA_GetITStatus                                   build/stm32f4xx_dma.o
DMA_ITConfig                                      build/stm32f4xx_dma.o
DMA_Init                                          build/stm32f4xx_dma.o
DMA_MemoryTargetConfig                            build/stm32f4xx_dma.o
DMA_PeriphIncOffsetSizeConfig                     build/stm32f4xx_dma.o
DMA_SetCurrDataCounter                            build/stm32f4xx_dma.o
DMA_StructInit                                    build/stm32f4xx_dma.o
DebugMon_Handler                                  build/stm32f4xx_it.o
Default_Handler                                   build/startup_stm32f405xx.o
DisableSyncManChannel                             build/ecatslv.o
                                                  build/mailbox.o
ECAT_Application                                  build/ecatappl.o
ECAT_CheckTimer                                   build/ecatappl.o
                                                  build/el9800hw.o
ECAT_Init                                         build/ecatslv.o
                                                  build/ecatappl.o
ECAT_Main                                         build/ecatslv.o
                                                  build/ecatappl.o
ECAT_StateChange                                  build/ecatslv.o
EXTI0_Configuration                               build/EXIT.o
                                                  build/el9800hw.o
EXTI0_IRQHandler                                  build/el9800hw.o
EXTI15_10_IRQHandler                              build/startup_stm32f405xx.o
EXTI1_Configuration                               build/EXIT.o
                                                  build/el9800hw.o
EXTI1_IRQHandler                                  build/el9800hw.o
EXTI2_IRQHandler                                  build/startup_stm32f405xx.o
EXTI3_IRQHandler                                  build/el9800hw.o
EXTI4_IRQHandler                                  build/startup_stm32f405xx.o
EXTI8_Configuration                               build/EXIT.o
                                                  build/el9800hw.o
EXTI9_5_IRQHandler                                build/startup_stm32f405xx.o
EXTI_ClearFlag                                    build/stm32f4xx_exti.o
EXTI_ClearITPendingBit                            build/stm32f4xx_exti.o
                                                  build/el9800hw.o
EXTI_DeInit                                       build/stm32f4xx_exti.o
EXTI_GenerateSWInterrupt                          build/stm32f4xx_exti.o
EXTI_GetFlagStatus                                build/stm32f4xx_exti.o
EXTI_GetITStatus                                  build/stm32f4xx_exti.o
EXTI_Init                                         build/stm32f4xx_exti.o
                                                  build/EXIT.o
EXTI_StructInit                                   build/stm32f4xx_exti.o
EcatWdValue                                       build/ecatslv.o
EepromLoaded                                      build/ecatslv.o
EnableSyncManChannel                              build/ecatslv.o
                                                  build/mailbox.o
EscALEvent                                        build/el9800hw.o
EsmTimeoutCounter                                 build/ecatslv.o
                                                  build/ecatappl.o
FLASH_ClearFlag                                   build/stm32f4xx_flash.o
FLASH_DataCacheCmd                                build/stm32f4xx_flash.o
FLASH_DataCacheReset                              build/stm32f4xx_flash.o
FLASH_EraseAllBank1Sectors                        build/stm32f4xx_flash.o
FLASH_EraseAllBank2Sectors                        build/stm32f4xx_flash.o
FLASH_EraseAllSectors                             build/stm32f4xx_flash.o
FLASH_EraseSector                                 build/stm32f4xx_flash.o
FLASH_FlashInterfaceCmd                           build/stm32f4xx_flash_ramfunc.o
FLASH_FlashSleepModeCmd                           build/stm32f4xx_flash_ramfunc.o
FLASH_GetFlagStatus                               build/stm32f4xx_flash.o
FLASH_GetStatus                                   build/stm32f4xx_flash.o
FLASH_IRQHandler                                  build/startup_stm32f405xx.o
FLASH_ITConfig                                    build/stm32f4xx_flash.o
FLASH_InstructionCacheCmd                         build/stm32f4xx_flash.o
FLASH_InstructionCacheReset                       build/stm32f4xx_flash.o
FLASH_Lock                                        build/stm32f4xx_flash.o
FLASH_OB_BORConfig                                build/stm32f4xx_flash.o
FLASH_OB_BootConfig                               build/stm32f4xx_flash.o
FLASH_OB_GetBOR                                   build/stm32f4xx_flash.o
FLASH_OB_GetPCROP                                 build/stm32f4xx_flash.o
FLASH_OB_GetPCROP1                                build/stm32f4xx_flash.o
FLASH_OB_GetRDP                                   build/stm32f4xx_flash.o
FLASH_OB_GetUser                                  build/stm32f4xx_flash.o
FLASH_OB_GetWRP                                   build/stm32f4xx_flash.o
FLASH_OB_GetWRP1                                  build/stm32f4xx_flash.o
FLASH_OB_Launch                                   build/stm32f4xx_flash.o
FLASH_OB_Lock                                     build/stm32f4xx_flash.o
FLASH_OB_PCROP1Config                             build/stm32f4xx_flash.o
FLASH_OB_PCROPConfig                              build/stm32f4xx_flash.o
FLASH_OB_PCROPSelectionConfig                     build/stm32f4xx_flash.o
FLASH_OB_RDPConfig                                build/stm32f4xx_flash.o
FLASH_OB_Unlock                                   build/stm32f4xx_flash.o
FLASH_OB_UserConfig                               build/stm32f4xx_flash.o
FLASH_OB_WRP1Config                               build/stm32f4xx_flash.o
FLASH_OB_WRPConfig                                build/stm32f4xx_flash.o
FLASH_PrefetchBufferCmd                           build/stm32f4xx_flash.o
FLASH_ProgramByte                                 build/stm32f4xx_flash.o
FLASH_ProgramDoubleWord                           build/stm32f4xx_flash.o
FLASH_ProgramHalfWord                             build/stm32f4xx_flash.o
FLASH_ProgramWord                                 build/stm32f4xx_flash.o
FLASH_SetLatency                                  build/stm32f4xx_flash.o
FLASH_Unlock                                      build/stm32f4xx_flash.o
FLASH_WaitForLastOperation                        build/stm32f4xx_flash.o
FPU_IRQHandler                                    build/startup_stm32f405xx.o
FSMC_ClearFlag                                    build/stm32f4xx_fsmc.o
FSMC_ClearITPendingBit                            build/stm32f4xx_fsmc.o
FSMC_DefaultTimingStruct                          build/stm32f4xx_fsmc.o
FSMC_GetECC                                       build/stm32f4xx_fsmc.o
FSMC_GetFlagStatus                                build/stm32f4xx_fsmc.o
FSMC_GetITStatus                                  build/stm32f4xx_fsmc.o
FSMC_IRQHandler                                   build/startup_stm32f405xx.o
FSMC_ITConfig                                     build/stm32f4xx_fsmc.o
FSMC_NANDCmd                                      build/stm32f4xx_fsmc.o
FSMC_NANDDeInit                                   build/stm32f4xx_fsmc.o
FSMC_NANDECCCmd                                   build/stm32f4xx_fsmc.o
FSMC_NANDInit                                     build/stm32f4xx_fsmc.o
FSMC_NANDStructInit                               build/stm32f4xx_fsmc.o
FSMC_NORSRAMCmd                                   build/stm32f4xx_fsmc.o
FSMC_NORSRAMDeInit                                build/stm32f4xx_fsmc.o
FSMC_NORSRAMInit                                  build/stm32f4xx_fsmc.o
FSMC_NORSRAMStructInit                            build/stm32f4xx_fsmc.o
FSMC_PCCARDCmd                                    build/stm32f4xx_fsmc.o
FSMC_PCCARDDeInit                                 build/stm32f4xx_fsmc.o
FSMC_PCCARDInit                                   build/stm32f4xx_fsmc.o
FSMC_PCCARDStructInit                             build/stm32f4xx_fsmc.o
GPIO_Config                                       build/el9800hw.o
GPIO_DeInit                                       build/stm32f4xx_gpio.o
GPIO_Init                                         build/stm32f4xx_gpio.o
                                                  build/el9800hw.o
                                                  build/bsp_spi2.o
                                                  build/bsp_led.o
                                                  build/bsp_can.o
                                                  build/SPI1.o
                                                  build/RST.o
                                                  build/EXIT.o
GPIO_PinAFConfig                                  build/stm32f4xx_gpio.o
                                                  build/bsp_spi2.o
                                                  build/bsp_can.o
                                                  build/SPI1.o
GPIO_PinLockConfig                                build/stm32f4xx_gpio.o
GPIO_ReadInputData                                build/stm32f4xx_gpio.o
GPIO_ReadInputDataBit                             build/stm32f4xx_gpio.o
GPIO_ReadOutputData                               build/stm32f4xx_gpio.o
GPIO_ReadOutputDataBit                            build/stm32f4xx_gpio.o
GPIO_ResetBits                                    build/stm32f4xx_gpio.o
                                                  build/el9800hw.o
                                                  build/el9800appl.o
                                                  build/RST.o
GPIO_SetBits                                      build/stm32f4xx_gpio.o
                                                  build/el9800hw.o
                                                  build/el9800appl.o
                                                  build/RST.o
GPIO_StructInit                                   build/stm32f4xx_gpio.o
GPIO_ToggleBits                                   build/stm32f4xx_gpio.o
                                                  build/bsp_can.o
GPIO_Write                                        build/stm32f4xx_gpio.o
GPIO_WriteBit                                     build/stm32f4xx_gpio.o
GenObjDic                                         build/coeappl.o
GetOutOfMbxQueue                                  build/mailbox.o
GetSyncMan                                        build/ecatslv.o
                                                  build/mailbox.o
HASH_AutoStartDigest                              build/stm32f4xx_hash.o
HASH_ClearFlag                                    build/stm32f4xx_hash.o
HASH_ClearITPendingBit                            build/stm32f4xx_hash.o
HASH_DMACmd                                       build/stm32f4xx_hash.o
HASH_DataIn                                       build/stm32f4xx_hash.o
                                                  build/stm32f4xx_hash_sha1.o
                                                  build/stm32f4xx_hash_md5.o
HASH_DeInit                                       build/stm32f4xx_hash.o
                                                  build/stm32f4xx_hash_sha1.o
                                                  build/stm32f4xx_hash_md5.o
HASH_GetDigest                                    build/stm32f4xx_hash.o
                                                  build/stm32f4xx_hash_sha1.o
                                                  build/stm32f4xx_hash_md5.o
HASH_GetFlagStatus                                build/stm32f4xx_hash.o
                                                  build/stm32f4xx_hash_sha1.o
                                                  build/stm32f4xx_hash_md5.o
HASH_GetITStatus                                  build/stm32f4xx_hash.o
HASH_GetInFIFOWordsNbr                            build/stm32f4xx_hash.o
HASH_ITConfig                                     build/stm32f4xx_hash.o
HASH_Init                                         build/stm32f4xx_hash.o
                                                  build/stm32f4xx_hash_sha1.o
                                                  build/stm32f4xx_hash_md5.o
HASH_MD5                                          build/stm32f4xx_hash_md5.o
HASH_RNG_IRQHandler                               build/startup_stm32f405xx.o
HASH_Reset                                        build/stm32f4xx_hash.o
HASH_RestoreContext                               build/stm32f4xx_hash.o
HASH_SHA1                                         build/stm32f4xx_hash_sha1.o
HASH_SaveContext                                  build/stm32f4xx_hash.o
HASH_SetLastWordValidBitsNbr                      build/stm32f4xx_hash.o
                                                  build/stm32f4xx_hash_sha1.o
                                                  build/stm32f4xx_hash_md5.o
HASH_StartDigest                                  build/stm32f4xx_hash.o
                                                  build/stm32f4xx_hash_sha1.o
                                                  build/stm32f4xx_hash_md5.o
HASH_StructInit                                   build/stm32f4xx_hash.o
HMAC_MD5                                          build/stm32f4xx_hash_md5.o
HMAC_SHA1                                         build/stm32f4xx_hash_sha1.o
HW_EscRead                                        build/el9800hw.o
                                                  build/mailbox.o
                                                  build/ecatslv.o
HW_EscReadIsr                                     build/el9800hw.o
                                                  build/ecatappl.o
HW_EscWrite                                       build/el9800hw.o
                                                  build/mailbox.o
                                                  build/ecatslv.o
HW_EscWriteIsr                                    build/el9800hw.o
                                                  build/ecatappl.o
HW_GetALEventRegister                             build/el9800hw.o
                                                  build/ecatappl.o
                                                  build/ecatslv.o
HW_GetALEventRegister_Isr                         build/el9800hw.o
                                                  build/ecatappl.o
HW_Init                                           build/el9800hw.o
                                                  build/el9800appl.o
HW_Release                                        build/el9800hw.o
                                                  build/el9800appl.o
HandleBusCycleCalculation                         build/ecatappl.o
HardFault_Handler                                 build/stm32f4xx_it.o
I2C1_ER_IRQHandler                                build/startup_stm32f405xx.o
I2C1_EV_IRQHandler                                build/startup_stm32f405xx.o
I2C2_ER_IRQHandler                                build/startup_stm32f405xx.o
I2C2_EV_IRQHandler                                build/startup_stm32f405xx.o
I2C3_ER_IRQHandler                                build/startup_stm32f405xx.o
I2C3_EV_IRQHandler                                build/startup_stm32f405xx.o
I2C_ARPCmd                                        build/stm32f4xx_i2c.o
I2C_AcknowledgeConfig                             build/stm32f4xx_i2c.o
I2C_AnalogFilterCmd                               build/stm32f4xx_i2c.o
I2C_CalculatePEC                                  build/stm32f4xx_i2c.o
I2C_CheckEvent                                    build/stm32f4xx_i2c.o
I2C_ClearFlag                                     build/stm32f4xx_i2c.o
I2C_ClearITPendingBit                             build/stm32f4xx_i2c.o
I2C_Cmd                                           build/stm32f4xx_i2c.o
I2C_DMACmd                                        build/stm32f4xx_i2c.o
I2C_DMALastTransferCmd                            build/stm32f4xx_i2c.o
I2C_DeInit                                        build/stm32f4xx_i2c.o
I2C_DigitalFilterConfig                           build/stm32f4xx_i2c.o
I2C_DualAddressCmd                                build/stm32f4xx_i2c.o
I2C_FastModeDutyCycleConfig                       build/stm32f4xx_i2c.o
I2C_GeneralCallCmd                                build/stm32f4xx_i2c.o
I2C_GenerateSTART                                 build/stm32f4xx_i2c.o
I2C_GenerateSTOP                                  build/stm32f4xx_i2c.o
I2C_GetFlagStatus                                 build/stm32f4xx_i2c.o
I2C_GetITStatus                                   build/stm32f4xx_i2c.o
I2C_GetLastEvent                                  build/stm32f4xx_i2c.o
I2C_GetPEC                                        build/stm32f4xx_i2c.o
I2C_ITConfig                                      build/stm32f4xx_i2c.o
I2C_Init                                          build/stm32f4xx_i2c.o
I2C_NACKPositionConfig                            build/stm32f4xx_i2c.o
I2C_OwnAddress2Config                             build/stm32f4xx_i2c.o
I2C_PECPositionConfig                             build/stm32f4xx_i2c.o
I2C_ReadRegister                                  build/stm32f4xx_i2c.o
I2C_ReceiveData                                   build/stm32f4xx_i2c.o
I2C_SMBusAlertConfig                              build/stm32f4xx_i2c.o
I2C_Send7bitAddress                               build/stm32f4xx_i2c.o
I2C_SendData                                      build/stm32f4xx_i2c.o
I2C_SoftwareResetCmd                              build/stm32f4xx_i2c.o
I2C_StretchClockCmd                               build/stm32f4xx_i2c.o
I2C_StructInit                                    build/stm32f4xx_i2c.o
I2C_TransmitPEC                                   build/stm32f4xx_i2c.o
I2S_Cmd                                           build/stm32f4xx_spi.o
I2S_FullDuplexConfig                              build/stm32f4xx_spi.o
I2S_Init                                          build/stm32f4xx_spi.o
I2S_StructInit                                    build/stm32f4xx_spi.o
IWDG_Enable                                       build/stm32f4xx_iwdg.o
IWDG_GetFlagStatus                                build/stm32f4xx_iwdg.o
IWDG_ReloadCounter                                build/stm32f4xx_iwdg.o
IWDG_SetPrescaler                                 build/stm32f4xx_iwdg.o
IWDG_SetReload                                    build/stm32f4xx_iwdg.o
IWDG_WriteAccessCmd                               build/stm32f4xx_iwdg.o
LTDC_CLUTCmd                                      build/stm32f4xx_ltdc.o
LTDC_CLUTInit                                     build/stm32f4xx_ltdc.o
LTDC_CLUTStructInit                               build/stm32f4xx_ltdc.o
LTDC_ClearFlag                                    build/stm32f4xx_ltdc.o
LTDC_ClearITPendingBit                            build/stm32f4xx_ltdc.o
LTDC_Cmd                                          build/stm32f4xx_ltdc.o
LTDC_ColorKeyingConfig                            build/stm32f4xx_ltdc.o
LTDC_ColorKeyingStructInit                        build/stm32f4xx_ltdc.o
LTDC_DeInit                                       build/stm32f4xx_ltdc.o
LTDC_DitherCmd                                    build/stm32f4xx_ltdc.o
LTDC_GetCDStatus                                  build/stm32f4xx_ltdc.o
LTDC_GetFlagStatus                                build/stm32f4xx_ltdc.o
LTDC_GetITStatus                                  build/stm32f4xx_ltdc.o
LTDC_GetPosStatus                                 build/stm32f4xx_ltdc.o
LTDC_GetRGBWidth                                  build/stm32f4xx_ltdc.o
LTDC_ITConfig                                     build/stm32f4xx_ltdc.o
LTDC_Init                                         build/stm32f4xx_ltdc.o
LTDC_LIPConfig                                    build/stm32f4xx_ltdc.o
LTDC_LayerAddress                                 build/stm32f4xx_ltdc.o
LTDC_LayerAlpha                                   build/stm32f4xx_ltdc.o
LTDC_LayerCmd                                     build/stm32f4xx_ltdc.o
LTDC_LayerInit                                    build/stm32f4xx_ltdc.o
LTDC_LayerPixelFormat                             build/stm32f4xx_ltdc.o
LTDC_LayerPosition                                build/stm32f4xx_ltdc.o
LTDC_LayerSize                                    build/stm32f4xx_ltdc.o
LTDC_LayerStructInit                              build/stm32f4xx_ltdc.o
LTDC_PosStructInit                                build/stm32f4xx_ltdc.o
LTDC_RGBStructInit                                build/stm32f4xx_ltdc.o
LTDC_ReloadConfig                                 build/stm32f4xx_ltdc.o
LTDC_StructInit                                   build/stm32f4xx_ltdc.o
LatchInputSync0Counter                            build/ecatslv.o
                                                  build/ecatappl.o
LatchInputSync0Value                              build/ecatslv.o
                                                  build/ecatappl.o
MBX_CheckAndCopyMailbox                           build/mailbox.o
                                                  build/ecatslv.o
MBX_CopyToSendMailbox                             build/mailbox.o
MBX_Init                                          build/mailbox.o
                                                  build/ecatslv.o
MBX_MailboxReadInd                                build/mailbox.o
                                                  build/ecatslv.o
MBX_MailboxRepeatReq                              build/mailbox.o
                                                  build/ecatslv.o
MBX_MailboxSendReq                                build/mailbox.o
                                                  build/sdoserv.o
                                                  build/ecatcoe.o
MBX_MailboxWriteInd                               build/mailbox.o
MBX_Main                                          build/mailbox.o
                                                  build/ecatslv.o
MBX_StartMailboxHandler                           build/mailbox.o
                                                  build/ecatslv.o
MBX_StopMailboxHandler                            build/mailbox.o
                                                  build/ecatslv.o
MailboxServiceInd                                 build/mailbox.o
MainInit                                          build/ecatappl.o
                                                  build/el9800appl.o
MainLoop                                          build/ecatappl.o
                                                  build/el9800appl.o
MemManage_Handler                                 build/stm32f4xx_it.o
NMI_Handler                                       build/stm32f4xx_it.o
NVIC_Init                                         build/misc.o
                                                  build/bsp_can.o
                                                  build/Timer.o
                                                  build/EXIT.o
NVIC_PriorityGroupConfig                          build/misc.o
                                                  build/bsp_can.o
                                                  build/Timer.o
                                                  build/EXIT.o
NVIC_SetVectorTable                               build/misc.o
NVIC_SystemLPConfig                               build/misc.o
OBJ_CopyNumberToString                            build/objdef.o
OBJ_GetDesc                                       build/objdef.o
                                                  build/sdoserv.o
OBJ_GetEntryDesc                                  build/objdef.o
                                                  build/sdoserv.o
OBJ_GetEntryOffset                                build/objdef.o
                                                  build/el9800appl.o
OBJ_GetNoOfObjects                                build/objdef.o
                                                  build/sdoserv.o
OBJ_GetObjDesc                                    build/objdef.o
                                                  build/sdoserv.o
OBJ_GetObjectHandle                               build/objdef.o
                                                  build/el9800appl.o
                                                  build/sdoserv.o
OBJ_GetObjectLength                               build/objdef.o
                                                  build/sdoserv.o
OBJ_GetObjectList                                 build/objdef.o
                                                  build/sdoserv.o
OBJ_Read                                          build/objdef.o
                                                  build/sdoserv.o
OBJ_Write                                         build/objdef.o
                                                  build/sdoserv.o
OTG_FS_IRQHandler                                 build/startup_stm32f405xx.o
OTG_FS_WKUP_IRQHandler                            build/startup_stm32f405xx.o
OTG_HS_EP1_IN_IRQHandler                          build/startup_stm32f405xx.o
OTG_HS_EP1_OUT_IRQHandler                         build/startup_stm32f405xx.o
OTG_HS_IRQHandler                                 build/startup_stm32f405xx.o
OTG_HS_WKUP_IRQHandler                            build/startup_stm32f405xx.o
ObjDicList                                        build/coeappl.o
PDI_Isr                                           build/ecatappl.o
                                                  build/el9800hw.o
PDO_InputMapping                                  build/ecatappl.o
                                                  build/ecatslv.o
PDO_OutputMapping                                 build/ecatappl.o
PVD_IRQHandler                                    build/startup_stm32f405xx.o
PWR_BackupAccessCmd                               build/stm32f4xx_pwr.o
PWR_BackupRegulatorCmd                            build/stm32f4xx_pwr.o
PWR_ClearFlag                                     build/stm32f4xx_pwr.o
PWR_DeInit                                        build/stm32f4xx_pwr.o
PWR_EnterSTANDBYMode                              build/stm32f4xx_pwr.o
PWR_EnterSTOPMode                                 build/stm32f4xx_pwr.o
PWR_EnterUnderDriveSTOPMode                       build/stm32f4xx_pwr.o
PWR_FlashPowerDownCmd                             build/stm32f4xx_pwr.o
PWR_GetFlagStatus                                 build/stm32f4xx_pwr.o
PWR_MainRegulatorModeConfig                       build/stm32f4xx_pwr.o
PWR_OverDriveCmd                                  build/stm32f4xx_pwr.o
PWR_OverDriveSWCmd                                build/stm32f4xx_pwr.o
PWR_PVDCmd                                        build/stm32f4xx_pwr.o
PWR_PVDLevelConfig                                build/stm32f4xx_pwr.o
PWR_UnderDriveCmd                                 build/stm32f4xx_pwr.o
PWR_WakeUpPinCmd                                  build/stm32f4xx_pwr.o
PendSV_Handler                                    build/stm32f4xx_it.o
PutInMbxQueue                                     build/mailbox.o
RCC_AHB1PeriphClockCmd                            build/stm32f4xx_rcc.o
                                                  build/el9800hw.o
                                                  build/bsp_spi2.o
                                                  build/bsp_led.o
                                                  build/bsp_can.o
                                                  build/SPI1.o
                                                  build/RST.o
                                                  build/EXIT.o
RCC_AHB1PeriphClockLPModeCmd                      build/stm32f4xx_rcc.o
RCC_AHB1PeriphResetCmd                            build/stm32f4xx_rcc.o
                                                  build/stm32f4xx_gpio.o
                                                  build/stm32f4xx_dma2d.o
RCC_AHB2PeriphClockCmd                            build/stm32f4xx_rcc.o
RCC_AHB2PeriphClockLPModeCmd                      build/stm32f4xx_rcc.o
RCC_AHB2PeriphResetCmd                            build/stm32f4xx_rcc.o
                                                  build/stm32f4xx_rng.o
                                                  build/stm32f4xx_hash.o
                                                  build/stm32f4xx_cryp.o
RCC_AHB3PeriphClockCmd                            build/stm32f4xx_rcc.o
RCC_AHB3PeriphClockLPModeCmd                      build/stm32f4xx_rcc.o
RCC_AHB3PeriphResetCmd                            build/stm32f4xx_rcc.o
RCC_APB1PeriphClockCmd                            build/stm32f4xx_rcc.o
                                                  build/bsp_spi2.o
                                                  build/bsp_can.o
                                                  build/Timer.o
RCC_APB1PeriphClockLPModeCmd                      build/stm32f4xx_rcc.o
RCC_APB1PeriphResetCmd                            build/stm32f4xx_rcc.o
                                                  build/stm32f4xx_wwdg.o
                                                  build/stm32f4xx_usart.o
                                                  build/stm32f4xx_tim.o
                                                  build/stm32f4xx_spi.o
                                                  build/stm32f4xx_pwr.o
                                                  build/stm32f4xx_i2c.o
                                                  build/stm32f4xx_dac.o
                                                  build/stm32f4xx_can.o
RCC_APB2PeriphClockCmd                            build/stm32f4xx_rcc.o
                                                  build/SPI1.o
                                                  build/EXIT.o
RCC_APB2PeriphClockLPModeCmd                      build/stm32f4xx_rcc.o
RCC_APB2PeriphResetCmd                            build/stm32f4xx_rcc.o
                                                  build/stm32f4xx_usart.o
                                                  build/stm32f4xx_tim.o
                                                  build/stm32f4xx_syscfg.o
                                                  build/stm32f4xx_spi.o
                                                  build/stm32f4xx_sdio.o
                                                  build/stm32f4xx_sai.o
                                                  build/stm32f4xx_ltdc.o
                                                  build/stm32f4xx_adc.o
RCC_AdjustHSICalibrationValue                     build/stm32f4xx_rcc.o
RCC_BackupResetCmd                                build/stm32f4xx_rcc.o
RCC_ClearFlag                                     build/stm32f4xx_rcc.o
RCC_ClearITPendingBit                             build/stm32f4xx_rcc.o
RCC_ClockSecuritySystemCmd                        build/stm32f4xx_rcc.o
RCC_DeInit                                        build/stm32f4xx_rcc.o
RCC_GetClocksFreq                                 build/stm32f4xx_rcc.o
                                                  build/stm32f4xx_usart.o
                                                  build/stm32f4xx_i2c.o
RCC_GetFlagStatus                                 build/stm32f4xx_rcc.o
RCC_GetITStatus                                   build/stm32f4xx_rcc.o
RCC_GetSYSCLKSource                               build/stm32f4xx_rcc.o
RCC_HCLKConfig                                    build/stm32f4xx_rcc.o
RCC_HSEConfig                                     build/stm32f4xx_rcc.o
RCC_HSICmd                                        build/stm32f4xx_rcc.o
RCC_I2SCLKConfig                                  build/stm32f4xx_rcc.o
RCC_IRQHandler                                    build/startup_stm32f405xx.o
RCC_ITConfig                                      build/stm32f4xx_rcc.o
RCC_LSEConfig                                     build/stm32f4xx_rcc.o
RCC_LSEModeConfig                                 build/stm32f4xx_rcc.o
RCC_LSICmd                                        build/stm32f4xx_rcc.o
RCC_LTDCCLKDivConfig                              build/stm32f4xx_rcc.o
RCC_MCO1Config                                    build/stm32f4xx_rcc.o
RCC_MCO2Config                                    build/stm32f4xx_rcc.o
RCC_PCLK1Config                                   build/stm32f4xx_rcc.o
RCC_PCLK2Config                                   build/stm32f4xx_rcc.o
RCC_PLLCmd                                        build/stm32f4xx_rcc.o
RCC_PLLConfig                                     build/stm32f4xx_rcc.o
RCC_PLLI2SCmd                                     build/stm32f4xx_rcc.o
RCC_PLLI2SConfig                                  build/stm32f4xx_rcc.o
RCC_PLLSAICmd                                     build/stm32f4xx_rcc.o
RCC_PLLSAIConfig                                  build/stm32f4xx_rcc.o
RCC_RTCCLKCmd                                     build/stm32f4xx_rcc.o
RCC_RTCCLKConfig                                  build/stm32f4xx_rcc.o
RCC_SAIBlockACLKConfig                            build/stm32f4xx_rcc.o
RCC_SAIBlockBCLKConfig                            build/stm32f4xx_rcc.o
RCC_SAIPLLI2SClkDivConfig                         build/stm32f4xx_rcc.o
RCC_SAIPLLSAIClkDivConfig                         build/stm32f4xx_rcc.o
RCC_SYSCLKConfig                                  build/stm32f4xx_rcc.o
RCC_TIMCLKPresConfig                              build/stm32f4xx_rcc.o
RCC_WaitForHSEStartUp                             build/stm32f4xx_rcc.o
RNG_ClearFlag                                     build/stm32f4xx_rng.o
RNG_ClearITPendingBit                             build/stm32f4xx_rng.o
RNG_Cmd                                           build/stm32f4xx_rng.o
RNG_DeInit                                        build/stm32f4xx_rng.o
RNG_GetFlagStatus                                 build/stm32f4xx_rng.o
RNG_GetITStatus                                   build/stm32f4xx_rng.o
RNG_GetRandomNumber                               build/stm32f4xx_rng.o
RNG_ITConfig                                      build/stm32f4xx_rng.o
RTC_AlarmCmd                                      build/stm32f4xx_rtc.o
RTC_AlarmStructInit                               build/stm32f4xx_rtc.o
RTC_AlarmSubSecondConfig                          build/stm32f4xx_rtc.o
RTC_Alarm_IRQHandler                              build/startup_stm32f405xx.o
RTC_BypassShadowCmd                               build/stm32f4xx_rtc.o
RTC_CalibOutputCmd                                build/stm32f4xx_rtc.o
RTC_CalibOutputConfig                             build/stm32f4xx_rtc.o
RTC_ClearFlag                                     build/stm32f4xx_rtc.o
RTC_ClearITPendingBit                             build/stm32f4xx_rtc.o
RTC_CoarseCalibCmd                                build/stm32f4xx_rtc.o
RTC_CoarseCalibConfig                             build/stm32f4xx_rtc.o
RTC_DateStructInit                                build/stm32f4xx_rtc.o
RTC_DayLightSavingConfig                          build/stm32f4xx_rtc.o
RTC_DeInit                                        build/stm32f4xx_rtc.o
RTC_EnterInitMode                                 build/stm32f4xx_rtc.o
RTC_ExitInitMode                                  build/stm32f4xx_rtc.o
RTC_GetAlarm                                      build/stm32f4xx_rtc.o
RTC_GetAlarmSubSecond                             build/stm32f4xx_rtc.o
RTC_GetDate                                       build/stm32f4xx_rtc.o
RTC_GetFlagStatus                                 build/stm32f4xx_rtc.o
RTC_GetITStatus                                   build/stm32f4xx_rtc.o
RTC_GetStoreOperation                             build/stm32f4xx_rtc.o
RTC_GetSubSecond                                  build/stm32f4xx_rtc.o
RTC_GetTime                                       build/stm32f4xx_rtc.o
RTC_GetTimeStamp                                  build/stm32f4xx_rtc.o
RTC_GetTimeStampSubSecond                         build/stm32f4xx_rtc.o
RTC_GetWakeUpCounter                              build/stm32f4xx_rtc.o
RTC_ITConfig                                      build/stm32f4xx_rtc.o
RTC_Init                                          build/stm32f4xx_rtc.o
RTC_OutputConfig                                  build/stm32f4xx_rtc.o
RTC_OutputTypeConfig                              build/stm32f4xx_rtc.o
RTC_ReadBackupRegister                            build/stm32f4xx_rtc.o
RTC_RefClockCmd                                   build/stm32f4xx_rtc.o
RTC_SetAlarm                                      build/stm32f4xx_rtc.o
RTC_SetDate                                       build/stm32f4xx_rtc.o
RTC_SetTime                                       build/stm32f4xx_rtc.o
RTC_SetWakeUpCounter                              build/stm32f4xx_rtc.o
RTC_SmoothCalibConfig                             build/stm32f4xx_rtc.o
RTC_StructInit                                    build/stm32f4xx_rtc.o
RTC_SynchroShiftConfig                            build/stm32f4xx_rtc.o
RTC_TamperCmd                                     build/stm32f4xx_rtc.o
RTC_TamperFilterConfig                            build/stm32f4xx_rtc.o
RTC_TamperPinSelection                            build/stm32f4xx_rtc.o
RTC_TamperPinsPrechargeDuration                   build/stm32f4xx_rtc.o
RTC_TamperPullUpCmd                               build/stm32f4xx_rtc.o
RTC_TamperSamplingFreqConfig                      build/stm32f4xx_rtc.o
RTC_TamperTriggerConfig                           build/stm32f4xx_rtc.o
RTC_TimeStampCmd                                  build/stm32f4xx_rtc.o
RTC_TimeStampOnTamperDetectionCmd                 build/stm32f4xx_rtc.o
RTC_TimeStampPinSelection                         build/stm32f4xx_rtc.o
RTC_TimeStructInit                                build/stm32f4xx_rtc.o
RTC_WKUP_IRQHandler                               build/startup_stm32f405xx.o
RTC_WaitForSynchro                                build/stm32f4xx_rtc.o
RTC_WakeUpClockConfig                             build/stm32f4xx_rtc.o
RTC_WakeUpCmd                                     build/stm32f4xx_rtc.o
RTC_WriteBackupRegister                           build/stm32f4xx_rtc.o
RTC_WriteProtectionCmd                            build/stm32f4xx_rtc.o
ReadObject0x1802                                  build/el9800appl.o
                                                  build/coeappl.o
ResetALEventMask                                  build/ecatslv.o
Reset_Handler                                     build/startup_stm32f405xx.o
SAI_ClearFlag                                     build/stm32f4xx_sai.o
SAI_ClearITPendingBit                             build/stm32f4xx_sai.o
SAI_Cmd                                           build/stm32f4xx_sai.o
SAI_CompandingModeConfig                          build/stm32f4xx_sai.o
SAI_DMACmd                                        build/stm32f4xx_sai.o
SAI_DeInit                                        build/stm32f4xx_sai.o
SAI_FlushFIFO                                     build/stm32f4xx_sai.o
SAI_FrameInit                                     build/stm32f4xx_sai.o
SAI_FrameStructInit                               build/stm32f4xx_sai.o
SAI_GetCmdStatus                                  build/stm32f4xx_sai.o
SAI_GetFIFOStatus                                 build/stm32f4xx_sai.o
SAI_GetFlagStatus                                 build/stm32f4xx_sai.o
SAI_GetITStatus                                   build/stm32f4xx_sai.o
SAI_ITConfig                                      build/stm32f4xx_sai.o
SAI_Init                                          build/stm32f4xx_sai.o
SAI_MonoModeConfig                                build/stm32f4xx_sai.o
SAI_MuteFrameCounterConfig                        build/stm32f4xx_sai.o
SAI_MuteModeCmd                                   build/stm32f4xx_sai.o
SAI_MuteValueConfig                               build/stm32f4xx_sai.o
SAI_ReceiveData                                   build/stm32f4xx_sai.o
SAI_SendData                                      build/stm32f4xx_sai.o
SAI_SlotInit                                      build/stm32f4xx_sai.o
SAI_SlotStructInit                                build/stm32f4xx_sai.o
SAI_StructInit                                    build/stm32f4xx_sai.o
SAI_TRIStateConfig                                build/stm32f4xx_sai.o
SDIO_CEATAITCmd                                   build/stm32f4xx_sdio.o
SDIO_ClearFlag                                    build/stm32f4xx_sdio.o
SDIO_ClearITPendingBit                            build/stm32f4xx_sdio.o
SDIO_ClockCmd                                     build/stm32f4xx_sdio.o
SDIO_CmdStructInit                                build/stm32f4xx_sdio.o
SDIO_CommandCompletionCmd                         build/stm32f4xx_sdio.o
SDIO_DMACmd                                       build/stm32f4xx_sdio.o
SDIO_DataConfig                                   build/stm32f4xx_sdio.o
SDIO_DataStructInit                               build/stm32f4xx_sdio.o
SDIO_DeInit                                       build/stm32f4xx_sdio.o
SDIO_GetCommandResponse                           build/stm32f4xx_sdio.o
SDIO_GetDataCounter                               build/stm32f4xx_sdio.o
SDIO_GetFIFOCount                                 build/stm32f4xx_sdio.o
SDIO_GetFlagStatus                                build/stm32f4xx_sdio.o
SDIO_GetITStatus                                  build/stm32f4xx_sdio.o
SDIO_GetPowerState                                build/stm32f4xx_sdio.o
SDIO_GetResponse                                  build/stm32f4xx_sdio.o
SDIO_IRQHandler                                   build/startup_stm32f405xx.o
SDIO_ITConfig                                     build/stm32f4xx_sdio.o
SDIO_Init                                         build/stm32f4xx_sdio.o
SDIO_ReadData                                     build/stm32f4xx_sdio.o
SDIO_SendCEATACmd                                 build/stm32f4xx_sdio.o
SDIO_SendCommand                                  build/stm32f4xx_sdio.o
SDIO_SendSDIOSuspendCmd                           build/stm32f4xx_sdio.o
SDIO_SetPowerState                                build/stm32f4xx_sdio.o
SDIO_SetSDIOOperation                             build/stm32f4xx_sdio.o
SDIO_SetSDIOReadWaitMode                          build/stm32f4xx_sdio.o
SDIO_StartSDIOReadWait                            build/stm32f4xx_sdio.o
SDIO_StopSDIOReadWait                             build/stm32f4xx_sdio.o
SDIO_StructInit                                   build/stm32f4xx_sdio.o
SDIO_WriteData                                    build/stm32f4xx_sdio.o
SDOS_SdoInd                                       build/sdoserv.o
                                                  build/ecatcoe.o
SDOS_SdoInfoInd                                   build/sdoserv.o
                                                  build/ecatcoe.o
SDOS_SdoRes                                       build/sdoserv.o
                                                  build/coeappl.o
SMActivate                                        build/ecatslv.o
SPI1_GPIO_Init                                    build/SPI1.o
                                                  build/el9800hw.o
SPI1_IRQHandler                                   build/startup_stm32f405xx.o
SPI1_Init                                         build/SPI1.o
SPI2_GPIO_Init                                    build/bsp_spi2.o
SPI2_IRQHandler                                   build/startup_stm32f405xx.o
SPI2_Init                                         build/bsp_spi2.o
SPI3_IRQHandler                                   build/startup_stm32f405xx.o
SPI_BiDirectionalLineConfig                       build/stm32f4xx_spi.o
SPI_CalculateCRC                                  build/stm32f4xx_spi.o
SPI_Cmd                                           build/stm32f4xx_spi.o
                                                  build/bsp_spi2.o
                                                  build/SPI1.o
SPI_DataSizeConfig                                build/stm32f4xx_spi.o
SPI_GetCRC                                        build/stm32f4xx_spi.o
SPI_GetCRCPolynomial                              build/stm32f4xx_spi.o
SPI_I2S_ClearFlag                                 build/stm32f4xx_spi.o
SPI_I2S_ClearITPendingBit                         build/stm32f4xx_spi.o
SPI_I2S_DMACmd                                    build/stm32f4xx_spi.o
SPI_I2S_DeInit                                    build/stm32f4xx_spi.o
                                                  build/SPI1.o
SPI_I2S_GetFlagStatus                             build/stm32f4xx_spi.o
                                                  build/bsp_spi2.o
                                                  build/SPI1.o
SPI_I2S_GetITStatus                               build/stm32f4xx_spi.o
SPI_I2S_ITConfig                                  build/stm32f4xx_spi.o
SPI_I2S_ReceiveData                               build/stm32f4xx_spi.o
                                                  build/bsp_spi2.o
                                                  build/SPI1.o
SPI_I2S_SendData                                  build/stm32f4xx_spi.o
                                                  build/bsp_spi2.o
                                                  build/SPI1.o
SPI_Init                                          build/stm32f4xx_spi.o
                                                  build/bsp_spi2.o
                                                  build/SPI1.o
SPI_NSSInternalSoftwareConfig                     build/stm32f4xx_spi.o
SPI_SSOutputCmd                                   build/stm32f4xx_spi.o
SPI_StructInit                                    build/stm32f4xx_spi.o
SPI_TIModeCmd                                     build/stm32f4xx_spi.o
SPI_TransmitCRC                                   build/stm32f4xx_spi.o
SVC_Handler                                       build/stm32f4xx_it.o
SYSCFG_CompensationCellCmd                        build/stm32f4xx_syscfg.o
SYSCFG_DeInit                                     build/stm32f4xx_syscfg.o
SYSCFG_ETH_MediaInterfaceConfig                   build/stm32f4xx_syscfg.o
SYSCFG_EXTILineConfig                             build/stm32f4xx_syscfg.o
                                                  build/EXIT.o
SYSCFG_GetCompensationCellStatus                  build/stm32f4xx_syscfg.o
SYSCFG_MemoryRemapConfig                          build/stm32f4xx_syscfg.o
SYSCFG_MemorySwappingBank                         build/stm32f4xx_syscfg.o
SdoRes                                            build/sdoserv.o
SetALEventMask                                    build/ecatslv.o
SetALStatus                                       build/ecatslv.o
StartInputHandler                                 build/ecatslv.o
StartOutputHandler                                build/ecatslv.o
StartTimerCnt                                     build/ecatappl.o
StopInputHandler                                  build/ecatslv.o
StopOutputHandler                                 build/ecatslv.o
Sync0WdCounter                                    build/ecatslv.o
                                                  build/ecatappl.o
Sync0WdValue                                      build/ecatslv.o
Sync0_Isr                                         build/ecatappl.o
                                                  build/el9800hw.o
Sync1WdCounter                                    build/ecatslv.o
                                                  build/ecatappl.o
Sync1WdValue                                      build/ecatslv.o
Sync1_Isr                                         build/ecatappl.o
                                                  build/el9800hw.o
SyncManInfo                                       build/ecatslv.o
SysTick_CLKSourceConfig                           build/misc.o
SysTick_Handler                                   build/stm32f4xx_it.o
SystemCoreClock                                   build/system_stm32f4xx.o
SystemCoreClockUpdate                             build/system_stm32f4xx.o
SystemInit                                        build/system_stm32f4xx.o
                                                  build/startup_stm32f405xx.o
TAMP_STAMP_IRQHandler                             build/startup_stm32f405xx.o
TIM1_BRK_TIM9_IRQHandler                          build/startup_stm32f405xx.o
TIM1_CC_IRQHandler                                build/startup_stm32f405xx.o
TIM1_TRG_COM_TIM11_IRQHandler                     build/startup_stm32f405xx.o
TIM1_UP_TIM10_IRQHandler                          build/startup_stm32f405xx.o
TIM2_IRQHandler                                   build/el9800hw.o
TIM3_IRQHandler                                   build/startup_stm32f405xx.o
TIM4_IRQHandler                                   build/startup_stm32f405xx.o
TIM5_IRQHandler                                   build/startup_stm32f405xx.o
TIM6_DAC_IRQHandler                               build/startup_stm32f405xx.o
TIM7_IRQHandler                                   build/startup_stm32f405xx.o
TIM8_BRK_TIM12_IRQHandler                         build/startup_stm32f405xx.o
TIM8_CC_IRQHandler                                build/startup_stm32f405xx.o
TIM8_TRG_COM_TIM14_IRQHandler                     build/startup_stm32f405xx.o
TIM8_UP_TIM13_IRQHandler                          build/startup_stm32f405xx.o
TIM_ARRPreloadConfig                              build/stm32f4xx_tim.o
TIM_BDTRConfig                                    build/stm32f4xx_tim.o
TIM_BDTRStructInit                                build/stm32f4xx_tim.o
TIM_CCPreloadControl                              build/stm32f4xx_tim.o
TIM_CCxCmd                                        build/stm32f4xx_tim.o
TIM_CCxNCmd                                       build/stm32f4xx_tim.o
TIM_ClearFlag                                     build/stm32f4xx_tim.o
                                                  build/Timer.o
TIM_ClearITPendingBit                             build/stm32f4xx_tim.o
                                                  build/el9800hw.o
TIM_ClearOC1Ref                                   build/stm32f4xx_tim.o
TIM_ClearOC2Ref                                   build/stm32f4xx_tim.o
TIM_ClearOC3Ref                                   build/stm32f4xx_tim.o
TIM_ClearOC4Ref                                   build/stm32f4xx_tim.o
TIM_Cmd                                           build/stm32f4xx_tim.o
                                                  build/Timer.o
TIM_Configuration                                 build/Timer.o
                                                  build/el9800hw.o
TIM_CounterModeConfig                             build/stm32f4xx_tim.o
TIM_CtrlPWMOutputs                                build/stm32f4xx_tim.o
TIM_DMACmd                                        build/stm32f4xx_tim.o
TIM_DMAConfig                                     build/stm32f4xx_tim.o
TIM_DeInit                                        build/stm32f4xx_tim.o
                                                  build/Timer.o
TIM_ETRClockMode1Config                           build/stm32f4xx_tim.o
TIM_ETRClockMode2Config                           build/stm32f4xx_tim.o
TIM_ETRConfig                                     build/stm32f4xx_tim.o
TIM_EncoderInterfaceConfig                        build/stm32f4xx_tim.o
TIM_ForcedOC1Config                               build/stm32f4xx_tim.o
TIM_ForcedOC2Config                               build/stm32f4xx_tim.o
TIM_ForcedOC3Config                               build/stm32f4xx_tim.o
TIM_ForcedOC4Config                               build/stm32f4xx_tim.o
TIM_GenerateEvent                                 build/stm32f4xx_tim.o
TIM_GetCapture1                                   build/stm32f4xx_tim.o
TIM_GetCapture2                                   build/stm32f4xx_tim.o
TIM_GetCapture3                                   build/stm32f4xx_tim.o
TIM_GetCapture4                                   build/stm32f4xx_tim.o
TIM_GetCounter                                    build/stm32f4xx_tim.o
TIM_GetFlagStatus                                 build/stm32f4xx_tim.o
TIM_GetITStatus                                   build/stm32f4xx_tim.o
TIM_GetPrescaler                                  build/stm32f4xx_tim.o
TIM_ICInit                                        build/stm32f4xx_tim.o
TIM_ICStructInit                                  build/stm32f4xx_tim.o
TIM_ITConfig                                      build/stm32f4xx_tim.o
                                                  build/Timer.o
TIM_ITRxExternalClockConfig                       build/stm32f4xx_tim.o
TIM_InternalClockConfig                           build/stm32f4xx_tim.o
TIM_OC1FastConfig                                 build/stm32f4xx_tim.o
TIM_OC1Init                                       build/stm32f4xx_tim.o
TIM_OC1NPolarityConfig                            build/stm32f4xx_tim.o
TIM_OC1PolarityConfig                             build/stm32f4xx_tim.o
TIM_OC1PreloadConfig                              build/stm32f4xx_tim.o
TIM_OC2FastConfig                                 build/stm32f4xx_tim.o
TIM_OC2Init                                       build/stm32f4xx_tim.o
TIM_OC2NPolarityConfig                            build/stm32f4xx_tim.o
TIM_OC2PolarityConfig                             build/stm32f4xx_tim.o
TIM_OC2PreloadConfig                              build/stm32f4xx_tim.o
TIM_OC3FastConfig                                 build/stm32f4xx_tim.o
TIM_OC3Init                                       build/stm32f4xx_tim.o
TIM_OC3NPolarityConfig                            build/stm32f4xx_tim.o
TIM_OC3PolarityConfig                             build/stm32f4xx_tim.o
TIM_OC3PreloadConfig                              build/stm32f4xx_tim.o
TIM_OC4FastConfig                                 build/stm32f4xx_tim.o
TIM_OC4Init                                       build/stm32f4xx_tim.o
TIM_OC4PolarityConfig                             build/stm32f4xx_tim.o
TIM_OC4PreloadConfig                              build/stm32f4xx_tim.o
TIM_OCStructInit                                  build/stm32f4xx_tim.o
TIM_PWMIConfig                                    build/stm32f4xx_tim.o
TIM_PrescalerConfig                               build/stm32f4xx_tim.o
TIM_RemapConfig                                   build/stm32f4xx_tim.o
TIM_SelectCCDMA                                   build/stm32f4xx_tim.o
TIM_SelectCOM                                     build/stm32f4xx_tim.o
TIM_SelectHallSensor                              build/stm32f4xx_tim.o
TIM_SelectInputTrigger                            build/stm32f4xx_tim.o
TIM_SelectMasterSlaveMode                         build/stm32f4xx_tim.o
TIM_SelectOCxM                                    build/stm32f4xx_tim.o
TIM_SelectOnePulseMode                            build/stm32f4xx_tim.o
TIM_SelectOutputTrigger                           build/stm32f4xx_tim.o
TIM_SelectSlaveMode                               build/stm32f4xx_tim.o
TIM_SetAutoreload                                 build/stm32f4xx_tim.o
TIM_SetClockDivision                              build/stm32f4xx_tim.o
TIM_SetCompare1                                   build/stm32f4xx_tim.o
TIM_SetCompare2                                   build/stm32f4xx_tim.o
TIM_SetCompare3                                   build/stm32f4xx_tim.o
TIM_SetCompare4                                   build/stm32f4xx_tim.o
TIM_SetCounter                                    build/stm32f4xx_tim.o
TIM_SetIC1Prescaler                               build/stm32f4xx_tim.o
TIM_SetIC2Prescaler                               build/stm32f4xx_tim.o
TIM_SetIC3Prescaler                               build/stm32f4xx_tim.o
TIM_SetIC4Prescaler                               build/stm32f4xx_tim.o
TIM_TIxExternalClockConfig                        build/stm32f4xx_tim.o
TIM_TimeBaseInit                                  build/stm32f4xx_tim.o
                                                  build/Timer.o
TIM_TimeBaseStructInit                            build/stm32f4xx_tim.o
TIM_UpdateDisableConfig                           build/stm32f4xx_tim.o
TIM_UpdateRequestConfig                           build/stm32f4xx_tim.o
TxPDO1802Subindex0                                build/el9800appl.o
                                                  build/coeappl.o
UART4_IRQHandler                                  build/startup_stm32f405xx.o
UART5_IRQHandler                                  build/startup_stm32f405xx.o
USART1_IRQHandler                                 build/startup_stm32f405xx.o
USART2_IRQHandler                                 build/startup_stm32f405xx.o
USART3_IRQHandler                                 build/startup_stm32f405xx.o
USART6_IRQHandler                                 build/startup_stm32f405xx.o
USART_ClearFlag                                   build/stm32f4xx_usart.o
USART_ClearITPendingBit                           build/stm32f4xx_usart.o
USART_ClockInit                                   build/stm32f4xx_usart.o
USART_ClockStructInit                             build/stm32f4xx_usart.o
USART_Cmd                                         build/stm32f4xx_usart.o
USART_DMACmd                                      build/stm32f4xx_usart.o
USART_DeInit                                      build/stm32f4xx_usart.o
USART_GetFlagStatus                               build/stm32f4xx_usart.o
USART_GetITStatus                                 build/stm32f4xx_usart.o
USART_HalfDuplexCmd                               build/stm32f4xx_usart.o
USART_ITConfig                                    build/stm32f4xx_usart.o
USART_Init                                        build/stm32f4xx_usart.o
USART_IrDACmd                                     build/stm32f4xx_usart.o
USART_IrDAConfig                                  build/stm32f4xx_usart.o
USART_LINBreakDetectLengthConfig                  build/stm32f4xx_usart.o
USART_LINCmd                                      build/stm32f4xx_usart.o
USART_OneBitMethodCmd                             build/stm32f4xx_usart.o
USART_OverSampling8Cmd                            build/stm32f4xx_usart.o
USART_ReceiveData                                 build/stm32f4xx_usart.o
USART_ReceiverWakeUpCmd                           build/stm32f4xx_usart.o
USART_SendBreak                                   build/stm32f4xx_usart.o
USART_SendData                                    build/stm32f4xx_usart.o
USART_SetAddress                                  build/stm32f4xx_usart.o
USART_SetGuardTime                                build/stm32f4xx_usart.o
USART_SetPrescaler                                build/stm32f4xx_usart.o
USART_SmartCardCmd                                build/stm32f4xx_usart.o
USART_SmartCardNACKCmd                            build/stm32f4xx_usart.o
USART_StructInit                                  build/stm32f4xx_usart.o
USART_WakeUpConfig                                build/stm32f4xx_usart.o
UpdateEEPROMLoadedState                           build/ecatslv.o
UsageFault_Handler                                build/stm32f4xx_it.o
WR_CMD                                            build/SPI1.o
                                                  build/el9800hw.o
WWDG_ClearFlag                                    build/stm32f4xx_wwdg.o
WWDG_DeInit                                       build/stm32f4xx_wwdg.o
WWDG_Enable                                       build/stm32f4xx_wwdg.o
WWDG_EnableIT                                     build/stm32f4xx_wwdg.o
WWDG_GetFlagStatus                                build/stm32f4xx_wwdg.o
WWDG_IRQHandler                                   build/startup_stm32f405xx.o
WWDG_SetCounter                                   build/stm32f4xx_wwdg.o
WWDG_SetPrescaler                                 build/stm32f4xx_wwdg.o
WWDG_SetWindowValue                               build/stm32f4xx_wwdg.o
__bss_end__                                       /usr/share/gcc-arm-none-eabi-10.3-2021.10/bin/../lib/gcc/arm-none-eabi/10.3.1/../../../../arm-none-eabi/lib/thumb/v7e-m+fp/hard/crt0.o
__bss_start__                                     /usr/share/gcc-arm-none-eabi-10.3-2021.10/bin/../lib/gcc/arm-none-eabi/10.3.1/../../../../arm-none-eabi/lib/thumb/v7e-m+fp/hard/crt0.o
__call_exitprocs                                  /usr/share/gcc-arm-none-eabi-10.3-2021.10/bin/../lib/gcc/arm-none-eabi/10.3.1/../../../../arm-none-eabi/lib/thumb/v7e-m+fp/hard/libc_nano.a(lib_a-exit.o)
__deregister_frame_info                           /usr/share/gcc-arm-none-eabi-10.3-2021.10/bin/../lib/gcc/arm-none-eabi/10.3.1/thumb/v7e-m+fp/hard/crtbegin.o
__dso_handle                                      /usr/share/gcc-arm-none-eabi-10.3-2021.10/bin/../lib/gcc/arm-none-eabi/10.3.1/thumb/v7e-m+fp/hard/crtbegin.o
__init_array_end                                  /usr/share/gcc-arm-none-eabi-10.3-2021.10/bin/../lib/gcc/arm-none-eabi/10.3.1/../../../../arm-none-eabi/lib/thumb/v7e-m+fp/hard/libc_nano.a(lib_a-init.o)
__init_array_start                                /usr/share/gcc-arm-none-eabi-10.3-2021.10/bin/../lib/gcc/arm-none-eabi/10.3.1/../../../../arm-none-eabi/lib/thumb/v7e-m+fp/hard/libc_nano.a(lib_a-init.o)
__libc_fini_array                                 /usr/share/gcc-arm-none-eabi-10.3-2021.10/bin/../lib/gcc/arm-none-eabi/10.3.1/../../../../arm-none-eabi/lib/thumb/v7e-m+fp/hard/crt0.o
__libc_init_array                                 /usr/share/gcc-arm-none-eabi-10.3-2021.10/bin/../lib/gcc/arm-none-eabi/10.3.1/../../../../arm-none-eabi/lib/thumb/v7e-m+fp/hard/libc_nano.a(lib_a-init.o)
                                                  build/startup_stm32f405xx.o
                                                  /usr/share/gcc-arm-none-eabi-10.3-2021.10/bin/../lib/gcc/arm-none-eabi/10.3.1/../../../../arm-none-eabi/lib/thumb/v7e-m+fp/hard/crt0.o
__lock___arc4random_mutex                         /usr/share/gcc-arm-none-eabi-10.3-2021.10/bin/../lib/gcc/arm-none-eabi/10.3.1/../../../../arm-none-eabi/lib/thumb/v7e-m+fp/hard/libc_nano.a(lib_a-lock.o)
__lock___at_quick_exit_mutex                      /usr/share/gcc-arm-none-eabi-10.3-2021.10/bin/../lib/gcc/arm-none-eabi/10.3.1/../../../../arm-none-eabi/lib/thumb/v7e-m+fp/hard/libc_nano.a(lib_a-lock.o)
__lock___atexit_recursive_mutex                   /usr/share/gcc-arm-none-eabi-10.3-2021.10/bin/../lib/gcc/arm-none-eabi/10.3.1/../../../../arm-none-eabi/lib/thumb/v7e-m+fp/hard/libc_nano.a(lib_a-lock.o)
__lock___dd_hash_mutex                            /usr/share/gcc-arm-none-eabi-10.3-2021.10/bin/../lib/gcc/arm-none-eabi/10.3.1/../../../../arm-none-eabi/lib/thumb/v7e-m+fp/hard/libc_nano.a(lib_a-lock.o)
__lock___env_recursive_mutex                      /usr/share/gcc-arm-none-eabi-10.3-2021.10/bin/../lib/gcc/arm-none-eabi/10.3.1/../../../../arm-none-eabi/lib/thumb/v7e-m+fp/hard/libc_nano.a(lib_a-lock.o)
__lock___malloc_recursive_mutex                   /usr/share/gcc-arm-none-eabi-10.3-2021.10/bin/../lib/gcc/arm-none-eabi/10.3.1/../../../../arm-none-eabi/lib/thumb/v7e-m+fp/hard/libc_nano.a(lib_a-lock.o)
                                                  /usr/share/gcc-arm-none-eabi-10.3-2021.10/bin/../lib/gcc/arm-none-eabi/10.3.1/../../../../arm-none-eabi/lib/thumb/v7e-m+fp/hard/libc_nano.a(lib_a-mlock.o)
__lock___sfp_recursive_mutex                      /usr/share/gcc-arm-none-eabi-10.3-2021.10/bin/../lib/gcc/arm-none-eabi/10.3.1/../../../../arm-none-eabi/lib/thumb/v7e-m+fp/hard/libc_nano.a(lib_a-lock.o)
__lock___sinit_recursive_mutex                    /usr/share/gcc-arm-none-eabi-10.3-2021.10/bin/../lib/gcc/arm-none-eabi/10.3.1/../../../../arm-none-eabi/lib/thumb/v7e-m+fp/hard/libc_nano.a(lib_a-lock.o)
__lock___tz_mutex                                 /usr/share/gcc-arm-none-eabi-10.3-2021.10/bin/../lib/gcc/arm-none-eabi/10.3.1/../../../../arm-none-eabi/lib/thumb/v7e-m+fp/hard/libc_nano.a(lib_a-lock.o)
__malloc_free_list                                /usr/share/gcc-arm-none-eabi-10.3-2021.10/bin/../lib/gcc/arm-none-eabi/10.3.1/../../../../arm-none-eabi/lib/thumb/v7e-m+fp/hard/libc_nano.a(lib_a-nano-mallocr.o)
                                                  /usr/share/gcc-arm-none-eabi-10.3-2021.10/bin/../lib/gcc/arm-none-eabi/10.3.1/../../../../arm-none-eabi/lib/thumb/v7e-m+fp/hard/libc_nano.a(lib_a-nano-freer.o)
__malloc_lock                                     /usr/share/gcc-arm-none-eabi-10.3-2021.10/bin/../lib/gcc/arm-none-eabi/10.3.1/../../../../arm-none-eabi/lib/thumb/v7e-m+fp/hard/libc_nano.a(lib_a-mlock.o)
                                                  /usr/share/gcc-arm-none-eabi-10.3-2021.10/bin/../lib/gcc/arm-none-eabi/10.3.1/../../../../arm-none-eabi/lib/thumb/v7e-m+fp/hard/libc_nano.a(lib_a-nano-mallocr.o)
                                                  /usr/share/gcc-arm-none-eabi-10.3-2021.10/bin/../lib/gcc/arm-none-eabi/10.3.1/../../../../arm-none-eabi/lib/thumb/v7e-m+fp/hard/libc_nano.a(lib_a-nano-freer.o)
__malloc_sbrk_start                               /usr/share/gcc-arm-none-eabi-10.3-2021.10/bin/../lib/gcc/arm-none-eabi/10.3.1/../../../../arm-none-eabi/lib/thumb/v7e-m+fp/hard/libc_nano.a(lib_a-nano-mallocr.o)
__malloc_unlock                                   /usr/share/gcc-arm-none-eabi-10.3-2021.10/bin/../lib/gcc/arm-none-eabi/10.3.1/../../../../arm-none-eabi/lib/thumb/v7e-m+fp/hard/libc_nano.a(lib_a-mlock.o)
                                                  /usr/share/gcc-arm-none-eabi-10.3-2021.10/bin/../lib/gcc/arm-none-eabi/10.3.1/../../../../arm-none-eabi/lib/thumb/v7e-m+fp/hard/libc_nano.a(lib_a-nano-mallocr.o)
                                                  /usr/share/gcc-arm-none-eabi-10.3-2021.10/bin/../lib/gcc/arm-none-eabi/10.3.1/../../../../arm-none-eabi/lib/thumb/v7e-m+fp/hard/libc_nano.a(lib_a-nano-freer.o)
__preinit_array_end                               /usr/share/gcc-arm-none-eabi-10.3-2021.10/bin/../lib/gcc/arm-none-eabi/10.3.1/../../../../arm-none-eabi/lib/thumb/v7e-m+fp/hard/libc_nano.a(lib_a-init.o)
__preinit_array_start                             /usr/share/gcc-arm-none-eabi-10.3-2021.10/bin/../lib/gcc/arm-none-eabi/10.3.1/../../../../arm-none-eabi/lib/thumb/v7e-m+fp/hard/libc_nano.a(lib_a-init.o)
__register_frame_info                             /usr/share/gcc-arm-none-eabi-10.3-2021.10/bin/../lib/gcc/arm-none-eabi/10.3.1/thumb/v7e-m+fp/hard/crtbegin.o
__retarget_lock_acquire                           /usr/share/gcc-arm-none-eabi-10.3-2021.10/bin/../lib/gcc/arm-none-eabi/10.3.1/../../../../arm-none-eabi/lib/thumb/v7e-m+fp/hard/libc_nano.a(lib_a-lock.o)
__retarget_lock_acquire_recursive                 /usr/share/gcc-arm-none-eabi-10.3-2021.10/bin/../lib/gcc/arm-none-eabi/10.3.1/../../../../arm-none-eabi/lib/thumb/v7e-m+fp/hard/libc_nano.a(lib_a-lock.o)
                                                  /usr/share/gcc-arm-none-eabi-10.3-2021.10/bin/../lib/gcc/arm-none-eabi/10.3.1/../../../../arm-none-eabi/lib/thumb/v7e-m+fp/hard/libc_nano.a(lib_a-mlock.o)
__retarget_lock_close                             /usr/share/gcc-arm-none-eabi-10.3-2021.10/bin/../lib/gcc/arm-none-eabi/10.3.1/../../../../arm-none-eabi/lib/thumb/v7e-m+fp/hard/libc_nano.a(lib_a-lock.o)
__retarget_lock_close_recursive                   /usr/share/gcc-arm-none-eabi-10.3-2021.10/bin/../lib/gcc/arm-none-eabi/10.3.1/../../../../arm-none-eabi/lib/thumb/v7e-m+fp/hard/libc_nano.a(lib_a-lock.o)
__retarget_lock_init                              /usr/share/gcc-arm-none-eabi-10.3-2021.10/bin/../lib/gcc/arm-none-eabi/10.3.1/../../../../arm-none-eabi/lib/thumb/v7e-m+fp/hard/libc_nano.a(lib_a-lock.o)
__retarget_lock_init_recursive                    /usr/share/gcc-arm-none-eabi-10.3-2021.10/bin/../lib/gcc/arm-none-eabi/10.3.1/../../../../arm-none-eabi/lib/thumb/v7e-m+fp/hard/libc_nano.a(lib_a-lock.o)
__retarget_lock_release                           /usr/share/gcc-arm-none-eabi-10.3-2021.10/bin/../lib/gcc/arm-none-eabi/10.3.1/../../../../arm-none-eabi/lib/thumb/v7e-m+fp/hard/libc_nano.a(lib_a-lock.o)
__retarget_lock_release_recursive                 /usr/share/gcc-arm-none-eabi-10.3-2021.10/bin/../lib/gcc/arm-none-eabi/10.3.1/../../../../arm-none-eabi/lib/thumb/v7e-m+fp/hard/libc_nano.a(lib_a-lock.o)
                                                  /usr/share/gcc-arm-none-eabi-10.3-2021.10/bin/../lib/gcc/arm-none-eabi/10.3.1/../../../../arm-none-eabi/lib/thumb/v7e-m+fp/hard/libc_nano.a(lib_a-mlock.o)
__retarget_lock_try_acquire                       /usr/share/gcc-arm-none-eabi-10.3-2021.10/bin/../lib/gcc/arm-none-eabi/10.3.1/../../../../arm-none-eabi/lib/thumb/v7e-m+fp/hard/libc_nano.a(lib_a-lock.o)
__retarget_lock_try_acquire_recursive             /usr/share/gcc-arm-none-eabi-10.3-2021.10/bin/../lib/gcc/arm-none-eabi/10.3.1/../../../../arm-none-eabi/lib/thumb/v7e-m+fp/hard/libc_nano.a(lib_a-lock.o)
__sf_fake_stderr                                  /usr/share/gcc-arm-none-eabi-10.3-2021.10/bin/../lib/gcc/arm-none-eabi/10.3.1/../../../../arm-none-eabi/lib/thumb/v7e-m+fp/hard/libc_nano.a(lib_a-impure.o)
__sf_fake_stdin                                   /usr/share/gcc-arm-none-eabi-10.3-2021.10/bin/../lib/gcc/arm-none-eabi/10.3.1/../../../../arm-none-eabi/lib/thumb/v7e-m+fp/hard/libc_nano.a(lib_a-impure.o)
__sf_fake_stdout                                  /usr/share/gcc-arm-none-eabi-10.3-2021.10/bin/../lib/gcc/arm-none-eabi/10.3.1/../../../../arm-none-eabi/lib/thumb/v7e-m+fp/hard/libc_nano.a(lib_a-impure.o)
__stack                                           /usr/share/gcc-arm-none-eabi-10.3-2021.10/bin/../lib/gcc/arm-none-eabi/10.3.1/../../../../arm-none-eabi/lib/thumb/v7e-m+fp/hard/crt0.o
_ebss                                             build/startup_stm32f405xx.o
_edata                                            build/startup_stm32f405xx.o
_estack                                           build/startup_stm32f405xx.o
_exit                                             /usr/share/gcc-arm-none-eabi-10.3-2021.10/bin/../lib/gcc/arm-none-eabi/10.3.1/../../../../arm-none-eabi/lib/thumb/v7e-m+fp/hard/libnosys.a(_exit.o)
                                                  /usr/share/gcc-arm-none-eabi-10.3-2021.10/bin/../lib/gcc/arm-none-eabi/10.3.1/../../../../arm-none-eabi/lib/thumb/v7e-m+fp/hard/libc_nano.a(lib_a-exit.o)
_fini                                             /usr/share/gcc-arm-none-eabi-10.3-2021.10/bin/../lib/gcc/arm-none-eabi/10.3.1/thumb/v7e-m+fp/hard/crti.o
_free_r                                           /usr/share/gcc-arm-none-eabi-10.3-2021.10/bin/../lib/gcc/arm-none-eabi/10.3.1/../../../../arm-none-eabi/lib/thumb/v7e-m+fp/hard/libc_nano.a(lib_a-nano-freer.o)
                                                  /usr/share/gcc-arm-none-eabi-10.3-2021.10/bin/../lib/gcc/arm-none-eabi/10.3.1/../../../../arm-none-eabi/lib/thumb/v7e-m+fp/hard/libc_nano.a(lib_a-reent.o)
                                                  /usr/share/gcc-arm-none-eabi-10.3-2021.10/bin/../lib/gcc/arm-none-eabi/10.3.1/../../../../arm-none-eabi/lib/thumb/v7e-m+fp/hard/libc_nano.a(lib_a-malloc.o)
_global_impure_ptr                                /usr/share/gcc-arm-none-eabi-10.3-2021.10/bin/../lib/gcc/arm-none-eabi/10.3.1/../../../../arm-none-eabi/lib/thumb/v7e-m+fp/hard/libc_nano.a(lib_a-impure.o)
                                                  /usr/share/gcc-arm-none-eabi-10.3-2021.10/bin/../lib/gcc/arm-none-eabi/10.3.1/../../../../arm-none-eabi/lib/thumb/v7e-m+fp/hard/libc_nano.a(lib_a-exit.o)
_impure_ptr                                       /usr/share/gcc-arm-none-eabi-10.3-2021.10/bin/../lib/gcc/arm-none-eabi/10.3.1/../../../../arm-none-eabi/lib/thumb/v7e-m+fp/hard/libc_nano.a(lib_a-impure.o)
                                                  /usr/share/gcc-arm-none-eabi-10.3-2021.10/bin/../lib/gcc/arm-none-eabi/10.3.1/../../../../arm-none-eabi/lib/thumb/v7e-m+fp/hard/libc_nano.a(lib_a-reent.o)
                                                  /usr/share/gcc-arm-none-eabi-10.3-2021.10/bin/../lib/gcc/arm-none-eabi/10.3.1/../../../../arm-none-eabi/lib/thumb/v7e-m+fp/hard/libc_nano.a(lib_a-malloc.o)
_init                                             /usr/share/gcc-arm-none-eabi-10.3-2021.10/bin/../lib/gcc/arm-none-eabi/10.3.1/thumb/v7e-m+fp/hard/crti.o
                                                  /usr/share/gcc-arm-none-eabi-10.3-2021.10/bin/../lib/gcc/arm-none-eabi/10.3.1/../../../../arm-none-eabi/lib/thumb/v7e-m+fp/hard/libc_nano.a(lib_a-init.o)
_mainCRTStartup                                   /usr/share/gcc-arm-none-eabi-10.3-2021.10/bin/../lib/gcc/arm-none-eabi/10.3.1/../../../../arm-none-eabi/lib/thumb/v7e-m+fp/hard/crt0.o
_malloc_r                                         /usr/share/gcc-arm-none-eabi-10.3-2021.10/bin/../lib/gcc/arm-none-eabi/10.3.1/../../../../arm-none-eabi/lib/thumb/v7e-m+fp/hard/libc_nano.a(lib_a-nano-mallocr.o)
                                                  /usr/share/gcc-arm-none-eabi-10.3-2021.10/bin/../lib/gcc/arm-none-eabi/10.3.1/../../../../arm-none-eabi/lib/thumb/v7e-m+fp/hard/libc_nano.a(lib_a-malloc.o)
_reclaim_reent                                    /usr/share/gcc-arm-none-eabi-10.3-2021.10/bin/../lib/gcc/arm-none-eabi/10.3.1/../../../../arm-none-eabi/lib/thumb/v7e-m+fp/hard/libc_nano.a(lib_a-reent.o)
_sbrk                                             /usr/share/gcc-arm-none-eabi-10.3-2021.10/bin/../lib/gcc/arm-none-eabi/10.3.1/../../../../arm-none-eabi/lib/thumb/v7e-m+fp/hard/libnosys.a(sbrk.o)
                                                  /usr/share/gcc-arm-none-eabi-10.3-2021.10/bin/../lib/gcc/arm-none-eabi/10.3.1/../../../../arm-none-eabi/lib/thumb/v7e-m+fp/hard/libc_nano.a(lib_a-sbrkr.o)
_sbrk_r                                           /usr/share/gcc-arm-none-eabi-10.3-2021.10/bin/../lib/gcc/arm-none-eabi/10.3.1/../../../../arm-none-eabi/lib/thumb/v7e-m+fp/hard/libc_nano.a(lib_a-sbrkr.o)
                                                  /usr/share/gcc-arm-none-eabi-10.3-2021.10/bin/../lib/gcc/arm-none-eabi/10.3.1/../../../../arm-none-eabi/lib/thumb/v7e-m+fp/hard/libc_nano.a(lib_a-nano-mallocr.o)
_sbss                                             build/startup_stm32f405xx.o
_sdata                                            build/startup_stm32f405xx.o
_sidata                                           build/startup_stm32f405xx.o
_stack_init                                       /usr/share/gcc-arm-none-eabi-10.3-2021.10/bin/../lib/gcc/arm-none-eabi/10.3.1/../../../../arm-none-eabi/lib/thumb/v7e-m+fp/hard/crt0.o
_start                                            /usr/share/gcc-arm-none-eabi-10.3-2021.10/bin/../lib/gcc/arm-none-eabi/10.3.1/../../../../arm-none-eabi/lib/thumb/v7e-m+fp/hard/crt0.o
aName0x1000                                       build/coeappl.o
aName0x1001                                       build/coeappl.o
aName0x1008                                       build/coeappl.o
aName0x1009                                       build/coeappl.o
aName0x100A                                       build/coeappl.o
aName0x1018                                       build/coeappl.o
aName0x10F1                                       build/coeappl.o
aName0x1601                                       build/coeappl.o
aName0x1802                                       build/coeappl.o
aName0x1A00                                       build/coeappl.o
aName0x1A02                                       build/coeappl.o
aName0x1C00                                       build/coeappl.o
aName0x1C12                                       build/coeappl.o
aName0x1C13                                       build/coeappl.o
aName0x1C32                                       build/coeappl.o
aName0x1C33                                       build/coeappl.o
aName0x6000                                       build/coeappl.o
aName0x6020                                       build/coeappl.o
aName0x7010                                       build/coeappl.o
aName0x8020                                       build/coeappl.o
aName0xF000                                       build/coeappl.o
aName0xF010                                       build/coeappl.o
aPdInputData                                      build/ecatappl.o
aPdOutputData                                     build/ecatappl.o
aSdoInfoHeader                                    build/sdoserv.o
                                                  build/ecatcoe.o
aSubindexDesc                                     build/objdef.o
                                                  build/sdoserv.o
acDevicename                                      build/coeappl.o
acHardwareversion                                 build/coeappl.o
acSoftwareversion                                 build/coeappl.o
apEnum0800                                        build/coeappl.o
asEntryDesc0x0800                                 build/coeappl.o
asEntryDesc0x1018                                 build/coeappl.o
asEntryDesc0x10F1                                 build/coeappl.o
asEntryDesc0x1601                                 build/coeappl.o
asEntryDesc0x1802                                 build/coeappl.o
asEntryDesc0x1A00                                 build/coeappl.o
asEntryDesc0x1A02                                 build/coeappl.o
asEntryDesc0x1C00                                 build/coeappl.o
asEntryDesc0x1C3x                                 build/coeappl.o
asEntryDesc0x6000                                 build/coeappl.o
asEntryDesc0x6020                                 build/coeappl.o
asEntryDesc0x7010                                 build/coeappl.o
asEntryDesc0x8020                                 build/coeappl.o
asEntryDesc0xF000                                 build/coeappl.o
asEntryDesc0xF010                                 build/coeappl.o
asMbx                                             build/mailbox.o
asPDOAssignEntryDesc                              build/coeappl.o
atexit                                            /usr/share/gcc-arm-none-eabi-10.3-2021.10/bin/../lib/gcc/arm-none-eabi/10.3.1/../../../../arm-none-eabi/lib/thumb/v7e-m+fp/hard/crt0.o
b3BufferMode                                      build/ecatslv.o
bApplEsmPending                                   build/ecatslv.o
bCycleTimeMeasurementStarted                      build/ecatappl.o
bDcRunning                                        build/ecatslv.o
                                                  build/ecatappl.o
bDcSyncActive                                     build/ecatslv.o
                                                  build/ecatappl.o
bEcatFirstOutputsReceived                         build/ecatslv.o
                                                  build/ecatappl.o
bEcatInputUpdateRunning                           build/ecatslv.o
                                                  build/ecatappl.o
bEcatOutputUpdateRunning                          build/ecatslv.o
                                                  build/ecatappl.o
bEcatWaitForAlControlRes                          build/ecatslv.o
                                                  build/ecatappl.o
bEcatWaitForInputUpdate                           build/ecatappl.o
bEscIntEnabled                                    build/ecatslv.o
                                                  build/ecatappl.o
bEtherCATErrorLed                                 build/ecatappl.o
bEtherCATRunLed                                   build/ecatappl.o
bInitFinished                                     build/ecatappl.o
bLocalErrorFlag                                   build/ecatslv.o
bMbxRepeatToggle                                  build/mailbox.o
                                                  build/ecatslv.o
bMbxRunning                                       build/mailbox.o
                                                  build/ecatslv.o
bNoMbxMemoryAvailable                             build/mailbox.o
bReceiveMbxIsLocked                               build/mailbox.o
bRunApplication                                   build/ecatappl.o
                                                  build/el9800appl.o
bSdoInWork                                        build/sdoserv.o
bSdoSegAccess                                     build/sdoserv.o
bSdoSegFollows                                    build/sdoserv.o
bSdoSegLastToggle                                 build/sdoserv.o
bSendMbxIsFull                                    build/mailbox.o
bSmSyncSequenceValid                              build/ecatslv.o
bStoreCompleteAccess                              build/sdoserv.o
                                                  build/coeappl.o
bSyncSetByUser                                    build/objdef.o
                                                  build/coeappl.o
                                                  build/ecatslv.o
bWdTrigger                                        build/ecatslv.o
cAbortCode                                        build/sdoserv.o
cBitMask                                          build/objdef.o
can1_rx_flag                                      build/bsp_can.o
cleanup_glue                                      /usr/share/gcc-arm-none-eabi-10.3-2021.10/bin/../lib/gcc/arm-none-eabi/10.3.1/../../../../arm-none-eabi/lib/thumb/v7e-m+fp/hard/libc_nano.a(lib_a-reent.o)
end                                               /usr/share/gcc-arm-none-eabi-10.3-2021.10/bin/../lib/gcc/arm-none-eabi/10.3.1/../../../../arm-none-eabi/lib/thumb/v7e-m+fp/hard/libnosys.a(sbrk.o)
errno                                             /usr/share/gcc-arm-none-eabi-10.3-2021.10/bin/../lib/gcc/arm-none-eabi/10.3.1/../../../../arm-none-eabi/lib/thumb/v7e-m+fp/hard/libc_nano.a(lib_a-reent.o)
                                                  /usr/share/gcc-arm-none-eabi-10.3-2021.10/bin/../lib/gcc/arm-none-eabi/10.3.1/../../../../arm-none-eabi/lib/thumb/v7e-m+fp/hard/libc_nano.a(lib_a-sbrkr.o)
exit                                              /usr/share/gcc-arm-none-eabi-10.3-2021.10/bin/../lib/gcc/arm-none-eabi/10.3.1/../../../../arm-none-eabi/lib/thumb/v7e-m+fp/hard/libc_nano.a(lib_a-exit.o)
                                                  /usr/share/gcc-arm-none-eabi-10.3-2021.10/bin/../lib/gcc/arm-none-eabi/10.3.1/../../../../arm-none-eabi/lib/thumb/v7e-m+fp/hard/crt0.o
flag                                              build/bsp_can.o
free                                              /usr/share/gcc-arm-none-eabi-10.3-2021.10/bin/../lib/gcc/arm-none-eabi/10.3.1/../../../../arm-none-eabi/lib/thumb/v7e-m+fp/hard/libc_nano.a(lib_a-malloc.o)
                                                  build/coeappl.o
                                                  build/sdoserv.o
                                                  build/mailbox.o
g_pfnVectors                                      build/startup_stm32f405xx.o
hardware_init_hook                                /usr/share/gcc-arm-none-eabi-10.3-2021.10/bin/../lib/gcc/arm-none-eabi/10.3.1/../../../../arm-none-eabi/lib/thumb/v7e-m+fp/hard/crt0.o
i16WaitForPllRunningCnt                           build/ecatslv.o
i16WaitForPllRunningTimeout                       build/ecatslv.o
led_setup                                         build/bsp_led.o
                                                  build/ecatappl.o
main                                              build/el9800appl.o
                                                  build/startup_stm32f405xx.o
                                                  /usr/share/gcc-arm-none-eabi-10.3-2021.10/bin/../lib/gcc/arm-none-eabi/10.3.1/../../../../arm-none-eabi/lib/thumb/v7e-m+fp/hard/crt0.o
malloc                                            /usr/share/gcc-arm-none-eabi-10.3-2021.10/bin/../lib/gcc/arm-none-eabi/10.3.1/../../../../arm-none-eabi/lib/thumb/v7e-m+fp/hard/libc_nano.a(lib_a-malloc.o)
                                                  build/sdoserv.o
                                                  build/mailbox.o
                                                  build/ecatcoe.o
memcpy                                            /usr/share/gcc-arm-none-eabi-10.3-2021.10/bin/../lib/gcc/arm-none-eabi/10.3.1/../../../../arm-none-eabi/lib/thumb/v7e-m+fp/hard/libc_nano.a(lib_a-memcpy-stub.o)
                                                  build/sdoserv.o
                                                  build/objdef.o
                                                  build/mailbox.o
memset                                            /usr/share/gcc-arm-none-eabi-10.3-2021.10/bin/../lib/gcc/arm-none-eabi/10.3.1/../../../../arm-none-eabi/lib/thumb/v7e-m+fp/hard/libc_nano.a(lib_a-memset.o)
                                                  build/el9800appl.o
                                                  /usr/share/gcc-arm-none-eabi-10.3-2021.10/bin/../lib/gcc/arm-none-eabi/10.3.1/../../../../arm-none-eabi/lib/thumb/v7e-m+fp/hard/crt0.o
nAlStatus                                         build/ecatslv.o
                                                  build/objdef.o
                                                  build/mailbox.o
nEcatStateTrans                                   build/ecatslv.o
nEscAddrInputData                                 build/ecatslv.o
                                                  build/ecatappl.o
nEscAddrOutputData                                build/ecatslv.o
                                                  build/ecatappl.o
nMaxEscAddress                                    build/ecatslv.o
nMaxSyncMan                                       build/ecatslv.o
nPdInputSize                                      build/ecatslv.o
                                                  build/ecatappl.o
                                                  build/objdef.o
nPdOutputSize                                     build/ecatslv.o
                                                  build/ecatappl.o
                                                  build/objdef.o
nSdoInfoFragmentsLeft                             build/sdoserv.o
                                                  build/ecatcoe.o
nSdoInfoIndex                                     build/sdoserv.o
nSdoSegBytesToHandle                              build/sdoserv.o
nSdoSegCompleteSize                               build/sdoserv.o
nSdoSegIndex                                      build/sdoserv.o
nSdoSegService                                    build/sdoserv.o
nSdoSegSubindex                                   build/sdoserv.o
pAPPL_EEPROM_Read                                 build/ecatappl.o
pAPPL_EEPROM_Reload                               build/ecatappl.o
pAPPL_EEPROM_Write                                build/ecatappl.o
pCoeSendStored                                    build/ecatcoe.o
                                                  build/sdoserv.o
pSdoInfoObjEntry                                  build/sdoserv.o
                                                  build/objdef.o
pSdoPendFunc                                      build/sdoserv.o
                                                  build/coeappl.o
pSdoResStored                                     build/sdoserv.o
pSdoSegData                                       build/sdoserv.o
                                                  build/coeappl.o
pSdoSegObjEntry                                   build/sdoserv.o
pStoreData                                        build/sdoserv.o
                                                  build/coeappl.o
psReadMbx                                         build/mailbox.o
psRepeatMbx                                       build/mailbox.o
psStoreMbx                                        build/mailbox.o
psWriteMbx                                        build/mailbox.o
rst_high                                          build/RST.o
rst_low                                           build/RST.o
rst_setup                                         build/RST.o
                                                  build/ecatappl.o
rxBuffer                                          build/bsp_spi2.o
sAIInputs                                         build/el9800appl.o
                                                  build/coeappl.o
sAISettings                                       build/el9800appl.o
                                                  build/coeappl.o
sAITxPDOMap                                       build/el9800appl.o
                                                  build/coeappl.o
sCycleDiag                                        build/objdef.o
                                                  build/ecatslv.o
sDIInputs                                         build/el9800appl.o
                                                  build/coeappl.o
sDITxPDOMap                                       build/el9800appl.o
                                                  build/coeappl.o
sDOOutputs                                        build/el9800appl.o
                                                  build/coeappl.o
sDORxPDOMap                                       build/el9800appl.o
                                                  build/coeappl.o
sEntryDesc0x1000                                  build/coeappl.o
sEntryDesc0x1001                                  build/coeappl.o
sEntryDesc0x1008                                  build/coeappl.o
sEntryDesc0x1009                                  build/coeappl.o
sEntryDesc0x100A                                  build/coeappl.o
sEnum0800_Value00                                 build/coeappl.o
sEnum0800_Value01                                 build/coeappl.o
sErrorSettings                                    build/objdef.o
                                                  build/ecatappl.o
                                                  build/coeappl.o
                                                  build/ecatslv.o
sIdentity                                         build/coeappl.o
sMbxReceiveQueue                                  build/mailbox.o
sMbxSendQueue                                     build/mailbox.o
sModulardeviceprofile                             build/el9800appl.o
                                                  build/coeappl.o
sModulelist                                       build/el9800appl.o
                                                  build/coeappl.o
sRxPDOassign                                      build/el9800appl.o
                                                  build/coeappl.o
sSyncManInPar                                     build/objdef.o
                                                  build/ecatappl.o
                                                  build/coeappl.o
                                                  build/ecatslv.o
sSyncManOutPar                                    build/objdef.o
                                                  build/ecatappl.o
                                                  build/coeappl.o
                                                  build/ecatslv.o
sSyncmanagertype                                  build/coeappl.o
sTxPDOassign                                      build/el9800appl.o
                                                  build/coeappl.o
software_init_hook                                /usr/share/gcc-arm-none-eabi-10.3-2021.10/bin/../lib/gcc/arm-none-eabi/10.3.1/../../../../arm-none-eabi/lib/thumb/v7e-m+fp/hard/crt0.o
spi2_r_cmd                                        build/bsp_spi2.o
spi2_w_cmd                                        build/bsp_spi2.o
spi2_wr_cmd                                       build/bsp_spi2.o
strlen                                            /usr/share/gcc-arm-none-eabi-10.3-2021.10/bin/../lib/gcc/arm-none-eabi/10.3.1/../../../../arm-none-eabi/lib/thumb/v7e-m+fp/hard/libc_nano.a(lib_a-strlen.o)
                                                  build/objdef.o
times                                             build/el9800appl.o
txBuffer                                          build/bsp_spi2.o
u16ALEventMask                                    build/ecatslv.o
u16BusCycleCntMs                                  build/ecatappl.o
u16ErrorRegister                                  build/coeappl.o
u16EscAddrReceiveMbx                              build/mailbox.o
                                                  build/ecatslv.o
u16EscAddrSendMbx                                 build/mailbox.o
                                                  build/ecatslv.o
u16LocalErrorCode                                 build/ecatslv.o
u16ReceiveMbxSize                                 build/mailbox.o
                                                  build/sdoserv.o
                                                  build/ecatslv.o
u16SendMbxSize                                    build/mailbox.o
                                                  build/sdoserv.o
                                                  build/ecatslv.o
u16SmSync0Counter                                 build/ecatslv.o
                                                  build/ecatappl.o
u16SmSync0Value                                   build/ecatslv.o
                                                  build/ecatappl.o
u16StoreIndex                                     build/sdoserv.o
                                                  build/coeappl.o
u16dummy                                          build/ecatslv.o
                                                  build/ecatappl.o
                                                  build/mailbox.o
u32Devicetype                                     build/coeappl.o
u32StoreDataSize                                  build/sdoserv.o
                                                  build/coeappl.o
u8MailboxSendReqStored                            build/mailbox.o
u8MbxReadCounter                                  build/mailbox.o
u8MbxWriteCounter                                 build/mailbox.o
u8PendingSdo                                      build/sdoserv.o
                                                  build/coeappl.o
u8StoreSubindex                                   build/sdoserv.o
                                                  build/coeappl.o
