ARM GAS  /tmp/ccNaxIvK.s 			page 1


   1              		.cpu cortex-m4
   2              		.arch armv7e-m
   3              		.fpu fpv4-sp-d16
   4              		.eabi_attribute 27, 1
   5              		.eabi_attribute 28, 1
   6              		.eabi_attribute 20, 1
   7              		.eabi_attribute 21, 1
   8              		.eabi_attribute 23, 3
   9              		.eabi_attribute 24, 1
  10              		.eabi_attribute 25, 1
  11              		.eabi_attribute 26, 1
  12              		.eabi_attribute 30, 1
  13              		.eabi_attribute 34, 1
  14              		.eabi_attribute 18, 4
  15              		.file	"spi_deal.c"
  16              		.text
  17              	.Ltext0:
  18              		.cfi_sections	.debug_frame
  19              		.section	.text.DateCheck_DateModfy,"ax",%progbits
  20              		.align	1
  21              		.global	DateCheck_DateModfy
  22              		.syntax unified
  23              		.thumb
  24              		.thumb_func
  26              	DateCheck_DateModfy:
  27              	.LVL0:
  28              	.LFB134:
  29              		.file 1 "Lib/SPI_Bus/Src/spi_deal.c"
   1:Lib/SPI_Bus/Src/spi_deal.c **** #include "main.h"
   2:Lib/SPI_Bus/Src/spi_deal.c **** #include "spi.h"
   3:Lib/SPI_Bus/Src/spi_deal.c **** #include "unitreeA1_msg.h"
   4:Lib/SPI_Bus/Src/spi_deal.c **** #include "unitreeA1_recv.h"
   5:Lib/SPI_Bus/Src/spi_deal.c **** #include "unitreeA1_cmd.h"
   6:Lib/SPI_Bus/Src/spi_deal.c **** #include "data_def.h"
   7:Lib/SPI_Bus/Src/spi_deal.c **** #include "string.h"
   8:Lib/SPI_Bus/Src/spi_deal.c **** #include "spi_deal.h"
   9:Lib/SPI_Bus/Src/spi_deal.c **** 
  10:Lib/SPI_Bus/Src/spi_deal.c **** 
  11:Lib/SPI_Bus/Src/spi_deal.c **** volatile uint8_t RxComplete = 0;
  12:Lib/SPI_Bus/Src/spi_deal.c **** 
  13:Lib/SPI_Bus/Src/spi_deal.c **** extern DMA_HandleTypeDef hdma_spi2_rx;
  14:Lib/SPI_Bus/Src/spi_deal.c **** extern DMA_HandleTypeDef hdma_spi2_tx;
  15:Lib/SPI_Bus/Src/spi_deal.c **** 
  16:Lib/SPI_Bus/Src/spi_deal.c **** A1PackageSpiTx A1date[4][3];
  17:Lib/SPI_Bus/Src/spi_deal.c **** A1PackageSpiRx RXA1cmd;
  18:Lib/SPI_Bus/Src/spi_deal.c **** 
  19:Lib/SPI_Bus/Src/spi_deal.c **** extern motor_recv_t data_motor[4][3];
  20:Lib/SPI_Bus/Src/spi_deal.c **** extern motor_recv_t data_leg[4];
  21:Lib/SPI_Bus/Src/spi_deal.c **** extern motor_send_t cmd_leg[4];
  22:Lib/SPI_Bus/Src/spi_deal.c **** 
  23:Lib/SPI_Bus/Src/spi_deal.c **** 
  24:Lib/SPI_Bus/Src/spi_deal.c **** void DateCheck_DateModfy (A1PackageSpiRx *modf_buf)
  25:Lib/SPI_Bus/Src/spi_deal.c **** {
  30              		.loc 1 25 1 view -0
  31              		.cfi_startproc
  32              		@ args = 0, pretend = 0, frame = 0
  33              		@ frame_needed = 0, uses_anonymous_args = 0
ARM GAS  /tmp/ccNaxIvK.s 			page 2


  34              		.loc 1 25 1 is_stmt 0 view .LVU1
  35 0000 10B5     		push	{r4, lr}
  36              		.cfi_def_cfa_offset 8
  37              		.cfi_offset 4, -8
  38              		.cfi_offset 14, -4
  26:Lib/SPI_Bus/Src/spi_deal.c ****     if(modf_buf->SumCheck == modf_buf->start[0] + modf_buf->start[1] + modf_buf->LegID + modf_buf->
  39              		.loc 1 26 5 is_stmt 1 view .LVU2
  40              		.loc 1 26 16 is_stmt 0 view .LVU3
  41 0002 4269     		ldr	r2, [r0, #20]
  42              		.loc 1 26 45 view .LVU4
  43 0004 0378     		ldrb	r3, [r0]	@ zero_extendqisi2
  44              		.loc 1 26 66 view .LVU5
  45 0006 4178     		ldrb	r1, [r0, #1]	@ zero_extendqisi2
  46              		.loc 1 26 49 view .LVU6
  47 0008 0B44     		add	r3, r3, r1
  48              		.loc 1 26 80 view .LVU7
  49 000a 8178     		ldrb	r1, [r0, #2]	@ zero_extendqisi2
  50              		.loc 1 26 70 view .LVU8
  51 000c 0B44     		add	r3, r3, r1
  52              		.loc 1 26 98 view .LVU9
  53 000e 90F803C0 		ldrb	ip, [r0, #3]	@ zero_extendqisi2
  54              		.loc 1 26 88 view .LVU10
  55 0012 6344     		add	r3, r3, ip
  56              		.loc 1 26 117 view .LVU11
  57 0014 90F804E0 		ldrb	lr, [r0, #4]	@ zero_extendqisi2
  58              		.loc 1 26 108 view .LVU12
  59 0018 7344     		add	r3, r3, lr
  60              		.loc 1 26 134 view .LVU13
  61 001a B0F906E0 		ldrsh	lr, [r0, #6]
  62              		.loc 1 26 124 view .LVU14
  63 001e 7344     		add	r3, r3, lr
  64              		.loc 1 26 148 view .LVU15
  65 0020 B0F908E0 		ldrsh	lr, [r0, #8]
  66              		.loc 1 26 138 view .LVU16
  67 0024 7344     		add	r3, r3, lr
  68              		.loc 1 26 152 view .LVU17
  69 0026 C468     		ldr	r4, [r0, #12]
  70 0028 2344     		add	r3, r3, r4
  71              		.loc 1 26 178 view .LVU18
  72 002a B0F910E0 		ldrsh	lr, [r0, #16]
  73              		.loc 1 26 168 view .LVU19
  74 002e 7344     		add	r3, r3, lr
  75              		.loc 1 26 194 view .LVU20
  76 0030 B0F912E0 		ldrsh	lr, [r0, #18]
  77              		.loc 1 26 184 view .LVU21
  78 0034 7344     		add	r3, r3, lr
  79              		.loc 1 26 7 view .LVU22
  80 0036 9A42     		cmp	r2, r3
  81 0038 00D0     		beq	.L7
  82              	.L1:
  27:Lib/SPI_Bus/Src/spi_deal.c ****     {
  28:Lib/SPI_Bus/Src/spi_deal.c ****         if (modf_buf->LegID == 0)
  29:Lib/SPI_Bus/Src/spi_deal.c ****         {
  30:Lib/SPI_Bus/Src/spi_deal.c ****         uint8_t leg_id = 0;
  31:Lib/SPI_Bus/Src/spi_deal.c ****         cmd_leg[leg_id].id = modf_buf->motorID;
  32:Lib/SPI_Bus/Src/spi_deal.c ****         cmd_leg[leg_id].mode = modf_buf->mode;
  33:Lib/SPI_Bus/Src/spi_deal.c ****         cmd_leg[leg_id].K_P = modf_buf->K_P;
ARM GAS  /tmp/ccNaxIvK.s 			page 3


  34:Lib/SPI_Bus/Src/spi_deal.c ****         cmd_leg[leg_id].K_W = modf_buf->K_W;
  35:Lib/SPI_Bus/Src/spi_deal.c ****         cmd_leg[leg_id].Pos = modf_buf->Pos;
  36:Lib/SPI_Bus/Src/spi_deal.c ****         cmd_leg[leg_id].W = modf_buf->W;
  37:Lib/SPI_Bus/Src/spi_deal.c ****         cmd_leg[leg_id].T = modf_buf->T;
  38:Lib/SPI_Bus/Src/spi_deal.c ****         }
  39:Lib/SPI_Bus/Src/spi_deal.c ****         if (modf_buf->LegID == 1)
  40:Lib/SPI_Bus/Src/spi_deal.c ****         {
  41:Lib/SPI_Bus/Src/spi_deal.c ****         uint8_t leg_id = 1;
  42:Lib/SPI_Bus/Src/spi_deal.c ****         cmd_leg[leg_id].id = modf_buf->motorID;
  43:Lib/SPI_Bus/Src/spi_deal.c ****         cmd_leg[leg_id].mode = modf_buf->mode;
  44:Lib/SPI_Bus/Src/spi_deal.c ****         cmd_leg[leg_id].K_P = modf_buf->K_P;
  45:Lib/SPI_Bus/Src/spi_deal.c ****         cmd_leg[leg_id].K_W = modf_buf->K_W;
  46:Lib/SPI_Bus/Src/spi_deal.c ****         cmd_leg[leg_id].Pos = modf_buf->Pos;
  47:Lib/SPI_Bus/Src/spi_deal.c ****         cmd_leg[leg_id].W = modf_buf->W;
  48:Lib/SPI_Bus/Src/spi_deal.c ****         cmd_leg[leg_id].T = modf_buf->T;
  49:Lib/SPI_Bus/Src/spi_deal.c ****         }
  50:Lib/SPI_Bus/Src/spi_deal.c **** 
  51:Lib/SPI_Bus/Src/spi_deal.c ****         if (modf_buf->LegID == 2)
  52:Lib/SPI_Bus/Src/spi_deal.c ****         {
  53:Lib/SPI_Bus/Src/spi_deal.c ****         uint8_t leg_id = 2;
  54:Lib/SPI_Bus/Src/spi_deal.c ****         cmd_leg[leg_id].id = modf_buf->motorID;
  55:Lib/SPI_Bus/Src/spi_deal.c ****         cmd_leg[leg_id].mode = modf_buf->mode;
  56:Lib/SPI_Bus/Src/spi_deal.c ****         cmd_leg[leg_id].K_P = modf_buf->K_P;
  57:Lib/SPI_Bus/Src/spi_deal.c ****         cmd_leg[leg_id].K_W = modf_buf->K_W;
  58:Lib/SPI_Bus/Src/spi_deal.c ****         cmd_leg[leg_id].Pos = modf_buf->Pos;
  59:Lib/SPI_Bus/Src/spi_deal.c ****         cmd_leg[leg_id].W = modf_buf->W;
  60:Lib/SPI_Bus/Src/spi_deal.c ****         cmd_leg[leg_id].T = modf_buf->T;
  61:Lib/SPI_Bus/Src/spi_deal.c ****         }
  62:Lib/SPI_Bus/Src/spi_deal.c **** 
  63:Lib/SPI_Bus/Src/spi_deal.c ****         if (modf_buf->LegID == 3)
  64:Lib/SPI_Bus/Src/spi_deal.c ****         {
  65:Lib/SPI_Bus/Src/spi_deal.c ****         uint8_t leg_id = 3;
  66:Lib/SPI_Bus/Src/spi_deal.c ****         cmd_leg[leg_id].id = modf_buf->motorID;
  67:Lib/SPI_Bus/Src/spi_deal.c ****         cmd_leg[leg_id].mode = modf_buf->mode;
  68:Lib/SPI_Bus/Src/spi_deal.c ****         cmd_leg[leg_id].K_P = modf_buf->K_P;
  69:Lib/SPI_Bus/Src/spi_deal.c ****         cmd_leg[leg_id].K_W = modf_buf->K_W;
  70:Lib/SPI_Bus/Src/spi_deal.c ****         cmd_leg[leg_id].Pos = modf_buf->Pos;
  71:Lib/SPI_Bus/Src/spi_deal.c ****         cmd_leg[leg_id].W = modf_buf->W;
  72:Lib/SPI_Bus/Src/spi_deal.c ****         cmd_leg[leg_id].T = modf_buf->T;
  73:Lib/SPI_Bus/Src/spi_deal.c ****         }
  74:Lib/SPI_Bus/Src/spi_deal.c **** 
  75:Lib/SPI_Bus/Src/spi_deal.c ****     }
  76:Lib/SPI_Bus/Src/spi_deal.c **** 
  77:Lib/SPI_Bus/Src/spi_deal.c **** }
  83              		.loc 1 77 1 view .LVU23
  84 003a 10BD     		pop	{r4, pc}
  85              	.L7:
  28:Lib/SPI_Bus/Src/spi_deal.c ****         {
  86              		.loc 1 28 9 is_stmt 1 view .LVU24
  28:Lib/SPI_Bus/Src/spi_deal.c ****         {
  87              		.loc 1 28 12 is_stmt 0 view .LVU25
  88 003c A1BB     		cbnz	r1, .L3
  89              	.LBB2:
  30:Lib/SPI_Bus/Src/spi_deal.c ****         cmd_leg[leg_id].id = modf_buf->motorID;
  90              		.loc 1 30 9 is_stmt 1 view .LVU26
  91              	.LVL1:
  31:Lib/SPI_Bus/Src/spi_deal.c ****         cmd_leg[leg_id].mode = modf_buf->mode;
ARM GAS  /tmp/ccNaxIvK.s 			page 4


  92              		.loc 1 31 9 view .LVU27
  31:Lib/SPI_Bus/Src/spi_deal.c ****         cmd_leg[leg_id].mode = modf_buf->mode;
  93              		.loc 1 31 28 is_stmt 0 view .LVU28
  94 003e 704B     		ldr	r3, .L10
  95 0040 A3F826C0 		strh	ip, [r3, #38]	@ unaligned
  32:Lib/SPI_Bus/Src/spi_deal.c ****         cmd_leg[leg_id].K_P = modf_buf->K_P;
  96              		.loc 1 32 9 is_stmt 1 view .LVU29
  32:Lib/SPI_Bus/Src/spi_deal.c ****         cmd_leg[leg_id].K_P = modf_buf->K_P;
  97              		.loc 1 32 40 is_stmt 0 view .LVU30
  98 0044 0279     		ldrb	r2, [r0, #4]	@ zero_extendqisi2
  32:Lib/SPI_Bus/Src/spi_deal.c ****         cmd_leg[leg_id].K_P = modf_buf->K_P;
  99              		.loc 1 32 30 view .LVU31
 100 0046 1A85     		strh	r2, [r3, #40]	@ unaligned
  33:Lib/SPI_Bus/Src/spi_deal.c ****         cmd_leg[leg_id].K_W = modf_buf->K_W;
 101              		.loc 1 33 9 is_stmt 1 view .LVU32
  33:Lib/SPI_Bus/Src/spi_deal.c ****         cmd_leg[leg_id].K_W = modf_buf->K_W;
 102              		.loc 1 33 39 is_stmt 0 view .LVU33
 103 0048 B0F91020 		ldrsh	r2, [r0, #16]
  33:Lib/SPI_Bus/Src/spi_deal.c ****         cmd_leg[leg_id].K_W = modf_buf->K_W;
 104              		.loc 1 33 29 view .LVU34
 105 004c 07EE902A 		vmov	s15, r2	@ int
 106 0050 F8EEE77A 		vcvt.f32.s32	s15, s15
 107 0054 17EE902A 		vmov	r2, s15
 108 0058 C3F83620 		str	r2, [r3, #54]	@ unaligned
  34:Lib/SPI_Bus/Src/spi_deal.c ****         cmd_leg[leg_id].Pos = modf_buf->Pos;
 109              		.loc 1 34 9 is_stmt 1 view .LVU35
  34:Lib/SPI_Bus/Src/spi_deal.c ****         cmd_leg[leg_id].Pos = modf_buf->Pos;
 110              		.loc 1 34 39 is_stmt 0 view .LVU36
 111 005c B0F91220 		ldrsh	r2, [r0, #18]
  34:Lib/SPI_Bus/Src/spi_deal.c ****         cmd_leg[leg_id].Pos = modf_buf->Pos;
 112              		.loc 1 34 29 view .LVU37
 113 0060 07EE902A 		vmov	s15, r2	@ int
 114 0064 F8EEE77A 		vcvt.f32.s32	s15, s15
 115 0068 17EE902A 		vmov	r2, s15
 116 006c C3F83A20 		str	r2, [r3, #58]	@ unaligned
  35:Lib/SPI_Bus/Src/spi_deal.c ****         cmd_leg[leg_id].W = modf_buf->W;
 117              		.loc 1 35 9 is_stmt 1 view .LVU38
  35:Lib/SPI_Bus/Src/spi_deal.c ****         cmd_leg[leg_id].W = modf_buf->W;
 118              		.loc 1 35 29 is_stmt 0 view .LVU39
 119 0070 D0ED037A 		vldr.32	s15, [r0, #12]	@ int
 120 0074 F8EEE77A 		vcvt.f32.s32	s15, s15
 121 0078 17EE902A 		vmov	r2, s15
 122 007c C3F83220 		str	r2, [r3, #50]	@ unaligned
  36:Lib/SPI_Bus/Src/spi_deal.c ****         cmd_leg[leg_id].T = modf_buf->T;
 123              		.loc 1 36 9 is_stmt 1 view .LVU40
  36:Lib/SPI_Bus/Src/spi_deal.c ****         cmd_leg[leg_id].T = modf_buf->T;
 124              		.loc 1 36 37 is_stmt 0 view .LVU41
 125 0080 B0F90820 		ldrsh	r2, [r0, #8]
  36:Lib/SPI_Bus/Src/spi_deal.c ****         cmd_leg[leg_id].T = modf_buf->T;
 126              		.loc 1 36 27 view .LVU42
 127 0084 07EE902A 		vmov	s15, r2	@ int
 128 0088 F8EEE77A 		vcvt.f32.s32	s15, s15
 129 008c 17EE902A 		vmov	r2, s15
 130 0090 C3F82E20 		str	r2, [r3, #46]	@ unaligned
  37:Lib/SPI_Bus/Src/spi_deal.c ****         }
 131              		.loc 1 37 9 is_stmt 1 view .LVU43
  37:Lib/SPI_Bus/Src/spi_deal.c ****         }
ARM GAS  /tmp/ccNaxIvK.s 			page 5


 132              		.loc 1 37 37 is_stmt 0 view .LVU44
 133 0094 B0F90620 		ldrsh	r2, [r0, #6]
  37:Lib/SPI_Bus/Src/spi_deal.c ****         }
 134              		.loc 1 37 27 view .LVU45
 135 0098 07EE902A 		vmov	s15, r2	@ int
 136 009c F8EEE77A 		vcvt.f32.s32	s15, s15
 137 00a0 17EE902A 		vmov	r2, s15
 138 00a4 C3F82A20 		str	r2, [r3, #42]	@ unaligned
 139              	.LVL2:
 140              	.L3:
  37:Lib/SPI_Bus/Src/spi_deal.c ****         }
 141              		.loc 1 37 27 view .LVU46
 142              	.LBE2:
  39:Lib/SPI_Bus/Src/spi_deal.c ****         {
 143              		.loc 1 39 9 is_stmt 1 view .LVU47
  39:Lib/SPI_Bus/Src/spi_deal.c ****         {
 144              		.loc 1 39 21 is_stmt 0 view .LVU48
 145 00a8 8378     		ldrb	r3, [r0, #2]	@ zero_extendqisi2
  39:Lib/SPI_Bus/Src/spi_deal.c ****         {
 146              		.loc 1 39 12 view .LVU49
 147 00aa 012B     		cmp	r3, #1
 148 00ac 3DD0     		beq	.L8
 149              	.L4:
  51:Lib/SPI_Bus/Src/spi_deal.c ****         {
 150              		.loc 1 51 9 is_stmt 1 view .LVU50
  51:Lib/SPI_Bus/Src/spi_deal.c ****         {
 151              		.loc 1 51 21 is_stmt 0 view .LVU51
 152 00ae 8378     		ldrb	r3, [r0, #2]	@ zero_extendqisi2
  51:Lib/SPI_Bus/Src/spi_deal.c ****         {
 153              		.loc 1 51 12 view .LVU52
 154 00b0 022B     		cmp	r3, #2
 155 00b2 6DD0     		beq	.L9
 156              	.L5:
  63:Lib/SPI_Bus/Src/spi_deal.c ****         {
 157              		.loc 1 63 9 is_stmt 1 view .LVU53
  63:Lib/SPI_Bus/Src/spi_deal.c ****         {
 158              		.loc 1 63 21 is_stmt 0 view .LVU54
 159 00b4 8378     		ldrb	r3, [r0, #2]	@ zero_extendqisi2
  63:Lib/SPI_Bus/Src/spi_deal.c ****         {
 160              		.loc 1 63 12 view .LVU55
 161 00b6 032B     		cmp	r3, #3
 162 00b8 BFD1     		bne	.L1
 163              	.LBB3:
  65:Lib/SPI_Bus/Src/spi_deal.c ****         cmd_leg[leg_id].id = modf_buf->motorID;
 164              		.loc 1 65 9 is_stmt 1 view .LVU56
 165              	.LVL3:
  66:Lib/SPI_Bus/Src/spi_deal.c ****         cmd_leg[leg_id].mode = modf_buf->mode;
 166              		.loc 1 66 9 view .LVU57
  66:Lib/SPI_Bus/Src/spi_deal.c ****         cmd_leg[leg_id].mode = modf_buf->mode;
 167              		.loc 1 66 38 is_stmt 0 view .LVU58
 168 00ba C278     		ldrb	r2, [r0, #3]	@ zero_extendqisi2
  66:Lib/SPI_Bus/Src/spi_deal.c ****         cmd_leg[leg_id].mode = modf_buf->mode;
 169              		.loc 1 66 28 view .LVU59
 170 00bc 504B     		ldr	r3, .L10
 171 00be A3F8EC20 		strh	r2, [r3, #236]	@ unaligned
  67:Lib/SPI_Bus/Src/spi_deal.c ****         cmd_leg[leg_id].K_P = modf_buf->K_P;
 172              		.loc 1 67 9 is_stmt 1 view .LVU60
ARM GAS  /tmp/ccNaxIvK.s 			page 6


  67:Lib/SPI_Bus/Src/spi_deal.c ****         cmd_leg[leg_id].K_P = modf_buf->K_P;
 173              		.loc 1 67 40 is_stmt 0 view .LVU61
 174 00c2 0279     		ldrb	r2, [r0, #4]	@ zero_extendqisi2
  67:Lib/SPI_Bus/Src/spi_deal.c ****         cmd_leg[leg_id].K_P = modf_buf->K_P;
 175              		.loc 1 67 30 view .LVU62
 176 00c4 A3F8EE20 		strh	r2, [r3, #238]	@ unaligned
  68:Lib/SPI_Bus/Src/spi_deal.c ****         cmd_leg[leg_id].K_W = modf_buf->K_W;
 177              		.loc 1 68 9 is_stmt 1 view .LVU63
  68:Lib/SPI_Bus/Src/spi_deal.c ****         cmd_leg[leg_id].K_W = modf_buf->K_W;
 178              		.loc 1 68 39 is_stmt 0 view .LVU64
 179 00c8 B0F91020 		ldrsh	r2, [r0, #16]
  68:Lib/SPI_Bus/Src/spi_deal.c ****         cmd_leg[leg_id].K_W = modf_buf->K_W;
 180              		.loc 1 68 29 view .LVU65
 181 00cc 07EE902A 		vmov	s15, r2	@ int
 182 00d0 F8EEE77A 		vcvt.f32.s32	s15, s15
 183 00d4 17EE902A 		vmov	r2, s15
 184 00d8 C3F8FC20 		str	r2, [r3, #252]	@ unaligned
  69:Lib/SPI_Bus/Src/spi_deal.c ****         cmd_leg[leg_id].Pos = modf_buf->Pos;
 185              		.loc 1 69 9 is_stmt 1 view .LVU66
  69:Lib/SPI_Bus/Src/spi_deal.c ****         cmd_leg[leg_id].Pos = modf_buf->Pos;
 186              		.loc 1 69 39 is_stmt 0 view .LVU67
 187 00dc B0F91220 		ldrsh	r2, [r0, #18]
  69:Lib/SPI_Bus/Src/spi_deal.c ****         cmd_leg[leg_id].Pos = modf_buf->Pos;
 188              		.loc 1 69 29 view .LVU68
 189 00e0 07EE902A 		vmov	s15, r2	@ int
 190 00e4 F8EEE77A 		vcvt.f32.s32	s15, s15
 191 00e8 17EE902A 		vmov	r2, s15
 192 00ec C3F80021 		str	r2, [r3, #256]	@ unaligned
  70:Lib/SPI_Bus/Src/spi_deal.c ****         cmd_leg[leg_id].W = modf_buf->W;
 193              		.loc 1 70 9 is_stmt 1 view .LVU69
  70:Lib/SPI_Bus/Src/spi_deal.c ****         cmd_leg[leg_id].W = modf_buf->W;
 194              		.loc 1 70 29 is_stmt 0 view .LVU70
 195 00f0 D0ED037A 		vldr.32	s15, [r0, #12]	@ int
 196 00f4 F8EEE77A 		vcvt.f32.s32	s15, s15
 197 00f8 17EE902A 		vmov	r2, s15
 198 00fc C3F8F820 		str	r2, [r3, #248]	@ unaligned
  71:Lib/SPI_Bus/Src/spi_deal.c ****         cmd_leg[leg_id].T = modf_buf->T;
 199              		.loc 1 71 9 is_stmt 1 view .LVU71
  71:Lib/SPI_Bus/Src/spi_deal.c ****         cmd_leg[leg_id].T = modf_buf->T;
 200              		.loc 1 71 37 is_stmt 0 view .LVU72
 201 0100 B0F90820 		ldrsh	r2, [r0, #8]
  71:Lib/SPI_Bus/Src/spi_deal.c ****         cmd_leg[leg_id].T = modf_buf->T;
 202              		.loc 1 71 27 view .LVU73
 203 0104 07EE902A 		vmov	s15, r2	@ int
 204 0108 F8EEE77A 		vcvt.f32.s32	s15, s15
 205 010c 17EE902A 		vmov	r2, s15
 206 0110 C3F8F420 		str	r2, [r3, #244]	@ unaligned
  72:Lib/SPI_Bus/Src/spi_deal.c ****         }
 207              		.loc 1 72 9 is_stmt 1 view .LVU74
  72:Lib/SPI_Bus/Src/spi_deal.c ****         }
 208              		.loc 1 72 37 is_stmt 0 view .LVU75
 209 0114 B0F90620 		ldrsh	r2, [r0, #6]
  72:Lib/SPI_Bus/Src/spi_deal.c ****         }
 210              		.loc 1 72 27 view .LVU76
 211 0118 07EE902A 		vmov	s15, r2	@ int
 212 011c F8EEE77A 		vcvt.f32.s32	s15, s15
 213 0120 17EE902A 		vmov	r2, s15
ARM GAS  /tmp/ccNaxIvK.s 			page 7


 214 0124 C3F8F020 		str	r2, [r3, #240]	@ unaligned
 215              	.LBE3:
 216              		.loc 1 77 1 view .LVU77
 217 0128 87E7     		b	.L1
 218              	.LVL4:
 219              	.L8:
 220              	.LBB4:
  41:Lib/SPI_Bus/Src/spi_deal.c ****         cmd_leg[leg_id].id = modf_buf->motorID;
 221              		.loc 1 41 9 is_stmt 1 view .LVU78
  42:Lib/SPI_Bus/Src/spi_deal.c ****         cmd_leg[leg_id].mode = modf_buf->mode;
 222              		.loc 1 42 9 view .LVU79
  42:Lib/SPI_Bus/Src/spi_deal.c ****         cmd_leg[leg_id].mode = modf_buf->mode;
 223              		.loc 1 42 38 is_stmt 0 view .LVU80
 224 012a C278     		ldrb	r2, [r0, #3]	@ zero_extendqisi2
  42:Lib/SPI_Bus/Src/spi_deal.c ****         cmd_leg[leg_id].mode = modf_buf->mode;
 225              		.loc 1 42 28 view .LVU81
 226 012c 344B     		ldr	r3, .L10
 227 012e A3F86820 		strh	r2, [r3, #104]	@ unaligned
  43:Lib/SPI_Bus/Src/spi_deal.c ****         cmd_leg[leg_id].K_P = modf_buf->K_P;
 228              		.loc 1 43 9 is_stmt 1 view .LVU82
  43:Lib/SPI_Bus/Src/spi_deal.c ****         cmd_leg[leg_id].K_P = modf_buf->K_P;
 229              		.loc 1 43 40 is_stmt 0 view .LVU83
 230 0132 0279     		ldrb	r2, [r0, #4]	@ zero_extendqisi2
  43:Lib/SPI_Bus/Src/spi_deal.c ****         cmd_leg[leg_id].K_P = modf_buf->K_P;
 231              		.loc 1 43 30 view .LVU84
 232 0134 A3F86A20 		strh	r2, [r3, #106]	@ unaligned
  44:Lib/SPI_Bus/Src/spi_deal.c ****         cmd_leg[leg_id].K_W = modf_buf->K_W;
 233              		.loc 1 44 9 is_stmt 1 view .LVU85
  44:Lib/SPI_Bus/Src/spi_deal.c ****         cmd_leg[leg_id].K_W = modf_buf->K_W;
 234              		.loc 1 44 39 is_stmt 0 view .LVU86
 235 0138 B0F91020 		ldrsh	r2, [r0, #16]
  44:Lib/SPI_Bus/Src/spi_deal.c ****         cmd_leg[leg_id].K_W = modf_buf->K_W;
 236              		.loc 1 44 29 view .LVU87
 237 013c 07EE902A 		vmov	s15, r2	@ int
 238 0140 F8EEE77A 		vcvt.f32.s32	s15, s15
 239 0144 17EE902A 		vmov	r2, s15
 240 0148 9A67     		str	r2, [r3, #120]	@ unaligned
  45:Lib/SPI_Bus/Src/spi_deal.c ****         cmd_leg[leg_id].Pos = modf_buf->Pos;
 241              		.loc 1 45 9 is_stmt 1 view .LVU88
  45:Lib/SPI_Bus/Src/spi_deal.c ****         cmd_leg[leg_id].Pos = modf_buf->Pos;
 242              		.loc 1 45 39 is_stmt 0 view .LVU89
 243 014a B0F91220 		ldrsh	r2, [r0, #18]
  45:Lib/SPI_Bus/Src/spi_deal.c ****         cmd_leg[leg_id].Pos = modf_buf->Pos;
 244              		.loc 1 45 29 view .LVU90
 245 014e 07EE902A 		vmov	s15, r2	@ int
 246 0152 F8EEE77A 		vcvt.f32.s32	s15, s15
 247 0156 17EE902A 		vmov	r2, s15
 248 015a DA67     		str	r2, [r3, #124]	@ unaligned
  46:Lib/SPI_Bus/Src/spi_deal.c ****         cmd_leg[leg_id].W = modf_buf->W;
 249              		.loc 1 46 9 is_stmt 1 view .LVU91
  46:Lib/SPI_Bus/Src/spi_deal.c ****         cmd_leg[leg_id].W = modf_buf->W;
 250              		.loc 1 46 29 is_stmt 0 view .LVU92
 251 015c D0ED037A 		vldr.32	s15, [r0, #12]	@ int
 252 0160 F8EEE77A 		vcvt.f32.s32	s15, s15
 253 0164 17EE902A 		vmov	r2, s15
 254 0168 5A67     		str	r2, [r3, #116]	@ unaligned
  47:Lib/SPI_Bus/Src/spi_deal.c ****         cmd_leg[leg_id].T = modf_buf->T;
ARM GAS  /tmp/ccNaxIvK.s 			page 8


 255              		.loc 1 47 9 is_stmt 1 view .LVU93
  47:Lib/SPI_Bus/Src/spi_deal.c ****         cmd_leg[leg_id].T = modf_buf->T;
 256              		.loc 1 47 37 is_stmt 0 view .LVU94
 257 016a B0F90820 		ldrsh	r2, [r0, #8]
  47:Lib/SPI_Bus/Src/spi_deal.c ****         cmd_leg[leg_id].T = modf_buf->T;
 258              		.loc 1 47 27 view .LVU95
 259 016e 07EE902A 		vmov	s15, r2	@ int
 260 0172 F8EEE77A 		vcvt.f32.s32	s15, s15
 261 0176 17EE902A 		vmov	r2, s15
 262 017a 1A67     		str	r2, [r3, #112]	@ unaligned
  48:Lib/SPI_Bus/Src/spi_deal.c ****         }
 263              		.loc 1 48 9 is_stmt 1 view .LVU96
  48:Lib/SPI_Bus/Src/spi_deal.c ****         }
 264              		.loc 1 48 37 is_stmt 0 view .LVU97
 265 017c B0F90620 		ldrsh	r2, [r0, #6]
  48:Lib/SPI_Bus/Src/spi_deal.c ****         }
 266              		.loc 1 48 27 view .LVU98
 267 0180 07EE902A 		vmov	s15, r2	@ int
 268 0184 F8EEE77A 		vcvt.f32.s32	s15, s15
 269 0188 17EE902A 		vmov	r2, s15
 270 018c DA66     		str	r2, [r3, #108]	@ unaligned
 271 018e 8EE7     		b	.L4
 272              	.LVL5:
 273              	.L9:
  48:Lib/SPI_Bus/Src/spi_deal.c ****         }
 274              		.loc 1 48 27 view .LVU99
 275              	.LBE4:
 276              	.LBB5:
  53:Lib/SPI_Bus/Src/spi_deal.c ****         cmd_leg[leg_id].id = modf_buf->motorID;
 277              		.loc 1 53 9 is_stmt 1 view .LVU100
  54:Lib/SPI_Bus/Src/spi_deal.c ****         cmd_leg[leg_id].mode = modf_buf->mode;
 278              		.loc 1 54 9 view .LVU101
  54:Lib/SPI_Bus/Src/spi_deal.c ****         cmd_leg[leg_id].mode = modf_buf->mode;
 279              		.loc 1 54 38 is_stmt 0 view .LVU102
 280 0190 C278     		ldrb	r2, [r0, #3]	@ zero_extendqisi2
  54:Lib/SPI_Bus/Src/spi_deal.c ****         cmd_leg[leg_id].mode = modf_buf->mode;
 281              		.loc 1 54 28 view .LVU103
 282 0192 1B4B     		ldr	r3, .L10
 283 0194 A3F8AA20 		strh	r2, [r3, #170]	@ unaligned
  55:Lib/SPI_Bus/Src/spi_deal.c ****         cmd_leg[leg_id].K_P = modf_buf->K_P;
 284              		.loc 1 55 9 is_stmt 1 view .LVU104
  55:Lib/SPI_Bus/Src/spi_deal.c ****         cmd_leg[leg_id].K_P = modf_buf->K_P;
 285              		.loc 1 55 40 is_stmt 0 view .LVU105
 286 0198 0279     		ldrb	r2, [r0, #4]	@ zero_extendqisi2
  55:Lib/SPI_Bus/Src/spi_deal.c ****         cmd_leg[leg_id].K_P = modf_buf->K_P;
 287              		.loc 1 55 30 view .LVU106
 288 019a A3F8AC20 		strh	r2, [r3, #172]	@ unaligned
  56:Lib/SPI_Bus/Src/spi_deal.c ****         cmd_leg[leg_id].K_W = modf_buf->K_W;
 289              		.loc 1 56 9 is_stmt 1 view .LVU107
  56:Lib/SPI_Bus/Src/spi_deal.c ****         cmd_leg[leg_id].K_W = modf_buf->K_W;
 290              		.loc 1 56 39 is_stmt 0 view .LVU108
 291 019e B0F91020 		ldrsh	r2, [r0, #16]
  56:Lib/SPI_Bus/Src/spi_deal.c ****         cmd_leg[leg_id].K_W = modf_buf->K_W;
 292              		.loc 1 56 29 view .LVU109
 293 01a2 07EE902A 		vmov	s15, r2	@ int
 294 01a6 F8EEE77A 		vcvt.f32.s32	s15, s15
 295 01aa 17EE902A 		vmov	r2, s15
ARM GAS  /tmp/ccNaxIvK.s 			page 9


 296 01ae C3F8BA20 		str	r2, [r3, #186]	@ unaligned
  57:Lib/SPI_Bus/Src/spi_deal.c ****         cmd_leg[leg_id].Pos = modf_buf->Pos;
 297              		.loc 1 57 9 is_stmt 1 view .LVU110
  57:Lib/SPI_Bus/Src/spi_deal.c ****         cmd_leg[leg_id].Pos = modf_buf->Pos;
 298              		.loc 1 57 39 is_stmt 0 view .LVU111
 299 01b2 B0F91220 		ldrsh	r2, [r0, #18]
  57:Lib/SPI_Bus/Src/spi_deal.c ****         cmd_leg[leg_id].Pos = modf_buf->Pos;
 300              		.loc 1 57 29 view .LVU112
 301 01b6 07EE902A 		vmov	s15, r2	@ int
 302 01ba F8EEE77A 		vcvt.f32.s32	s15, s15
 303 01be 17EE902A 		vmov	r2, s15
 304 01c2 C3F8BE20 		str	r2, [r3, #190]	@ unaligned
  58:Lib/SPI_Bus/Src/spi_deal.c ****         cmd_leg[leg_id].W = modf_buf->W;
 305              		.loc 1 58 9 is_stmt 1 view .LVU113
  58:Lib/SPI_Bus/Src/spi_deal.c ****         cmd_leg[leg_id].W = modf_buf->W;
 306              		.loc 1 58 29 is_stmt 0 view .LVU114
 307 01c6 D0ED037A 		vldr.32	s15, [r0, #12]	@ int
 308 01ca F8EEE77A 		vcvt.f32.s32	s15, s15
 309 01ce 17EE902A 		vmov	r2, s15
 310 01d2 C3F8B620 		str	r2, [r3, #182]	@ unaligned
  59:Lib/SPI_Bus/Src/spi_deal.c ****         cmd_leg[leg_id].T = modf_buf->T;
 311              		.loc 1 59 9 is_stmt 1 view .LVU115
  59:Lib/SPI_Bus/Src/spi_deal.c ****         cmd_leg[leg_id].T = modf_buf->T;
 312              		.loc 1 59 37 is_stmt 0 view .LVU116
 313 01d6 B0F90820 		ldrsh	r2, [r0, #8]
  59:Lib/SPI_Bus/Src/spi_deal.c ****         cmd_leg[leg_id].T = modf_buf->T;
 314              		.loc 1 59 27 view .LVU117
 315 01da 07EE902A 		vmov	s15, r2	@ int
 316 01de F8EEE77A 		vcvt.f32.s32	s15, s15
 317 01e2 17EE902A 		vmov	r2, s15
 318 01e6 C3F8B220 		str	r2, [r3, #178]	@ unaligned
  60:Lib/SPI_Bus/Src/spi_deal.c ****         }
 319              		.loc 1 60 9 is_stmt 1 view .LVU118
  60:Lib/SPI_Bus/Src/spi_deal.c ****         }
 320              		.loc 1 60 37 is_stmt 0 view .LVU119
 321 01ea B0F90620 		ldrsh	r2, [r0, #6]
  60:Lib/SPI_Bus/Src/spi_deal.c ****         }
 322              		.loc 1 60 27 view .LVU120
 323 01ee 07EE902A 		vmov	s15, r2	@ int
 324 01f2 F8EEE77A 		vcvt.f32.s32	s15, s15
 325 01f6 17EE902A 		vmov	r2, s15
 326 01fa C3F8AE20 		str	r2, [r3, #174]	@ unaligned
 327 01fe 59E7     		b	.L5
 328              	.L11:
 329              		.align	2
 330              	.L10:
 331 0200 00000000 		.word	cmd_leg
 332              	.LBE5:
 333              		.cfi_endproc
 334              	.LFE134:
 336              		.section	.text.SPI_RXdate,"ax",%progbits
 337              		.align	1
 338              		.global	SPI_RXdate
 339              		.syntax unified
 340              		.thumb
 341              		.thumb_func
 343              	SPI_RXdate:
ARM GAS  /tmp/ccNaxIvK.s 			page 10


 344              	.LVL6:
 345              	.LFB135:
  78:Lib/SPI_Bus/Src/spi_deal.c **** void SPI_RXdate(A1PackageSpiRx *modf_buf,uint8_t *spi_sbus_buf)
  79:Lib/SPI_Bus/Src/spi_deal.c **** {
 346              		.loc 1 79 1 is_stmt 1 view -0
 347              		.cfi_startproc
 348              		@ args = 0, pretend = 0, frame = 0
 349              		@ frame_needed = 0, uses_anonymous_args = 0
 350              		.loc 1 79 1 is_stmt 0 view .LVU122
 351 0000 08B5     		push	{r3, lr}
 352              		.cfi_def_cfa_offset 8
 353              		.cfi_offset 3, -8
 354              		.cfi_offset 14, -4
  80:Lib/SPI_Bus/Src/spi_deal.c ****     
  81:Lib/SPI_Bus/Src/spi_deal.c ****     modf_buf->start[0] = spi_sbus_buf[0];
 355              		.loc 1 81 5 is_stmt 1 view .LVU123
 356              		.loc 1 81 38 is_stmt 0 view .LVU124
 357 0002 0A78     		ldrb	r2, [r1]	@ zero_extendqisi2
 358              		.loc 1 81 24 view .LVU125
 359 0004 0270     		strb	r2, [r0]
  82:Lib/SPI_Bus/Src/spi_deal.c ****     modf_buf->start[1] = spi_sbus_buf[1];
 360              		.loc 1 82 5 is_stmt 1 view .LVU126
 361              		.loc 1 82 24 is_stmt 0 view .LVU127
 362 0006 4A78     		ldrb	r2, [r1, #1]	@ zero_extendqisi2
 363 0008 4270     		strb	r2, [r0, #1]
  83:Lib/SPI_Bus/Src/spi_deal.c ****     modf_buf->LegID = spi_sbus_buf[2];
 364              		.loc 1 83 5 is_stmt 1 view .LVU128
 365              		.loc 1 83 21 is_stmt 0 view .LVU129
 366 000a 8A78     		ldrb	r2, [r1, #2]	@ zero_extendqisi2
 367 000c 8270     		strb	r2, [r0, #2]
  84:Lib/SPI_Bus/Src/spi_deal.c ****     modf_buf->motorID = spi_sbus_buf[3];
 368              		.loc 1 84 5 is_stmt 1 view .LVU130
 369              		.loc 1 84 23 is_stmt 0 view .LVU131
 370 000e CA78     		ldrb	r2, [r1, #3]	@ zero_extendqisi2
 371 0010 C270     		strb	r2, [r0, #3]
  85:Lib/SPI_Bus/Src/spi_deal.c ****     modf_buf->mode = spi_sbus_buf[4];
 372              		.loc 1 85 5 is_stmt 1 view .LVU132
 373              		.loc 1 85 20 is_stmt 0 view .LVU133
 374 0012 0A79     		ldrb	r2, [r1, #4]	@ zero_extendqisi2
 375 0014 0271     		strb	r2, [r0, #4]
  86:Lib/SPI_Bus/Src/spi_deal.c ****     modf_buf->T = spi_sbus_buf[5] << 8 | spi_sbus_buf[6];
 376              		.loc 1 86 5 is_stmt 1 view .LVU134
 377              		.loc 1 86 31 is_stmt 0 view .LVU135
 378 0016 91F805C0 		ldrb	ip, [r1, #5]	@ zero_extendqisi2
 379              		.loc 1 86 54 view .LVU136
 380 001a 8A79     		ldrb	r2, [r1, #6]	@ zero_extendqisi2
 381              		.loc 1 86 40 view .LVU137
 382 001c 42EA0C22 		orr	r2, r2, ip, lsl #8
 383              		.loc 1 86 17 view .LVU138
 384 0020 C280     		strh	r2, [r0, #6]	@ movhi
  87:Lib/SPI_Bus/Src/spi_deal.c ****     modf_buf->W = spi_sbus_buf[7] << 8 | spi_sbus_buf[8];
 385              		.loc 1 87 5 is_stmt 1 view .LVU139
 386              		.loc 1 87 31 is_stmt 0 view .LVU140
 387 0022 91F807C0 		ldrb	ip, [r1, #7]	@ zero_extendqisi2
 388              		.loc 1 87 54 view .LVU141
 389 0026 0A7A     		ldrb	r2, [r1, #8]	@ zero_extendqisi2
 390              		.loc 1 87 40 view .LVU142
ARM GAS  /tmp/ccNaxIvK.s 			page 11


 391 0028 42EA0C22 		orr	r2, r2, ip, lsl #8
 392              		.loc 1 87 17 view .LVU143
 393 002c 0281     		strh	r2, [r0, #8]	@ movhi
  88:Lib/SPI_Bus/Src/spi_deal.c ****     modf_buf->Pos = spi_sbus_buf[9] << 24 | spi_sbus_buf[10] << 16 | spi_sbus_buf[11] << 8 | spi_sb
 394              		.loc 1 88 5 is_stmt 1 view .LVU144
 395              		.loc 1 88 33 is_stmt 0 view .LVU145
 396 002e 91F809C0 		ldrb	ip, [r1, #9]	@ zero_extendqisi2
 397              		.loc 1 88 57 view .LVU146
 398 0032 8A7A     		ldrb	r2, [r1, #10]	@ zero_extendqisi2
 399              		.loc 1 88 62 view .LVU147
 400 0034 1204     		lsls	r2, r2, #16
 401              		.loc 1 88 43 view .LVU148
 402 0036 42EA0C62 		orr	r2, r2, ip, lsl #24
 403              		.loc 1 88 82 view .LVU149
 404 003a 91F80BC0 		ldrb	ip, [r1, #11]	@ zero_extendqisi2
 405              		.loc 1 88 68 view .LVU150
 406 003e 42EA0C22 		orr	r2, r2, ip, lsl #8
 407              		.loc 1 88 106 view .LVU151
 408 0042 91F80CC0 		ldrb	ip, [r1, #12]	@ zero_extendqisi2
 409              		.loc 1 88 92 view .LVU152
 410 0046 42EA0C02 		orr	r2, r2, ip
 411              		.loc 1 88 19 view .LVU153
 412 004a C260     		str	r2, [r0, #12]
  89:Lib/SPI_Bus/Src/spi_deal.c ****     modf_buf->K_P = spi_sbus_buf[13] << 8 | spi_sbus_buf[14];
 413              		.loc 1 89 5 is_stmt 1 view .LVU154
 414              		.loc 1 89 33 is_stmt 0 view .LVU155
 415 004c 91F80DC0 		ldrb	ip, [r1, #13]	@ zero_extendqisi2
 416              		.loc 1 89 57 view .LVU156
 417 0050 8A7B     		ldrb	r2, [r1, #14]	@ zero_extendqisi2
 418              		.loc 1 89 43 view .LVU157
 419 0052 42EA0C22 		orr	r2, r2, ip, lsl #8
 420              		.loc 1 89 19 view .LVU158
 421 0056 0282     		strh	r2, [r0, #16]	@ movhi
  90:Lib/SPI_Bus/Src/spi_deal.c ****     modf_buf->K_W = spi_sbus_buf[15] << 8 | spi_sbus_buf[16];
 422              		.loc 1 90 5 is_stmt 1 view .LVU159
 423              		.loc 1 90 33 is_stmt 0 view .LVU160
 424 0058 91F80FC0 		ldrb	ip, [r1, #15]	@ zero_extendqisi2
 425              		.loc 1 90 57 view .LVU161
 426 005c 0A7C     		ldrb	r2, [r1, #16]	@ zero_extendqisi2
 427              		.loc 1 90 43 view .LVU162
 428 005e 42EA0C22 		orr	r2, r2, ip, lsl #8
 429              		.loc 1 90 19 view .LVU163
 430 0062 4282     		strh	r2, [r0, #18]	@ movhi
  91:Lib/SPI_Bus/Src/spi_deal.c ****     modf_buf->SumCheck = spi_sbus_buf[17] << 24 | spi_sbus_buf[18] << 16 | spi_sbus_buf[19] << 8 | 
 431              		.loc 1 91 5 is_stmt 1 view .LVU164
 432              		.loc 1 91 38 is_stmt 0 view .LVU165
 433 0064 91F811C0 		ldrb	ip, [r1, #17]	@ zero_extendqisi2
 434              		.loc 1 91 63 view .LVU166
 435 0068 8A7C     		ldrb	r2, [r1, #18]	@ zero_extendqisi2
 436              		.loc 1 91 68 view .LVU167
 437 006a 1204     		lsls	r2, r2, #16
 438              		.loc 1 91 49 view .LVU168
 439 006c 42EA0C62 		orr	r2, r2, ip, lsl #24
 440              		.loc 1 91 88 view .LVU169
 441 0070 91F813C0 		ldrb	ip, [r1, #19]	@ zero_extendqisi2
 442              		.loc 1 91 74 view .LVU170
 443 0074 42EA0C22 		orr	r2, r2, ip, lsl #8
ARM GAS  /tmp/ccNaxIvK.s 			page 12


 444              		.loc 1 91 112 view .LVU171
 445 0078 097D     		ldrb	r1, [r1, #20]	@ zero_extendqisi2
 446              	.LVL7:
 447              		.loc 1 91 98 view .LVU172
 448 007a 0A43     		orrs	r2, r2, r1
 449              		.loc 1 91 24 view .LVU173
 450 007c 4261     		str	r2, [r0, #20]
  92:Lib/SPI_Bus/Src/spi_deal.c ****     DateCheck_DateModfy(modf_buf);
 451              		.loc 1 92 5 is_stmt 1 view .LVU174
 452 007e FFF7FEFF 		bl	DateCheck_DateModfy
 453              	.LVL8:
  93:Lib/SPI_Bus/Src/spi_deal.c **** }
 454              		.loc 1 93 1 is_stmt 0 view .LVU175
 455 0082 08BD     		pop	{r3, pc}
 456              		.cfi_endproc
 457              	.LFE135:
 459              		.section	.text.ecat_NS_L,"ax",%progbits
 460              		.align	1
 461              		.global	ecat_NS_L
 462              		.syntax unified
 463              		.thumb
 464              		.thumb_func
 466              	ecat_NS_L:
 467              	.LFB136:
  94:Lib/SPI_Bus/Src/spi_deal.c **** 
  95:Lib/SPI_Bus/Src/spi_deal.c **** 
  96:Lib/SPI_Bus/Src/spi_deal.c **** void ecat_NS_L (void)
  97:Lib/SPI_Bus/Src/spi_deal.c **** {
 468              		.loc 1 97 1 is_stmt 1 view -0
 469              		.cfi_startproc
 470              		@ args = 0, pretend = 0, frame = 0
 471              		@ frame_needed = 0, uses_anonymous_args = 0
 472 0000 08B5     		push	{r3, lr}
 473              		.cfi_def_cfa_offset 8
 474              		.cfi_offset 3, -8
 475              		.cfi_offset 14, -4
  98:Lib/SPI_Bus/Src/spi_deal.c ****     HAL_GPIO_WritePin(GPIOB,GPIO_PIN_12,GPIO_PIN_RESET);
 476              		.loc 1 98 5 view .LVU177
 477 0002 0022     		movs	r2, #0
 478 0004 4FF48051 		mov	r1, #4096
 479 0008 0148     		ldr	r0, .L16
 480 000a FFF7FEFF 		bl	HAL_GPIO_WritePin
 481              	.LVL9:
  99:Lib/SPI_Bus/Src/spi_deal.c **** 
 100:Lib/SPI_Bus/Src/spi_deal.c **** }
 482              		.loc 1 100 1 is_stmt 0 view .LVU178
 483 000e 08BD     		pop	{r3, pc}
 484              	.L17:
 485              		.align	2
 486              	.L16:
 487 0010 00040240 		.word	1073873920
 488              		.cfi_endproc
 489              	.LFE136:
 491              		.section	.text.ecat_NS_H,"ax",%progbits
 492              		.align	1
 493              		.global	ecat_NS_H
 494              		.syntax unified
ARM GAS  /tmp/ccNaxIvK.s 			page 13


 495              		.thumb
 496              		.thumb_func
 498              	ecat_NS_H:
 499              	.LFB137:
 101:Lib/SPI_Bus/Src/spi_deal.c **** 
 102:Lib/SPI_Bus/Src/spi_deal.c **** void ecat_NS_H (void)
 103:Lib/SPI_Bus/Src/spi_deal.c **** {
 500              		.loc 1 103 1 is_stmt 1 view -0
 501              		.cfi_startproc
 502              		@ args = 0, pretend = 0, frame = 0
 503              		@ frame_needed = 0, uses_anonymous_args = 0
 504 0000 08B5     		push	{r3, lr}
 505              		.cfi_def_cfa_offset 8
 506              		.cfi_offset 3, -8
 507              		.cfi_offset 14, -4
 104:Lib/SPI_Bus/Src/spi_deal.c ****     HAL_GPIO_WritePin(GPIOB,GPIO_PIN_12,GPIO_PIN_SET);
 508              		.loc 1 104 5 view .LVU180
 509 0002 0122     		movs	r2, #1
 510 0004 4FF48051 		mov	r1, #4096
 511 0008 0148     		ldr	r0, .L20
 512 000a FFF7FEFF 		bl	HAL_GPIO_WritePin
 513              	.LVL10:
 105:Lib/SPI_Bus/Src/spi_deal.c **** }
 514              		.loc 1 105 1 is_stmt 0 view .LVU181
 515 000e 08BD     		pop	{r3, pc}
 516              	.L21:
 517              		.align	2
 518              	.L20:
 519 0010 00040240 		.word	1073873920
 520              		.cfi_endproc
 521              	.LFE137:
 523              		.section	.text.sendToEcat,"ax",%progbits
 524              		.align	1
 525              		.global	sendToEcat
 526              		.syntax unified
 527              		.thumb
 528              		.thumb_func
 530              	sendToEcat:
 531              	.LVL11:
 532              	.LFB138:
 106:Lib/SPI_Bus/Src/spi_deal.c **** 
 107:Lib/SPI_Bus/Src/spi_deal.c **** 
 108:Lib/SPI_Bus/Src/spi_deal.c **** void sendToEcat(int leg_id)
 109:Lib/SPI_Bus/Src/spi_deal.c **** {   
 533              		.loc 1 109 1 is_stmt 1 view -0
 534              		.cfi_startproc
 535              		@ args = 0, pretend = 0, frame = 48
 536              		@ frame_needed = 0, uses_anonymous_args = 0
 537              		.loc 1 109 1 is_stmt 0 view .LVU183
 538 0000 10B5     		push	{r4, lr}
 539              		.cfi_def_cfa_offset 8
 540              		.cfi_offset 4, -8
 541              		.cfi_offset 14, -4
 542 0002 8EB0     		sub	sp, sp, #56
 543              		.cfi_def_cfa_offset 64
 544 0004 0446     		mov	r4, r0
 110:Lib/SPI_Bus/Src/spi_deal.c ****     ecat_NS_L();
ARM GAS  /tmp/ccNaxIvK.s 			page 14


 545              		.loc 1 110 5 is_stmt 1 view .LVU184
 546 0006 FFF7FEFF 		bl	ecat_NS_L
 547              	.LVL12:
 111:Lib/SPI_Bus/Src/spi_deal.c ****     uint8_t rxdate[21];
 548              		.loc 1 111 5 view .LVU185
 112:Lib/SPI_Bus/Src/spi_deal.c ****     uint8_t txdate[21];//= {1,1,1,1,1,1,1,1,11,1,1,1,1,1,1,1,1};
 549              		.loc 1 112 5 view .LVU186
 113:Lib/SPI_Bus/Src/spi_deal.c ****     memcpy(txdate ,&A1date[leg_id][data_leg[leg_id].motor_recv_data.head.motorID],21);
 550              		.loc 1 113 5 view .LVU187
 551              		.loc 1 113 73 is_stmt 0 view .LVU188
 552 000a 04EB0412 		add	r2, r4, r4, lsl #4
 553 000e 184B     		ldr	r3, .L24
 554 0010 03EBC203 		add	r3, r3, r2, lsl #3
 555 0014 9B78     		ldrb	r3, [r3, #2]	@ zero_extendqisi2
 556              		.loc 1 113 20 view .LVU189
 557 0016 174A     		ldr	r2, .L24+4
 558 0018 03EB4303 		add	r3, r3, r3, lsl #1
 559 001c 04EBC404 		add	r4, r4, r4, lsl #3
 560              	.LVL13:
 561              		.loc 1 113 20 view .LVU190
 562 0020 E400     		lsls	r4, r4, #3
 563 0022 04EBC304 		add	r4, r4, r3, lsl #3
 564 0026 02EB040E 		add	lr, r2, r4
 565              		.loc 1 113 5 view .LVU191
 566 002a 0DF1080C 		add	ip, sp, #8
 567 002e 1059     		ldr	r0, [r2, r4]	@ unaligned
 568 0030 DEF80410 		ldr	r1, [lr, #4]	@ unaligned
 569 0034 DEF80820 		ldr	r2, [lr, #8]	@ unaligned
 570 0038 DEF80C30 		ldr	r3, [lr, #12]	@ unaligned
 571 003c ACE80F00 		stmia	ip!, {r0, r1, r2, r3}
 572 0040 DEF81000 		ldr	r0, [lr, #16]	@ unaligned
 573 0044 CCF80000 		str	r0, [ip]
 574 0048 9EF81430 		ldrb	r3, [lr, #20]	@ zero_extendqisi2
 575 004c 8CF80430 		strb	r3, [ip, #4]
 114:Lib/SPI_Bus/Src/spi_deal.c ****     HAL_SPI_TransmitReceive(&hspi2,txdate,rxdate,21,0x10);
 576              		.loc 1 114 5 is_stmt 1 view .LVU192
 577 0050 1023     		movs	r3, #16
 578 0052 0093     		str	r3, [sp]
 579 0054 1523     		movs	r3, #21
 580 0056 08AA     		add	r2, sp, #32
 581 0058 02A9     		add	r1, sp, #8
 582 005a 0748     		ldr	r0, .L24+8
 583 005c FFF7FEFF 		bl	HAL_SPI_TransmitReceive
 584              	.LVL14:
 115:Lib/SPI_Bus/Src/spi_deal.c **** 
 116:Lib/SPI_Bus/Src/spi_deal.c ****     SPI_RXdate(&RXA1cmd,rxdate);
 585              		.loc 1 116 5 view .LVU193
 586 0060 08A9     		add	r1, sp, #32
 587 0062 0648     		ldr	r0, .L24+12
 588 0064 FFF7FEFF 		bl	SPI_RXdate
 589              	.LVL15:
 117:Lib/SPI_Bus/Src/spi_deal.c ****     ecat_NS_H();
 590              		.loc 1 117 5 view .LVU194
 591 0068 FFF7FEFF 		bl	ecat_NS_H
 592              	.LVL16:
 118:Lib/SPI_Bus/Src/spi_deal.c **** }
 593              		.loc 1 118 1 is_stmt 0 view .LVU195
ARM GAS  /tmp/ccNaxIvK.s 			page 15


 594 006c 0EB0     		add	sp, sp, #56
 595              		.cfi_def_cfa_offset 8
 596              		@ sp needed
 597 006e 10BD     		pop	{r4, pc}
 598              	.L25:
 599              		.align	2
 600              	.L24:
 601 0070 00000000 		.word	data_leg
 602 0074 00000000 		.word	.LANCHOR0
 603 0078 00000000 		.word	hspi2
 604 007c 00000000 		.word	.LANCHOR1
 605              		.cfi_endproc
 606              	.LFE138:
 608              		.section	.text.MASTER_Synchro,"ax",%progbits
 609              		.align	1
 610              		.global	MASTER_Synchro
 611              		.syntax unified
 612              		.thumb
 613              		.thumb_func
 615              	MASTER_Synchro:
 616              	.LFB140:
 119:Lib/SPI_Bus/Src/spi_deal.c **** 
 120:Lib/SPI_Bus/Src/spi_deal.c **** void SPI_TRANSMIT(int leg_id)
 121:Lib/SPI_Bus/Src/spi_deal.c **** {   
 122:Lib/SPI_Bus/Src/spi_deal.c ****     ecat_NS_L();
 123:Lib/SPI_Bus/Src/spi_deal.c ****     MASTER_Synchro();
 124:Lib/SPI_Bus/Src/spi_deal.c ****     uint8_t txdate[21]= {54,11,91,13,87,55,1,11,11,98,1,1,1,1,1,1,1};
 125:Lib/SPI_Bus/Src/spi_deal.c ****     //memcpy(txdate ,&A1date[leg_id][data_leg[leg_id].motor_recv_data.head.motorID],21);
 126:Lib/SPI_Bus/Src/spi_deal.c **** 
 127:Lib/SPI_Bus/Src/spi_deal.c ****     if(HAL_SPI_Transmit_IT(&hspi2,txdate,21) != HAL_OK)
 128:Lib/SPI_Bus/Src/spi_deal.c ****     {
 129:Lib/SPI_Bus/Src/spi_deal.c ****         Error_Handler();
 130:Lib/SPI_Bus/Src/spi_deal.c ****     }
 131:Lib/SPI_Bus/Src/spi_deal.c ****     while ( HAL_SPI_GetState(&hspi2) != HAL_SPI_STATE_READY)
 132:Lib/SPI_Bus/Src/spi_deal.c ****     {}
 133:Lib/SPI_Bus/Src/spi_deal.c ****     ecat_NS_H();
 134:Lib/SPI_Bus/Src/spi_deal.c **** }
 135:Lib/SPI_Bus/Src/spi_deal.c **** 
 136:Lib/SPI_Bus/Src/spi_deal.c **** void MASTER_Synchro(void)
 137:Lib/SPI_Bus/Src/spi_deal.c **** {
 617              		.loc 1 137 1 is_stmt 1 view -0
 618              		.cfi_startproc
 619              		@ args = 0, pretend = 0, frame = 8
 620              		@ frame_needed = 0, uses_anonymous_args = 0
 621 0000 00B5     		push	{lr}
 622              		.cfi_def_cfa_offset 4
 623              		.cfi_offset 14, -4
 624 0002 83B0     		sub	sp, sp, #12
 625              		.cfi_def_cfa_offset 16
 138:Lib/SPI_Bus/Src/spi_deal.c ****     uint8_t txbety = 0xD2;
 626              		.loc 1 138 5 view .LVU197
 627              		.loc 1 138 13 is_stmt 0 view .LVU198
 628 0004 D223     		movs	r3, #210
 629 0006 8DF80730 		strb	r3, [sp, #7]
 139:Lib/SPI_Bus/Src/spi_deal.c ****     uint8_t rxbety = 0x00;
 630              		.loc 1 139 5 is_stmt 1 view .LVU199
 631              		.loc 1 139 13 is_stmt 0 view .LVU200
ARM GAS  /tmp/ccNaxIvK.s 			page 16


 632 000a 0023     		movs	r3, #0
 633 000c 8DF80630 		strb	r3, [sp, #6]
 634 0010 0AE0     		b	.L29
 635              	.L28:
 140:Lib/SPI_Bus/Src/spi_deal.c **** 
 141:Lib/SPI_Bus/Src/spi_deal.c ****     do
 142:Lib/SPI_Bus/Src/spi_deal.c ****     {
 143:Lib/SPI_Bus/Src/spi_deal.c ****         if (HAL_SPI_TransmitReceive_IT(&hspi2,&txbety,&rxbety,1) != HAL_OK)
 144:Lib/SPI_Bus/Src/spi_deal.c ****         {
 145:Lib/SPI_Bus/Src/spi_deal.c ****             Error_Handler();
 146:Lib/SPI_Bus/Src/spi_deal.c ****         }
 147:Lib/SPI_Bus/Src/spi_deal.c **** 
 148:Lib/SPI_Bus/Src/spi_deal.c ****     while ( HAL_SPI_GetState(&hspi2) != HAL_SPI_STATE_READY)
 149:Lib/SPI_Bus/Src/spi_deal.c ****     {}
 636              		.loc 1 149 6 is_stmt 1 discriminator 1 view .LVU201
 148:Lib/SPI_Bus/Src/spi_deal.c ****     {}
 637              		.loc 1 148 11 discriminator 1 view .LVU202
 148:Lib/SPI_Bus/Src/spi_deal.c ****     {}
 638              		.loc 1 148 13 is_stmt 0 discriminator 1 view .LVU203
 639 0012 0D48     		ldr	r0, .L32
 640 0014 FFF7FEFF 		bl	HAL_SPI_GetState
 641              	.LVL17:
 148:Lib/SPI_Bus/Src/spi_deal.c ****     {}
 642              		.loc 1 148 11 discriminator 1 view .LVU204
 643 0018 0128     		cmp	r0, #1
 644 001a FAD1     		bne	.L28
 150:Lib/SPI_Bus/Src/spi_deal.c ****     } while (rxbety != txbety);
 645              		.loc 1 150 13 is_stmt 1 view .LVU205
 646              		.loc 1 150 21 is_stmt 0 view .LVU206
 647 001c 9DF80620 		ldrb	r2, [sp, #6]	@ zero_extendqisi2
 648 0020 9DF80730 		ldrb	r3, [sp, #7]	@ zero_extendqisi2
 649              		.loc 1 150 5 view .LVU207
 650 0024 9A42     		cmp	r2, r3
 651 0026 0CD0     		beq	.L31
 652              	.L29:
 141:Lib/SPI_Bus/Src/spi_deal.c ****     {
 653              		.loc 1 141 5 is_stmt 1 view .LVU208
 143:Lib/SPI_Bus/Src/spi_deal.c ****         {
 654              		.loc 1 143 9 view .LVU209
 143:Lib/SPI_Bus/Src/spi_deal.c ****         {
 655              		.loc 1 143 13 is_stmt 0 view .LVU210
 656 0028 0123     		movs	r3, #1
 657 002a 0DF10602 		add	r2, sp, #6
 658 002e 0DF10701 		add	r1, sp, #7
 659 0032 0548     		ldr	r0, .L32
 660 0034 FFF7FEFF 		bl	HAL_SPI_TransmitReceive_IT
 661              	.LVL18:
 143:Lib/SPI_Bus/Src/spi_deal.c ****         {
 662              		.loc 1 143 12 view .LVU211
 663 0038 0028     		cmp	r0, #0
 664 003a EAD0     		beq	.L28
 145:Lib/SPI_Bus/Src/spi_deal.c ****         }
 665              		.loc 1 145 13 is_stmt 1 view .LVU212
 666 003c FFF7FEFF 		bl	Error_Handler
 667              	.LVL19:
 668 0040 E7E7     		b	.L28
 669              	.L31:
ARM GAS  /tmp/ccNaxIvK.s 			page 17


 151:Lib/SPI_Bus/Src/spi_deal.c **** }
 670              		.loc 1 151 1 is_stmt 0 view .LVU213
 671 0042 03B0     		add	sp, sp, #12
 672              		.cfi_def_cfa_offset 4
 673              		@ sp needed
 674 0044 5DF804FB 		ldr	pc, [sp], #4
 675              	.L33:
 676              		.align	2
 677              	.L32:
 678 0048 00000000 		.word	hspi2
 679              		.cfi_endproc
 680              	.LFE140:
 682              		.section	.text.SPI_TRANSMIT,"ax",%progbits
 683              		.align	1
 684              		.global	SPI_TRANSMIT
 685              		.syntax unified
 686              		.thumb
 687              		.thumb_func
 689              	SPI_TRANSMIT:
 690              	.LVL20:
 691              	.LFB139:
 121:Lib/SPI_Bus/Src/spi_deal.c ****     ecat_NS_L();
 692              		.loc 1 121 1 is_stmt 1 view -0
 693              		.cfi_startproc
 694              		@ args = 0, pretend = 0, frame = 24
 695              		@ frame_needed = 0, uses_anonymous_args = 0
 121:Lib/SPI_Bus/Src/spi_deal.c ****     ecat_NS_L();
 696              		.loc 1 121 1 is_stmt 0 view .LVU215
 697 0000 10B5     		push	{r4, lr}
 698              		.cfi_def_cfa_offset 8
 699              		.cfi_offset 4, -8
 700              		.cfi_offset 14, -4
 701 0002 86B0     		sub	sp, sp, #24
 702              		.cfi_def_cfa_offset 32
 122:Lib/SPI_Bus/Src/spi_deal.c ****     MASTER_Synchro();
 703              		.loc 1 122 5 is_stmt 1 view .LVU216
 704 0004 FFF7FEFF 		bl	ecat_NS_L
 705              	.LVL21:
 123:Lib/SPI_Bus/Src/spi_deal.c ****     uint8_t txdate[21]= {54,11,91,13,87,55,1,11,11,98,1,1,1,1,1,1,1};
 706              		.loc 1 123 5 view .LVU217
 707 0008 FFF7FEFF 		bl	MASTER_Synchro
 708              	.LVL22:
 124:Lib/SPI_Bus/Src/spi_deal.c ****     //memcpy(txdate ,&A1date[leg_id][data_leg[leg_id].motor_recv_data.head.motorID],21);
 709              		.loc 1 124 5 view .LVU218
 124:Lib/SPI_Bus/Src/spi_deal.c ****     //memcpy(txdate ,&A1date[leg_id][data_leg[leg_id].motor_recv_data.head.motorID],21);
 710              		.loc 1 124 13 is_stmt 0 view .LVU219
 711 000c EC46     		mov	ip, sp
 712 000e 0F4C     		ldr	r4, .L39
 713 0010 0FCC     		ldmia	r4!, {r0, r1, r2, r3}
 714 0012 ACE80F00 		stmia	ip!, {r0, r1, r2, r3}
 715 0016 2368     		ldr	r3, [r4]
 716 0018 ACF80030 		strh	r3, [ip]	@ movhi
 717 001c 0023     		movs	r3, #0
 718 001e ADF81230 		strh	r3, [sp, #18]	@ movhi
 719 0022 8DF81430 		strb	r3, [sp, #20]
 127:Lib/SPI_Bus/Src/spi_deal.c ****     {
 720              		.loc 1 127 5 is_stmt 1 view .LVU220
ARM GAS  /tmp/ccNaxIvK.s 			page 18


 127:Lib/SPI_Bus/Src/spi_deal.c ****     {
 721              		.loc 1 127 8 is_stmt 0 view .LVU221
 722 0026 1522     		movs	r2, #21
 723 0028 6946     		mov	r1, sp
 724 002a 0948     		ldr	r0, .L39+4
 725 002c FFF7FEFF 		bl	HAL_SPI_Transmit_IT
 726              	.LVL23:
 127:Lib/SPI_Bus/Src/spi_deal.c ****     {
 727              		.loc 1 127 7 view .LVU222
 728 0030 40B9     		cbnz	r0, .L38
 729              	.L36:
 132:Lib/SPI_Bus/Src/spi_deal.c ****     ecat_NS_H();
 730              		.loc 1 132 6 is_stmt 1 discriminator 1 view .LVU223
 131:Lib/SPI_Bus/Src/spi_deal.c ****     {}
 731              		.loc 1 131 11 discriminator 1 view .LVU224
 131:Lib/SPI_Bus/Src/spi_deal.c ****     {}
 732              		.loc 1 131 13 is_stmt 0 discriminator 1 view .LVU225
 733 0032 0748     		ldr	r0, .L39+4
 734 0034 FFF7FEFF 		bl	HAL_SPI_GetState
 735              	.LVL24:
 131:Lib/SPI_Bus/Src/spi_deal.c ****     {}
 736              		.loc 1 131 11 discriminator 1 view .LVU226
 737 0038 0128     		cmp	r0, #1
 738 003a FAD1     		bne	.L36
 133:Lib/SPI_Bus/Src/spi_deal.c **** }
 739              		.loc 1 133 5 is_stmt 1 view .LVU227
 740 003c FFF7FEFF 		bl	ecat_NS_H
 741              	.LVL25:
 134:Lib/SPI_Bus/Src/spi_deal.c **** 
 742              		.loc 1 134 1 is_stmt 0 view .LVU228
 743 0040 06B0     		add	sp, sp, #24
 744              		.cfi_remember_state
 745              		.cfi_def_cfa_offset 8
 746              		@ sp needed
 747 0042 10BD     		pop	{r4, pc}
 748              	.L38:
 749              		.cfi_restore_state
 129:Lib/SPI_Bus/Src/spi_deal.c ****     }
 750              		.loc 1 129 9 is_stmt 1 view .LVU229
 751 0044 FFF7FEFF 		bl	Error_Handler
 752              	.LVL26:
 753 0048 F3E7     		b	.L36
 754              	.L40:
 755 004a 00BF     		.align	2
 756              	.L39:
 757 004c 00000000 		.word	.LANCHOR2
 758 0050 00000000 		.word	hspi2
 759              		.cfi_endproc
 760              	.LFE139:
 762              		.section	.text.SPI_RECEIVE,"ax",%progbits
 763              		.align	1
 764              		.global	SPI_RECEIVE
 765              		.syntax unified
 766              		.thumb
 767              		.thumb_func
 769              	SPI_RECEIVE:
 770              	.LFB141:
ARM GAS  /tmp/ccNaxIvK.s 			page 19


 152:Lib/SPI_Bus/Src/spi_deal.c **** 
 153:Lib/SPI_Bus/Src/spi_deal.c **** void SPI_RECEIVE(void)
 154:Lib/SPI_Bus/Src/spi_deal.c **** {   ecat_NS_L();
 771              		.loc 1 154 1 view -0
 772              		.cfi_startproc
 773              		@ args = 0, pretend = 0, frame = 24
 774              		@ frame_needed = 0, uses_anonymous_args = 0
 775 0000 00B5     		push	{lr}
 776              		.cfi_def_cfa_offset 4
 777              		.cfi_offset 14, -4
 778 0002 87B0     		sub	sp, sp, #28
 779              		.cfi_def_cfa_offset 32
 780              		.loc 1 154 5 view .LVU231
 781 0004 FFF7FEFF 		bl	ecat_NS_L
 782              	.LVL27:
 155:Lib/SPI_Bus/Src/spi_deal.c ****     MASTER_Synchro();
 783              		.loc 1 155 5 view .LVU232
 784 0008 FFF7FEFF 		bl	MASTER_Synchro
 785              	.LVL28:
 156:Lib/SPI_Bus/Src/spi_deal.c ****     uint8_t rxdate[21];
 786              		.loc 1 156 5 view .LVU233
 157:Lib/SPI_Bus/Src/spi_deal.c ****     HAL_SPI_Receive_IT(&hspi2,rxdate,21);
 787              		.loc 1 157 5 view .LVU234
 788 000c 1522     		movs	r2, #21
 789 000e 6946     		mov	r1, sp
 790 0010 0548     		ldr	r0, .L43
 791 0012 FFF7FEFF 		bl	HAL_SPI_Receive_IT
 792              	.LVL29:
 158:Lib/SPI_Bus/Src/spi_deal.c ****     SPI_RXdate(&RXA1cmd,rxdate);
 793              		.loc 1 158 5 view .LVU235
 794 0016 6946     		mov	r1, sp
 795 0018 0448     		ldr	r0, .L43+4
 796 001a FFF7FEFF 		bl	SPI_RXdate
 797              	.LVL30:
 159:Lib/SPI_Bus/Src/spi_deal.c ****     ecat_NS_H();
 798              		.loc 1 159 5 view .LVU236
 799 001e FFF7FEFF 		bl	ecat_NS_H
 800              	.LVL31:
 160:Lib/SPI_Bus/Src/spi_deal.c **** 
 161:Lib/SPI_Bus/Src/spi_deal.c **** }
 801              		.loc 1 161 1 is_stmt 0 view .LVU237
 802 0022 07B0     		add	sp, sp, #28
 803              		.cfi_def_cfa_offset 4
 804              		@ sp needed
 805 0024 5DF804FB 		ldr	pc, [sp], #4
 806              	.L44:
 807              		.align	2
 808              	.L43:
 809 0028 00000000 		.word	hspi2
 810 002c 00000000 		.word	.LANCHOR1
 811              		.cfi_endproc
 812              	.LFE141:
 814              		.global	RXA1cmd
 815              		.global	A1date
 816              		.global	RxComplete
 817              		.section	.rodata
 818              		.align	2
ARM GAS  /tmp/ccNaxIvK.s 			page 20


 819              		.set	.LANCHOR2,. + 0
 820              	.LC0:
 821 0000 360B5B0D 		.ascii	"6\013[\015W7\001\013\013b\001\001\001\001\001\001\001"
 821      5737010B 
 821      0B620101 
 821      01010101 
 821      01
 822 0011 00       		.ascii	"\000"
 823 0012 000000   		.space	3
 824              		.section	.bss.A1date,"aw",%nobits
 825              		.align	2
 826              		.set	.LANCHOR0,. + 0
 829              	A1date:
 830 0000 00000000 		.space	288
 830      00000000 
 830      00000000 
 830      00000000 
 830      00000000 
 831              		.section	.bss.RXA1cmd,"aw",%nobits
 832              		.align	2
 833              		.set	.LANCHOR1,. + 0
 836              	RXA1cmd:
 837 0000 00000000 		.space	24
 837      00000000 
 837      00000000 
 837      00000000 
 837      00000000 
 838              		.section	.bss.RxComplete,"aw",%nobits
 841              	RxComplete:
 842 0000 00       		.space	1
 843              		.text
 844              	.Letext0:
 845              		.file 2 "/usr/share/gcc-arm-none-eabi-10.3-2021.10/arm-none-eabi/include/machine/_default_types.h"
 846              		.file 3 "/usr/share/gcc-arm-none-eabi-10.3-2021.10/arm-none-eabi/include/sys/_stdint.h"
 847              		.file 4 "Drivers/CMSIS/Device/ST/STM32F4xx/Include/stm32f405xx.h"
 848              		.file 5 "Drivers/STM32F4xx_HAL_Driver/Inc/stm32f4xx_hal_def.h"
 849              		.file 6 "Drivers/STM32F4xx_HAL_Driver/Inc/stm32f4xx_hal_gpio.h"
 850              		.file 7 "Drivers/STM32F4xx_HAL_Driver/Inc/stm32f4xx_hal_dma.h"
 851              		.file 8 "Drivers/STM32F4xx_HAL_Driver/Inc/stm32f4xx_hal_spi.h"
 852              		.file 9 "Lib/Motor/Inc/unitreeA1_msg.h"
 853              		.file 10 "Core/Inc/spi.h"
 854              		.file 11 "Lib/Motor/Inc/unitreeA1_cmd.h"
 855              		.file 12 "Lib/SPI_Bus/Inc/data_def.h"
 856              		.file 13 "Core/Inc/main.h"
ARM GAS  /tmp/ccNaxIvK.s 			page 21


DEFINED SYMBOLS
                            *ABS*:0000000000000000 spi_deal.c
     /tmp/ccNaxIvK.s:20     .text.DateCheck_DateModfy:0000000000000000 $t
     /tmp/ccNaxIvK.s:26     .text.DateCheck_DateModfy:0000000000000000 DateCheck_DateModfy
     /tmp/ccNaxIvK.s:331    .text.DateCheck_DateModfy:0000000000000200 $d
     /tmp/ccNaxIvK.s:337    .text.SPI_RXdate:0000000000000000 $t
     /tmp/ccNaxIvK.s:343    .text.SPI_RXdate:0000000000000000 SPI_RXdate
     /tmp/ccNaxIvK.s:460    .text.ecat_NS_L:0000000000000000 $t
     /tmp/ccNaxIvK.s:466    .text.ecat_NS_L:0000000000000000 ecat_NS_L
     /tmp/ccNaxIvK.s:487    .text.ecat_NS_L:0000000000000010 $d
     /tmp/ccNaxIvK.s:492    .text.ecat_NS_H:0000000000000000 $t
     /tmp/ccNaxIvK.s:498    .text.ecat_NS_H:0000000000000000 ecat_NS_H
     /tmp/ccNaxIvK.s:519    .text.ecat_NS_H:0000000000000010 $d
     /tmp/ccNaxIvK.s:524    .text.sendToEcat:0000000000000000 $t
     /tmp/ccNaxIvK.s:530    .text.sendToEcat:0000000000000000 sendToEcat
     /tmp/ccNaxIvK.s:601    .text.sendToEcat:0000000000000070 $d
     /tmp/ccNaxIvK.s:609    .text.MASTER_Synchro:0000000000000000 $t
     /tmp/ccNaxIvK.s:615    .text.MASTER_Synchro:0000000000000000 MASTER_Synchro
     /tmp/ccNaxIvK.s:678    .text.MASTER_Synchro:0000000000000048 $d
     /tmp/ccNaxIvK.s:683    .text.SPI_TRANSMIT:0000000000000000 $t
     /tmp/ccNaxIvK.s:689    .text.SPI_TRANSMIT:0000000000000000 SPI_TRANSMIT
     /tmp/ccNaxIvK.s:757    .text.SPI_TRANSMIT:000000000000004c $d
     /tmp/ccNaxIvK.s:763    .text.SPI_RECEIVE:0000000000000000 $t
     /tmp/ccNaxIvK.s:769    .text.SPI_RECEIVE:0000000000000000 SPI_RECEIVE
     /tmp/ccNaxIvK.s:809    .text.SPI_RECEIVE:0000000000000028 $d
     /tmp/ccNaxIvK.s:836    .bss.RXA1cmd:0000000000000000 RXA1cmd
     /tmp/ccNaxIvK.s:829    .bss.A1date:0000000000000000 A1date
     /tmp/ccNaxIvK.s:841    .bss.RxComplete:0000000000000000 RxComplete
     /tmp/ccNaxIvK.s:818    .rodata:0000000000000000 $d
     /tmp/ccNaxIvK.s:825    .bss.A1date:0000000000000000 $d
     /tmp/ccNaxIvK.s:832    .bss.RXA1cmd:0000000000000000 $d
     /tmp/ccNaxIvK.s:842    .bss.RxComplete:0000000000000000 $d

UNDEFINED SYMBOLS
cmd_leg
HAL_GPIO_WritePin
HAL_SPI_TransmitReceive
data_leg
hspi2
HAL_SPI_GetState
HAL_SPI_TransmitReceive_IT
Error_Handler
HAL_SPI_Transmit_IT
HAL_SPI_Receive_IT
