ARM GAS  /tmp/ccW2cv6a.s 			page 1


   1              		.cpu cortex-m4
   2              		.arch armv7e-m
   3              		.fpu fpv4-sp-d16
   4              		.eabi_attribute 27, 1
   5              		.eabi_attribute 28, 1
   6              		.eabi_attribute 20, 1
   7              		.eabi_attribute 21, 1
   8              		.eabi_attribute 23, 3
   9              		.eabi_attribute 24, 1
  10              		.eabi_attribute 25, 1
  11              		.eabi_attribute 26, 1
  12              		.eabi_attribute 30, 1
  13              		.eabi_attribute 34, 1
  14              		.eabi_attribute 18, 4
  15              		.file	"spi_deal.c"
  16              		.text
  17              	.Ltext0:
  18              		.cfi_sections	.debug_frame
  19              		.section	.text.DateCheck_DateModfy,"ax",%progbits
  20              		.align	1
  21              		.global	DateCheck_DateModfy
  22              		.syntax unified
  23              		.thumb
  24              		.thumb_func
  26              	DateCheck_DateModfy:
  27              	.LVL0:
  28              	.LFB134:
  29              		.file 1 "Lib/SPI_Bus/Src/spi_deal.c"
   1:Lib/SPI_Bus/Src/spi_deal.c **** #include "main.h"
   2:Lib/SPI_Bus/Src/spi_deal.c **** #include "spi.h"
   3:Lib/SPI_Bus/Src/spi_deal.c **** #include "unitreeA1_msg.h"
   4:Lib/SPI_Bus/Src/spi_deal.c **** #include "unitreeA1_recv.h"
   5:Lib/SPI_Bus/Src/spi_deal.c **** #include "unitreeA1_cmd.h"
   6:Lib/SPI_Bus/Src/spi_deal.c **** #include "data_def.h"
   7:Lib/SPI_Bus/Src/spi_deal.c **** #include "string.h"
   8:Lib/SPI_Bus/Src/spi_deal.c **** #include "spi_deal.h"
   9:Lib/SPI_Bus/Src/spi_deal.c **** 
  10:Lib/SPI_Bus/Src/spi_deal.c **** volatile uint8_t RxComplete = 0;
  11:Lib/SPI_Bus/Src/spi_deal.c **** 
  12:Lib/SPI_Bus/Src/spi_deal.c **** extern DMA_HandleTypeDef hdma_spi2_rx;
  13:Lib/SPI_Bus/Src/spi_deal.c **** extern DMA_HandleTypeDef hdma_spi2_tx;
  14:Lib/SPI_Bus/Src/spi_deal.c **** 
  15:Lib/SPI_Bus/Src/spi_deal.c **** A1PackageSpiTx A1date[4][3];
  16:Lib/SPI_Bus/Src/spi_deal.c **** A1PackageSpiRx RXA1cmd;
  17:Lib/SPI_Bus/Src/spi_deal.c **** 
  18:Lib/SPI_Bus/Src/spi_deal.c **** extern motor_recv_t data_motor[4][3];
  19:Lib/SPI_Bus/Src/spi_deal.c **** extern motor_recv_t data_leg[4];
  20:Lib/SPI_Bus/Src/spi_deal.c **** extern motor_send_t cmd_leg[4];
  21:Lib/SPI_Bus/Src/spi_deal.c **** 
  22:Lib/SPI_Bus/Src/spi_deal.c **** void DateCheck_DateModfy(A1PackageSpiRx *modf_buf)
  23:Lib/SPI_Bus/Src/spi_deal.c **** {
  30              		.loc 1 23 1 view -0
  31              		.cfi_startproc
  32              		@ args = 0, pretend = 0, frame = 0
  33              		@ frame_needed = 0, uses_anonymous_args = 0
  34              		.loc 1 23 1 is_stmt 0 view .LVU1
  35 0000 00B5     		push	{lr}
ARM GAS  /tmp/ccW2cv6a.s 			page 2


  36              		.cfi_def_cfa_offset 4
  37              		.cfi_offset 14, -4
  24:Lib/SPI_Bus/Src/spi_deal.c ****     if (modf_buf->SumCheck == modf_buf->start[0] + modf_buf->start[1] + modf_buf->LegID + modf_buf-
  38              		.loc 1 24 5 is_stmt 1 view .LVU2
  39              		.loc 1 24 17 is_stmt 0 view .LVU3
  40 0002 D0F811C0 		ldr	ip, [r0, #17]	@ unaligned
  41              		.loc 1 24 46 view .LVU4
  42 0006 0378     		ldrb	r3, [r0]	@ zero_extendqisi2
  43              		.loc 1 24 67 view .LVU5
  44 0008 4278     		ldrb	r2, [r0, #1]	@ zero_extendqisi2
  45              		.loc 1 24 50 view .LVU6
  46 000a 1344     		add	r3, r3, r2
  47              		.loc 1 24 81 view .LVU7
  48 000c 8278     		ldrb	r2, [r0, #2]	@ zero_extendqisi2
  49              		.loc 1 24 71 view .LVU8
  50 000e 1344     		add	r3, r3, r2
  51              		.loc 1 24 99 view .LVU9
  52 0010 C178     		ldrb	r1, [r0, #3]	@ zero_extendqisi2
  53              		.loc 1 24 89 view .LVU10
  54 0012 0B44     		add	r3, r3, r1
  55              		.loc 1 24 119 view .LVU11
  56 0014 90F804E0 		ldrb	lr, [r0, #4]	@ zero_extendqisi2
  57              		.loc 1 24 109 view .LVU12
  58 0018 7344     		add	r3, r3, lr
  59              		.loc 1 24 136 view .LVU13
  60 001a B0F905E0 		ldrsh	lr, [r0, #5]	@ unaligned
  61              		.loc 1 24 126 view .LVU14
  62 001e 7344     		add	r3, r3, lr
  63              		.loc 1 24 150 view .LVU15
  64 0020 B0F907E0 		ldrsh	lr, [r0, #7]	@ unaligned
  65              		.loc 1 24 140 view .LVU16
  66 0024 7344     		add	r3, r3, lr
  67              		.loc 1 24 164 view .LVU17
  68 0026 D0F809E0 		ldr	lr, [r0, #9]	@ unaligned
  69              		.loc 1 24 154 view .LVU18
  70 002a 7344     		add	r3, r3, lr
  71              		.loc 1 24 180 view .LVU19
  72 002c B0F90DE0 		ldrsh	lr, [r0, #13]	@ unaligned
  73              		.loc 1 24 170 view .LVU20
  74 0030 7344     		add	r3, r3, lr
  75              		.loc 1 24 196 view .LVU21
  76 0032 B0F90FE0 		ldrsh	lr, [r0, #15]	@ unaligned
  77              		.loc 1 24 186 view .LVU22
  78 0036 7344     		add	r3, r3, lr
  79              		.loc 1 24 8 view .LVU23
  80 0038 9C45     		cmp	ip, r3
  81 003a 01D0     		beq	.L7
  82              	.L1:
  25:Lib/SPI_Bus/Src/spi_deal.c ****     {
  26:Lib/SPI_Bus/Src/spi_deal.c ****         if (modf_buf->LegID == 0)
  27:Lib/SPI_Bus/Src/spi_deal.c ****         {
  28:Lib/SPI_Bus/Src/spi_deal.c ****             uint8_t leg_id = 0;
  29:Lib/SPI_Bus/Src/spi_deal.c ****             cmd_leg[leg_id].id = modf_buf->motorID;
  30:Lib/SPI_Bus/Src/spi_deal.c ****             cmd_leg[leg_id].mode = modf_buf->mode;
  31:Lib/SPI_Bus/Src/spi_deal.c ****             cmd_leg[leg_id].K_P = modf_buf->K_P;
  32:Lib/SPI_Bus/Src/spi_deal.c ****             cmd_leg[leg_id].K_W = modf_buf->K_W;
  33:Lib/SPI_Bus/Src/spi_deal.c ****             cmd_leg[leg_id].Pos = modf_buf->Pos;
ARM GAS  /tmp/ccW2cv6a.s 			page 3


  34:Lib/SPI_Bus/Src/spi_deal.c ****             cmd_leg[leg_id].W = modf_buf->W;
  35:Lib/SPI_Bus/Src/spi_deal.c ****             cmd_leg[leg_id].T = modf_buf->T;
  36:Lib/SPI_Bus/Src/spi_deal.c ****         }
  37:Lib/SPI_Bus/Src/spi_deal.c ****         if (modf_buf->LegID == 1)
  38:Lib/SPI_Bus/Src/spi_deal.c ****         {
  39:Lib/SPI_Bus/Src/spi_deal.c ****             uint8_t leg_id = 1;
  40:Lib/SPI_Bus/Src/spi_deal.c ****             cmd_leg[leg_id].id = modf_buf->motorID;
  41:Lib/SPI_Bus/Src/spi_deal.c ****             cmd_leg[leg_id].mode = modf_buf->mode;
  42:Lib/SPI_Bus/Src/spi_deal.c ****             cmd_leg[leg_id].K_P = modf_buf->K_P;
  43:Lib/SPI_Bus/Src/spi_deal.c ****             cmd_leg[leg_id].K_W = modf_buf->K_W;
  44:Lib/SPI_Bus/Src/spi_deal.c ****             cmd_leg[leg_id].Pos = modf_buf->Pos;
  45:Lib/SPI_Bus/Src/spi_deal.c ****             cmd_leg[leg_id].W = modf_buf->W;
  46:Lib/SPI_Bus/Src/spi_deal.c ****             cmd_leg[leg_id].T = modf_buf->T;
  47:Lib/SPI_Bus/Src/spi_deal.c ****         }
  48:Lib/SPI_Bus/Src/spi_deal.c **** 
  49:Lib/SPI_Bus/Src/spi_deal.c ****         if (modf_buf->LegID == 2)
  50:Lib/SPI_Bus/Src/spi_deal.c ****         {
  51:Lib/SPI_Bus/Src/spi_deal.c ****             uint8_t leg_id = 2;
  52:Lib/SPI_Bus/Src/spi_deal.c ****             cmd_leg[leg_id].id = modf_buf->motorID;
  53:Lib/SPI_Bus/Src/spi_deal.c ****             cmd_leg[leg_id].mode = modf_buf->mode;
  54:Lib/SPI_Bus/Src/spi_deal.c ****             cmd_leg[leg_id].K_P = modf_buf->K_P;
  55:Lib/SPI_Bus/Src/spi_deal.c ****             cmd_leg[leg_id].K_W = modf_buf->K_W;
  56:Lib/SPI_Bus/Src/spi_deal.c ****             cmd_leg[leg_id].Pos = modf_buf->Pos;
  57:Lib/SPI_Bus/Src/spi_deal.c ****             cmd_leg[leg_id].W = modf_buf->W;
  58:Lib/SPI_Bus/Src/spi_deal.c ****             cmd_leg[leg_id].T = modf_buf->T;
  59:Lib/SPI_Bus/Src/spi_deal.c ****         }
  60:Lib/SPI_Bus/Src/spi_deal.c **** 
  61:Lib/SPI_Bus/Src/spi_deal.c ****         if (modf_buf->LegID == 3)
  62:Lib/SPI_Bus/Src/spi_deal.c ****         {
  63:Lib/SPI_Bus/Src/spi_deal.c ****             uint8_t leg_id = 3;
  64:Lib/SPI_Bus/Src/spi_deal.c ****             cmd_leg[leg_id].id = modf_buf->motorID;
  65:Lib/SPI_Bus/Src/spi_deal.c ****             cmd_leg[leg_id].mode = modf_buf->mode;
  66:Lib/SPI_Bus/Src/spi_deal.c ****             cmd_leg[leg_id].K_P = modf_buf->K_P;
  67:Lib/SPI_Bus/Src/spi_deal.c ****             cmd_leg[leg_id].K_W = modf_buf->K_W;
  68:Lib/SPI_Bus/Src/spi_deal.c ****             cmd_leg[leg_id].Pos = modf_buf->Pos;
  69:Lib/SPI_Bus/Src/spi_deal.c ****             cmd_leg[leg_id].W = modf_buf->W;
  70:Lib/SPI_Bus/Src/spi_deal.c ****             cmd_leg[leg_id].T = modf_buf->T;
  71:Lib/SPI_Bus/Src/spi_deal.c ****         }
  72:Lib/SPI_Bus/Src/spi_deal.c ****     }
  73:Lib/SPI_Bus/Src/spi_deal.c **** }
  83              		.loc 1 73 1 view .LVU24
  84 003c 5DF804FB 		ldr	pc, [sp], #4
  85              	.L7:
  26:Lib/SPI_Bus/Src/spi_deal.c ****         {
  86              		.loc 1 26 9 is_stmt 1 view .LVU25
  26:Lib/SPI_Bus/Src/spi_deal.c ****         {
  87              		.loc 1 26 12 is_stmt 0 view .LVU26
  88 0040 AABB     		cbnz	r2, .L3
  89              	.LBB2:
  28:Lib/SPI_Bus/Src/spi_deal.c ****             cmd_leg[leg_id].id = modf_buf->motorID;
  90              		.loc 1 28 13 is_stmt 1 view .LVU27
  91              	.LVL1:
  29:Lib/SPI_Bus/Src/spi_deal.c ****             cmd_leg[leg_id].mode = modf_buf->mode;
  92              		.loc 1 29 13 view .LVU28
  29:Lib/SPI_Bus/Src/spi_deal.c ****             cmd_leg[leg_id].mode = modf_buf->mode;
  93              		.loc 1 29 32 is_stmt 0 view .LVU29
  94 0042 744B     		ldr	r3, .L10
ARM GAS  /tmp/ccW2cv6a.s 			page 4


  95 0044 D984     		strh	r1, [r3, #38]	@ unaligned
  30:Lib/SPI_Bus/Src/spi_deal.c ****             cmd_leg[leg_id].K_P = modf_buf->K_P;
  96              		.loc 1 30 13 is_stmt 1 view .LVU30
  30:Lib/SPI_Bus/Src/spi_deal.c ****             cmd_leg[leg_id].K_P = modf_buf->K_P;
  97              		.loc 1 30 44 is_stmt 0 view .LVU31
  98 0046 0279     		ldrb	r2, [r0, #4]	@ zero_extendqisi2
  30:Lib/SPI_Bus/Src/spi_deal.c ****             cmd_leg[leg_id].K_P = modf_buf->K_P;
  99              		.loc 1 30 34 view .LVU32
 100 0048 1A85     		strh	r2, [r3, #40]	@ unaligned
  31:Lib/SPI_Bus/Src/spi_deal.c ****             cmd_leg[leg_id].K_W = modf_buf->K_W;
 101              		.loc 1 31 13 is_stmt 1 view .LVU33
  31:Lib/SPI_Bus/Src/spi_deal.c ****             cmd_leg[leg_id].K_W = modf_buf->K_W;
 102              		.loc 1 31 43 is_stmt 0 view .LVU34
 103 004a B0F90D20 		ldrsh	r2, [r0, #13]	@ unaligned
  31:Lib/SPI_Bus/Src/spi_deal.c ****             cmd_leg[leg_id].K_W = modf_buf->K_W;
 104              		.loc 1 31 33 view .LVU35
 105 004e 07EE902A 		vmov	s15, r2	@ int
 106 0052 F8EEE77A 		vcvt.f32.s32	s15, s15
 107 0056 17EE902A 		vmov	r2, s15
 108 005a C3F83620 		str	r2, [r3, #54]	@ unaligned
  32:Lib/SPI_Bus/Src/spi_deal.c ****             cmd_leg[leg_id].Pos = modf_buf->Pos;
 109              		.loc 1 32 13 is_stmt 1 view .LVU36
  32:Lib/SPI_Bus/Src/spi_deal.c ****             cmd_leg[leg_id].Pos = modf_buf->Pos;
 110              		.loc 1 32 43 is_stmt 0 view .LVU37
 111 005e B0F90F20 		ldrsh	r2, [r0, #15]	@ unaligned
  32:Lib/SPI_Bus/Src/spi_deal.c ****             cmd_leg[leg_id].Pos = modf_buf->Pos;
 112              		.loc 1 32 33 view .LVU38
 113 0062 07EE902A 		vmov	s15, r2	@ int
 114 0066 F8EEE77A 		vcvt.f32.s32	s15, s15
 115 006a 17EE902A 		vmov	r2, s15
 116 006e C3F83A20 		str	r2, [r3, #58]	@ unaligned
  33:Lib/SPI_Bus/Src/spi_deal.c ****             cmd_leg[leg_id].W = modf_buf->W;
 117              		.loc 1 33 13 is_stmt 1 view .LVU39
  33:Lib/SPI_Bus/Src/spi_deal.c ****             cmd_leg[leg_id].W = modf_buf->W;
 118              		.loc 1 33 43 is_stmt 0 view .LVU40
 119 0072 D0F80920 		ldr	r2, [r0, #9]	@ unaligned
  33:Lib/SPI_Bus/Src/spi_deal.c ****             cmd_leg[leg_id].W = modf_buf->W;
 120              		.loc 1 33 33 view .LVU41
 121 0076 07EE902A 		vmov	s15, r2	@ int
 122 007a F8EEE77A 		vcvt.f32.s32	s15, s15
 123 007e 17EE902A 		vmov	r2, s15
 124 0082 C3F83220 		str	r2, [r3, #50]	@ unaligned
  34:Lib/SPI_Bus/Src/spi_deal.c ****             cmd_leg[leg_id].T = modf_buf->T;
 125              		.loc 1 34 13 is_stmt 1 view .LVU42
  34:Lib/SPI_Bus/Src/spi_deal.c ****             cmd_leg[leg_id].T = modf_buf->T;
 126              		.loc 1 34 41 is_stmt 0 view .LVU43
 127 0086 B0F90720 		ldrsh	r2, [r0, #7]	@ unaligned
  34:Lib/SPI_Bus/Src/spi_deal.c ****             cmd_leg[leg_id].T = modf_buf->T;
 128              		.loc 1 34 31 view .LVU44
 129 008a 07EE902A 		vmov	s15, r2	@ int
 130 008e F8EEE77A 		vcvt.f32.s32	s15, s15
 131 0092 17EE902A 		vmov	r2, s15
 132 0096 C3F82E20 		str	r2, [r3, #46]	@ unaligned
  35:Lib/SPI_Bus/Src/spi_deal.c ****         }
 133              		.loc 1 35 13 is_stmt 1 view .LVU45
  35:Lib/SPI_Bus/Src/spi_deal.c ****         }
 134              		.loc 1 35 41 is_stmt 0 view .LVU46
ARM GAS  /tmp/ccW2cv6a.s 			page 5


 135 009a B0F90520 		ldrsh	r2, [r0, #5]	@ unaligned
  35:Lib/SPI_Bus/Src/spi_deal.c ****         }
 136              		.loc 1 35 31 view .LVU47
 137 009e 07EE902A 		vmov	s15, r2	@ int
 138 00a2 F8EEE77A 		vcvt.f32.s32	s15, s15
 139 00a6 17EE902A 		vmov	r2, s15
 140 00aa C3F82A20 		str	r2, [r3, #42]	@ unaligned
 141              	.LVL2:
 142              	.L3:
  35:Lib/SPI_Bus/Src/spi_deal.c ****         }
 143              		.loc 1 35 31 view .LVU48
 144              	.LBE2:
  37:Lib/SPI_Bus/Src/spi_deal.c ****         {
 145              		.loc 1 37 9 is_stmt 1 view .LVU49
  37:Lib/SPI_Bus/Src/spi_deal.c ****         {
 146              		.loc 1 37 21 is_stmt 0 view .LVU50
 147 00ae 8378     		ldrb	r3, [r0, #2]	@ zero_extendqisi2
  37:Lib/SPI_Bus/Src/spi_deal.c ****         {
 148              		.loc 1 37 12 view .LVU51
 149 00b0 012B     		cmp	r3, #1
 150 00b2 3FD0     		beq	.L8
 151              	.L4:
  49:Lib/SPI_Bus/Src/spi_deal.c ****         {
 152              		.loc 1 49 9 is_stmt 1 view .LVU52
  49:Lib/SPI_Bus/Src/spi_deal.c ****         {
 153              		.loc 1 49 21 is_stmt 0 view .LVU53
 154 00b4 8378     		ldrb	r3, [r0, #2]	@ zero_extendqisi2
  49:Lib/SPI_Bus/Src/spi_deal.c ****         {
 155              		.loc 1 49 12 view .LVU54
 156 00b6 022B     		cmp	r3, #2
 157 00b8 71D0     		beq	.L9
 158              	.L5:
  61:Lib/SPI_Bus/Src/spi_deal.c ****         {
 159              		.loc 1 61 9 is_stmt 1 view .LVU55
  61:Lib/SPI_Bus/Src/spi_deal.c ****         {
 160              		.loc 1 61 21 is_stmt 0 view .LVU56
 161 00ba 8378     		ldrb	r3, [r0, #2]	@ zero_extendqisi2
  61:Lib/SPI_Bus/Src/spi_deal.c ****         {
 162              		.loc 1 61 12 view .LVU57
 163 00bc 032B     		cmp	r3, #3
 164 00be BDD1     		bne	.L1
 165              	.LBB3:
  63:Lib/SPI_Bus/Src/spi_deal.c ****             cmd_leg[leg_id].id = modf_buf->motorID;
 166              		.loc 1 63 13 is_stmt 1 view .LVU58
 167              	.LVL3:
  64:Lib/SPI_Bus/Src/spi_deal.c ****             cmd_leg[leg_id].mode = modf_buf->mode;
 168              		.loc 1 64 13 view .LVU59
  64:Lib/SPI_Bus/Src/spi_deal.c ****             cmd_leg[leg_id].mode = modf_buf->mode;
 169              		.loc 1 64 42 is_stmt 0 view .LVU60
 170 00c0 C278     		ldrb	r2, [r0, #3]	@ zero_extendqisi2
  64:Lib/SPI_Bus/Src/spi_deal.c ****             cmd_leg[leg_id].mode = modf_buf->mode;
 171              		.loc 1 64 32 view .LVU61
 172 00c2 544B     		ldr	r3, .L10
 173 00c4 A3F8EC20 		strh	r2, [r3, #236]	@ unaligned
  65:Lib/SPI_Bus/Src/spi_deal.c ****             cmd_leg[leg_id].K_P = modf_buf->K_P;
 174              		.loc 1 65 13 is_stmt 1 view .LVU62
  65:Lib/SPI_Bus/Src/spi_deal.c ****             cmd_leg[leg_id].K_P = modf_buf->K_P;
ARM GAS  /tmp/ccW2cv6a.s 			page 6


 175              		.loc 1 65 44 is_stmt 0 view .LVU63
 176 00c8 0279     		ldrb	r2, [r0, #4]	@ zero_extendqisi2
  65:Lib/SPI_Bus/Src/spi_deal.c ****             cmd_leg[leg_id].K_P = modf_buf->K_P;
 177              		.loc 1 65 34 view .LVU64
 178 00ca A3F8EE20 		strh	r2, [r3, #238]	@ unaligned
  66:Lib/SPI_Bus/Src/spi_deal.c ****             cmd_leg[leg_id].K_W = modf_buf->K_W;
 179              		.loc 1 66 13 is_stmt 1 view .LVU65
  66:Lib/SPI_Bus/Src/spi_deal.c ****             cmd_leg[leg_id].K_W = modf_buf->K_W;
 180              		.loc 1 66 43 is_stmt 0 view .LVU66
 181 00ce B0F90D20 		ldrsh	r2, [r0, #13]	@ unaligned
  66:Lib/SPI_Bus/Src/spi_deal.c ****             cmd_leg[leg_id].K_W = modf_buf->K_W;
 182              		.loc 1 66 33 view .LVU67
 183 00d2 07EE902A 		vmov	s15, r2	@ int
 184 00d6 F8EEE77A 		vcvt.f32.s32	s15, s15
 185 00da 17EE902A 		vmov	r2, s15
 186 00de C3F8FC20 		str	r2, [r3, #252]	@ unaligned
  67:Lib/SPI_Bus/Src/spi_deal.c ****             cmd_leg[leg_id].Pos = modf_buf->Pos;
 187              		.loc 1 67 13 is_stmt 1 view .LVU68
  67:Lib/SPI_Bus/Src/spi_deal.c ****             cmd_leg[leg_id].Pos = modf_buf->Pos;
 188              		.loc 1 67 43 is_stmt 0 view .LVU69
 189 00e2 B0F90F20 		ldrsh	r2, [r0, #15]	@ unaligned
  67:Lib/SPI_Bus/Src/spi_deal.c ****             cmd_leg[leg_id].Pos = modf_buf->Pos;
 190              		.loc 1 67 33 view .LVU70
 191 00e6 07EE902A 		vmov	s15, r2	@ int
 192 00ea F8EEE77A 		vcvt.f32.s32	s15, s15
 193 00ee 17EE902A 		vmov	r2, s15
 194 00f2 C3F80021 		str	r2, [r3, #256]	@ unaligned
  68:Lib/SPI_Bus/Src/spi_deal.c ****             cmd_leg[leg_id].W = modf_buf->W;
 195              		.loc 1 68 13 is_stmt 1 view .LVU71
  68:Lib/SPI_Bus/Src/spi_deal.c ****             cmd_leg[leg_id].W = modf_buf->W;
 196              		.loc 1 68 43 is_stmt 0 view .LVU72
 197 00f6 D0F80920 		ldr	r2, [r0, #9]	@ unaligned
  68:Lib/SPI_Bus/Src/spi_deal.c ****             cmd_leg[leg_id].W = modf_buf->W;
 198              		.loc 1 68 33 view .LVU73
 199 00fa 07EE902A 		vmov	s15, r2	@ int
 200 00fe F8EEE77A 		vcvt.f32.s32	s15, s15
 201 0102 17EE902A 		vmov	r2, s15
 202 0106 C3F8F820 		str	r2, [r3, #248]	@ unaligned
  69:Lib/SPI_Bus/Src/spi_deal.c ****             cmd_leg[leg_id].T = modf_buf->T;
 203              		.loc 1 69 13 is_stmt 1 view .LVU74
  69:Lib/SPI_Bus/Src/spi_deal.c ****             cmd_leg[leg_id].T = modf_buf->T;
 204              		.loc 1 69 41 is_stmt 0 view .LVU75
 205 010a B0F90720 		ldrsh	r2, [r0, #7]	@ unaligned
  69:Lib/SPI_Bus/Src/spi_deal.c ****             cmd_leg[leg_id].T = modf_buf->T;
 206              		.loc 1 69 31 view .LVU76
 207 010e 07EE902A 		vmov	s15, r2	@ int
 208 0112 F8EEE77A 		vcvt.f32.s32	s15, s15
 209 0116 17EE902A 		vmov	r2, s15
 210 011a C3F8F420 		str	r2, [r3, #244]	@ unaligned
  70:Lib/SPI_Bus/Src/spi_deal.c ****         }
 211              		.loc 1 70 13 is_stmt 1 view .LVU77
  70:Lib/SPI_Bus/Src/spi_deal.c ****         }
 212              		.loc 1 70 41 is_stmt 0 view .LVU78
 213 011e B0F90520 		ldrsh	r2, [r0, #5]	@ unaligned
  70:Lib/SPI_Bus/Src/spi_deal.c ****         }
 214              		.loc 1 70 31 view .LVU79
 215 0122 07EE902A 		vmov	s15, r2	@ int
ARM GAS  /tmp/ccW2cv6a.s 			page 7


 216 0126 F8EEE77A 		vcvt.f32.s32	s15, s15
 217 012a 17EE902A 		vmov	r2, s15
 218 012e C3F8F020 		str	r2, [r3, #240]	@ unaligned
 219              	.LBE3:
 220              		.loc 1 73 1 view .LVU80
 221 0132 83E7     		b	.L1
 222              	.LVL4:
 223              	.L8:
 224              	.LBB4:
  39:Lib/SPI_Bus/Src/spi_deal.c ****             cmd_leg[leg_id].id = modf_buf->motorID;
 225              		.loc 1 39 13 is_stmt 1 view .LVU81
  40:Lib/SPI_Bus/Src/spi_deal.c ****             cmd_leg[leg_id].mode = modf_buf->mode;
 226              		.loc 1 40 13 view .LVU82
  40:Lib/SPI_Bus/Src/spi_deal.c ****             cmd_leg[leg_id].mode = modf_buf->mode;
 227              		.loc 1 40 42 is_stmt 0 view .LVU83
 228 0134 C278     		ldrb	r2, [r0, #3]	@ zero_extendqisi2
  40:Lib/SPI_Bus/Src/spi_deal.c ****             cmd_leg[leg_id].mode = modf_buf->mode;
 229              		.loc 1 40 32 view .LVU84
 230 0136 374B     		ldr	r3, .L10
 231 0138 A3F86820 		strh	r2, [r3, #104]	@ unaligned
  41:Lib/SPI_Bus/Src/spi_deal.c ****             cmd_leg[leg_id].K_P = modf_buf->K_P;
 232              		.loc 1 41 13 is_stmt 1 view .LVU85
  41:Lib/SPI_Bus/Src/spi_deal.c ****             cmd_leg[leg_id].K_P = modf_buf->K_P;
 233              		.loc 1 41 44 is_stmt 0 view .LVU86
 234 013c 0279     		ldrb	r2, [r0, #4]	@ zero_extendqisi2
  41:Lib/SPI_Bus/Src/spi_deal.c ****             cmd_leg[leg_id].K_P = modf_buf->K_P;
 235              		.loc 1 41 34 view .LVU87
 236 013e A3F86A20 		strh	r2, [r3, #106]	@ unaligned
  42:Lib/SPI_Bus/Src/spi_deal.c ****             cmd_leg[leg_id].K_W = modf_buf->K_W;
 237              		.loc 1 42 13 is_stmt 1 view .LVU88
  42:Lib/SPI_Bus/Src/spi_deal.c ****             cmd_leg[leg_id].K_W = modf_buf->K_W;
 238              		.loc 1 42 43 is_stmt 0 view .LVU89
 239 0142 B0F90D20 		ldrsh	r2, [r0, #13]	@ unaligned
  42:Lib/SPI_Bus/Src/spi_deal.c ****             cmd_leg[leg_id].K_W = modf_buf->K_W;
 240              		.loc 1 42 33 view .LVU90
 241 0146 07EE902A 		vmov	s15, r2	@ int
 242 014a F8EEE77A 		vcvt.f32.s32	s15, s15
 243 014e 17EE902A 		vmov	r2, s15
 244 0152 9A67     		str	r2, [r3, #120]	@ unaligned
  43:Lib/SPI_Bus/Src/spi_deal.c ****             cmd_leg[leg_id].Pos = modf_buf->Pos;
 245              		.loc 1 43 13 is_stmt 1 view .LVU91
  43:Lib/SPI_Bus/Src/spi_deal.c ****             cmd_leg[leg_id].Pos = modf_buf->Pos;
 246              		.loc 1 43 43 is_stmt 0 view .LVU92
 247 0154 B0F90F20 		ldrsh	r2, [r0, #15]	@ unaligned
  43:Lib/SPI_Bus/Src/spi_deal.c ****             cmd_leg[leg_id].Pos = modf_buf->Pos;
 248              		.loc 1 43 33 view .LVU93
 249 0158 07EE902A 		vmov	s15, r2	@ int
 250 015c F8EEE77A 		vcvt.f32.s32	s15, s15
 251 0160 17EE902A 		vmov	r2, s15
 252 0164 DA67     		str	r2, [r3, #124]	@ unaligned
  44:Lib/SPI_Bus/Src/spi_deal.c ****             cmd_leg[leg_id].W = modf_buf->W;
 253              		.loc 1 44 13 is_stmt 1 view .LVU94
  44:Lib/SPI_Bus/Src/spi_deal.c ****             cmd_leg[leg_id].W = modf_buf->W;
 254              		.loc 1 44 43 is_stmt 0 view .LVU95
 255 0166 D0F80920 		ldr	r2, [r0, #9]	@ unaligned
  44:Lib/SPI_Bus/Src/spi_deal.c ****             cmd_leg[leg_id].W = modf_buf->W;
 256              		.loc 1 44 33 view .LVU96
ARM GAS  /tmp/ccW2cv6a.s 			page 8


 257 016a 07EE902A 		vmov	s15, r2	@ int
 258 016e F8EEE77A 		vcvt.f32.s32	s15, s15
 259 0172 17EE902A 		vmov	r2, s15
 260 0176 5A67     		str	r2, [r3, #116]	@ unaligned
  45:Lib/SPI_Bus/Src/spi_deal.c ****             cmd_leg[leg_id].T = modf_buf->T;
 261              		.loc 1 45 13 is_stmt 1 view .LVU97
  45:Lib/SPI_Bus/Src/spi_deal.c ****             cmd_leg[leg_id].T = modf_buf->T;
 262              		.loc 1 45 41 is_stmt 0 view .LVU98
 263 0178 B0F90720 		ldrsh	r2, [r0, #7]	@ unaligned
  45:Lib/SPI_Bus/Src/spi_deal.c ****             cmd_leg[leg_id].T = modf_buf->T;
 264              		.loc 1 45 31 view .LVU99
 265 017c 07EE902A 		vmov	s15, r2	@ int
 266 0180 F8EEE77A 		vcvt.f32.s32	s15, s15
 267 0184 17EE902A 		vmov	r2, s15
 268 0188 1A67     		str	r2, [r3, #112]	@ unaligned
  46:Lib/SPI_Bus/Src/spi_deal.c ****         }
 269              		.loc 1 46 13 is_stmt 1 view .LVU100
  46:Lib/SPI_Bus/Src/spi_deal.c ****         }
 270              		.loc 1 46 41 is_stmt 0 view .LVU101
 271 018a B0F90520 		ldrsh	r2, [r0, #5]	@ unaligned
  46:Lib/SPI_Bus/Src/spi_deal.c ****         }
 272              		.loc 1 46 31 view .LVU102
 273 018e 07EE902A 		vmov	s15, r2	@ int
 274 0192 F8EEE77A 		vcvt.f32.s32	s15, s15
 275 0196 17EE902A 		vmov	r2, s15
 276 019a DA66     		str	r2, [r3, #108]	@ unaligned
 277 019c 8AE7     		b	.L4
 278              	.LVL5:
 279              	.L9:
  46:Lib/SPI_Bus/Src/spi_deal.c ****         }
 280              		.loc 1 46 31 view .LVU103
 281              	.LBE4:
 282              	.LBB5:
  51:Lib/SPI_Bus/Src/spi_deal.c ****             cmd_leg[leg_id].id = modf_buf->motorID;
 283              		.loc 1 51 13 is_stmt 1 view .LVU104
  52:Lib/SPI_Bus/Src/spi_deal.c ****             cmd_leg[leg_id].mode = modf_buf->mode;
 284              		.loc 1 52 13 view .LVU105
  52:Lib/SPI_Bus/Src/spi_deal.c ****             cmd_leg[leg_id].mode = modf_buf->mode;
 285              		.loc 1 52 42 is_stmt 0 view .LVU106
 286 019e C278     		ldrb	r2, [r0, #3]	@ zero_extendqisi2
  52:Lib/SPI_Bus/Src/spi_deal.c ****             cmd_leg[leg_id].mode = modf_buf->mode;
 287              		.loc 1 52 32 view .LVU107
 288 01a0 1C4B     		ldr	r3, .L10
 289 01a2 A3F8AA20 		strh	r2, [r3, #170]	@ unaligned
  53:Lib/SPI_Bus/Src/spi_deal.c ****             cmd_leg[leg_id].K_P = modf_buf->K_P;
 290              		.loc 1 53 13 is_stmt 1 view .LVU108
  53:Lib/SPI_Bus/Src/spi_deal.c ****             cmd_leg[leg_id].K_P = modf_buf->K_P;
 291              		.loc 1 53 44 is_stmt 0 view .LVU109
 292 01a6 0279     		ldrb	r2, [r0, #4]	@ zero_extendqisi2
  53:Lib/SPI_Bus/Src/spi_deal.c ****             cmd_leg[leg_id].K_P = modf_buf->K_P;
 293              		.loc 1 53 34 view .LVU110
 294 01a8 A3F8AC20 		strh	r2, [r3, #172]	@ unaligned
  54:Lib/SPI_Bus/Src/spi_deal.c ****             cmd_leg[leg_id].K_W = modf_buf->K_W;
 295              		.loc 1 54 13 is_stmt 1 view .LVU111
  54:Lib/SPI_Bus/Src/spi_deal.c ****             cmd_leg[leg_id].K_W = modf_buf->K_W;
 296              		.loc 1 54 43 is_stmt 0 view .LVU112
 297 01ac B0F90D20 		ldrsh	r2, [r0, #13]	@ unaligned
ARM GAS  /tmp/ccW2cv6a.s 			page 9


  54:Lib/SPI_Bus/Src/spi_deal.c ****             cmd_leg[leg_id].K_W = modf_buf->K_W;
 298              		.loc 1 54 33 view .LVU113
 299 01b0 07EE902A 		vmov	s15, r2	@ int
 300 01b4 F8EEE77A 		vcvt.f32.s32	s15, s15
 301 01b8 17EE902A 		vmov	r2, s15
 302 01bc C3F8BA20 		str	r2, [r3, #186]	@ unaligned
  55:Lib/SPI_Bus/Src/spi_deal.c ****             cmd_leg[leg_id].Pos = modf_buf->Pos;
 303              		.loc 1 55 13 is_stmt 1 view .LVU114
  55:Lib/SPI_Bus/Src/spi_deal.c ****             cmd_leg[leg_id].Pos = modf_buf->Pos;
 304              		.loc 1 55 43 is_stmt 0 view .LVU115
 305 01c0 B0F90F20 		ldrsh	r2, [r0, #15]	@ unaligned
  55:Lib/SPI_Bus/Src/spi_deal.c ****             cmd_leg[leg_id].Pos = modf_buf->Pos;
 306              		.loc 1 55 33 view .LVU116
 307 01c4 07EE902A 		vmov	s15, r2	@ int
 308 01c8 F8EEE77A 		vcvt.f32.s32	s15, s15
 309 01cc 17EE902A 		vmov	r2, s15
 310 01d0 C3F8BE20 		str	r2, [r3, #190]	@ unaligned
  56:Lib/SPI_Bus/Src/spi_deal.c ****             cmd_leg[leg_id].W = modf_buf->W;
 311              		.loc 1 56 13 is_stmt 1 view .LVU117
  56:Lib/SPI_Bus/Src/spi_deal.c ****             cmd_leg[leg_id].W = modf_buf->W;
 312              		.loc 1 56 43 is_stmt 0 view .LVU118
 313 01d4 D0F80920 		ldr	r2, [r0, #9]	@ unaligned
  56:Lib/SPI_Bus/Src/spi_deal.c ****             cmd_leg[leg_id].W = modf_buf->W;
 314              		.loc 1 56 33 view .LVU119
 315 01d8 07EE902A 		vmov	s15, r2	@ int
 316 01dc F8EEE77A 		vcvt.f32.s32	s15, s15
 317 01e0 17EE902A 		vmov	r2, s15
 318 01e4 C3F8B620 		str	r2, [r3, #182]	@ unaligned
  57:Lib/SPI_Bus/Src/spi_deal.c ****             cmd_leg[leg_id].T = modf_buf->T;
 319              		.loc 1 57 13 is_stmt 1 view .LVU120
  57:Lib/SPI_Bus/Src/spi_deal.c ****             cmd_leg[leg_id].T = modf_buf->T;
 320              		.loc 1 57 41 is_stmt 0 view .LVU121
 321 01e8 B0F90720 		ldrsh	r2, [r0, #7]	@ unaligned
  57:Lib/SPI_Bus/Src/spi_deal.c ****             cmd_leg[leg_id].T = modf_buf->T;
 322              		.loc 1 57 31 view .LVU122
 323 01ec 07EE902A 		vmov	s15, r2	@ int
 324 01f0 F8EEE77A 		vcvt.f32.s32	s15, s15
 325 01f4 17EE902A 		vmov	r2, s15
 326 01f8 C3F8B220 		str	r2, [r3, #178]	@ unaligned
  58:Lib/SPI_Bus/Src/spi_deal.c ****         }
 327              		.loc 1 58 13 is_stmt 1 view .LVU123
  58:Lib/SPI_Bus/Src/spi_deal.c ****         }
 328              		.loc 1 58 41 is_stmt 0 view .LVU124
 329 01fc B0F90520 		ldrsh	r2, [r0, #5]	@ unaligned
  58:Lib/SPI_Bus/Src/spi_deal.c ****         }
 330              		.loc 1 58 31 view .LVU125
 331 0200 07EE902A 		vmov	s15, r2	@ int
 332 0204 F8EEE77A 		vcvt.f32.s32	s15, s15
 333 0208 17EE902A 		vmov	r2, s15
 334 020c C3F8AE20 		str	r2, [r3, #174]	@ unaligned
 335 0210 53E7     		b	.L5
 336              	.L11:
 337 0212 00BF     		.align	2
 338              	.L10:
 339 0214 00000000 		.word	cmd_leg
 340              	.LBE5:
 341              		.cfi_endproc
ARM GAS  /tmp/ccW2cv6a.s 			page 10


 342              	.LFE134:
 344              		.section	.text.SPI_RXdate,"ax",%progbits
 345              		.align	1
 346              		.global	SPI_RXdate
 347              		.syntax unified
 348              		.thumb
 349              		.thumb_func
 351              	SPI_RXdate:
 352              	.LVL6:
 353              	.LFB135:
  74:Lib/SPI_Bus/Src/spi_deal.c **** void SPI_RXdate(A1PackageSpiRx *modf_buf, uint8_t *spi_sbus_buf)
  75:Lib/SPI_Bus/Src/spi_deal.c **** {
 354              		.loc 1 75 1 is_stmt 1 view -0
 355              		.cfi_startproc
 356              		@ args = 0, pretend = 0, frame = 0
 357              		@ frame_needed = 0, uses_anonymous_args = 0
 358              		.loc 1 75 1 is_stmt 0 view .LVU127
 359 0000 08B5     		push	{r3, lr}
 360              		.cfi_def_cfa_offset 8
 361              		.cfi_offset 3, -8
 362              		.cfi_offset 14, -4
  76:Lib/SPI_Bus/Src/spi_deal.c **** 
  77:Lib/SPI_Bus/Src/spi_deal.c ****     modf_buf->start[0] = spi_sbus_buf[0];
 363              		.loc 1 77 5 is_stmt 1 view .LVU128
 364              		.loc 1 77 38 is_stmt 0 view .LVU129
 365 0002 0A78     		ldrb	r2, [r1]	@ zero_extendqisi2
 366              		.loc 1 77 24 view .LVU130
 367 0004 0270     		strb	r2, [r0]
  78:Lib/SPI_Bus/Src/spi_deal.c ****     modf_buf->start[1] = spi_sbus_buf[1];
 368              		.loc 1 78 5 is_stmt 1 view .LVU131
 369              		.loc 1 78 24 is_stmt 0 view .LVU132
 370 0006 4A78     		ldrb	r2, [r1, #1]	@ zero_extendqisi2
 371 0008 4270     		strb	r2, [r0, #1]
  79:Lib/SPI_Bus/Src/spi_deal.c ****     modf_buf->LegID = spi_sbus_buf[2];
 372              		.loc 1 79 5 is_stmt 1 view .LVU133
 373              		.loc 1 79 21 is_stmt 0 view .LVU134
 374 000a 8A78     		ldrb	r2, [r1, #2]	@ zero_extendqisi2
 375 000c 8270     		strb	r2, [r0, #2]
  80:Lib/SPI_Bus/Src/spi_deal.c ****     modf_buf->motorID = spi_sbus_buf[3];
 376              		.loc 1 80 5 is_stmt 1 view .LVU135
 377              		.loc 1 80 23 is_stmt 0 view .LVU136
 378 000e CA78     		ldrb	r2, [r1, #3]	@ zero_extendqisi2
 379 0010 C270     		strb	r2, [r0, #3]
  81:Lib/SPI_Bus/Src/spi_deal.c ****     modf_buf->mode = spi_sbus_buf[4];
 380              		.loc 1 81 5 is_stmt 1 view .LVU137
 381              		.loc 1 81 20 is_stmt 0 view .LVU138
 382 0012 0A79     		ldrb	r2, [r1, #4]	@ zero_extendqisi2
 383 0014 0271     		strb	r2, [r0, #4]
  82:Lib/SPI_Bus/Src/spi_deal.c ****     modf_buf->T = spi_sbus_buf[5] << 8 | spi_sbus_buf[6];
 384              		.loc 1 82 5 is_stmt 1 view .LVU139
 385              		.loc 1 82 31 is_stmt 0 view .LVU140
 386 0016 91F805C0 		ldrb	ip, [r1, #5]	@ zero_extendqisi2
 387              		.loc 1 82 54 view .LVU141
 388 001a 8A79     		ldrb	r2, [r1, #6]	@ zero_extendqisi2
 389              		.loc 1 82 40 view .LVU142
 390 001c 42EA0C22 		orr	r2, r2, ip, lsl #8
 391              		.loc 1 82 17 view .LVU143
ARM GAS  /tmp/ccW2cv6a.s 			page 11


 392 0020 A0F80520 		strh	r2, [r0, #5]	@ unaligned
  83:Lib/SPI_Bus/Src/spi_deal.c ****     modf_buf->W = spi_sbus_buf[7] << 8 | spi_sbus_buf[8];
 393              		.loc 1 83 5 is_stmt 1 view .LVU144
 394              		.loc 1 83 31 is_stmt 0 view .LVU145
 395 0024 91F807C0 		ldrb	ip, [r1, #7]	@ zero_extendqisi2
 396              		.loc 1 83 54 view .LVU146
 397 0028 0A7A     		ldrb	r2, [r1, #8]	@ zero_extendqisi2
 398              		.loc 1 83 40 view .LVU147
 399 002a 42EA0C22 		orr	r2, r2, ip, lsl #8
 400              		.loc 1 83 17 view .LVU148
 401 002e A0F80720 		strh	r2, [r0, #7]	@ unaligned
  84:Lib/SPI_Bus/Src/spi_deal.c ****     modf_buf->Pos = spi_sbus_buf[9] << 24 | spi_sbus_buf[10] << 16 | spi_sbus_buf[11] << 8 | spi_sb
 402              		.loc 1 84 5 is_stmt 1 view .LVU149
 403              		.loc 1 84 33 is_stmt 0 view .LVU150
 404 0032 91F809C0 		ldrb	ip, [r1, #9]	@ zero_extendqisi2
 405              		.loc 1 84 57 view .LVU151
 406 0036 8A7A     		ldrb	r2, [r1, #10]	@ zero_extendqisi2
 407              		.loc 1 84 62 view .LVU152
 408 0038 1204     		lsls	r2, r2, #16
 409              		.loc 1 84 43 view .LVU153
 410 003a 42EA0C62 		orr	r2, r2, ip, lsl #24
 411              		.loc 1 84 82 view .LVU154
 412 003e 91F80BC0 		ldrb	ip, [r1, #11]	@ zero_extendqisi2
 413              		.loc 1 84 68 view .LVU155
 414 0042 42EA0C22 		orr	r2, r2, ip, lsl #8
 415              		.loc 1 84 106 view .LVU156
 416 0046 91F80CC0 		ldrb	ip, [r1, #12]	@ zero_extendqisi2
 417              		.loc 1 84 92 view .LVU157
 418 004a 42EA0C02 		orr	r2, r2, ip
 419              		.loc 1 84 19 view .LVU158
 420 004e C0F80920 		str	r2, [r0, #9]	@ unaligned
  85:Lib/SPI_Bus/Src/spi_deal.c ****     modf_buf->K_P = spi_sbus_buf[13] << 8 | spi_sbus_buf[14];
 421              		.loc 1 85 5 is_stmt 1 view .LVU159
 422              		.loc 1 85 33 is_stmt 0 view .LVU160
 423 0052 91F80DC0 		ldrb	ip, [r1, #13]	@ zero_extendqisi2
 424              		.loc 1 85 57 view .LVU161
 425 0056 8A7B     		ldrb	r2, [r1, #14]	@ zero_extendqisi2
 426              		.loc 1 85 43 view .LVU162
 427 0058 42EA0C22 		orr	r2, r2, ip, lsl #8
 428              		.loc 1 85 19 view .LVU163
 429 005c A0F80D20 		strh	r2, [r0, #13]	@ unaligned
  86:Lib/SPI_Bus/Src/spi_deal.c ****     modf_buf->K_W = spi_sbus_buf[15] << 8 | spi_sbus_buf[16];
 430              		.loc 1 86 5 is_stmt 1 view .LVU164
 431              		.loc 1 86 33 is_stmt 0 view .LVU165
 432 0060 91F80FC0 		ldrb	ip, [r1, #15]	@ zero_extendqisi2
 433              		.loc 1 86 57 view .LVU166
 434 0064 0A7C     		ldrb	r2, [r1, #16]	@ zero_extendqisi2
 435              		.loc 1 86 43 view .LVU167
 436 0066 42EA0C22 		orr	r2, r2, ip, lsl #8
 437              		.loc 1 86 19 view .LVU168
 438 006a A0F80F20 		strh	r2, [r0, #15]	@ unaligned
  87:Lib/SPI_Bus/Src/spi_deal.c ****     modf_buf->SumCheck = spi_sbus_buf[17] << 24 | spi_sbus_buf[18] << 16 | spi_sbus_buf[19] << 8 | 
 439              		.loc 1 87 5 is_stmt 1 view .LVU169
 440              		.loc 1 87 38 is_stmt 0 view .LVU170
 441 006e 91F811C0 		ldrb	ip, [r1, #17]	@ zero_extendqisi2
 442              		.loc 1 87 63 view .LVU171
 443 0072 8A7C     		ldrb	r2, [r1, #18]	@ zero_extendqisi2
ARM GAS  /tmp/ccW2cv6a.s 			page 12


 444              		.loc 1 87 68 view .LVU172
 445 0074 1204     		lsls	r2, r2, #16
 446              		.loc 1 87 49 view .LVU173
 447 0076 42EA0C62 		orr	r2, r2, ip, lsl #24
 448              		.loc 1 87 88 view .LVU174
 449 007a 91F813C0 		ldrb	ip, [r1, #19]	@ zero_extendqisi2
 450              		.loc 1 87 74 view .LVU175
 451 007e 42EA0C22 		orr	r2, r2, ip, lsl #8
 452              		.loc 1 87 112 view .LVU176
 453 0082 097D     		ldrb	r1, [r1, #20]	@ zero_extendqisi2
 454              	.LVL7:
 455              		.loc 1 87 98 view .LVU177
 456 0084 0A43     		orrs	r2, r2, r1
 457              		.loc 1 87 24 view .LVU178
 458 0086 C0F81120 		str	r2, [r0, #17]	@ unaligned
  88:Lib/SPI_Bus/Src/spi_deal.c ****     DateCheck_DateModfy(modf_buf);
 459              		.loc 1 88 5 is_stmt 1 view .LVU179
 460 008a FFF7FEFF 		bl	DateCheck_DateModfy
 461              	.LVL8:
  89:Lib/SPI_Bus/Src/spi_deal.c **** }
 462              		.loc 1 89 1 is_stmt 0 view .LVU180
 463 008e 08BD     		pop	{r3, pc}
 464              		.cfi_endproc
 465              	.LFE135:
 467              		.section	.text.ecat_NS_L,"ax",%progbits
 468              		.align	1
 469              		.global	ecat_NS_L
 470              		.syntax unified
 471              		.thumb
 472              		.thumb_func
 474              	ecat_NS_L:
 475              	.LFB136:
  90:Lib/SPI_Bus/Src/spi_deal.c **** 
  91:Lib/SPI_Bus/Src/spi_deal.c **** // 拉底片选
  92:Lib/SPI_Bus/Src/spi_deal.c **** void ecat_NS_L(void)
  93:Lib/SPI_Bus/Src/spi_deal.c **** {
 476              		.loc 1 93 1 is_stmt 1 view -0
 477              		.cfi_startproc
 478              		@ args = 0, pretend = 0, frame = 0
 479              		@ frame_needed = 0, uses_anonymous_args = 0
 480 0000 08B5     		push	{r3, lr}
 481              		.cfi_def_cfa_offset 8
 482              		.cfi_offset 3, -8
 483              		.cfi_offset 14, -4
  94:Lib/SPI_Bus/Src/spi_deal.c ****     HAL_GPIO_WritePin(GPIOB, GPIO_PIN_12, GPIO_PIN_RESET);
 484              		.loc 1 94 5 view .LVU182
 485 0002 0022     		movs	r2, #0
 486 0004 4FF48051 		mov	r1, #4096
 487 0008 0148     		ldr	r0, .L16
 488 000a FFF7FEFF 		bl	HAL_GPIO_WritePin
 489              	.LVL9:
  95:Lib/SPI_Bus/Src/spi_deal.c **** }
 490              		.loc 1 95 1 is_stmt 0 view .LVU183
 491 000e 08BD     		pop	{r3, pc}
 492              	.L17:
 493              		.align	2
 494              	.L16:
ARM GAS  /tmp/ccW2cv6a.s 			page 13


 495 0010 00040240 		.word	1073873920
 496              		.cfi_endproc
 497              	.LFE136:
 499              		.section	.text.ecat_NS_H,"ax",%progbits
 500              		.align	1
 501              		.global	ecat_NS_H
 502              		.syntax unified
 503              		.thumb
 504              		.thumb_func
 506              	ecat_NS_H:
 507              	.LFB137:
  96:Lib/SPI_Bus/Src/spi_deal.c **** // 拉高片选
  97:Lib/SPI_Bus/Src/spi_deal.c **** void ecat_NS_H(void)
  98:Lib/SPI_Bus/Src/spi_deal.c **** {
 508              		.loc 1 98 1 is_stmt 1 view -0
 509              		.cfi_startproc
 510              		@ args = 0, pretend = 0, frame = 0
 511              		@ frame_needed = 0, uses_anonymous_args = 0
 512 0000 08B5     		push	{r3, lr}
 513              		.cfi_def_cfa_offset 8
 514              		.cfi_offset 3, -8
 515              		.cfi_offset 14, -4
  99:Lib/SPI_Bus/Src/spi_deal.c ****     HAL_GPIO_WritePin(GPIOB, GPIO_PIN_12, GPIO_PIN_SET);
 516              		.loc 1 99 5 view .LVU185
 517 0002 0122     		movs	r2, #1
 518 0004 4FF48051 		mov	r1, #4096
 519 0008 0148     		ldr	r0, .L20
 520 000a FFF7FEFF 		bl	HAL_GPIO_WritePin
 521              	.LVL10:
 100:Lib/SPI_Bus/Src/spi_deal.c **** }
 522              		.loc 1 100 1 is_stmt 0 view .LVU186
 523 000e 08BD     		pop	{r3, pc}
 524              	.L21:
 525              		.align	2
 526              	.L20:
 527 0010 00040240 		.word	1073873920
 528              		.cfi_endproc
 529              	.LFE137:
 531              		.section	.text.MASTER_Synchro,"ax",%progbits
 532              		.align	1
 533              		.global	MASTER_Synchro
 534              		.syntax unified
 535              		.thumb
 536              		.thumb_func
 538              	MASTER_Synchro:
 539              	.LFB138:
 101:Lib/SPI_Bus/Src/spi_deal.c **** 
 102:Lib/SPI_Bus/Src/spi_deal.c **** /// @brief 主从同步读写
 103:Lib/SPI_Bus/Src/spi_deal.c **** /// @param
 104:Lib/SPI_Bus/Src/spi_deal.c **** void MASTER_Synchro(void)
 105:Lib/SPI_Bus/Src/spi_deal.c **** {
 540              		.loc 1 105 1 is_stmt 1 view -0
 541              		.cfi_startproc
 542              		@ args = 0, pretend = 0, frame = 8
 543              		@ frame_needed = 0, uses_anonymous_args = 0
 544 0000 00B5     		push	{lr}
 545              		.cfi_def_cfa_offset 4
ARM GAS  /tmp/ccW2cv6a.s 			page 14


 546              		.cfi_offset 14, -4
 547 0002 83B0     		sub	sp, sp, #12
 548              		.cfi_def_cfa_offset 16
 106:Lib/SPI_Bus/Src/spi_deal.c ****     uint8_t txbety = 0xD2;
 549              		.loc 1 106 5 view .LVU188
 550              		.loc 1 106 13 is_stmt 0 view .LVU189
 551 0004 D223     		movs	r3, #210
 552 0006 8DF80730 		strb	r3, [sp, #7]
 107:Lib/SPI_Bus/Src/spi_deal.c ****     uint8_t rxbety = 0x00;
 553              		.loc 1 107 5 is_stmt 1 view .LVU190
 554              		.loc 1 107 13 is_stmt 0 view .LVU191
 555 000a 0023     		movs	r3, #0
 556 000c 8DF80630 		strb	r3, [sp, #6]
 557 0010 0AE0     		b	.L25
 558              	.L24:
 108:Lib/SPI_Bus/Src/spi_deal.c **** 
 109:Lib/SPI_Bus/Src/spi_deal.c ****     do
 110:Lib/SPI_Bus/Src/spi_deal.c ****     {
 111:Lib/SPI_Bus/Src/spi_deal.c ****         if (HAL_SPI_TransmitReceive_IT(&hspi2, &txbety, &rxbety, 1) != HAL_OK)
 112:Lib/SPI_Bus/Src/spi_deal.c ****         {
 113:Lib/SPI_Bus/Src/spi_deal.c ****             Error_Handler();
 114:Lib/SPI_Bus/Src/spi_deal.c ****         }
 115:Lib/SPI_Bus/Src/spi_deal.c **** 
 116:Lib/SPI_Bus/Src/spi_deal.c ****         while (HAL_SPI_GetState(&hspi2) != HAL_SPI_STATE_READY)
 117:Lib/SPI_Bus/Src/spi_deal.c ****         {
 118:Lib/SPI_Bus/Src/spi_deal.c ****         }
 559              		.loc 1 118 9 is_stmt 1 discriminator 1 view .LVU192
 116:Lib/SPI_Bus/Src/spi_deal.c ****         {
 560              		.loc 1 116 15 discriminator 1 view .LVU193
 116:Lib/SPI_Bus/Src/spi_deal.c ****         {
 561              		.loc 1 116 16 is_stmt 0 discriminator 1 view .LVU194
 562 0012 0D48     		ldr	r0, .L28
 563 0014 FFF7FEFF 		bl	HAL_SPI_GetState
 564              	.LVL11:
 116:Lib/SPI_Bus/Src/spi_deal.c ****         {
 565              		.loc 1 116 15 discriminator 1 view .LVU195
 566 0018 0128     		cmp	r0, #1
 567 001a FAD1     		bne	.L24
 119:Lib/SPI_Bus/Src/spi_deal.c ****     } while (rxbety != txbety);
 568              		.loc 1 119 13 is_stmt 1 view .LVU196
 569              		.loc 1 119 21 is_stmt 0 view .LVU197
 570 001c 9DF80620 		ldrb	r2, [sp, #6]	@ zero_extendqisi2
 571 0020 9DF80730 		ldrb	r3, [sp, #7]	@ zero_extendqisi2
 572              		.loc 1 119 5 view .LVU198
 573 0024 9A42     		cmp	r2, r3
 574 0026 0CD0     		beq	.L27
 575              	.L25:
 109:Lib/SPI_Bus/Src/spi_deal.c ****     {
 576              		.loc 1 109 5 is_stmt 1 view .LVU199
 111:Lib/SPI_Bus/Src/spi_deal.c ****         {
 577              		.loc 1 111 9 view .LVU200
 111:Lib/SPI_Bus/Src/spi_deal.c ****         {
 578              		.loc 1 111 13 is_stmt 0 view .LVU201
 579 0028 0123     		movs	r3, #1
 580 002a 0DF10602 		add	r2, sp, #6
 581 002e 0DF10701 		add	r1, sp, #7
 582 0032 0548     		ldr	r0, .L28
ARM GAS  /tmp/ccW2cv6a.s 			page 15


 583 0034 FFF7FEFF 		bl	HAL_SPI_TransmitReceive_IT
 584              	.LVL12:
 111:Lib/SPI_Bus/Src/spi_deal.c ****         {
 585              		.loc 1 111 12 view .LVU202
 586 0038 0028     		cmp	r0, #0
 587 003a EAD0     		beq	.L24
 113:Lib/SPI_Bus/Src/spi_deal.c ****         }
 588              		.loc 1 113 13 is_stmt 1 view .LVU203
 589 003c FFF7FEFF 		bl	Error_Handler
 590              	.LVL13:
 591 0040 E7E7     		b	.L24
 592              	.L27:
 120:Lib/SPI_Bus/Src/spi_deal.c **** }
 593              		.loc 1 120 1 is_stmt 0 view .LVU204
 594 0042 03B0     		add	sp, sp, #12
 595              		.cfi_def_cfa_offset 4
 596              		@ sp needed
 597 0044 5DF804FB 		ldr	pc, [sp], #4
 598              	.L29:
 599              		.align	2
 600              	.L28:
 601 0048 00000000 		.word	hspi2
 602              		.cfi_endproc
 603              	.LFE138:
 605              		.section	.text.SPI_RECEIVE,"ax",%progbits
 606              		.align	1
 607              		.global	SPI_RECEIVE
 608              		.syntax unified
 609              		.thumb
 610              		.thumb_func
 612              	SPI_RECEIVE:
 613              	.LFB139:
 121:Lib/SPI_Bus/Src/spi_deal.c **** 
 122:Lib/SPI_Bus/Src/spi_deal.c **** /// @brief 进行一次中断形式的接收,并尝试赋值给发送电机数据结构体
 123:Lib/SPI_Bus/Src/spi_deal.c **** /// @param
 124:Lib/SPI_Bus/Src/spi_deal.c **** void SPI_RECEIVE(void)
 125:Lib/SPI_Bus/Src/spi_deal.c **** {
 614              		.loc 1 125 1 is_stmt 1 view -0
 615              		.cfi_startproc
 616              		@ args = 0, pretend = 0, frame = 24
 617              		@ frame_needed = 0, uses_anonymous_args = 0
 618 0000 00B5     		push	{lr}
 619              		.cfi_def_cfa_offset 4
 620              		.cfi_offset 14, -4
 621 0002 87B0     		sub	sp, sp, #28
 622              		.cfi_def_cfa_offset 32
 126:Lib/SPI_Bus/Src/spi_deal.c ****     ecat_NS_L();
 623              		.loc 1 126 5 view .LVU206
 624 0004 FFF7FEFF 		bl	ecat_NS_L
 625              	.LVL14:
 127:Lib/SPI_Bus/Src/spi_deal.c ****     MASTER_Synchro();
 626              		.loc 1 127 5 view .LVU207
 627 0008 FFF7FEFF 		bl	MASTER_Synchro
 628              	.LVL15:
 128:Lib/SPI_Bus/Src/spi_deal.c ****     uint8_t rxdate[21];
 629              		.loc 1 128 5 view .LVU208
 129:Lib/SPI_Bus/Src/spi_deal.c ****     if (HAL_SPI_Receive_IT(&hspi2, rxdate, 21) != HAL_OK)
ARM GAS  /tmp/ccW2cv6a.s 			page 16


 630              		.loc 1 129 5 view .LVU209
 631              		.loc 1 129 9 is_stmt 0 view .LVU210
 632 000c 1522     		movs	r2, #21
 633 000e 6946     		mov	r1, sp
 634 0010 0A48     		ldr	r0, .L35
 635 0012 FFF7FEFF 		bl	HAL_SPI_Receive_IT
 636              	.LVL16:
 637              		.loc 1 129 8 view .LVU211
 638 0016 68B9     		cbnz	r0, .L34
 639              	.L32:
 130:Lib/SPI_Bus/Src/spi_deal.c ****     {
 131:Lib/SPI_Bus/Src/spi_deal.c ****         Error_Handler();
 132:Lib/SPI_Bus/Src/spi_deal.c ****     }
 133:Lib/SPI_Bus/Src/spi_deal.c ****     while (HAL_SPI_GetState(&hspi2) != HAL_SPI_STATE_READY)
 134:Lib/SPI_Bus/Src/spi_deal.c ****     {
 135:Lib/SPI_Bus/Src/spi_deal.c ****     }
 640              		.loc 1 135 5 is_stmt 1 discriminator 1 view .LVU212
 133:Lib/SPI_Bus/Src/spi_deal.c ****     {
 641              		.loc 1 133 11 discriminator 1 view .LVU213
 133:Lib/SPI_Bus/Src/spi_deal.c ****     {
 642              		.loc 1 133 12 is_stmt 0 discriminator 1 view .LVU214
 643 0018 0848     		ldr	r0, .L35
 644 001a FFF7FEFF 		bl	HAL_SPI_GetState
 645              	.LVL17:
 133:Lib/SPI_Bus/Src/spi_deal.c ****     {
 646              		.loc 1 133 11 discriminator 1 view .LVU215
 647 001e 0128     		cmp	r0, #1
 648 0020 FAD1     		bne	.L32
 136:Lib/SPI_Bus/Src/spi_deal.c **** 
 137:Lib/SPI_Bus/Src/spi_deal.c ****     SPI_RXdate(&RXA1cmd, rxdate);
 649              		.loc 1 137 5 is_stmt 1 view .LVU216
 650 0022 6946     		mov	r1, sp
 651 0024 0648     		ldr	r0, .L35+4
 652 0026 FFF7FEFF 		bl	SPI_RXdate
 653              	.LVL18:
 138:Lib/SPI_Bus/Src/spi_deal.c ****     ecat_NS_H();
 654              		.loc 1 138 5 view .LVU217
 655 002a FFF7FEFF 		bl	ecat_NS_H
 656              	.LVL19:
 139:Lib/SPI_Bus/Src/spi_deal.c **** }
 657              		.loc 1 139 1 is_stmt 0 view .LVU218
 658 002e 07B0     		add	sp, sp, #28
 659              		.cfi_remember_state
 660              		.cfi_def_cfa_offset 4
 661              		@ sp needed
 662 0030 5DF804FB 		ldr	pc, [sp], #4
 663              	.L34:
 664              		.cfi_restore_state
 131:Lib/SPI_Bus/Src/spi_deal.c ****     }
 665              		.loc 1 131 9 is_stmt 1 view .LVU219
 666 0034 FFF7FEFF 		bl	Error_Handler
 667              	.LVL20:
 668 0038 EEE7     		b	.L32
 669              	.L36:
 670 003a 00BF     		.align	2
 671              	.L35:
 672 003c 00000000 		.word	hspi2
ARM GAS  /tmp/ccW2cv6a.s 			page 17


 673 0040 00000000 		.word	.LANCHOR0
 674              		.cfi_endproc
 675              	.LFE139:
 677              		.section	.text.link_2array,"ax",%progbits
 678              		.align	1
 679              		.global	link_2array
 680              		.syntax unified
 681              		.thumb
 682              		.thumb_func
 684              	link_2array:
 685              	.LVL21:
 686              	.LFB141:
 140:Lib/SPI_Bus/Src/spi_deal.c **** 
 141:Lib/SPI_Bus/Src/spi_deal.c **** /// @brief 进行一次中断形式的发送
 142:Lib/SPI_Bus/Src/spi_deal.c **** /// @param leg_id 对应腿的ID
 143:Lib/SPI_Bus/Src/spi_deal.c **** void SPI_TRANSMIT(int leg_id)
 144:Lib/SPI_Bus/Src/spi_deal.c **** {
 145:Lib/SPI_Bus/Src/spi_deal.c ****     ecat_NS_L();
 146:Lib/SPI_Bus/Src/spi_deal.c ****     MASTER_Synchro();
 147:Lib/SPI_Bus/Src/spi_deal.c ****     uint8_t TXdate[42];
 148:Lib/SPI_Bus/Src/spi_deal.c ****     uint8_t txdate_1[21];
 149:Lib/SPI_Bus/Src/spi_deal.c ****     memcpy(txdate_1, &A1date[leg_id][data_leg[leg_id].motor_recv_data.head.motorID], 21);
 150:Lib/SPI_Bus/Src/spi_deal.c ****     link_2array(txdate_1,TXdate);
 151:Lib/SPI_Bus/Src/spi_deal.c **** 
 152:Lib/SPI_Bus/Src/spi_deal.c ****     if (HAL_SPI_Transmit_IT(&hspi2, TXdate, 41) != HAL_OK)
 153:Lib/SPI_Bus/Src/spi_deal.c ****     {
 154:Lib/SPI_Bus/Src/spi_deal.c ****         Error_Handler();
 155:Lib/SPI_Bus/Src/spi_deal.c ****     }
 156:Lib/SPI_Bus/Src/spi_deal.c ****     while (HAL_SPI_GetState(&hspi2) != HAL_SPI_STATE_READY)
 157:Lib/SPI_Bus/Src/spi_deal.c ****     {
 158:Lib/SPI_Bus/Src/spi_deal.c ****     }
 159:Lib/SPI_Bus/Src/spi_deal.c ****     ecat_NS_H();
 160:Lib/SPI_Bus/Src/spi_deal.c **** }
 161:Lib/SPI_Bus/Src/spi_deal.c **** 
 162:Lib/SPI_Bus/Src/spi_deal.c **** void link_2array(uint8_t *array1,uint8_t *array3)
 163:Lib/SPI_Bus/Src/spi_deal.c **** {
 687              		.loc 1 163 1 view -0
 688              		.cfi_startproc
 689              		@ args = 0, pretend = 0, frame = 0
 690              		@ frame_needed = 0, uses_anonymous_args = 0
 691              		@ link register save eliminated.
 164:Lib/SPI_Bus/Src/spi_deal.c ****     for (int i = 0; i < 20; i++)
 692              		.loc 1 164 5 view .LVU221
 693              	.LBB6:
 694              		.loc 1 164 10 view .LVU222
 695              		.loc 1 164 14 is_stmt 0 view .LVU223
 696 0000 0023     		movs	r3, #0
 697              		.loc 1 164 5 view .LVU224
 698 0002 05E0     		b	.L38
 699              	.LVL22:
 700              	.L39:
 165:Lib/SPI_Bus/Src/spi_deal.c ****     {
 166:Lib/SPI_Bus/Src/spi_deal.c ****         *(array3 + i) = *(array1 + i + 1);
 701              		.loc 1 166 9 is_stmt 1 discriminator 3 view .LVU225
 702              		.loc 1 166 38 is_stmt 0 discriminator 3 view .LVU226
 703 0004 5A1C     		adds	r2, r3, #1
 704              		.loc 1 166 25 discriminator 3 view .LVU227
ARM GAS  /tmp/ccW2cv6a.s 			page 18


 705 0006 10F802C0 		ldrb	ip, [r0, r2]	@ zero_extendqisi2
 706              		.loc 1 166 23 discriminator 3 view .LVU228
 707 000a 01F803C0 		strb	ip, [r1, r3]
 164:Lib/SPI_Bus/Src/spi_deal.c ****     for (int i = 0; i < 20; i++)
 708              		.loc 1 164 29 is_stmt 1 discriminator 3 view .LVU229
 164:Lib/SPI_Bus/Src/spi_deal.c ****     for (int i = 0; i < 20; i++)
 709              		.loc 1 164 30 is_stmt 0 discriminator 3 view .LVU230
 710 000e 1346     		mov	r3, r2
 711              	.LVL23:
 712              	.L38:
 164:Lib/SPI_Bus/Src/spi_deal.c ****     for (int i = 0; i < 20; i++)
 713              		.loc 1 164 21 is_stmt 1 discriminator 1 view .LVU231
 164:Lib/SPI_Bus/Src/spi_deal.c ****     for (int i = 0; i < 20; i++)
 714              		.loc 1 164 5 is_stmt 0 discriminator 1 view .LVU232
 715 0010 132B     		cmp	r3, #19
 716 0012 F7DD     		ble	.L39
 717              	.LBE6:
 718              	.LBB7:
 167:Lib/SPI_Bus/Src/spi_deal.c ****     }
 168:Lib/SPI_Bus/Src/spi_deal.c **** 
 169:Lib/SPI_Bus/Src/spi_deal.c ****     for (int i = 0; i < 21; i++)
 719              		.loc 1 169 14 view .LVU233
 720 0014 0023     		movs	r3, #0
 721              	.LVL24:
 722              		.loc 1 169 14 view .LVU234
 723 0016 06E0     		b	.L40
 724              	.LVL25:
 725              	.L41:
 170:Lib/SPI_Bus/Src/spi_deal.c ****     {
 171:Lib/SPI_Bus/Src/spi_deal.c ****         *(array3 + i + 20) = *(array1 + i);
 726              		.loc 1 171 9 is_stmt 1 discriminator 3 view .LVU235
 727              		.loc 1 171 22 is_stmt 0 discriminator 3 view .LVU236
 728 0018 03F11402 		add	r2, r3, #20
 729              		.loc 1 171 30 discriminator 3 view .LVU237
 730 001c 10F803C0 		ldrb	ip, [r0, r3]	@ zero_extendqisi2
 731              		.loc 1 171 28 discriminator 3 view .LVU238
 732 0020 01F802C0 		strb	ip, [r1, r2]
 169:Lib/SPI_Bus/Src/spi_deal.c ****     {
 733              		.loc 1 169 29 is_stmt 1 discriminator 3 view .LVU239
 169:Lib/SPI_Bus/Src/spi_deal.c ****     {
 734              		.loc 1 169 30 is_stmt 0 discriminator 3 view .LVU240
 735 0024 0133     		adds	r3, r3, #1
 736              	.LVL26:
 737              	.L40:
 169:Lib/SPI_Bus/Src/spi_deal.c ****     {
 738              		.loc 1 169 21 is_stmt 1 discriminator 1 view .LVU241
 169:Lib/SPI_Bus/Src/spi_deal.c ****     {
 739              		.loc 1 169 5 is_stmt 0 discriminator 1 view .LVU242
 740 0026 142B     		cmp	r3, #20
 741 0028 F6DD     		ble	.L41
 742              	.LBE7:
 172:Lib/SPI_Bus/Src/spi_deal.c ****     }
 173:Lib/SPI_Bus/Src/spi_deal.c **** 
 174:Lib/SPI_Bus/Src/spi_deal.c ****     *(array3) = 0xFE;
 743              		.loc 1 174 5 is_stmt 1 view .LVU243
 744              		.loc 1 174 15 is_stmt 0 view .LVU244
 745 002a FE23     		movs	r3, #254
ARM GAS  /tmp/ccW2cv6a.s 			page 19


 746              	.LVL27:
 747              		.loc 1 174 15 view .LVU245
 748 002c 0B70     		strb	r3, [r1]
 175:Lib/SPI_Bus/Src/spi_deal.c ****     *(array3 + 20) = 0xD2;
 749              		.loc 1 175 5 is_stmt 1 view .LVU246
 750              		.loc 1 175 20 is_stmt 0 view .LVU247
 751 002e D222     		movs	r2, #210
 752 0030 0A75     		strb	r2, [r1, #20]
 176:Lib/SPI_Bus/Src/spi_deal.c ****     *(array3 + 21) = 0xFE;
 753              		.loc 1 176 5 is_stmt 1 view .LVU248
 754              		.loc 1 176 20 is_stmt 0 view .LVU249
 755 0032 4B75     		strb	r3, [r1, #21]
 177:Lib/SPI_Bus/Src/spi_deal.c ****     /*
 178:Lib/SPI_Bus/Src/spi_deal.c ****     int length1 = sizeof(array1) / sizeof(array1[0]);
 179:Lib/SPI_Bus/Src/spi_deal.c ****     int length2 = sizeof(array2) / sizeof(array2[0]);
 180:Lib/SPI_Bus/Src/spi_deal.c **** 
 181:Lib/SPI_Bus/Src/spi_deal.c ****     // 创建新数组
 182:Lib/SPI_Bus/Src/spi_deal.c ****     uint8_t *mergedArray = (uint8_t *)malloc((length1 + length2) * sizeof(int));
 183:Lib/SPI_Bus/Src/spi_deal.c ****     if (mergedArray == NULL) {
 184:Lib/SPI_Bus/Src/spi_deal.c ****         // 内存分配失败处理
 185:Lib/SPI_Bus/Src/spi_deal.c ****         //printf("Memory allocation failed!\n");
 186:Lib/SPI_Bus/Src/spi_deal.c ****         return 1;
 187:Lib/SPI_Bus/Src/spi_deal.c ****     }
 188:Lib/SPI_Bus/Src/spi_deal.c **** 
 189:Lib/SPI_Bus/Src/spi_deal.c ****     // 复制数组元素
 190:Lib/SPI_Bus/Src/spi_deal.c ****     int index = 0;
 191:Lib/SPI_Bus/Src/spi_deal.c ****     for (int i = 0; i < length1; i++) {
 192:Lib/SPI_Bus/Src/spi_deal.c ****         mergedArray[index++] = array1[i];
 193:Lib/SPI_Bus/Src/spi_deal.c ****     }
 194:Lib/SPI_Bus/Src/spi_deal.c ****     for (int i = 0; i < length2; i++) {
 195:Lib/SPI_Bus/Src/spi_deal.c ****         mergedArray[index++] = array2[i];
 196:Lib/SPI_Bus/Src/spi_deal.c ****     }
 197:Lib/SPI_Bus/Src/spi_deal.c **** 
 198:Lib/SPI_Bus/Src/spi_deal.c ****     array3 = mergedArray;
 199:Lib/SPI_Bus/Src/spi_deal.c ****     // 释放内存
 200:Lib/SPI_Bus/Src/spi_deal.c ****     free(mergedArray);
 201:Lib/SPI_Bus/Src/spi_deal.c ****     */
 202:Lib/SPI_Bus/Src/spi_deal.c **** }
 756              		.loc 1 202 1 view .LVU250
 757 0034 7047     		bx	lr
 758              		.cfi_endproc
 759              	.LFE141:
 761              		.section	.text.SPI_TRANSMIT,"ax",%progbits
 762              		.align	1
 763              		.global	SPI_TRANSMIT
 764              		.syntax unified
 765              		.thumb
 766              		.thumb_func
 768              	SPI_TRANSMIT:
 769              	.LVL28:
 770              	.LFB140:
 144:Lib/SPI_Bus/Src/spi_deal.c ****     ecat_NS_L();
 771              		.loc 1 144 1 is_stmt 1 view -0
 772              		.cfi_startproc
 773              		@ args = 0, pretend = 0, frame = 72
 774              		@ frame_needed = 0, uses_anonymous_args = 0
 144:Lib/SPI_Bus/Src/spi_deal.c ****     ecat_NS_L();
ARM GAS  /tmp/ccW2cv6a.s 			page 20


 775              		.loc 1 144 1 is_stmt 0 view .LVU252
 776 0000 10B5     		push	{r4, lr}
 777              		.cfi_def_cfa_offset 8
 778              		.cfi_offset 4, -8
 779              		.cfi_offset 14, -4
 780 0002 92B0     		sub	sp, sp, #72
 781              		.cfi_def_cfa_offset 80
 782 0004 0446     		mov	r4, r0
 145:Lib/SPI_Bus/Src/spi_deal.c ****     MASTER_Synchro();
 783              		.loc 1 145 5 is_stmt 1 view .LVU253
 784 0006 FFF7FEFF 		bl	ecat_NS_L
 785              	.LVL29:
 146:Lib/SPI_Bus/Src/spi_deal.c ****     uint8_t TXdate[42];
 786              		.loc 1 146 5 view .LVU254
 787 000a FFF7FEFF 		bl	MASTER_Synchro
 788              	.LVL30:
 147:Lib/SPI_Bus/Src/spi_deal.c ****     uint8_t txdate_1[21];
 789              		.loc 1 147 5 view .LVU255
 148:Lib/SPI_Bus/Src/spi_deal.c ****     memcpy(txdate_1, &A1date[leg_id][data_leg[leg_id].motor_recv_data.head.motorID], 21);
 790              		.loc 1 148 5 view .LVU256
 149:Lib/SPI_Bus/Src/spi_deal.c ****     link_2array(txdate_1,TXdate);
 791              		.loc 1 149 5 view .LVU257
 149:Lib/SPI_Bus/Src/spi_deal.c ****     link_2array(txdate_1,TXdate);
 792              		.loc 1 149 75 is_stmt 0 view .LVU258
 793 000e 04EB0412 		add	r2, r4, r4, lsl #4
 794 0012 184B     		ldr	r3, .L47
 795 0014 03EBC203 		add	r3, r3, r2, lsl #3
 796 0018 9B78     		ldrb	r3, [r3, #2]	@ zero_extendqisi2
 149:Lib/SPI_Bus/Src/spi_deal.c ****     link_2array(txdate_1,TXdate);
 797              		.loc 1 149 22 view .LVU259
 798 001a 174A     		ldr	r2, .L47+4
 799 001c 03EB4303 		add	r3, r3, r3, lsl #1
 800 0020 C3EBC303 		rsb	r3, r3, r3, lsl #3
 801 0024 C4EB8414 		rsb	r4, r4, r4, lsl #6
 802              	.LVL31:
 149:Lib/SPI_Bus/Src/spi_deal.c ****     link_2array(txdate_1,TXdate);
 803              		.loc 1 149 22 view .LVU260
 804 0028 2344     		add	r3, r3, r4
 805 002a D418     		adds	r4, r2, r3
 149:Lib/SPI_Bus/Src/spi_deal.c ****     link_2array(txdate_1,TXdate);
 806              		.loc 1 149 5 view .LVU261
 807 002c 0DF1040C 		add	ip, sp, #4
 808 0030 D058     		ldr	r0, [r2, r3]	@ unaligned
 809 0032 6168     		ldr	r1, [r4, #4]	@ unaligned
 810 0034 A268     		ldr	r2, [r4, #8]	@ unaligned
 811 0036 E368     		ldr	r3, [r4, #12]	@ unaligned
 812 0038 ACE80F00 		stmia	ip!, {r0, r1, r2, r3}
 813 003c 2069     		ldr	r0, [r4, #16]	@ unaligned
 814 003e CCF80000 		str	r0, [ip]
 815 0042 237D     		ldrb	r3, [r4, #20]	@ zero_extendqisi2
 816 0044 8CF80430 		strb	r3, [ip, #4]
 150:Lib/SPI_Bus/Src/spi_deal.c **** 
 817              		.loc 1 150 5 is_stmt 1 view .LVU262
 818 0048 07A9     		add	r1, sp, #28
 819 004a 01A8     		add	r0, sp, #4
 820 004c FFF7FEFF 		bl	link_2array
 821              	.LVL32:
ARM GAS  /tmp/ccW2cv6a.s 			page 21


 152:Lib/SPI_Bus/Src/spi_deal.c ****     {
 822              		.loc 1 152 5 view .LVU263
 152:Lib/SPI_Bus/Src/spi_deal.c ****     {
 823              		.loc 1 152 9 is_stmt 0 view .LVU264
 824 0050 2922     		movs	r2, #41
 825 0052 07A9     		add	r1, sp, #28
 826 0054 0948     		ldr	r0, .L47+8
 827 0056 FFF7FEFF 		bl	HAL_SPI_Transmit_IT
 828              	.LVL33:
 152:Lib/SPI_Bus/Src/spi_deal.c ****     {
 829              		.loc 1 152 8 view .LVU265
 830 005a 40B9     		cbnz	r0, .L46
 831              	.L44:
 158:Lib/SPI_Bus/Src/spi_deal.c ****     ecat_NS_H();
 832              		.loc 1 158 5 is_stmt 1 discriminator 1 view .LVU266
 156:Lib/SPI_Bus/Src/spi_deal.c ****     {
 833              		.loc 1 156 11 discriminator 1 view .LVU267
 156:Lib/SPI_Bus/Src/spi_deal.c ****     {
 834              		.loc 1 156 12 is_stmt 0 discriminator 1 view .LVU268
 835 005c 0748     		ldr	r0, .L47+8
 836 005e FFF7FEFF 		bl	HAL_SPI_GetState
 837              	.LVL34:
 156:Lib/SPI_Bus/Src/spi_deal.c ****     {
 838              		.loc 1 156 11 discriminator 1 view .LVU269
 839 0062 0128     		cmp	r0, #1
 840 0064 FAD1     		bne	.L44
 159:Lib/SPI_Bus/Src/spi_deal.c **** }
 841              		.loc 1 159 5 is_stmt 1 view .LVU270
 842 0066 FFF7FEFF 		bl	ecat_NS_H
 843              	.LVL35:
 160:Lib/SPI_Bus/Src/spi_deal.c **** 
 844              		.loc 1 160 1 is_stmt 0 view .LVU271
 845 006a 12B0     		add	sp, sp, #72
 846              		.cfi_remember_state
 847              		.cfi_def_cfa_offset 8
 848              		@ sp needed
 849 006c 10BD     		pop	{r4, pc}
 850              	.L46:
 851              		.cfi_restore_state
 154:Lib/SPI_Bus/Src/spi_deal.c ****     }
 852              		.loc 1 154 9 is_stmt 1 view .LVU272
 853 006e FFF7FEFF 		bl	Error_Handler
 854              	.LVL36:
 855 0072 F3E7     		b	.L44
 856              	.L48:
 857              		.align	2
 858              	.L47:
 859 0074 00000000 		.word	data_leg
 860 0078 00000000 		.word	.LANCHOR1
 861 007c 00000000 		.word	hspi2
 862              		.cfi_endproc
 863              	.LFE140:
 865              		.global	RXA1cmd
 866              		.global	A1date
 867              		.global	RxComplete
 868              		.section	.bss.A1date,"aw",%nobits
 869              		.align	2
ARM GAS  /tmp/ccW2cv6a.s 			page 22


 870              		.set	.LANCHOR1,. + 0
 873              	A1date:
 874 0000 00000000 		.space	252
 874      00000000 
 874      00000000 
 874      00000000 
 874      00000000 
 875              		.section	.bss.RXA1cmd,"aw",%nobits
 876              		.align	2
 877              		.set	.LANCHOR0,. + 0
 880              	RXA1cmd:
 881 0000 00000000 		.space	21
 881      00000000 
 881      00000000 
 881      00000000 
 881      00000000 
 882              		.section	.bss.RxComplete,"aw",%nobits
 885              	RxComplete:
 886 0000 00       		.space	1
 887              		.text
 888              	.Letext0:
 889              		.file 2 "/usr/share/gcc-arm-none-eabi-10.3-2021.10/arm-none-eabi/include/machine/_default_types.h"
 890              		.file 3 "/usr/share/gcc-arm-none-eabi-10.3-2021.10/arm-none-eabi/include/sys/_stdint.h"
 891              		.file 4 "Drivers/CMSIS/Device/ST/STM32F4xx/Include/stm32f405xx.h"
 892              		.file 5 "Drivers/STM32F4xx_HAL_Driver/Inc/stm32f4xx_hal_def.h"
 893              		.file 6 "Drivers/STM32F4xx_HAL_Driver/Inc/stm32f4xx_hal_gpio.h"
 894              		.file 7 "Drivers/STM32F4xx_HAL_Driver/Inc/stm32f4xx_hal_dma.h"
 895              		.file 8 "Drivers/STM32F4xx_HAL_Driver/Inc/stm32f4xx_hal_spi.h"
 896              		.file 9 "Lib/Motor/Inc/unitreeA1_msg.h"
 897              		.file 10 "Core/Inc/spi.h"
 898              		.file 11 "Lib/Motor/Inc/unitreeA1_cmd.h"
 899              		.file 12 "Lib/SPI_Bus/Inc/data_def.h"
 900              		.file 13 "Core/Inc/main.h"
ARM GAS  /tmp/ccW2cv6a.s 			page 23


DEFINED SYMBOLS
                            *ABS*:0000000000000000 spi_deal.c
     /tmp/ccW2cv6a.s:20     .text.DateCheck_DateModfy:0000000000000000 $t
     /tmp/ccW2cv6a.s:26     .text.DateCheck_DateModfy:0000000000000000 DateCheck_DateModfy
     /tmp/ccW2cv6a.s:339    .text.DateCheck_DateModfy:0000000000000214 $d
     /tmp/ccW2cv6a.s:345    .text.SPI_RXdate:0000000000000000 $t
     /tmp/ccW2cv6a.s:351    .text.SPI_RXdate:0000000000000000 SPI_RXdate
     /tmp/ccW2cv6a.s:468    .text.ecat_NS_L:0000000000000000 $t
     /tmp/ccW2cv6a.s:474    .text.ecat_NS_L:0000000000000000 ecat_NS_L
     /tmp/ccW2cv6a.s:495    .text.ecat_NS_L:0000000000000010 $d
     /tmp/ccW2cv6a.s:500    .text.ecat_NS_H:0000000000000000 $t
     /tmp/ccW2cv6a.s:506    .text.ecat_NS_H:0000000000000000 ecat_NS_H
     /tmp/ccW2cv6a.s:527    .text.ecat_NS_H:0000000000000010 $d
     /tmp/ccW2cv6a.s:532    .text.MASTER_Synchro:0000000000000000 $t
     /tmp/ccW2cv6a.s:538    .text.MASTER_Synchro:0000000000000000 MASTER_Synchro
     /tmp/ccW2cv6a.s:601    .text.MASTER_Synchro:0000000000000048 $d
     /tmp/ccW2cv6a.s:606    .text.SPI_RECEIVE:0000000000000000 $t
     /tmp/ccW2cv6a.s:612    .text.SPI_RECEIVE:0000000000000000 SPI_RECEIVE
     /tmp/ccW2cv6a.s:672    .text.SPI_RECEIVE:000000000000003c $d
     /tmp/ccW2cv6a.s:678    .text.link_2array:0000000000000000 $t
     /tmp/ccW2cv6a.s:684    .text.link_2array:0000000000000000 link_2array
     /tmp/ccW2cv6a.s:762    .text.SPI_TRANSMIT:0000000000000000 $t
     /tmp/ccW2cv6a.s:768    .text.SPI_TRANSMIT:0000000000000000 SPI_TRANSMIT
     /tmp/ccW2cv6a.s:859    .text.SPI_TRANSMIT:0000000000000074 $d
     /tmp/ccW2cv6a.s:880    .bss.RXA1cmd:0000000000000000 RXA1cmd
     /tmp/ccW2cv6a.s:873    .bss.A1date:0000000000000000 A1date
     /tmp/ccW2cv6a.s:885    .bss.RxComplete:0000000000000000 RxComplete
     /tmp/ccW2cv6a.s:869    .bss.A1date:0000000000000000 $d
     /tmp/ccW2cv6a.s:876    .bss.RXA1cmd:0000000000000000 $d
     /tmp/ccW2cv6a.s:886    .bss.RxComplete:0000000000000000 $d

UNDEFINED SYMBOLS
cmd_leg
HAL_GPIO_WritePin
HAL_SPI_GetState
HAL_SPI_TransmitReceive_IT
Error_Handler
hspi2
HAL_SPI_Receive_IT
HAL_SPI_Transmit_IT
data_leg
