ARM GAS  /tmp/ccMwSyRb.s 			page 1


   1              		.cpu cortex-m4
   2              		.arch armv7e-m
   3              		.fpu fpv4-sp-d16
   4              		.eabi_attribute 27, 1
   5              		.eabi_attribute 28, 1
   6              		.eabi_attribute 20, 1
   7              		.eabi_attribute 21, 1
   8              		.eabi_attribute 23, 3
   9              		.eabi_attribute 24, 1
  10              		.eabi_attribute 25, 1
  11              		.eabi_attribute 26, 1
  12              		.eabi_attribute 30, 1
  13              		.eabi_attribute 34, 1
  14              		.eabi_attribute 18, 4
  15              		.file	"unitreeA1_recv.c"
  16              		.text
  17              	.Ltext0:
  18              		.cfi_sections	.debug_frame
  19              		.section	.text.sbus_to_rc,"ax",%progbits
  20              		.align	1
  21              		.syntax unified
  22              		.thumb
  23              		.thumb_func
  25              	sbus_to_rc:
  26              	.LVL0:
  27              	.LFB140:
  28              		.file 1 "Lib/Motor/Src/unitreeA1_recv.c"
   1:Lib/Motor/Src/unitreeA1_recv.c **** #include "unitreeA1_recv.h"
   2:Lib/Motor/Src/unitreeA1_recv.c **** 
   3:Lib/Motor/Src/unitreeA1_recv.c **** #include "data_def.h"
   4:Lib/Motor/Src/unitreeA1_recv.c **** 
   5:Lib/Motor/Src/unitreeA1_recv.c **** #define LF 0
   6:Lib/Motor/Src/unitreeA1_recv.c **** #define LB 1
   7:Lib/Motor/Src/unitreeA1_recv.c **** #define RF 2
   8:Lib/Motor/Src/unitreeA1_recv.c **** #define RB 3
   9:Lib/Motor/Src/unitreeA1_recv.c **** 
  10:Lib/Motor/Src/unitreeA1_recv.c **** Leg leg[4];
  11:Lib/Motor/Src/unitreeA1_recv.c **** 
  12:Lib/Motor/Src/unitreeA1_recv.c **** motor_recv_t data_motor[4][3];
  13:Lib/Motor/Src/unitreeA1_recv.c **** extern A1PackageSpiTx A1date[4][3];
  14:Lib/Motor/Src/unitreeA1_recv.c **** 
  15:Lib/Motor/Src/unitreeA1_recv.c **** static uint8_t sbus_rx_buf_LF[2][SBUS_RX_BUF_NUM]; // 128字节,防越界
  16:Lib/Motor/Src/unitreeA1_recv.c **** static uint8_t sbus_rx_buf_LB[2][SBUS_RX_BUF_NUM]; // 128字节,防越界
  17:Lib/Motor/Src/unitreeA1_recv.c **** static uint8_t sbus_rx_buf_RF[2][SBUS_RX_BUF_NUM]; // 128字节,防越界
  18:Lib/Motor/Src/unitreeA1_recv.c **** static uint8_t sbus_rx_buf_RB[2][SBUS_RX_BUF_NUM]; // 128字节,防越界
  19:Lib/Motor/Src/unitreeA1_recv.c **** 
  20:Lib/Motor/Src/unitreeA1_recv.c **** void remote_control_init(void)
  21:Lib/Motor/Src/unitreeA1_recv.c **** {
  22:Lib/Motor/Src/unitreeA1_recv.c ****     RC1_init(sbus_rx_buf_LF[0], sbus_rx_buf_LF[1], SBUS_RX_BUF_NUM);
  23:Lib/Motor/Src/unitreeA1_recv.c ****     RC2_init(sbus_rx_buf_LB[0], sbus_rx_buf_LB[1], SBUS_RX_BUF_NUM);
  24:Lib/Motor/Src/unitreeA1_recv.c ****     RC3_init(sbus_rx_buf_RB[0], sbus_rx_buf_RB[1], SBUS_RX_BUF_NUM);
  25:Lib/Motor/Src/unitreeA1_recv.c ****     RC6_init(sbus_rx_buf_RF[0], sbus_rx_buf_RF[1], SBUS_RX_BUF_NUM);
  26:Lib/Motor/Src/unitreeA1_recv.c **** }
  27:Lib/Motor/Src/unitreeA1_recv.c **** 
  28:Lib/Motor/Src/unitreeA1_recv.c **** void USART1_IRQHandler(void)
  29:Lib/Motor/Src/unitreeA1_recv.c **** {
  30:Lib/Motor/Src/unitreeA1_recv.c ****     
ARM GAS  /tmp/ccMwSyRb.s 			page 2


  31:Lib/Motor/Src/unitreeA1_recv.c ****     if (huart1.Instance->SR & UART_FLAG_RXNE) // 接收到数据
  32:Lib/Motor/Src/unitreeA1_recv.c ****     {
  33:Lib/Motor/Src/unitreeA1_recv.c ****         __HAL_UART_CLEAR_PEFLAG(&huart1);
  34:Lib/Motor/Src/unitreeA1_recv.c ****     }
  35:Lib/Motor/Src/unitreeA1_recv.c ****     else if (USART1->SR & UART_FLAG_IDLE)
  36:Lib/Motor/Src/unitreeA1_recv.c ****     {
  37:Lib/Motor/Src/unitreeA1_recv.c ****         static uint16_t this_time_rx_len = 0;
  38:Lib/Motor/Src/unitreeA1_recv.c **** 
  39:Lib/Motor/Src/unitreeA1_recv.c ****         __HAL_UART_CLEAR_PEFLAG(&huart1);
  40:Lib/Motor/Src/unitreeA1_recv.c **** 
  41:Lib/Motor/Src/unitreeA1_recv.c ****         if ((hdma_usart1_rx.Instance->CR & DMA_SxCR_CT) == RESET)
  42:Lib/Motor/Src/unitreeA1_recv.c ****         {
  43:Lib/Motor/Src/unitreeA1_recv.c ****             /* Current memory buffer used is Memory 0 */
  44:Lib/Motor/Src/unitreeA1_recv.c **** 
  45:Lib/Motor/Src/unitreeA1_recv.c ****             // disable DMA
  46:Lib/Motor/Src/unitreeA1_recv.c ****             // 失效DMA
  47:Lib/Motor/Src/unitreeA1_recv.c ****             __HAL_DMA_DISABLE(&hdma_usart1_rx);
  48:Lib/Motor/Src/unitreeA1_recv.c **** 
  49:Lib/Motor/Src/unitreeA1_recv.c ****             // get receive data length, length = set_data_length - remain_length
  50:Lib/Motor/Src/unitreeA1_recv.c ****             // 获取接收数据长度,长度 = 设定长度 - 剩余长度
  51:Lib/Motor/Src/unitreeA1_recv.c ****             this_time_rx_len = SBUS_RX_BUF_NUM - hdma_usart1_rx.Instance->NDTR;
  52:Lib/Motor/Src/unitreeA1_recv.c **** 
  53:Lib/Motor/Src/unitreeA1_recv.c ****             // reset set_data_lenght
  54:Lib/Motor/Src/unitreeA1_recv.c ****             // 重新设定数据长度
  55:Lib/Motor/Src/unitreeA1_recv.c ****             hdma_usart1_rx.Instance->NDTR = SBUS_RX_BUF_NUM;
  56:Lib/Motor/Src/unitreeA1_recv.c **** 
  57:Lib/Motor/Src/unitreeA1_recv.c ****             // set memory buffer 1
  58:Lib/Motor/Src/unitreeA1_recv.c ****             // 设定缓冲区1
  59:Lib/Motor/Src/unitreeA1_recv.c ****             hdma_usart1_rx.Instance->CR |= DMA_SxCR_CT;
  60:Lib/Motor/Src/unitreeA1_recv.c **** 
  61:Lib/Motor/Src/unitreeA1_recv.c ****             // enable DMA
  62:Lib/Motor/Src/unitreeA1_recv.c ****             // 使能DMA
  63:Lib/Motor/Src/unitreeA1_recv.c ****             __HAL_DMA_ENABLE(&hdma_usart1_rx);
  64:Lib/Motor/Src/unitreeA1_recv.c **** 
  65:Lib/Motor/Src/unitreeA1_recv.c ****             if (this_time_rx_len == RC_FRAME_LENGTH)
  66:Lib/Motor/Src/unitreeA1_recv.c ****             {
  67:Lib/Motor/Src/unitreeA1_recv.c ****                 sbus_to_rc(sbus_rx_buf_LF[0], &leg[LF].a1_buf);
  68:Lib/Motor/Src/unitreeA1_recv.c ****                 unitreeA1_rx(0);
  69:Lib/Motor/Src/unitreeA1_recv.c ****                 send_A1msgToEcat(0);
  70:Lib/Motor/Src/unitreeA1_recv.c ****             }
  71:Lib/Motor/Src/unitreeA1_recv.c ****         }
  72:Lib/Motor/Src/unitreeA1_recv.c ****         else
  73:Lib/Motor/Src/unitreeA1_recv.c ****         {
  74:Lib/Motor/Src/unitreeA1_recv.c ****             /* Current memory buffer used is Memory 1 */
  75:Lib/Motor/Src/unitreeA1_recv.c ****             // disable DMA
  76:Lib/Motor/Src/unitreeA1_recv.c ****             // 失效DMA
  77:Lib/Motor/Src/unitreeA1_recv.c ****             __HAL_DMA_DISABLE(&hdma_usart1_rx);
  78:Lib/Motor/Src/unitreeA1_recv.c **** 
  79:Lib/Motor/Src/unitreeA1_recv.c ****             // get receive data length, length = set_data_length - remain_length
  80:Lib/Motor/Src/unitreeA1_recv.c ****             // 获取接收数据长度,长度 = 设定长度 - 剩余长度
  81:Lib/Motor/Src/unitreeA1_recv.c ****             this_time_rx_len = SBUS_RX_BUF_NUM - hdma_usart1_rx.Instance->NDTR;
  82:Lib/Motor/Src/unitreeA1_recv.c **** 
  83:Lib/Motor/Src/unitreeA1_recv.c ****             // reset set_data_lenght
  84:Lib/Motor/Src/unitreeA1_recv.c ****             // 重新设定数据长度
  85:Lib/Motor/Src/unitreeA1_recv.c ****             hdma_usart1_rx.Instance->NDTR = SBUS_RX_BUF_NUM;
  86:Lib/Motor/Src/unitreeA1_recv.c **** 
  87:Lib/Motor/Src/unitreeA1_recv.c ****             // set memory buffer 0
ARM GAS  /tmp/ccMwSyRb.s 			page 3


  88:Lib/Motor/Src/unitreeA1_recv.c ****             // 设定缓冲区0
  89:Lib/Motor/Src/unitreeA1_recv.c ****             DMA2_Stream2->CR &= ~(DMA_SxCR_CT);
  90:Lib/Motor/Src/unitreeA1_recv.c **** 
  91:Lib/Motor/Src/unitreeA1_recv.c ****             // enable DMA
  92:Lib/Motor/Src/unitreeA1_recv.c ****             // 使能DMA
  93:Lib/Motor/Src/unitreeA1_recv.c ****             __HAL_DMA_ENABLE(&hdma_usart1_rx);
  94:Lib/Motor/Src/unitreeA1_recv.c **** 
  95:Lib/Motor/Src/unitreeA1_recv.c ****             if (this_time_rx_len == RC_FRAME_LENGTH)
  96:Lib/Motor/Src/unitreeA1_recv.c ****             {
  97:Lib/Motor/Src/unitreeA1_recv.c ****                 // 处理数据
  98:Lib/Motor/Src/unitreeA1_recv.c ****                 sbus_to_rc(sbus_rx_buf_LF[1], &leg[LF].a1_buf);
  99:Lib/Motor/Src/unitreeA1_recv.c ****                 unitreeA1_rx(0);
 100:Lib/Motor/Src/unitreeA1_recv.c ****                 send_A1msgToEcat(0);
 101:Lib/Motor/Src/unitreeA1_recv.c ****             }
 102:Lib/Motor/Src/unitreeA1_recv.c ****         }
 103:Lib/Motor/Src/unitreeA1_recv.c ****     }
 104:Lib/Motor/Src/unitreeA1_recv.c **** }
 105:Lib/Motor/Src/unitreeA1_recv.c **** 
 106:Lib/Motor/Src/unitreeA1_recv.c **** void USART2_IRQHandler(void)
 107:Lib/Motor/Src/unitreeA1_recv.c **** {
 108:Lib/Motor/Src/unitreeA1_recv.c ****    
 109:Lib/Motor/Src/unitreeA1_recv.c ****     if (huart2.Instance->SR & UART_FLAG_RXNE) // 接收到数据
 110:Lib/Motor/Src/unitreeA1_recv.c ****     {
 111:Lib/Motor/Src/unitreeA1_recv.c ****         __HAL_UART_CLEAR_PEFLAG(&huart2);
 112:Lib/Motor/Src/unitreeA1_recv.c ****     }
 113:Lib/Motor/Src/unitreeA1_recv.c ****     else if (USART2->SR & UART_FLAG_IDLE)
 114:Lib/Motor/Src/unitreeA1_recv.c ****     {
 115:Lib/Motor/Src/unitreeA1_recv.c ****         static uint16_t this_time_rx_len = 0;
 116:Lib/Motor/Src/unitreeA1_recv.c **** 
 117:Lib/Motor/Src/unitreeA1_recv.c ****         __HAL_UART_CLEAR_PEFLAG(&huart2);
 118:Lib/Motor/Src/unitreeA1_recv.c **** 
 119:Lib/Motor/Src/unitreeA1_recv.c ****         if ((hdma_usart2_rx.Instance->CR & DMA_SxCR_CT) == RESET)
 120:Lib/Motor/Src/unitreeA1_recv.c ****         {
 121:Lib/Motor/Src/unitreeA1_recv.c ****             /* Current memory buffer used is Memory 0 */
 122:Lib/Motor/Src/unitreeA1_recv.c **** 
 123:Lib/Motor/Src/unitreeA1_recv.c ****             // disable DMA
 124:Lib/Motor/Src/unitreeA1_recv.c ****             // 失效DMA
 125:Lib/Motor/Src/unitreeA1_recv.c ****             __HAL_DMA_DISABLE(&hdma_usart2_rx);
 126:Lib/Motor/Src/unitreeA1_recv.c **** 
 127:Lib/Motor/Src/unitreeA1_recv.c ****             // get receive data length, length = set_data_length - remain_length
 128:Lib/Motor/Src/unitreeA1_recv.c ****             // 获取接收数据长度,长度 = 设定长度 - 剩余长度
 129:Lib/Motor/Src/unitreeA1_recv.c ****             this_time_rx_len = SBUS_RX_BUF_NUM - hdma_usart2_rx.Instance->NDTR;
 130:Lib/Motor/Src/unitreeA1_recv.c **** 
 131:Lib/Motor/Src/unitreeA1_recv.c ****             // reset set_data_lenght
 132:Lib/Motor/Src/unitreeA1_recv.c ****             // 重新设定数据长度
 133:Lib/Motor/Src/unitreeA1_recv.c ****             hdma_usart2_rx.Instance->NDTR = SBUS_RX_BUF_NUM;
 134:Lib/Motor/Src/unitreeA1_recv.c **** 
 135:Lib/Motor/Src/unitreeA1_recv.c ****             // set memory buffer 1
 136:Lib/Motor/Src/unitreeA1_recv.c ****             // 设定缓冲区1
 137:Lib/Motor/Src/unitreeA1_recv.c ****             hdma_usart2_rx.Instance->CR |= DMA_SxCR_CT;
 138:Lib/Motor/Src/unitreeA1_recv.c **** 
 139:Lib/Motor/Src/unitreeA1_recv.c ****             // enable DMA
 140:Lib/Motor/Src/unitreeA1_recv.c ****             // 使能DMA
 141:Lib/Motor/Src/unitreeA1_recv.c ****             __HAL_DMA_ENABLE(&hdma_usart2_rx);
 142:Lib/Motor/Src/unitreeA1_recv.c **** 
 143:Lib/Motor/Src/unitreeA1_recv.c ****             if (this_time_rx_len == RC_FRAME_LENGTH)
 144:Lib/Motor/Src/unitreeA1_recv.c ****             {
ARM GAS  /tmp/ccMwSyRb.s 			page 4


 145:Lib/Motor/Src/unitreeA1_recv.c ****                 sbus_to_rc(sbus_rx_buf_LB[0], &leg[LB].a1_buf);
 146:Lib/Motor/Src/unitreeA1_recv.c ****                 unitreeA1_rx(1);
 147:Lib/Motor/Src/unitreeA1_recv.c ****                 send_A1msgToEcat(1);
 148:Lib/Motor/Src/unitreeA1_recv.c ****             }
 149:Lib/Motor/Src/unitreeA1_recv.c ****         }
 150:Lib/Motor/Src/unitreeA1_recv.c ****         else
 151:Lib/Motor/Src/unitreeA1_recv.c ****         {
 152:Lib/Motor/Src/unitreeA1_recv.c ****             /* Current memory buffer used is Memory 1 */
 153:Lib/Motor/Src/unitreeA1_recv.c ****             // disable DMA
 154:Lib/Motor/Src/unitreeA1_recv.c ****             // 失效DMA
 155:Lib/Motor/Src/unitreeA1_recv.c ****             __HAL_DMA_DISABLE(&hdma_usart6_rx);
 156:Lib/Motor/Src/unitreeA1_recv.c **** 
 157:Lib/Motor/Src/unitreeA1_recv.c ****             // get receive data length, length = set_data_length - remain_length
 158:Lib/Motor/Src/unitreeA1_recv.c ****             // 获取接收数据长度,长度 = 设定长度 - 剩余长度
 159:Lib/Motor/Src/unitreeA1_recv.c ****             this_time_rx_len = SBUS_RX_BUF_NUM - hdma_usart6_rx.Instance->NDTR;
 160:Lib/Motor/Src/unitreeA1_recv.c **** 
 161:Lib/Motor/Src/unitreeA1_recv.c ****             // reset set_data_lenght
 162:Lib/Motor/Src/unitreeA1_recv.c ****             // 重新设定数据长度
 163:Lib/Motor/Src/unitreeA1_recv.c ****             hdma_usart6_rx.Instance->NDTR = SBUS_RX_BUF_NUM;
 164:Lib/Motor/Src/unitreeA1_recv.c **** 
 165:Lib/Motor/Src/unitreeA1_recv.c ****             // set memory buffer 0
 166:Lib/Motor/Src/unitreeA1_recv.c ****             // 设定缓冲区0
 167:Lib/Motor/Src/unitreeA1_recv.c ****             DMA2_Stream1->CR &= ~(DMA_SxCR_CT);
 168:Lib/Motor/Src/unitreeA1_recv.c **** 
 169:Lib/Motor/Src/unitreeA1_recv.c ****             // enable DMA
 170:Lib/Motor/Src/unitreeA1_recv.c ****             // 使能DMA
 171:Lib/Motor/Src/unitreeA1_recv.c ****             __HAL_DMA_ENABLE(&hdma_usart6_rx);
 172:Lib/Motor/Src/unitreeA1_recv.c **** 
 173:Lib/Motor/Src/unitreeA1_recv.c ****             if (this_time_rx_len == RC_FRAME_LENGTH)
 174:Lib/Motor/Src/unitreeA1_recv.c ****             {
 175:Lib/Motor/Src/unitreeA1_recv.c ****                 // 处理数据
 176:Lib/Motor/Src/unitreeA1_recv.c ****                 sbus_to_rc(sbus_rx_buf_LB[1], &leg[LB].a1_buf);
 177:Lib/Motor/Src/unitreeA1_recv.c ****                 unitreeA1_rx(1);
 178:Lib/Motor/Src/unitreeA1_recv.c ****                 send_A1msgToEcat(1);
 179:Lib/Motor/Src/unitreeA1_recv.c ****             }
 180:Lib/Motor/Src/unitreeA1_recv.c ****         }
 181:Lib/Motor/Src/unitreeA1_recv.c ****     }
 182:Lib/Motor/Src/unitreeA1_recv.c **** }
 183:Lib/Motor/Src/unitreeA1_recv.c **** 
 184:Lib/Motor/Src/unitreeA1_recv.c **** void USART3_IRQHandler(void)
 185:Lib/Motor/Src/unitreeA1_recv.c **** {
 186:Lib/Motor/Src/unitreeA1_recv.c ****   
 187:Lib/Motor/Src/unitreeA1_recv.c ****     if (huart3.Instance->SR & UART_FLAG_RXNE) // 接收到数据
 188:Lib/Motor/Src/unitreeA1_recv.c ****     {
 189:Lib/Motor/Src/unitreeA1_recv.c ****         __HAL_UART_CLEAR_PEFLAG(&huart3);
 190:Lib/Motor/Src/unitreeA1_recv.c ****     }
 191:Lib/Motor/Src/unitreeA1_recv.c ****     else if (USART3->SR & UART_FLAG_IDLE)
 192:Lib/Motor/Src/unitreeA1_recv.c ****     {
 193:Lib/Motor/Src/unitreeA1_recv.c ****         static uint16_t this_time_rx_len = 0;
 194:Lib/Motor/Src/unitreeA1_recv.c **** 
 195:Lib/Motor/Src/unitreeA1_recv.c ****         __HAL_UART_CLEAR_PEFLAG(&huart3);
 196:Lib/Motor/Src/unitreeA1_recv.c **** 
 197:Lib/Motor/Src/unitreeA1_recv.c ****         if ((hdma_usart3_rx.Instance->CR & DMA_SxCR_CT) == RESET)
 198:Lib/Motor/Src/unitreeA1_recv.c ****         {
 199:Lib/Motor/Src/unitreeA1_recv.c ****             /* Current memory buffer used is Memory 0 */
 200:Lib/Motor/Src/unitreeA1_recv.c **** 
 201:Lib/Motor/Src/unitreeA1_recv.c ****             // disable DMA
ARM GAS  /tmp/ccMwSyRb.s 			page 5


 202:Lib/Motor/Src/unitreeA1_recv.c ****             // 失效DMA
 203:Lib/Motor/Src/unitreeA1_recv.c ****             __HAL_DMA_DISABLE(&hdma_usart3_rx);
 204:Lib/Motor/Src/unitreeA1_recv.c **** 
 205:Lib/Motor/Src/unitreeA1_recv.c ****             // get receive data length, length = set_data_length - remain_length
 206:Lib/Motor/Src/unitreeA1_recv.c ****             // 获取接收数据长度,长度 = 设定长度 - 剩余长度
 207:Lib/Motor/Src/unitreeA1_recv.c ****             this_time_rx_len = SBUS_RX_BUF_NUM - hdma_usart3_rx.Instance->NDTR;
 208:Lib/Motor/Src/unitreeA1_recv.c **** 
 209:Lib/Motor/Src/unitreeA1_recv.c ****             // reset set_data_lenght
 210:Lib/Motor/Src/unitreeA1_recv.c ****             // 重新设定数据长度
 211:Lib/Motor/Src/unitreeA1_recv.c ****             hdma_usart3_rx.Instance->NDTR = SBUS_RX_BUF_NUM;
 212:Lib/Motor/Src/unitreeA1_recv.c **** 
 213:Lib/Motor/Src/unitreeA1_recv.c ****             // set memory buffer 1
 214:Lib/Motor/Src/unitreeA1_recv.c ****             // 设定缓冲区1
 215:Lib/Motor/Src/unitreeA1_recv.c ****             hdma_usart3_rx.Instance->CR |= DMA_SxCR_CT;
 216:Lib/Motor/Src/unitreeA1_recv.c **** 
 217:Lib/Motor/Src/unitreeA1_recv.c ****             // enable DMA
 218:Lib/Motor/Src/unitreeA1_recv.c ****             // 使能DMA
 219:Lib/Motor/Src/unitreeA1_recv.c ****             __HAL_DMA_ENABLE(&hdma_usart3_rx);
 220:Lib/Motor/Src/unitreeA1_recv.c **** 
 221:Lib/Motor/Src/unitreeA1_recv.c ****             if (this_time_rx_len == RC_FRAME_LENGTH)
 222:Lib/Motor/Src/unitreeA1_recv.c ****             {
 223:Lib/Motor/Src/unitreeA1_recv.c ****                 sbus_to_rc(sbus_rx_buf_RB[0], &leg[RB].a1_buf);
 224:Lib/Motor/Src/unitreeA1_recv.c ****                 unitreeA1_rx(3);
 225:Lib/Motor/Src/unitreeA1_recv.c ****                 send_A1msgToEcat(3);
 226:Lib/Motor/Src/unitreeA1_recv.c ****             }
 227:Lib/Motor/Src/unitreeA1_recv.c ****         }
 228:Lib/Motor/Src/unitreeA1_recv.c ****         else
 229:Lib/Motor/Src/unitreeA1_recv.c ****         {
 230:Lib/Motor/Src/unitreeA1_recv.c ****             /* Current memory buffer used is Memory 1 */
 231:Lib/Motor/Src/unitreeA1_recv.c ****             // disable DMA
 232:Lib/Motor/Src/unitreeA1_recv.c ****             // 失效DMA
 233:Lib/Motor/Src/unitreeA1_recv.c ****             __HAL_DMA_DISABLE(&hdma_usart6_rx);
 234:Lib/Motor/Src/unitreeA1_recv.c **** 
 235:Lib/Motor/Src/unitreeA1_recv.c ****             // get receive data length, length = set_data_length - remain_length
 236:Lib/Motor/Src/unitreeA1_recv.c ****             // 获取接收数据长度,长度 = 设定长度 - 剩余长度
 237:Lib/Motor/Src/unitreeA1_recv.c ****             this_time_rx_len = SBUS_RX_BUF_NUM - hdma_usart6_rx.Instance->NDTR;
 238:Lib/Motor/Src/unitreeA1_recv.c **** 
 239:Lib/Motor/Src/unitreeA1_recv.c ****             // reset set_data_lenght
 240:Lib/Motor/Src/unitreeA1_recv.c ****             // 重新设定数据长度
 241:Lib/Motor/Src/unitreeA1_recv.c ****             hdma_usart6_rx.Instance->NDTR = SBUS_RX_BUF_NUM;
 242:Lib/Motor/Src/unitreeA1_recv.c **** 
 243:Lib/Motor/Src/unitreeA1_recv.c ****             // set memory buffer 0
 244:Lib/Motor/Src/unitreeA1_recv.c ****             // 设定缓冲区0
 245:Lib/Motor/Src/unitreeA1_recv.c ****             DMA2_Stream1->CR &= ~(DMA_SxCR_CT);
 246:Lib/Motor/Src/unitreeA1_recv.c **** 
 247:Lib/Motor/Src/unitreeA1_recv.c ****             // enable DMA
 248:Lib/Motor/Src/unitreeA1_recv.c ****             // 使能DMA
 249:Lib/Motor/Src/unitreeA1_recv.c ****             __HAL_DMA_ENABLE(&hdma_usart6_rx);
 250:Lib/Motor/Src/unitreeA1_recv.c **** 
 251:Lib/Motor/Src/unitreeA1_recv.c ****             if (this_time_rx_len == RC_FRAME_LENGTH)
 252:Lib/Motor/Src/unitreeA1_recv.c ****             {
 253:Lib/Motor/Src/unitreeA1_recv.c ****                 // 处理数据
 254:Lib/Motor/Src/unitreeA1_recv.c ****                 sbus_to_rc(sbus_rx_buf_RB[1], &leg[RB].a1_buf);
 255:Lib/Motor/Src/unitreeA1_recv.c ****                 unitreeA1_rx(3);
 256:Lib/Motor/Src/unitreeA1_recv.c ****                 send_A1msgToEcat(3);
 257:Lib/Motor/Src/unitreeA1_recv.c ****             }
 258:Lib/Motor/Src/unitreeA1_recv.c ****         }
ARM GAS  /tmp/ccMwSyRb.s 			page 6


 259:Lib/Motor/Src/unitreeA1_recv.c ****     }
 260:Lib/Motor/Src/unitreeA1_recv.c **** }
 261:Lib/Motor/Src/unitreeA1_recv.c **** 
 262:Lib/Motor/Src/unitreeA1_recv.c **** void USART6_IRQHandler(void)
 263:Lib/Motor/Src/unitreeA1_recv.c **** {
 264:Lib/Motor/Src/unitreeA1_recv.c ****    
 265:Lib/Motor/Src/unitreeA1_recv.c ****     if (huart6.Instance->SR & UART_FLAG_RXNE) // 接收到数据
 266:Lib/Motor/Src/unitreeA1_recv.c ****     {
 267:Lib/Motor/Src/unitreeA1_recv.c ****         __HAL_UART_CLEAR_PEFLAG(&huart6);
 268:Lib/Motor/Src/unitreeA1_recv.c ****     }
 269:Lib/Motor/Src/unitreeA1_recv.c ****     else if (USART6->SR & UART_FLAG_IDLE)
 270:Lib/Motor/Src/unitreeA1_recv.c ****     {
 271:Lib/Motor/Src/unitreeA1_recv.c ****         static uint16_t this_time_rx_len = 0;
 272:Lib/Motor/Src/unitreeA1_recv.c **** 
 273:Lib/Motor/Src/unitreeA1_recv.c ****         __HAL_UART_CLEAR_PEFLAG(&huart6);
 274:Lib/Motor/Src/unitreeA1_recv.c **** 
 275:Lib/Motor/Src/unitreeA1_recv.c ****         if ((hdma_usart6_rx.Instance->CR & DMA_SxCR_CT) == RESET)
 276:Lib/Motor/Src/unitreeA1_recv.c ****         {
 277:Lib/Motor/Src/unitreeA1_recv.c ****             /* Current memory buffer used is Memory 0 */
 278:Lib/Motor/Src/unitreeA1_recv.c **** 
 279:Lib/Motor/Src/unitreeA1_recv.c ****             // disable DMA
 280:Lib/Motor/Src/unitreeA1_recv.c ****             // 失效DMA
 281:Lib/Motor/Src/unitreeA1_recv.c ****             __HAL_DMA_DISABLE(&hdma_usart6_rx);
 282:Lib/Motor/Src/unitreeA1_recv.c **** 
 283:Lib/Motor/Src/unitreeA1_recv.c ****             // get receive data length, length = set_data_length - remain_length
 284:Lib/Motor/Src/unitreeA1_recv.c ****             // 获取接收数据长度,长度 = 设定长度 - 剩余长度
 285:Lib/Motor/Src/unitreeA1_recv.c ****             this_time_rx_len = SBUS_RX_BUF_NUM - hdma_usart6_rx.Instance->NDTR;
 286:Lib/Motor/Src/unitreeA1_recv.c **** 
 287:Lib/Motor/Src/unitreeA1_recv.c ****             // reset set_data_lenght
 288:Lib/Motor/Src/unitreeA1_recv.c ****             // 重新设定数据长度
 289:Lib/Motor/Src/unitreeA1_recv.c ****             hdma_usart6_rx.Instance->NDTR = SBUS_RX_BUF_NUM;
 290:Lib/Motor/Src/unitreeA1_recv.c **** 
 291:Lib/Motor/Src/unitreeA1_recv.c ****             // set memory buffer 1
 292:Lib/Motor/Src/unitreeA1_recv.c ****             // 设定缓冲区1
 293:Lib/Motor/Src/unitreeA1_recv.c ****             hdma_usart6_rx.Instance->CR |= DMA_SxCR_CT;
 294:Lib/Motor/Src/unitreeA1_recv.c **** 
 295:Lib/Motor/Src/unitreeA1_recv.c ****             // enable DMA
 296:Lib/Motor/Src/unitreeA1_recv.c ****             // 使能DMA
 297:Lib/Motor/Src/unitreeA1_recv.c ****             __HAL_DMA_ENABLE(&hdma_usart6_rx);
 298:Lib/Motor/Src/unitreeA1_recv.c **** 
 299:Lib/Motor/Src/unitreeA1_recv.c ****             if (this_time_rx_len == RC_FRAME_LENGTH)
 300:Lib/Motor/Src/unitreeA1_recv.c ****             {
 301:Lib/Motor/Src/unitreeA1_recv.c ****                 sbus_to_rc(sbus_rx_buf_RF[0], &leg[RF].a1_buf);
 302:Lib/Motor/Src/unitreeA1_recv.c ****                 unitreeA1_rx(2);
 303:Lib/Motor/Src/unitreeA1_recv.c ****                 send_A1msgToEcat(2);
 304:Lib/Motor/Src/unitreeA1_recv.c ****             }
 305:Lib/Motor/Src/unitreeA1_recv.c ****         }
 306:Lib/Motor/Src/unitreeA1_recv.c ****         else
 307:Lib/Motor/Src/unitreeA1_recv.c ****         {
 308:Lib/Motor/Src/unitreeA1_recv.c ****             /* Current memory buffer used is Memory 1 */
 309:Lib/Motor/Src/unitreeA1_recv.c ****             // disable DMA
 310:Lib/Motor/Src/unitreeA1_recv.c ****             // 失效DMA
 311:Lib/Motor/Src/unitreeA1_recv.c ****             __HAL_DMA_DISABLE(&hdma_usart6_rx);
 312:Lib/Motor/Src/unitreeA1_recv.c **** 
 313:Lib/Motor/Src/unitreeA1_recv.c ****             // get receive data length, length = set_data_length - remain_length
 314:Lib/Motor/Src/unitreeA1_recv.c ****             // 获取接收数据长度,长度 = 设定长度 - 剩余长度
 315:Lib/Motor/Src/unitreeA1_recv.c ****             this_time_rx_len = SBUS_RX_BUF_NUM - hdma_usart6_rx.Instance->NDTR;
ARM GAS  /tmp/ccMwSyRb.s 			page 7


 316:Lib/Motor/Src/unitreeA1_recv.c **** 
 317:Lib/Motor/Src/unitreeA1_recv.c ****             // reset set_data_lenght
 318:Lib/Motor/Src/unitreeA1_recv.c ****             // 重新设定数据长度
 319:Lib/Motor/Src/unitreeA1_recv.c ****             hdma_usart6_rx.Instance->NDTR = SBUS_RX_BUF_NUM;
 320:Lib/Motor/Src/unitreeA1_recv.c **** 
 321:Lib/Motor/Src/unitreeA1_recv.c ****             // set memory buffer 0
 322:Lib/Motor/Src/unitreeA1_recv.c ****             // 设定缓冲区0
 323:Lib/Motor/Src/unitreeA1_recv.c ****             DMA2_Stream1->CR &= ~(DMA_SxCR_CT);
 324:Lib/Motor/Src/unitreeA1_recv.c **** 
 325:Lib/Motor/Src/unitreeA1_recv.c ****             // enable DMA
 326:Lib/Motor/Src/unitreeA1_recv.c ****             // 使能DMA
 327:Lib/Motor/Src/unitreeA1_recv.c ****             __HAL_DMA_ENABLE(&hdma_usart6_rx);
 328:Lib/Motor/Src/unitreeA1_recv.c **** 
 329:Lib/Motor/Src/unitreeA1_recv.c ****             if (this_time_rx_len == RC_FRAME_LENGTH)
 330:Lib/Motor/Src/unitreeA1_recv.c ****             {
 331:Lib/Motor/Src/unitreeA1_recv.c ****                 // 处理数据
 332:Lib/Motor/Src/unitreeA1_recv.c ****                 sbus_to_rc(sbus_rx_buf_RF[1], &leg[RF].a1_buf);
 333:Lib/Motor/Src/unitreeA1_recv.c ****                 unitreeA1_rx(2);
 334:Lib/Motor/Src/unitreeA1_recv.c ****                 send_A1msgToEcat(2);
 335:Lib/Motor/Src/unitreeA1_recv.c ****             }
 336:Lib/Motor/Src/unitreeA1_recv.c ****         }
 337:Lib/Motor/Src/unitreeA1_recv.c ****     }
 338:Lib/Motor/Src/unitreeA1_recv.c **** }
 339:Lib/Motor/Src/unitreeA1_recv.c **** 
 340:Lib/Motor/Src/unitreeA1_recv.c **** void unitreeA1_rx(int leg_id)
 341:Lib/Motor/Src/unitreeA1_recv.c **** {
 342:Lib/Motor/Src/unitreeA1_recv.c ****     data_leg[leg_id].motor_recv_data.head.motorID = leg[leg_id].a1_buf.motorID;
 343:Lib/Motor/Src/unitreeA1_recv.c ****     data_leg[leg_id].motor_recv_data.Mdata.MError = leg[leg_id].a1_buf.MError;
 344:Lib/Motor/Src/unitreeA1_recv.c ****     data_leg[leg_id].motor_recv_data.Mdata.T = leg[leg_id].a1_buf.T;
 345:Lib/Motor/Src/unitreeA1_recv.c ****     data_leg[leg_id].motor_recv_data.Mdata.W = leg[leg_id].a1_buf.W;
 346:Lib/Motor/Src/unitreeA1_recv.c ****     data_leg[leg_id].motor_recv_data.Mdata.Acc = leg[leg_id].a1_buf.Acc;
 347:Lib/Motor/Src/unitreeA1_recv.c ****     data_leg[leg_id].motor_recv_data.Mdata.Pos = leg[leg_id].a1_buf.Pos;
 348:Lib/Motor/Src/unitreeA1_recv.c **** 
 349:Lib/Motor/Src/unitreeA1_recv.c ****     A1date[leg_id][data_leg[leg_id].motor_recv_data.head.motorID].start[0] = 0xff; 
 350:Lib/Motor/Src/unitreeA1_recv.c ****     A1date[leg_id][data_leg[leg_id].motor_recv_data.head.motorID].start[1] = 0xfe;
 351:Lib/Motor/Src/unitreeA1_recv.c ****     A1date[leg_id][data_leg[leg_id].motor_recv_data.head.motorID].LegID = leg_id;
 352:Lib/Motor/Src/unitreeA1_recv.c ****     A1date[leg_id][data_leg[leg_id].motor_recv_data.head.motorID].MotorID = data_leg[leg_id].motor_
 353:Lib/Motor/Src/unitreeA1_recv.c ****     A1date[leg_id][data_leg[leg_id].motor_recv_data.head.motorID].T = data_leg[leg_id].motor_recv_d
 354:Lib/Motor/Src/unitreeA1_recv.c ****     A1date[leg_id][data_leg[leg_id].motor_recv_data.head.motorID].W = data_leg[leg_id].motor_recv_d
 355:Lib/Motor/Src/unitreeA1_recv.c ****     A1date[leg_id][data_leg[leg_id].motor_recv_data.head.motorID].Acc = data_leg[leg_id].motor_recv
 356:Lib/Motor/Src/unitreeA1_recv.c ****     A1date[leg_id][data_leg[leg_id].motor_recv_data.head.motorID].Pos = data_leg[leg_id].motor_recv
 357:Lib/Motor/Src/unitreeA1_recv.c ****     A1date[leg_id][data_leg[leg_id].motor_recv_data.head.motorID].SumCheck = 0xff + 0xfe + leg_id +
 358:Lib/Motor/Src/unitreeA1_recv.c **** 
 359:Lib/Motor/Src/unitreeA1_recv.c **** 
 360:Lib/Motor/Src/unitreeA1_recv.c **** /*
 361:Lib/Motor/Src/unitreeA1_recv.c ****     data_leg[leg_id].motor_id = data_leg[leg_id].motor_recv_data.head.motorID;
 362:Lib/Motor/Src/unitreeA1_recv.c ****     data_leg[leg_id].MError = data_leg[leg_id].motor_recv_data.Mdata.MError;
 363:Lib/Motor/Src/unitreeA1_recv.c ****     data_leg[leg_id].T = data_leg[leg_id].motor_recv_data.Mdata.T;
 364:Lib/Motor/Src/unitreeA1_recv.c ****     data_leg[leg_id].W = data_leg[leg_id].motor_recv_data.Mdata.W;
 365:Lib/Motor/Src/unitreeA1_recv.c ****     data_leg[leg_id].Acc = data_leg[leg_id].motor_recv_data.Mdata.Acc;
 366:Lib/Motor/Src/unitreeA1_recv.c ****     data_leg[leg_id].Pos = data_leg[leg_id].motor_recv_data.Mdata.Pos;
 367:Lib/Motor/Src/unitreeA1_recv.c **** 
 368:Lib/Motor/Src/unitreeA1_recv.c ****     data_leg[leg_id].motor_id = data_leg[leg_id].motor_recv_data.head.motorID;
 369:Lib/Motor/Src/unitreeA1_recv.c ****     data_leg[leg_id].MError = data_leg[leg_id].motor_recv_data.Mdata.MError;
 370:Lib/Motor/Src/unitreeA1_recv.c ****     data_leg[leg_id].T = (float)((int32_t)data_leg[leg_id].motor_recv_data.Mdata.T / 256.0f);
 371:Lib/Motor/Src/unitreeA1_recv.c ****     data_leg[leg_id].W = (float)((int32_t)data_leg[leg_id].motor_recv_data.Mdata.W / 128.0f);
 372:Lib/Motor/Src/unitreeA1_recv.c ****     data_leg[leg_id].Acc = (float)data_leg[leg_id].motor_recv_data.Mdata.Acc;
ARM GAS  /tmp/ccMwSyRb.s 			page 8


 373:Lib/Motor/Src/unitreeA1_recv.c ****     data_leg[leg_id].Pos = (float)((data_leg[leg_id].motor_recv_data.Mdata.Pos / 16384.0f) * 6.2832
 374:Lib/Motor/Src/unitreeA1_recv.c **** 
 375:Lib/Motor/Src/unitreeA1_recv.c ****     data_motor[leg_id][data_leg[leg_id].motor_id].motor_id = data_leg[leg_id].motor_id;
 376:Lib/Motor/Src/unitreeA1_recv.c ****     data_motor[leg_id][data_leg[leg_id].motor_id].MError = data_leg[leg_id].MError;
 377:Lib/Motor/Src/unitreeA1_recv.c ****     data_motor[leg_id][data_leg[leg_id].motor_id].T = data_leg[leg_id].T;
 378:Lib/Motor/Src/unitreeA1_recv.c ****     data_motor[leg_id][data_leg[leg_id].motor_id].W = data_leg[leg_id].W;
 379:Lib/Motor/Src/unitreeA1_recv.c ****     data_motor[leg_id][data_leg[leg_id].motor_id].Acc = data_leg[leg_id].Acc;
 380:Lib/Motor/Src/unitreeA1_recv.c ****     data_motor[leg_id][data_leg[leg_id].motor_id].Pos = data_leg[leg_id].Pos;
 381:Lib/Motor/Src/unitreeA1_recv.c **** */
 382:Lib/Motor/Src/unitreeA1_recv.c **** }
 383:Lib/Motor/Src/unitreeA1_recv.c **** 
 384:Lib/Motor/Src/unitreeA1_recv.c **** // dma接收赋值函数
 385:Lib/Motor/Src/unitreeA1_recv.c **** static void sbus_to_rc(volatile const uint8_t *sbus_buf, A1_buf *a1_buf)
 386:Lib/Motor/Src/unitreeA1_recv.c **** {
  29              		.loc 1 386 1 view -0
  30              		.cfi_startproc
  31              		@ args = 0, pretend = 0, frame = 0
  32              		@ frame_needed = 0, uses_anonymous_args = 0
  33              		@ link register save eliminated.
 387:Lib/Motor/Src/unitreeA1_recv.c ****     if (sbus_buf == NULL || a1_buf == NULL)
  34              		.loc 1 387 5 view .LVU1
  35              		.loc 1 387 8 is_stmt 0 view .LVU2
  36 0000 0346     		mov	r3, r0
  37 0002 00B3     		cbz	r0, .L1
  38              		.loc 1 387 26 discriminator 1 view .LVU3
  39 0004 F9B1     		cbz	r1, .L1
 388:Lib/Motor/Src/unitreeA1_recv.c ****     {
 389:Lib/Motor/Src/unitreeA1_recv.c ****         return;
 390:Lib/Motor/Src/unitreeA1_recv.c ****     }
 391:Lib/Motor/Src/unitreeA1_recv.c **** 
 392:Lib/Motor/Src/unitreeA1_recv.c ****     a1_buf->motorID = sbus_buf[2];
  40              		.loc 1 392 5 is_stmt 1 view .LVU4
  41              		.loc 1 392 21 is_stmt 0 view .LVU5
  42 0006 8278     		ldrb	r2, [r0, #2]	@ zero_extendqisi2
  43 0008 0A70     		strb	r2, [r1]
 393:Lib/Motor/Src/unitreeA1_recv.c ****     a1_buf->MError = sbus_buf[7];
  44              		.loc 1 393 5 is_stmt 1 view .LVU6
  45              		.loc 1 393 20 is_stmt 0 view .LVU7
  46 000a C279     		ldrb	r2, [r0, #7]	@ zero_extendqisi2
  47 000c 4A70     		strb	r2, [r1, #1]
 394:Lib/Motor/Src/unitreeA1_recv.c ****     a1_buf->T = sbus_buf[13] << 8 | sbus_buf[12];
  48              		.loc 1 394 5 is_stmt 1 view .LVU8
  49              		.loc 1 394 25 is_stmt 0 view .LVU9
  50 000e 407B     		ldrb	r0, [r0, #13]	@ zero_extendqisi2
  51              	.LVL1:
  52              		.loc 1 394 45 view .LVU10
  53 0010 1A7B     		ldrb	r2, [r3, #12]	@ zero_extendqisi2
  54              		.loc 1 394 35 view .LVU11
  55 0012 42EA0022 		orr	r2, r2, r0, lsl #8
  56              		.loc 1 394 15 view .LVU12
  57 0016 4A80     		strh	r2, [r1, #2]	@ movhi
 395:Lib/Motor/Src/unitreeA1_recv.c ****     a1_buf->W = sbus_buf[15] << 8 | sbus_buf[14];
  58              		.loc 1 395 5 is_stmt 1 view .LVU13
  59              		.loc 1 395 25 is_stmt 0 view .LVU14
  60 0018 D87B     		ldrb	r0, [r3, #15]	@ zero_extendqisi2
  61              		.loc 1 395 45 view .LVU15
  62 001a 9A7B     		ldrb	r2, [r3, #14]	@ zero_extendqisi2
ARM GAS  /tmp/ccMwSyRb.s 			page 9


  63              		.loc 1 395 35 view .LVU16
  64 001c 42EA0022 		orr	r2, r2, r0, lsl #8
  65              		.loc 1 395 15 view .LVU17
  66 0020 8A80     		strh	r2, [r1, #4]	@ movhi
 396:Lib/Motor/Src/unitreeA1_recv.c ****     a1_buf->Acc = sbus_buf[28] << 8 | sbus_buf[27];
  67              		.loc 1 396 5 is_stmt 1 view .LVU18
  68              		.loc 1 396 27 is_stmt 0 view .LVU19
  69 0022 187F     		ldrb	r0, [r3, #28]	@ zero_extendqisi2
  70              		.loc 1 396 47 view .LVU20
  71 0024 DA7E     		ldrb	r2, [r3, #27]	@ zero_extendqisi2
  72              		.loc 1 396 37 view .LVU21
  73 0026 42EA0022 		orr	r2, r2, r0, lsl #8
  74              		.loc 1 396 17 view .LVU22
  75 002a CA80     		strh	r2, [r1, #6]	@ movhi
 397:Lib/Motor/Src/unitreeA1_recv.c ****     a1_buf->Pos = sbus_buf[33] << 24 | sbus_buf[32] << 16 | sbus_buf[31] << 8 | sbus_buf[30];
  76              		.loc 1 397 5 is_stmt 1 view .LVU23
  77              		.loc 1 397 27 is_stmt 0 view .LVU24
  78 002c 93F82100 		ldrb	r0, [r3, #33]	@ zero_extendqisi2
  79              		.loc 1 397 48 view .LVU25
  80 0030 93F82020 		ldrb	r2, [r3, #32]	@ zero_extendqisi2
  81              		.loc 1 397 53 view .LVU26
  82 0034 1204     		lsls	r2, r2, #16
  83              		.loc 1 397 38 view .LVU27
  84 0036 42EA0062 		orr	r2, r2, r0, lsl #24
  85              		.loc 1 397 69 view .LVU28
  86 003a D87F     		ldrb	r0, [r3, #31]	@ zero_extendqisi2
  87              		.loc 1 397 59 view .LVU29
  88 003c 42EA0022 		orr	r2, r2, r0, lsl #8
  89              		.loc 1 397 89 view .LVU30
  90 0040 9B7F     		ldrb	r3, [r3, #30]	@ zero_extendqisi2
  91              	.LVL2:
  92              		.loc 1 397 79 view .LVU31
  93 0042 1A43     		orrs	r2, r2, r3
  94              		.loc 1 397 17 view .LVU32
  95 0044 8A60     		str	r2, [r1, #8]
  96              	.L1:
 398:Lib/Motor/Src/unitreeA1_recv.c **** }
  97              		.loc 1 398 1 view .LVU33
  98 0046 7047     		bx	lr
  99              		.cfi_endproc
 100              	.LFE140:
 102              		.section	.text.remote_control_init,"ax",%progbits
 103              		.align	1
 104              		.global	remote_control_init
 105              		.syntax unified
 106              		.thumb
 107              		.thumb_func
 109              	remote_control_init:
 110              	.LFB134:
  21:Lib/Motor/Src/unitreeA1_recv.c ****     RC1_init(sbus_rx_buf_LF[0], sbus_rx_buf_LF[1], SBUS_RX_BUF_NUM);
 111              		.loc 1 21 1 is_stmt 1 view -0
 112              		.cfi_startproc
 113              		@ args = 0, pretend = 0, frame = 0
 114              		@ frame_needed = 0, uses_anonymous_args = 0
 115 0000 08B5     		push	{r3, lr}
 116              		.cfi_def_cfa_offset 8
 117              		.cfi_offset 3, -8
ARM GAS  /tmp/ccMwSyRb.s 			page 10


 118              		.cfi_offset 14, -4
  22:Lib/Motor/Src/unitreeA1_recv.c ****     RC2_init(sbus_rx_buf_LB[0], sbus_rx_buf_LB[1], SBUS_RX_BUF_NUM);
 119              		.loc 1 22 5 view .LVU35
 120 0002 0A48     		ldr	r0, .L5
 121 0004 8022     		movs	r2, #128
 122 0006 8118     		adds	r1, r0, r2
 123 0008 FFF7FEFF 		bl	RC1_init
 124              	.LVL3:
  23:Lib/Motor/Src/unitreeA1_recv.c ****     RC3_init(sbus_rx_buf_RB[0], sbus_rx_buf_RB[1], SBUS_RX_BUF_NUM);
 125              		.loc 1 23 5 view .LVU36
 126 000c 0848     		ldr	r0, .L5+4
 127 000e 8022     		movs	r2, #128
 128 0010 8118     		adds	r1, r0, r2
 129 0012 FFF7FEFF 		bl	RC2_init
 130              	.LVL4:
  24:Lib/Motor/Src/unitreeA1_recv.c ****     RC6_init(sbus_rx_buf_RF[0], sbus_rx_buf_RF[1], SBUS_RX_BUF_NUM);
 131              		.loc 1 24 5 view .LVU37
 132 0016 0748     		ldr	r0, .L5+8
 133 0018 8022     		movs	r2, #128
 134 001a 8118     		adds	r1, r0, r2
 135 001c FFF7FEFF 		bl	RC3_init
 136              	.LVL5:
  25:Lib/Motor/Src/unitreeA1_recv.c **** }
 137              		.loc 1 25 5 view .LVU38
 138 0020 0548     		ldr	r0, .L5+12
 139 0022 8022     		movs	r2, #128
 140 0024 8118     		adds	r1, r0, r2
 141 0026 FFF7FEFF 		bl	RC6_init
 142              	.LVL6:
  26:Lib/Motor/Src/unitreeA1_recv.c **** 
 143              		.loc 1 26 1 is_stmt 0 view .LVU39
 144 002a 08BD     		pop	{r3, pc}
 145              	.L6:
 146              		.align	2
 147              	.L5:
 148 002c 00000000 		.word	.LANCHOR0
 149 0030 00000000 		.word	.LANCHOR1
 150 0034 00000000 		.word	.LANCHOR2
 151 0038 00000000 		.word	.LANCHOR3
 152              		.cfi_endproc
 153              	.LFE134:
 155              		.section	.text.unitreeA1_rx,"ax",%progbits
 156              		.align	1
 157              		.global	unitreeA1_rx
 158              		.syntax unified
 159              		.thumb
 160              		.thumb_func
 162              	unitreeA1_rx:
 163              	.LVL7:
 164              	.LFB139:
 341:Lib/Motor/Src/unitreeA1_recv.c ****     data_leg[leg_id].motor_recv_data.head.motorID = leg[leg_id].a1_buf.motorID;
 165              		.loc 1 341 1 is_stmt 1 view -0
 166              		.cfi_startproc
 167              		@ args = 0, pretend = 0, frame = 0
 168              		@ frame_needed = 0, uses_anonymous_args = 0
 341:Lib/Motor/Src/unitreeA1_recv.c ****     data_leg[leg_id].motor_recv_data.head.motorID = leg[leg_id].a1_buf.motorID;
 169              		.loc 1 341 1 is_stmt 0 view .LVU41
ARM GAS  /tmp/ccMwSyRb.s 			page 11


 170 0000 F0B5     		push	{r4, r5, r6, r7, lr}
 171              		.cfi_def_cfa_offset 20
 172              		.cfi_offset 4, -20
 173              		.cfi_offset 5, -16
 174              		.cfi_offset 6, -12
 175              		.cfi_offset 7, -8
 176              		.cfi_offset 14, -4
 342:Lib/Motor/Src/unitreeA1_recv.c ****     data_leg[leg_id].motor_recv_data.Mdata.MError = leg[leg_id].a1_buf.MError;
 177              		.loc 1 342 5 is_stmt 1 view .LVU42
 342:Lib/Motor/Src/unitreeA1_recv.c ****     data_leg[leg_id].motor_recv_data.Mdata.MError = leg[leg_id].a1_buf.MError;
 178              		.loc 1 342 71 is_stmt 0 view .LVU43
 179 0002 1F4B     		ldr	r3, .L9
 180 0004 4FF4D27C 		mov	ip, #420
 181 0008 0CFB003C 		mla	ip, ip, r0, r3
 182 000c 9CF89831 		ldrb	r3, [ip, #408]	@ zero_extendqisi2
 342:Lib/Motor/Src/unitreeA1_recv.c ****     data_leg[leg_id].motor_recv_data.Mdata.MError = leg[leg_id].a1_buf.MError;
 183              		.loc 1 342 51 view .LVU44
 184 0010 00EB0012 		add	r2, r0, r0, lsl #4
 185 0014 1B49     		ldr	r1, .L9+4
 186 0016 01EBC201 		add	r1, r1, r2, lsl #3
 187 001a 8B70     		strb	r3, [r1, #2]
 343:Lib/Motor/Src/unitreeA1_recv.c ****     data_leg[leg_id].motor_recv_data.Mdata.T = leg[leg_id].a1_buf.T;
 188              		.loc 1 343 5 is_stmt 1 view .LVU45
 343:Lib/Motor/Src/unitreeA1_recv.c ****     data_leg[leg_id].motor_recv_data.Mdata.T = leg[leg_id].a1_buf.T;
 189              		.loc 1 343 71 is_stmt 0 view .LVU46
 190 001c 9CF89921 		ldrb	r2, [ip, #409]	@ zero_extendqisi2
 343:Lib/Motor/Src/unitreeA1_recv.c ****     data_leg[leg_id].motor_recv_data.Mdata.T = leg[leg_id].a1_buf.T;
 191              		.loc 1 343 51 view .LVU47
 192 0020 CA71     		strb	r2, [r1, #7]
 344:Lib/Motor/Src/unitreeA1_recv.c ****     data_leg[leg_id].motor_recv_data.Mdata.W = leg[leg_id].a1_buf.W;
 193              		.loc 1 344 5 is_stmt 1 view .LVU48
 344:Lib/Motor/Src/unitreeA1_recv.c ****     data_leg[leg_id].motor_recv_data.Mdata.W = leg[leg_id].a1_buf.W;
 194              		.loc 1 344 66 is_stmt 0 view .LVU49
 195 0022 BCF99A71 		ldrsh	r7, [ip, #410]
 344:Lib/Motor/Src/unitreeA1_recv.c ****     data_leg[leg_id].motor_recv_data.Mdata.W = leg[leg_id].a1_buf.W;
 196              		.loc 1 344 46 view .LVU50
 197 0026 8F81     		strh	r7, [r1, #12]	@ unaligned
 345:Lib/Motor/Src/unitreeA1_recv.c ****     data_leg[leg_id].motor_recv_data.Mdata.Acc = leg[leg_id].a1_buf.Acc;
 198              		.loc 1 345 5 is_stmt 1 view .LVU51
 345:Lib/Motor/Src/unitreeA1_recv.c ****     data_leg[leg_id].motor_recv_data.Mdata.Acc = leg[leg_id].a1_buf.Acc;
 199              		.loc 1 345 66 is_stmt 0 view .LVU52
 200 0028 BCF99C61 		ldrsh	r6, [ip, #412]
 345:Lib/Motor/Src/unitreeA1_recv.c ****     data_leg[leg_id].motor_recv_data.Mdata.Acc = leg[leg_id].a1_buf.Acc;
 201              		.loc 1 345 46 view .LVU53
 202 002c CE81     		strh	r6, [r1, #14]	@ unaligned
 346:Lib/Motor/Src/unitreeA1_recv.c ****     data_leg[leg_id].motor_recv_data.Mdata.Pos = leg[leg_id].a1_buf.Pos;
 203              		.loc 1 346 5 is_stmt 1 view .LVU54
 346:Lib/Motor/Src/unitreeA1_recv.c ****     data_leg[leg_id].motor_recv_data.Mdata.Pos = leg[leg_id].a1_buf.Pos;
 204              		.loc 1 346 68 is_stmt 0 view .LVU55
 205 002e BCF99EE1 		ldrsh	lr, [ip, #414]
 346:Lib/Motor/Src/unitreeA1_recv.c ****     data_leg[leg_id].motor_recv_data.Mdata.Pos = leg[leg_id].a1_buf.Pos;
 206              		.loc 1 346 48 view .LVU56
 207 0032 A1F81AE0 		strh	lr, [r1, #26]	@ unaligned
 347:Lib/Motor/Src/unitreeA1_recv.c **** 
 208              		.loc 1 347 5 is_stmt 1 view .LVU57
 347:Lib/Motor/Src/unitreeA1_recv.c **** 
 209              		.loc 1 347 68 is_stmt 0 view .LVU58
ARM GAS  /tmp/ccMwSyRb.s 			page 12


 210 0036 DCF8A051 		ldr	r5, [ip, #416]
 347:Lib/Motor/Src/unitreeA1_recv.c **** 
 211              		.loc 1 347 48 view .LVU59
 212 003a C1F81E50 		str	r5, [r1, #30]	@ unaligned
 349:Lib/Motor/Src/unitreeA1_recv.c ****     A1date[leg_id][data_leg[leg_id].motor_recv_data.head.motorID].start[1] = 0xfe;
 213              		.loc 1 349 5 is_stmt 1 view .LVU60
 349:Lib/Motor/Src/unitreeA1_recv.c ****     A1date[leg_id][data_leg[leg_id].motor_recv_data.head.motorID].start[1] = 0xfe;
 214              		.loc 1 349 76 is_stmt 0 view .LVU61
 215 003e 124C     		ldr	r4, .L9+8
 216 0040 03EB8302 		add	r2, r3, r3, lsl #2
 217 0044 C0EB001C 		rsb	ip, r0, r0, lsl #4
 218 0048 4FEA8C0C 		lsl	ip, ip, #2
 219 004c 0CEB820C 		add	ip, ip, r2, lsl #2
 220 0050 04EB0C01 		add	r1, r4, ip
 221 0054 FF22     		movs	r2, #255
 222 0056 04F80C20 		strb	r2, [r4, ip]
 350:Lib/Motor/Src/unitreeA1_recv.c ****     A1date[leg_id][data_leg[leg_id].motor_recv_data.head.motorID].LegID = leg_id;
 223              		.loc 1 350 5 is_stmt 1 view .LVU62
 350:Lib/Motor/Src/unitreeA1_recv.c ****     A1date[leg_id][data_leg[leg_id].motor_recv_data.head.motorID].LegID = leg_id;
 224              		.loc 1 350 76 is_stmt 0 view .LVU63
 225 005a FE22     		movs	r2, #254
 226 005c 4A70     		strb	r2, [r1, #1]
 351:Lib/Motor/Src/unitreeA1_recv.c ****     A1date[leg_id][data_leg[leg_id].motor_recv_data.head.motorID].MotorID = data_leg[leg_id].motor_
 227              		.loc 1 351 5 is_stmt 1 view .LVU64
 351:Lib/Motor/Src/unitreeA1_recv.c ****     A1date[leg_id][data_leg[leg_id].motor_recv_data.head.motorID].MotorID = data_leg[leg_id].motor_
 228              		.loc 1 351 73 is_stmt 0 view .LVU65
 229 005e 8870     		strb	r0, [r1, #2]
 352:Lib/Motor/Src/unitreeA1_recv.c ****     A1date[leg_id][data_leg[leg_id].motor_recv_data.head.motorID].T = data_leg[leg_id].motor_recv_d
 230              		.loc 1 352 5 is_stmt 1 view .LVU66
 352:Lib/Motor/Src/unitreeA1_recv.c ****     A1date[leg_id][data_leg[leg_id].motor_recv_data.head.motorID].T = data_leg[leg_id].motor_recv_d
 231              		.loc 1 352 75 is_stmt 0 view .LVU67
 232 0060 CB70     		strb	r3, [r1, #3]
 353:Lib/Motor/Src/unitreeA1_recv.c ****     A1date[leg_id][data_leg[leg_id].motor_recv_data.head.motorID].W = data_leg[leg_id].motor_recv_d
 233              		.loc 1 353 5 is_stmt 1 view .LVU68
 353:Lib/Motor/Src/unitreeA1_recv.c ****     A1date[leg_id][data_leg[leg_id].motor_recv_data.head.motorID].W = data_leg[leg_id].motor_recv_d
 234              		.loc 1 353 69 is_stmt 0 view .LVU69
 235 0062 8F80     		strh	r7, [r1, #4]	@ movhi
 354:Lib/Motor/Src/unitreeA1_recv.c ****     A1date[leg_id][data_leg[leg_id].motor_recv_data.head.motorID].Acc = data_leg[leg_id].motor_recv
 236              		.loc 1 354 5 is_stmt 1 view .LVU70
 354:Lib/Motor/Src/unitreeA1_recv.c ****     A1date[leg_id][data_leg[leg_id].motor_recv_data.head.motorID].Acc = data_leg[leg_id].motor_recv
 237              		.loc 1 354 69 is_stmt 0 view .LVU71
 238 0064 CE80     		strh	r6, [r1, #6]	@ movhi
 355:Lib/Motor/Src/unitreeA1_recv.c ****     A1date[leg_id][data_leg[leg_id].motor_recv_data.head.motorID].Pos = data_leg[leg_id].motor_recv
 239              		.loc 1 355 5 is_stmt 1 view .LVU72
 355:Lib/Motor/Src/unitreeA1_recv.c ****     A1date[leg_id][data_leg[leg_id].motor_recv_data.head.motorID].Pos = data_leg[leg_id].motor_recv
 240              		.loc 1 355 71 is_stmt 0 view .LVU73
 241 0066 A1F808E0 		strh	lr, [r1, #8]	@ movhi
 356:Lib/Motor/Src/unitreeA1_recv.c ****     A1date[leg_id][data_leg[leg_id].motor_recv_data.head.motorID].SumCheck = 0xff + 0xfe + leg_id +
 242              		.loc 1 356 5 is_stmt 1 view .LVU74
 356:Lib/Motor/Src/unitreeA1_recv.c ****     A1date[leg_id][data_leg[leg_id].motor_recv_data.head.motorID].SumCheck = 0xff + 0xfe + leg_id +
 243              		.loc 1 356 71 is_stmt 0 view .LVU75
 244 006a CD60     		str	r5, [r1, #12]
 357:Lib/Motor/Src/unitreeA1_recv.c **** 
 245              		.loc 1 357 5 is_stmt 1 view .LVU76
 357:Lib/Motor/Src/unitreeA1_recv.c **** 
 246              		.loc 1 357 90 is_stmt 0 view .LVU77
 247 006c 00F2FD12 		addw	r2, r0, #509
ARM GAS  /tmp/ccMwSyRb.s 			page 13


 357:Lib/Motor/Src/unitreeA1_recv.c **** 
 248              		.loc 1 357 99 view .LVU78
 249 0070 1A44     		add	r2, r2, r3
 357:Lib/Motor/Src/unitreeA1_recv.c **** 
 250              		.loc 1 357 145 view .LVU79
 251 0072 3A44     		add	r2, r2, r7
 357:Lib/Motor/Src/unitreeA1_recv.c **** 
 252              		.loc 1 357 187 view .LVU80
 253 0074 3244     		add	r2, r2, r6
 357:Lib/Motor/Src/unitreeA1_recv.c **** 
 254              		.loc 1 357 230 view .LVU81
 255 0076 7244     		add	r2, r2, lr
 357:Lib/Motor/Src/unitreeA1_recv.c **** 
 256              		.loc 1 357 275 view .LVU82
 257 0078 2A44     		add	r2, r2, r5
 357:Lib/Motor/Src/unitreeA1_recv.c **** 
 258              		.loc 1 357 76 view .LVU83
 259 007a 0A61     		str	r2, [r1, #16]
 382:Lib/Motor/Src/unitreeA1_recv.c **** 
 260              		.loc 1 382 1 view .LVU84
 261 007c F0BD     		pop	{r4, r5, r6, r7, pc}
 262              	.L10:
 263 007e 00BF     		.align	2
 264              	.L9:
 265 0080 00000000 		.word	.LANCHOR4
 266 0084 00000000 		.word	data_leg
 267 0088 00000000 		.word	A1date
 268              		.cfi_endproc
 269              	.LFE139:
 271              		.section	.text.USART1_IRQHandler,"ax",%progbits
 272              		.align	1
 273              		.global	USART1_IRQHandler
 274              		.syntax unified
 275              		.thumb
 276              		.thumb_func
 278              	USART1_IRQHandler:
 279              	.LFB135:
  29:Lib/Motor/Src/unitreeA1_recv.c ****     
 280              		.loc 1 29 1 is_stmt 1 view -0
 281              		.cfi_startproc
 282              		@ args = 0, pretend = 0, frame = 8
 283              		@ frame_needed = 0, uses_anonymous_args = 0
 284 0000 00B5     		push	{lr}
 285              		.cfi_def_cfa_offset 4
 286              		.cfi_offset 14, -4
 287 0002 83B0     		sub	sp, sp, #12
 288              		.cfi_def_cfa_offset 16
  31:Lib/Motor/Src/unitreeA1_recv.c ****     {
 289              		.loc 1 31 5 view .LVU86
  31:Lib/Motor/Src/unitreeA1_recv.c ****     {
 290              		.loc 1 31 15 is_stmt 0 view .LVU87
 291 0004 354B     		ldr	r3, .L16
 292 0006 1B68     		ldr	r3, [r3]
  31:Lib/Motor/Src/unitreeA1_recv.c ****     {
 293              		.loc 1 31 24 view .LVU88
 294 0008 1A68     		ldr	r2, [r3]
  31:Lib/Motor/Src/unitreeA1_recv.c ****     {
ARM GAS  /tmp/ccMwSyRb.s 			page 14


 295              		.loc 1 31 8 view .LVU89
 296 000a 12F0200F 		tst	r2, #32
 297 000e 09D0     		beq	.L12
  33:Lib/Motor/Src/unitreeA1_recv.c ****     }
 298              		.loc 1 33 9 is_stmt 1 view .LVU90
 299              	.LBB2:
  33:Lib/Motor/Src/unitreeA1_recv.c ****     }
 300              		.loc 1 33 9 view .LVU91
 301 0010 0022     		movs	r2, #0
 302 0012 0092     		str	r2, [sp]
  33:Lib/Motor/Src/unitreeA1_recv.c ****     }
 303              		.loc 1 33 9 view .LVU92
 304 0014 1A68     		ldr	r2, [r3]
 305 0016 0092     		str	r2, [sp]
  33:Lib/Motor/Src/unitreeA1_recv.c ****     }
 306              		.loc 1 33 9 view .LVU93
 307 0018 5B68     		ldr	r3, [r3, #4]
 308 001a 0093     		str	r3, [sp]
  33:Lib/Motor/Src/unitreeA1_recv.c ****     }
 309              		.loc 1 33 9 view .LVU94
 310 001c 009B     		ldr	r3, [sp]
 311              	.LBE2:
  33:Lib/Motor/Src/unitreeA1_recv.c ****     }
 312              		.loc 1 33 9 view .LVU95
 313              	.L11:
 104:Lib/Motor/Src/unitreeA1_recv.c **** 
 314              		.loc 1 104 1 is_stmt 0 view .LVU96
 315 001e 03B0     		add	sp, sp, #12
 316              		.cfi_remember_state
 317              		.cfi_def_cfa_offset 4
 318              		@ sp needed
 319 0020 5DF804FB 		ldr	pc, [sp], #4
 320              	.L12:
 321              		.cfi_restore_state
  35:Lib/Motor/Src/unitreeA1_recv.c ****     {
 322              		.loc 1 35 10 is_stmt 1 view .LVU97
  35:Lib/Motor/Src/unitreeA1_recv.c ****     {
 323              		.loc 1 35 20 is_stmt 0 view .LVU98
 324 0024 2E4A     		ldr	r2, .L16+4
 325 0026 1268     		ldr	r2, [r2]
  35:Lib/Motor/Src/unitreeA1_recv.c ****     {
 326              		.loc 1 35 13 view .LVU99
 327 0028 12F0100F 		tst	r2, #16
 328 002c F7D0     		beq	.L11
 329              	.LBB3:
  37:Lib/Motor/Src/unitreeA1_recv.c **** 
 330              		.loc 1 37 9 is_stmt 1 view .LVU100
  39:Lib/Motor/Src/unitreeA1_recv.c **** 
 331              		.loc 1 39 9 view .LVU101
 332              	.LBB4:
  39:Lib/Motor/Src/unitreeA1_recv.c **** 
 333              		.loc 1 39 9 view .LVU102
 334 002e 0022     		movs	r2, #0
 335 0030 0192     		str	r2, [sp, #4]
  39:Lib/Motor/Src/unitreeA1_recv.c **** 
 336              		.loc 1 39 9 view .LVU103
 337 0032 1A68     		ldr	r2, [r3]
ARM GAS  /tmp/ccMwSyRb.s 			page 15


 338 0034 0192     		str	r2, [sp, #4]
  39:Lib/Motor/Src/unitreeA1_recv.c **** 
 339              		.loc 1 39 9 view .LVU104
 340 0036 5B68     		ldr	r3, [r3, #4]
 341 0038 0193     		str	r3, [sp, #4]
  39:Lib/Motor/Src/unitreeA1_recv.c **** 
 342              		.loc 1 39 9 view .LVU105
 343 003a 019B     		ldr	r3, [sp, #4]
 344              	.LBE4:
  39:Lib/Motor/Src/unitreeA1_recv.c **** 
 345              		.loc 1 39 9 view .LVU106
  41:Lib/Motor/Src/unitreeA1_recv.c ****         {
 346              		.loc 1 41 9 view .LVU107
  41:Lib/Motor/Src/unitreeA1_recv.c ****         {
 347              		.loc 1 41 28 is_stmt 0 view .LVU108
 348 003c 294B     		ldr	r3, .L16+8
 349 003e 1B68     		ldr	r3, [r3]
  41:Lib/Motor/Src/unitreeA1_recv.c ****         {
 350              		.loc 1 41 37 view .LVU109
 351 0040 1A68     		ldr	r2, [r3]
  41:Lib/Motor/Src/unitreeA1_recv.c ****         {
 352              		.loc 1 41 12 view .LVU110
 353 0042 12F4002F 		tst	r2, #524288
 354 0046 23D1     		bne	.L14
  47:Lib/Motor/Src/unitreeA1_recv.c **** 
 355              		.loc 1 47 13 is_stmt 1 view .LVU111
 356 0048 1A68     		ldr	r2, [r3]
 357 004a 22F00102 		bic	r2, r2, #1
 358 004e 1A60     		str	r2, [r3]
  51:Lib/Motor/Src/unitreeA1_recv.c **** 
 359              		.loc 1 51 13 view .LVU112
  51:Lib/Motor/Src/unitreeA1_recv.c **** 
 360              		.loc 1 51 64 is_stmt 0 view .LVU113
 361 0050 2448     		ldr	r0, .L16+8
 362 0052 0268     		ldr	r2, [r0]
  51:Lib/Motor/Src/unitreeA1_recv.c **** 
 363              		.loc 1 51 73 view .LVU114
 364 0054 5368     		ldr	r3, [r2, #4]
  51:Lib/Motor/Src/unitreeA1_recv.c **** 
 365              		.loc 1 51 48 view .LVU115
 366 0056 C3F18003 		rsb	r3, r3, #128
 367 005a 9BB2     		uxth	r3, r3
  51:Lib/Motor/Src/unitreeA1_recv.c **** 
 368              		.loc 1 51 30 view .LVU116
 369 005c 2249     		ldr	r1, .L16+12
 370 005e 0B80     		strh	r3, [r1]	@ movhi
  55:Lib/Motor/Src/unitreeA1_recv.c **** 
 371              		.loc 1 55 13 is_stmt 1 view .LVU117
  55:Lib/Motor/Src/unitreeA1_recv.c **** 
 372              		.loc 1 55 43 is_stmt 0 view .LVU118
 373 0060 8021     		movs	r1, #128
 374 0062 5160     		str	r1, [r2, #4]
  59:Lib/Motor/Src/unitreeA1_recv.c **** 
 375              		.loc 1 59 13 is_stmt 1 view .LVU119
  59:Lib/Motor/Src/unitreeA1_recv.c **** 
 376              		.loc 1 59 41 is_stmt 0 view .LVU120
 377 0064 1168     		ldr	r1, [r2]
ARM GAS  /tmp/ccMwSyRb.s 			page 16


 378 0066 41F40021 		orr	r1, r1, #524288
 379 006a 1160     		str	r1, [r2]
  63:Lib/Motor/Src/unitreeA1_recv.c **** 
 380              		.loc 1 63 13 is_stmt 1 view .LVU121
 381 006c 0168     		ldr	r1, [r0]
 382 006e 0A68     		ldr	r2, [r1]
 383 0070 42F00102 		orr	r2, r2, #1
 384 0074 0A60     		str	r2, [r1]
  65:Lib/Motor/Src/unitreeA1_recv.c ****             {
 385              		.loc 1 65 13 view .LVU122
  65:Lib/Motor/Src/unitreeA1_recv.c ****             {
 386              		.loc 1 65 16 is_stmt 0 view .LVU123
 387 0076 4E2B     		cmp	r3, #78
 388 0078 D1D1     		bne	.L11
 389              	.LBB5:
  67:Lib/Motor/Src/unitreeA1_recv.c ****                 unitreeA1_rx(0);
 390              		.loc 1 67 17 is_stmt 1 view .LVU124
 391 007a 1C49     		ldr	r1, .L16+16
 392 007c 1C48     		ldr	r0, .L16+20
 393 007e FFF7FEFF 		bl	sbus_to_rc
 394              	.LVL8:
  68:Lib/Motor/Src/unitreeA1_recv.c ****                 send_A1msgToEcat(0);
 395              		.loc 1 68 17 view .LVU125
 396 0082 0020     		movs	r0, #0
 397 0084 FFF7FEFF 		bl	unitreeA1_rx
 398              	.LVL9:
  69:Lib/Motor/Src/unitreeA1_recv.c ****             }
 399              		.loc 1 69 17 view .LVU126
 400 0088 0020     		movs	r0, #0
 401 008a FFF7FEFF 		bl	send_A1msgToEcat
 402              	.LVL10:
 403 008e C6E7     		b	.L11
 404              	.L14:
 405              	.LBE5:
  77:Lib/Motor/Src/unitreeA1_recv.c **** 
 406              		.loc 1 77 13 view .LVU127
 407 0090 1A68     		ldr	r2, [r3]
 408 0092 22F00102 		bic	r2, r2, #1
 409 0096 1A60     		str	r2, [r3]
  81:Lib/Motor/Src/unitreeA1_recv.c **** 
 410              		.loc 1 81 13 view .LVU128
  81:Lib/Motor/Src/unitreeA1_recv.c **** 
 411              		.loc 1 81 64 is_stmt 0 view .LVU129
 412 0098 1249     		ldr	r1, .L16+8
 413 009a 0868     		ldr	r0, [r1]
  81:Lib/Motor/Src/unitreeA1_recv.c **** 
 414              		.loc 1 81 73 view .LVU130
 415 009c 4368     		ldr	r3, [r0, #4]
  81:Lib/Motor/Src/unitreeA1_recv.c **** 
 416              		.loc 1 81 48 view .LVU131
 417 009e C3F18003 		rsb	r3, r3, #128
  81:Lib/Motor/Src/unitreeA1_recv.c **** 
 418              		.loc 1 81 30 view .LVU132
 419 00a2 114A     		ldr	r2, .L16+12
 420 00a4 1380     		strh	r3, [r2]	@ movhi
  85:Lib/Motor/Src/unitreeA1_recv.c **** 
 421              		.loc 1 85 13 is_stmt 1 view .LVU133
ARM GAS  /tmp/ccMwSyRb.s 			page 17


  85:Lib/Motor/Src/unitreeA1_recv.c **** 
 422              		.loc 1 85 43 is_stmt 0 view .LVU134
 423 00a6 8023     		movs	r3, #128
 424 00a8 4360     		str	r3, [r0, #4]
  89:Lib/Motor/Src/unitreeA1_recv.c **** 
 425              		.loc 1 89 13 is_stmt 1 view .LVU135
  89:Lib/Motor/Src/unitreeA1_recv.c **** 
 426              		.loc 1 89 30 is_stmt 0 view .LVU136
 427 00aa 1248     		ldr	r0, .L16+24
 428 00ac 036C     		ldr	r3, [r0, #64]
 429 00ae 23F40023 		bic	r3, r3, #524288
 430 00b2 0364     		str	r3, [r0, #64]
  93:Lib/Motor/Src/unitreeA1_recv.c **** 
 431              		.loc 1 93 13 is_stmt 1 view .LVU137
 432 00b4 0968     		ldr	r1, [r1]
 433 00b6 0B68     		ldr	r3, [r1]
 434 00b8 43F00103 		orr	r3, r3, #1
 435 00bc 0B60     		str	r3, [r1]
  95:Lib/Motor/Src/unitreeA1_recv.c ****             {
 436              		.loc 1 95 13 view .LVU138
  95:Lib/Motor/Src/unitreeA1_recv.c ****             {
 437              		.loc 1 95 34 is_stmt 0 view .LVU139
 438 00be 1388     		ldrh	r3, [r2]
  95:Lib/Motor/Src/unitreeA1_recv.c ****             {
 439              		.loc 1 95 16 view .LVU140
 440 00c0 4E2B     		cmp	r3, #78
 441 00c2 ACD1     		bne	.L11
 442              	.LBB6:
  98:Lib/Motor/Src/unitreeA1_recv.c ****                 unitreeA1_rx(0);
 443              		.loc 1 98 17 is_stmt 1 view .LVU141
 444 00c4 0949     		ldr	r1, .L16+16
 445 00c6 0C48     		ldr	r0, .L16+28
 446 00c8 FFF7FEFF 		bl	sbus_to_rc
 447              	.LVL11:
  99:Lib/Motor/Src/unitreeA1_recv.c ****                 send_A1msgToEcat(0);
 448              		.loc 1 99 17 view .LVU142
 449 00cc 0020     		movs	r0, #0
 450 00ce FFF7FEFF 		bl	unitreeA1_rx
 451              	.LVL12:
 100:Lib/Motor/Src/unitreeA1_recv.c ****             }
 452              		.loc 1 100 17 view .LVU143
 453 00d2 0020     		movs	r0, #0
 454 00d4 FFF7FEFF 		bl	send_A1msgToEcat
 455              	.LVL13:
 456              	.LBE6:
 457              	.LBE3:
 104:Lib/Motor/Src/unitreeA1_recv.c **** 
 458              		.loc 1 104 1 is_stmt 0 view .LVU144
 459 00d8 A1E7     		b	.L11
 460              	.L17:
 461 00da 00BF     		.align	2
 462              	.L16:
 463 00dc 00000000 		.word	huart1
 464 00e0 00100140 		.word	1073811456
 465 00e4 00000000 		.word	hdma_usart1_rx
 466 00e8 00000000 		.word	.LANCHOR5
 467 00ec 98010000 		.word	.LANCHOR4+408
ARM GAS  /tmp/ccMwSyRb.s 			page 18


 468 00f0 00000000 		.word	.LANCHOR0
 469 00f4 00640240 		.word	1073898496
 470 00f8 80000000 		.word	.LANCHOR0+128
 471              		.cfi_endproc
 472              	.LFE135:
 474              		.section	.text.USART2_IRQHandler,"ax",%progbits
 475              		.align	1
 476              		.global	USART2_IRQHandler
 477              		.syntax unified
 478              		.thumb
 479              		.thumb_func
 481              	USART2_IRQHandler:
 482              	.LFB136:
 107:Lib/Motor/Src/unitreeA1_recv.c ****    
 483              		.loc 1 107 1 is_stmt 1 view -0
 484              		.cfi_startproc
 485              		@ args = 0, pretend = 0, frame = 8
 486              		@ frame_needed = 0, uses_anonymous_args = 0
 487 0000 00B5     		push	{lr}
 488              		.cfi_def_cfa_offset 4
 489              		.cfi_offset 14, -4
 490 0002 83B0     		sub	sp, sp, #12
 491              		.cfi_def_cfa_offset 16
 109:Lib/Motor/Src/unitreeA1_recv.c ****     {
 492              		.loc 1 109 5 view .LVU146
 109:Lib/Motor/Src/unitreeA1_recv.c ****     {
 493              		.loc 1 109 15 is_stmt 0 view .LVU147
 494 0004 354B     		ldr	r3, .L23
 495 0006 1B68     		ldr	r3, [r3]
 109:Lib/Motor/Src/unitreeA1_recv.c ****     {
 496              		.loc 1 109 24 view .LVU148
 497 0008 1A68     		ldr	r2, [r3]
 109:Lib/Motor/Src/unitreeA1_recv.c ****     {
 498              		.loc 1 109 8 view .LVU149
 499 000a 12F0200F 		tst	r2, #32
 500 000e 09D0     		beq	.L19
 111:Lib/Motor/Src/unitreeA1_recv.c ****     }
 501              		.loc 1 111 9 is_stmt 1 view .LVU150
 502              	.LBB7:
 111:Lib/Motor/Src/unitreeA1_recv.c ****     }
 503              		.loc 1 111 9 view .LVU151
 504 0010 0022     		movs	r2, #0
 505 0012 0092     		str	r2, [sp]
 111:Lib/Motor/Src/unitreeA1_recv.c ****     }
 506              		.loc 1 111 9 view .LVU152
 507 0014 1A68     		ldr	r2, [r3]
 508 0016 0092     		str	r2, [sp]
 111:Lib/Motor/Src/unitreeA1_recv.c ****     }
 509              		.loc 1 111 9 view .LVU153
 510 0018 5B68     		ldr	r3, [r3, #4]
 511 001a 0093     		str	r3, [sp]
 111:Lib/Motor/Src/unitreeA1_recv.c ****     }
 512              		.loc 1 111 9 view .LVU154
 513 001c 009B     		ldr	r3, [sp]
 514              	.LBE7:
 111:Lib/Motor/Src/unitreeA1_recv.c ****     }
 515              		.loc 1 111 9 view .LVU155
ARM GAS  /tmp/ccMwSyRb.s 			page 19


 516              	.L18:
 182:Lib/Motor/Src/unitreeA1_recv.c **** 
 517              		.loc 1 182 1 is_stmt 0 view .LVU156
 518 001e 03B0     		add	sp, sp, #12
 519              		.cfi_remember_state
 520              		.cfi_def_cfa_offset 4
 521              		@ sp needed
 522 0020 5DF804FB 		ldr	pc, [sp], #4
 523              	.L19:
 524              		.cfi_restore_state
 113:Lib/Motor/Src/unitreeA1_recv.c ****     {
 525              		.loc 1 113 10 is_stmt 1 view .LVU157
 113:Lib/Motor/Src/unitreeA1_recv.c ****     {
 526              		.loc 1 113 20 is_stmt 0 view .LVU158
 527 0024 2E4A     		ldr	r2, .L23+4
 528 0026 1268     		ldr	r2, [r2]
 113:Lib/Motor/Src/unitreeA1_recv.c ****     {
 529              		.loc 1 113 13 view .LVU159
 530 0028 12F0100F 		tst	r2, #16
 531 002c F7D0     		beq	.L18
 532              	.LBB8:
 115:Lib/Motor/Src/unitreeA1_recv.c **** 
 533              		.loc 1 115 9 is_stmt 1 view .LVU160
 117:Lib/Motor/Src/unitreeA1_recv.c **** 
 534              		.loc 1 117 9 view .LVU161
 535              	.LBB9:
 117:Lib/Motor/Src/unitreeA1_recv.c **** 
 536              		.loc 1 117 9 view .LVU162
 537 002e 0022     		movs	r2, #0
 538 0030 0192     		str	r2, [sp, #4]
 117:Lib/Motor/Src/unitreeA1_recv.c **** 
 539              		.loc 1 117 9 view .LVU163
 540 0032 1A68     		ldr	r2, [r3]
 541 0034 0192     		str	r2, [sp, #4]
 117:Lib/Motor/Src/unitreeA1_recv.c **** 
 542              		.loc 1 117 9 view .LVU164
 543 0036 5B68     		ldr	r3, [r3, #4]
 544 0038 0193     		str	r3, [sp, #4]
 117:Lib/Motor/Src/unitreeA1_recv.c **** 
 545              		.loc 1 117 9 view .LVU165
 546 003a 019B     		ldr	r3, [sp, #4]
 547              	.LBE9:
 117:Lib/Motor/Src/unitreeA1_recv.c **** 
 548              		.loc 1 117 9 view .LVU166
 119:Lib/Motor/Src/unitreeA1_recv.c ****         {
 549              		.loc 1 119 9 view .LVU167
 119:Lib/Motor/Src/unitreeA1_recv.c ****         {
 550              		.loc 1 119 28 is_stmt 0 view .LVU168
 551 003c 294B     		ldr	r3, .L23+8
 552 003e 1B68     		ldr	r3, [r3]
 119:Lib/Motor/Src/unitreeA1_recv.c ****         {
 553              		.loc 1 119 37 view .LVU169
 554 0040 1A68     		ldr	r2, [r3]
 119:Lib/Motor/Src/unitreeA1_recv.c ****         {
 555              		.loc 1 119 12 view .LVU170
 556 0042 12F4002F 		tst	r2, #524288
 557 0046 23D1     		bne	.L21
ARM GAS  /tmp/ccMwSyRb.s 			page 20


 125:Lib/Motor/Src/unitreeA1_recv.c **** 
 558              		.loc 1 125 13 is_stmt 1 view .LVU171
 559 0048 1A68     		ldr	r2, [r3]
 560 004a 22F00102 		bic	r2, r2, #1
 561 004e 1A60     		str	r2, [r3]
 129:Lib/Motor/Src/unitreeA1_recv.c **** 
 562              		.loc 1 129 13 view .LVU172
 129:Lib/Motor/Src/unitreeA1_recv.c **** 
 563              		.loc 1 129 64 is_stmt 0 view .LVU173
 564 0050 2448     		ldr	r0, .L23+8
 565 0052 0268     		ldr	r2, [r0]
 129:Lib/Motor/Src/unitreeA1_recv.c **** 
 566              		.loc 1 129 73 view .LVU174
 567 0054 5368     		ldr	r3, [r2, #4]
 129:Lib/Motor/Src/unitreeA1_recv.c **** 
 568              		.loc 1 129 48 view .LVU175
 569 0056 C3F18003 		rsb	r3, r3, #128
 570 005a 9BB2     		uxth	r3, r3
 129:Lib/Motor/Src/unitreeA1_recv.c **** 
 571              		.loc 1 129 30 view .LVU176
 572 005c 2249     		ldr	r1, .L23+12
 573 005e 0B80     		strh	r3, [r1]	@ movhi
 133:Lib/Motor/Src/unitreeA1_recv.c **** 
 574              		.loc 1 133 13 is_stmt 1 view .LVU177
 133:Lib/Motor/Src/unitreeA1_recv.c **** 
 575              		.loc 1 133 43 is_stmt 0 view .LVU178
 576 0060 8021     		movs	r1, #128
 577 0062 5160     		str	r1, [r2, #4]
 137:Lib/Motor/Src/unitreeA1_recv.c **** 
 578              		.loc 1 137 13 is_stmt 1 view .LVU179
 137:Lib/Motor/Src/unitreeA1_recv.c **** 
 579              		.loc 1 137 41 is_stmt 0 view .LVU180
 580 0064 1168     		ldr	r1, [r2]
 581 0066 41F40021 		orr	r1, r1, #524288
 582 006a 1160     		str	r1, [r2]
 141:Lib/Motor/Src/unitreeA1_recv.c **** 
 583              		.loc 1 141 13 is_stmt 1 view .LVU181
 584 006c 0168     		ldr	r1, [r0]
 585 006e 0A68     		ldr	r2, [r1]
 586 0070 42F00102 		orr	r2, r2, #1
 587 0074 0A60     		str	r2, [r1]
 143:Lib/Motor/Src/unitreeA1_recv.c ****             {
 588              		.loc 1 143 13 view .LVU182
 143:Lib/Motor/Src/unitreeA1_recv.c ****             {
 589              		.loc 1 143 16 is_stmt 0 view .LVU183
 590 0076 4E2B     		cmp	r3, #78
 591 0078 D1D1     		bne	.L18
 592              	.LBB10:
 145:Lib/Motor/Src/unitreeA1_recv.c ****                 unitreeA1_rx(1);
 593              		.loc 1 145 17 is_stmt 1 view .LVU184
 594 007a 1C49     		ldr	r1, .L23+16
 595 007c 1C48     		ldr	r0, .L23+20
 596 007e FFF7FEFF 		bl	sbus_to_rc
 597              	.LVL14:
 146:Lib/Motor/Src/unitreeA1_recv.c ****                 send_A1msgToEcat(1);
 598              		.loc 1 146 17 view .LVU185
 599 0082 0120     		movs	r0, #1
ARM GAS  /tmp/ccMwSyRb.s 			page 21


 600 0084 FFF7FEFF 		bl	unitreeA1_rx
 601              	.LVL15:
 147:Lib/Motor/Src/unitreeA1_recv.c ****             }
 602              		.loc 1 147 17 view .LVU186
 603 0088 0120     		movs	r0, #1
 604 008a FFF7FEFF 		bl	send_A1msgToEcat
 605              	.LVL16:
 606 008e C6E7     		b	.L18
 607              	.L21:
 608              	.LBE10:
 155:Lib/Motor/Src/unitreeA1_recv.c **** 
 609              		.loc 1 155 13 view .LVU187
 610 0090 184B     		ldr	r3, .L23+24
 611 0092 1968     		ldr	r1, [r3]
 612 0094 0A68     		ldr	r2, [r1]
 613 0096 22F00102 		bic	r2, r2, #1
 614 009a 0A60     		str	r2, [r1]
 159:Lib/Motor/Src/unitreeA1_recv.c **** 
 615              		.loc 1 159 13 view .LVU188
 159:Lib/Motor/Src/unitreeA1_recv.c **** 
 616              		.loc 1 159 64 is_stmt 0 view .LVU189
 617 009c 1868     		ldr	r0, [r3]
 159:Lib/Motor/Src/unitreeA1_recv.c **** 
 618              		.loc 1 159 73 view .LVU190
 619 009e 4268     		ldr	r2, [r0, #4]
 159:Lib/Motor/Src/unitreeA1_recv.c **** 
 620              		.loc 1 159 48 view .LVU191
 621 00a0 C2F18002 		rsb	r2, r2, #128
 159:Lib/Motor/Src/unitreeA1_recv.c **** 
 622              		.loc 1 159 30 view .LVU192
 623 00a4 1049     		ldr	r1, .L23+12
 624 00a6 0A80     		strh	r2, [r1]	@ movhi
 163:Lib/Motor/Src/unitreeA1_recv.c **** 
 625              		.loc 1 163 13 is_stmt 1 view .LVU193
 163:Lib/Motor/Src/unitreeA1_recv.c **** 
 626              		.loc 1 163 43 is_stmt 0 view .LVU194
 627 00a8 8022     		movs	r2, #128
 628 00aa 4260     		str	r2, [r0, #4]
 167:Lib/Motor/Src/unitreeA1_recv.c **** 
 629              		.loc 1 167 13 is_stmt 1 view .LVU195
 167:Lib/Motor/Src/unitreeA1_recv.c **** 
 630              		.loc 1 167 30 is_stmt 0 view .LVU196
 631 00ac 1248     		ldr	r0, .L23+28
 632 00ae 826A     		ldr	r2, [r0, #40]
 633 00b0 22F40022 		bic	r2, r2, #524288
 634 00b4 8262     		str	r2, [r0, #40]
 171:Lib/Motor/Src/unitreeA1_recv.c **** 
 635              		.loc 1 171 13 is_stmt 1 view .LVU197
 636 00b6 1A68     		ldr	r2, [r3]
 637 00b8 1368     		ldr	r3, [r2]
 638 00ba 43F00103 		orr	r3, r3, #1
 639 00be 1360     		str	r3, [r2]
 173:Lib/Motor/Src/unitreeA1_recv.c ****             {
 640              		.loc 1 173 13 view .LVU198
 173:Lib/Motor/Src/unitreeA1_recv.c ****             {
 641              		.loc 1 173 34 is_stmt 0 view .LVU199
 642 00c0 0B88     		ldrh	r3, [r1]
ARM GAS  /tmp/ccMwSyRb.s 			page 22


 173:Lib/Motor/Src/unitreeA1_recv.c ****             {
 643              		.loc 1 173 16 view .LVU200
 644 00c2 4E2B     		cmp	r3, #78
 645 00c4 ABD1     		bne	.L18
 646              	.LBB11:
 176:Lib/Motor/Src/unitreeA1_recv.c ****                 unitreeA1_rx(1);
 647              		.loc 1 176 17 is_stmt 1 view .LVU201
 648 00c6 0949     		ldr	r1, .L23+16
 649 00c8 0C48     		ldr	r0, .L23+32
 650 00ca FFF7FEFF 		bl	sbus_to_rc
 651              	.LVL17:
 177:Lib/Motor/Src/unitreeA1_recv.c ****                 send_A1msgToEcat(1);
 652              		.loc 1 177 17 view .LVU202
 653 00ce 0120     		movs	r0, #1
 654 00d0 FFF7FEFF 		bl	unitreeA1_rx
 655              	.LVL18:
 178:Lib/Motor/Src/unitreeA1_recv.c ****             }
 656              		.loc 1 178 17 view .LVU203
 657 00d4 0120     		movs	r0, #1
 658 00d6 FFF7FEFF 		bl	send_A1msgToEcat
 659              	.LVL19:
 660              	.LBE11:
 661              	.LBE8:
 182:Lib/Motor/Src/unitreeA1_recv.c **** 
 662              		.loc 1 182 1 is_stmt 0 view .LVU204
 663 00da A0E7     		b	.L18
 664              	.L24:
 665              		.align	2
 666              	.L23:
 667 00dc 00000000 		.word	huart2
 668 00e0 00440040 		.word	1073759232
 669 00e4 00000000 		.word	hdma_usart2_rx
 670 00e8 00000000 		.word	.LANCHOR6
 671 00ec 3C030000 		.word	.LANCHOR4+828
 672 00f0 00000000 		.word	.LANCHOR1
 673 00f4 00000000 		.word	hdma_usart6_rx
 674 00f8 00640240 		.word	1073898496
 675 00fc 80000000 		.word	.LANCHOR1+128
 676              		.cfi_endproc
 677              	.LFE136:
 679              		.section	.text.USART3_IRQHandler,"ax",%progbits
 680              		.align	1
 681              		.global	USART3_IRQHandler
 682              		.syntax unified
 683              		.thumb
 684              		.thumb_func
 686              	USART3_IRQHandler:
 687              	.LFB137:
 185:Lib/Motor/Src/unitreeA1_recv.c ****   
 688              		.loc 1 185 1 is_stmt 1 view -0
 689              		.cfi_startproc
 690              		@ args = 0, pretend = 0, frame = 8
 691              		@ frame_needed = 0, uses_anonymous_args = 0
 692 0000 00B5     		push	{lr}
 693              		.cfi_def_cfa_offset 4
 694              		.cfi_offset 14, -4
 695 0002 83B0     		sub	sp, sp, #12
ARM GAS  /tmp/ccMwSyRb.s 			page 23


 696              		.cfi_def_cfa_offset 16
 187:Lib/Motor/Src/unitreeA1_recv.c ****     {
 697              		.loc 1 187 5 view .LVU206
 187:Lib/Motor/Src/unitreeA1_recv.c ****     {
 698              		.loc 1 187 15 is_stmt 0 view .LVU207
 699 0004 354B     		ldr	r3, .L30
 700 0006 1B68     		ldr	r3, [r3]
 187:Lib/Motor/Src/unitreeA1_recv.c ****     {
 701              		.loc 1 187 24 view .LVU208
 702 0008 1A68     		ldr	r2, [r3]
 187:Lib/Motor/Src/unitreeA1_recv.c ****     {
 703              		.loc 1 187 8 view .LVU209
 704 000a 12F0200F 		tst	r2, #32
 705 000e 09D0     		beq	.L26
 189:Lib/Motor/Src/unitreeA1_recv.c ****     }
 706              		.loc 1 189 9 is_stmt 1 view .LVU210
 707              	.LBB12:
 189:Lib/Motor/Src/unitreeA1_recv.c ****     }
 708              		.loc 1 189 9 view .LVU211
 709 0010 0022     		movs	r2, #0
 710 0012 0092     		str	r2, [sp]
 189:Lib/Motor/Src/unitreeA1_recv.c ****     }
 711              		.loc 1 189 9 view .LVU212
 712 0014 1A68     		ldr	r2, [r3]
 713 0016 0092     		str	r2, [sp]
 189:Lib/Motor/Src/unitreeA1_recv.c ****     }
 714              		.loc 1 189 9 view .LVU213
 715 0018 5B68     		ldr	r3, [r3, #4]
 716 001a 0093     		str	r3, [sp]
 189:Lib/Motor/Src/unitreeA1_recv.c ****     }
 717              		.loc 1 189 9 view .LVU214
 718 001c 009B     		ldr	r3, [sp]
 719              	.LBE12:
 189:Lib/Motor/Src/unitreeA1_recv.c ****     }
 720              		.loc 1 189 9 view .LVU215
 721              	.L25:
 260:Lib/Motor/Src/unitreeA1_recv.c **** 
 722              		.loc 1 260 1 is_stmt 0 view .LVU216
 723 001e 03B0     		add	sp, sp, #12
 724              		.cfi_remember_state
 725              		.cfi_def_cfa_offset 4
 726              		@ sp needed
 727 0020 5DF804FB 		ldr	pc, [sp], #4
 728              	.L26:
 729              		.cfi_restore_state
 191:Lib/Motor/Src/unitreeA1_recv.c ****     {
 730              		.loc 1 191 10 is_stmt 1 view .LVU217
 191:Lib/Motor/Src/unitreeA1_recv.c ****     {
 731              		.loc 1 191 20 is_stmt 0 view .LVU218
 732 0024 2E4A     		ldr	r2, .L30+4
 733 0026 1268     		ldr	r2, [r2]
 191:Lib/Motor/Src/unitreeA1_recv.c ****     {
 734              		.loc 1 191 13 view .LVU219
 735 0028 12F0100F 		tst	r2, #16
 736 002c F7D0     		beq	.L25
 737              	.LBB13:
 193:Lib/Motor/Src/unitreeA1_recv.c **** 
ARM GAS  /tmp/ccMwSyRb.s 			page 24


 738              		.loc 1 193 9 is_stmt 1 view .LVU220
 195:Lib/Motor/Src/unitreeA1_recv.c **** 
 739              		.loc 1 195 9 view .LVU221
 740              	.LBB14:
 195:Lib/Motor/Src/unitreeA1_recv.c **** 
 741              		.loc 1 195 9 view .LVU222
 742 002e 0022     		movs	r2, #0
 743 0030 0192     		str	r2, [sp, #4]
 195:Lib/Motor/Src/unitreeA1_recv.c **** 
 744              		.loc 1 195 9 view .LVU223
 745 0032 1A68     		ldr	r2, [r3]
 746 0034 0192     		str	r2, [sp, #4]
 195:Lib/Motor/Src/unitreeA1_recv.c **** 
 747              		.loc 1 195 9 view .LVU224
 748 0036 5B68     		ldr	r3, [r3, #4]
 749 0038 0193     		str	r3, [sp, #4]
 195:Lib/Motor/Src/unitreeA1_recv.c **** 
 750              		.loc 1 195 9 view .LVU225
 751 003a 019B     		ldr	r3, [sp, #4]
 752              	.LBE14:
 195:Lib/Motor/Src/unitreeA1_recv.c **** 
 753              		.loc 1 195 9 view .LVU226
 197:Lib/Motor/Src/unitreeA1_recv.c ****         {
 754              		.loc 1 197 9 view .LVU227
 197:Lib/Motor/Src/unitreeA1_recv.c ****         {
 755              		.loc 1 197 28 is_stmt 0 view .LVU228
 756 003c 294B     		ldr	r3, .L30+8
 757 003e 1B68     		ldr	r3, [r3]
 197:Lib/Motor/Src/unitreeA1_recv.c ****         {
 758              		.loc 1 197 37 view .LVU229
 759 0040 1A68     		ldr	r2, [r3]
 197:Lib/Motor/Src/unitreeA1_recv.c ****         {
 760              		.loc 1 197 12 view .LVU230
 761 0042 12F4002F 		tst	r2, #524288
 762 0046 23D1     		bne	.L28
 203:Lib/Motor/Src/unitreeA1_recv.c **** 
 763              		.loc 1 203 13 is_stmt 1 view .LVU231
 764 0048 1A68     		ldr	r2, [r3]
 765 004a 22F00102 		bic	r2, r2, #1
 766 004e 1A60     		str	r2, [r3]
 207:Lib/Motor/Src/unitreeA1_recv.c **** 
 767              		.loc 1 207 13 view .LVU232
 207:Lib/Motor/Src/unitreeA1_recv.c **** 
 768              		.loc 1 207 64 is_stmt 0 view .LVU233
 769 0050 2448     		ldr	r0, .L30+8
 770 0052 0268     		ldr	r2, [r0]
 207:Lib/Motor/Src/unitreeA1_recv.c **** 
 771              		.loc 1 207 73 view .LVU234
 772 0054 5368     		ldr	r3, [r2, #4]
 207:Lib/Motor/Src/unitreeA1_recv.c **** 
 773              		.loc 1 207 48 view .LVU235
 774 0056 C3F18003 		rsb	r3, r3, #128
 775 005a 9BB2     		uxth	r3, r3
 207:Lib/Motor/Src/unitreeA1_recv.c **** 
 776              		.loc 1 207 30 view .LVU236
 777 005c 2249     		ldr	r1, .L30+12
 778 005e 0B80     		strh	r3, [r1]	@ movhi
ARM GAS  /tmp/ccMwSyRb.s 			page 25


 211:Lib/Motor/Src/unitreeA1_recv.c **** 
 779              		.loc 1 211 13 is_stmt 1 view .LVU237
 211:Lib/Motor/Src/unitreeA1_recv.c **** 
 780              		.loc 1 211 43 is_stmt 0 view .LVU238
 781 0060 8021     		movs	r1, #128
 782 0062 5160     		str	r1, [r2, #4]
 215:Lib/Motor/Src/unitreeA1_recv.c **** 
 783              		.loc 1 215 13 is_stmt 1 view .LVU239
 215:Lib/Motor/Src/unitreeA1_recv.c **** 
 784              		.loc 1 215 41 is_stmt 0 view .LVU240
 785 0064 1168     		ldr	r1, [r2]
 786 0066 41F40021 		orr	r1, r1, #524288
 787 006a 1160     		str	r1, [r2]
 219:Lib/Motor/Src/unitreeA1_recv.c **** 
 788              		.loc 1 219 13 is_stmt 1 view .LVU241
 789 006c 0168     		ldr	r1, [r0]
 790 006e 0A68     		ldr	r2, [r1]
 791 0070 42F00102 		orr	r2, r2, #1
 792 0074 0A60     		str	r2, [r1]
 221:Lib/Motor/Src/unitreeA1_recv.c ****             {
 793              		.loc 1 221 13 view .LVU242
 221:Lib/Motor/Src/unitreeA1_recv.c ****             {
 794              		.loc 1 221 16 is_stmt 0 view .LVU243
 795 0076 4E2B     		cmp	r3, #78
 796 0078 D1D1     		bne	.L25
 797              	.LBB15:
 223:Lib/Motor/Src/unitreeA1_recv.c ****                 unitreeA1_rx(3);
 798              		.loc 1 223 17 is_stmt 1 view .LVU244
 799 007a 1C49     		ldr	r1, .L30+16
 800 007c 1C48     		ldr	r0, .L30+20
 801 007e FFF7FEFF 		bl	sbus_to_rc
 802              	.LVL20:
 224:Lib/Motor/Src/unitreeA1_recv.c ****                 send_A1msgToEcat(3);
 803              		.loc 1 224 17 view .LVU245
 804 0082 0320     		movs	r0, #3
 805 0084 FFF7FEFF 		bl	unitreeA1_rx
 806              	.LVL21:
 225:Lib/Motor/Src/unitreeA1_recv.c ****             }
 807              		.loc 1 225 17 view .LVU246
 808 0088 0320     		movs	r0, #3
 809 008a FFF7FEFF 		bl	send_A1msgToEcat
 810              	.LVL22:
 811 008e C6E7     		b	.L25
 812              	.L28:
 813              	.LBE15:
 233:Lib/Motor/Src/unitreeA1_recv.c **** 
 814              		.loc 1 233 13 view .LVU247
 815 0090 184B     		ldr	r3, .L30+24
 816 0092 1968     		ldr	r1, [r3]
 817 0094 0A68     		ldr	r2, [r1]
 818 0096 22F00102 		bic	r2, r2, #1
 819 009a 0A60     		str	r2, [r1]
 237:Lib/Motor/Src/unitreeA1_recv.c **** 
 820              		.loc 1 237 13 view .LVU248
 237:Lib/Motor/Src/unitreeA1_recv.c **** 
 821              		.loc 1 237 64 is_stmt 0 view .LVU249
 822 009c 1868     		ldr	r0, [r3]
ARM GAS  /tmp/ccMwSyRb.s 			page 26


 237:Lib/Motor/Src/unitreeA1_recv.c **** 
 823              		.loc 1 237 73 view .LVU250
 824 009e 4268     		ldr	r2, [r0, #4]
 237:Lib/Motor/Src/unitreeA1_recv.c **** 
 825              		.loc 1 237 48 view .LVU251
 826 00a0 C2F18002 		rsb	r2, r2, #128
 237:Lib/Motor/Src/unitreeA1_recv.c **** 
 827              		.loc 1 237 30 view .LVU252
 828 00a4 1049     		ldr	r1, .L30+12
 829 00a6 0A80     		strh	r2, [r1]	@ movhi
 241:Lib/Motor/Src/unitreeA1_recv.c **** 
 830              		.loc 1 241 13 is_stmt 1 view .LVU253
 241:Lib/Motor/Src/unitreeA1_recv.c **** 
 831              		.loc 1 241 43 is_stmt 0 view .LVU254
 832 00a8 8022     		movs	r2, #128
 833 00aa 4260     		str	r2, [r0, #4]
 245:Lib/Motor/Src/unitreeA1_recv.c **** 
 834              		.loc 1 245 13 is_stmt 1 view .LVU255
 245:Lib/Motor/Src/unitreeA1_recv.c **** 
 835              		.loc 1 245 30 is_stmt 0 view .LVU256
 836 00ac 1248     		ldr	r0, .L30+28
 837 00ae 826A     		ldr	r2, [r0, #40]
 838 00b0 22F40022 		bic	r2, r2, #524288
 839 00b4 8262     		str	r2, [r0, #40]
 249:Lib/Motor/Src/unitreeA1_recv.c **** 
 840              		.loc 1 249 13 is_stmt 1 view .LVU257
 841 00b6 1A68     		ldr	r2, [r3]
 842 00b8 1368     		ldr	r3, [r2]
 843 00ba 43F00103 		orr	r3, r3, #1
 844 00be 1360     		str	r3, [r2]
 251:Lib/Motor/Src/unitreeA1_recv.c ****             {
 845              		.loc 1 251 13 view .LVU258
 251:Lib/Motor/Src/unitreeA1_recv.c ****             {
 846              		.loc 1 251 34 is_stmt 0 view .LVU259
 847 00c0 0B88     		ldrh	r3, [r1]
 251:Lib/Motor/Src/unitreeA1_recv.c ****             {
 848              		.loc 1 251 16 view .LVU260
 849 00c2 4E2B     		cmp	r3, #78
 850 00c4 ABD1     		bne	.L25
 851              	.LBB16:
 254:Lib/Motor/Src/unitreeA1_recv.c ****                 unitreeA1_rx(3);
 852              		.loc 1 254 17 is_stmt 1 view .LVU261
 853 00c6 0949     		ldr	r1, .L30+16
 854 00c8 0C48     		ldr	r0, .L30+32
 855 00ca FFF7FEFF 		bl	sbus_to_rc
 856              	.LVL23:
 255:Lib/Motor/Src/unitreeA1_recv.c ****                 send_A1msgToEcat(3);
 857              		.loc 1 255 17 view .LVU262
 858 00ce 0320     		movs	r0, #3
 859 00d0 FFF7FEFF 		bl	unitreeA1_rx
 860              	.LVL24:
 256:Lib/Motor/Src/unitreeA1_recv.c ****             }
 861              		.loc 1 256 17 view .LVU263
 862 00d4 0320     		movs	r0, #3
 863 00d6 FFF7FEFF 		bl	send_A1msgToEcat
 864              	.LVL25:
 865              	.LBE16:
ARM GAS  /tmp/ccMwSyRb.s 			page 27


 866              	.LBE13:
 260:Lib/Motor/Src/unitreeA1_recv.c **** 
 867              		.loc 1 260 1 is_stmt 0 view .LVU264
 868 00da A0E7     		b	.L25
 869              	.L31:
 870              		.align	2
 871              	.L30:
 872 00dc 00000000 		.word	huart3
 873 00e0 00480040 		.word	1073760256
 874 00e4 00000000 		.word	hdma_usart3_rx
 875 00e8 00000000 		.word	.LANCHOR7
 876 00ec 84060000 		.word	.LANCHOR4+1668
 877 00f0 00000000 		.word	.LANCHOR2
 878 00f4 00000000 		.word	hdma_usart6_rx
 879 00f8 00640240 		.word	1073898496
 880 00fc 80000000 		.word	.LANCHOR2+128
 881              		.cfi_endproc
 882              	.LFE137:
 884              		.section	.text.USART6_IRQHandler,"ax",%progbits
 885              		.align	1
 886              		.global	USART6_IRQHandler
 887              		.syntax unified
 888              		.thumb
 889              		.thumb_func
 891              	USART6_IRQHandler:
 892              	.LFB138:
 263:Lib/Motor/Src/unitreeA1_recv.c ****    
 893              		.loc 1 263 1 is_stmt 1 view -0
 894              		.cfi_startproc
 895              		@ args = 0, pretend = 0, frame = 8
 896              		@ frame_needed = 0, uses_anonymous_args = 0
 897 0000 00B5     		push	{lr}
 898              		.cfi_def_cfa_offset 4
 899              		.cfi_offset 14, -4
 900 0002 83B0     		sub	sp, sp, #12
 901              		.cfi_def_cfa_offset 16
 265:Lib/Motor/Src/unitreeA1_recv.c ****     {
 902              		.loc 1 265 5 view .LVU266
 265:Lib/Motor/Src/unitreeA1_recv.c ****     {
 903              		.loc 1 265 15 is_stmt 0 view .LVU267
 904 0004 354B     		ldr	r3, .L37
 905 0006 1B68     		ldr	r3, [r3]
 265:Lib/Motor/Src/unitreeA1_recv.c ****     {
 906              		.loc 1 265 24 view .LVU268
 907 0008 1A68     		ldr	r2, [r3]
 265:Lib/Motor/Src/unitreeA1_recv.c ****     {
 908              		.loc 1 265 8 view .LVU269
 909 000a 12F0200F 		tst	r2, #32
 910 000e 09D0     		beq	.L33
 267:Lib/Motor/Src/unitreeA1_recv.c ****     }
 911              		.loc 1 267 9 is_stmt 1 view .LVU270
 912              	.LBB17:
 267:Lib/Motor/Src/unitreeA1_recv.c ****     }
 913              		.loc 1 267 9 view .LVU271
 914 0010 0022     		movs	r2, #0
 915 0012 0092     		str	r2, [sp]
 267:Lib/Motor/Src/unitreeA1_recv.c ****     }
ARM GAS  /tmp/ccMwSyRb.s 			page 28


 916              		.loc 1 267 9 view .LVU272
 917 0014 1A68     		ldr	r2, [r3]
 918 0016 0092     		str	r2, [sp]
 267:Lib/Motor/Src/unitreeA1_recv.c ****     }
 919              		.loc 1 267 9 view .LVU273
 920 0018 5B68     		ldr	r3, [r3, #4]
 921 001a 0093     		str	r3, [sp]
 267:Lib/Motor/Src/unitreeA1_recv.c ****     }
 922              		.loc 1 267 9 view .LVU274
 923 001c 009B     		ldr	r3, [sp]
 924              	.LBE17:
 267:Lib/Motor/Src/unitreeA1_recv.c ****     }
 925              		.loc 1 267 9 view .LVU275
 926              	.L32:
 338:Lib/Motor/Src/unitreeA1_recv.c **** 
 927              		.loc 1 338 1 is_stmt 0 view .LVU276
 928 001e 03B0     		add	sp, sp, #12
 929              		.cfi_remember_state
 930              		.cfi_def_cfa_offset 4
 931              		@ sp needed
 932 0020 5DF804FB 		ldr	pc, [sp], #4
 933              	.L33:
 934              		.cfi_restore_state
 269:Lib/Motor/Src/unitreeA1_recv.c ****     {
 935              		.loc 1 269 10 is_stmt 1 view .LVU277
 269:Lib/Motor/Src/unitreeA1_recv.c ****     {
 936              		.loc 1 269 20 is_stmt 0 view .LVU278
 937 0024 2E4A     		ldr	r2, .L37+4
 938 0026 1268     		ldr	r2, [r2]
 269:Lib/Motor/Src/unitreeA1_recv.c ****     {
 939              		.loc 1 269 13 view .LVU279
 940 0028 12F0100F 		tst	r2, #16
 941 002c F7D0     		beq	.L32
 942              	.LBB18:
 271:Lib/Motor/Src/unitreeA1_recv.c **** 
 943              		.loc 1 271 9 is_stmt 1 view .LVU280
 273:Lib/Motor/Src/unitreeA1_recv.c **** 
 944              		.loc 1 273 9 view .LVU281
 945              	.LBB19:
 273:Lib/Motor/Src/unitreeA1_recv.c **** 
 946              		.loc 1 273 9 view .LVU282
 947 002e 0022     		movs	r2, #0
 948 0030 0192     		str	r2, [sp, #4]
 273:Lib/Motor/Src/unitreeA1_recv.c **** 
 949              		.loc 1 273 9 view .LVU283
 950 0032 1A68     		ldr	r2, [r3]
 951 0034 0192     		str	r2, [sp, #4]
 273:Lib/Motor/Src/unitreeA1_recv.c **** 
 952              		.loc 1 273 9 view .LVU284
 953 0036 5B68     		ldr	r3, [r3, #4]
 954 0038 0193     		str	r3, [sp, #4]
 273:Lib/Motor/Src/unitreeA1_recv.c **** 
 955              		.loc 1 273 9 view .LVU285
 956 003a 019B     		ldr	r3, [sp, #4]
 957              	.LBE19:
 273:Lib/Motor/Src/unitreeA1_recv.c **** 
 958              		.loc 1 273 9 view .LVU286
ARM GAS  /tmp/ccMwSyRb.s 			page 29


 275:Lib/Motor/Src/unitreeA1_recv.c ****         {
 959              		.loc 1 275 9 view .LVU287
 275:Lib/Motor/Src/unitreeA1_recv.c ****         {
 960              		.loc 1 275 28 is_stmt 0 view .LVU288
 961 003c 294B     		ldr	r3, .L37+8
 962 003e 1B68     		ldr	r3, [r3]
 275:Lib/Motor/Src/unitreeA1_recv.c ****         {
 963              		.loc 1 275 37 view .LVU289
 964 0040 1A68     		ldr	r2, [r3]
 275:Lib/Motor/Src/unitreeA1_recv.c ****         {
 965              		.loc 1 275 12 view .LVU290
 966 0042 12F4002F 		tst	r2, #524288
 967 0046 23D1     		bne	.L35
 281:Lib/Motor/Src/unitreeA1_recv.c **** 
 968              		.loc 1 281 13 is_stmt 1 view .LVU291
 969 0048 1A68     		ldr	r2, [r3]
 970 004a 22F00102 		bic	r2, r2, #1
 971 004e 1A60     		str	r2, [r3]
 285:Lib/Motor/Src/unitreeA1_recv.c **** 
 972              		.loc 1 285 13 view .LVU292
 285:Lib/Motor/Src/unitreeA1_recv.c **** 
 973              		.loc 1 285 64 is_stmt 0 view .LVU293
 974 0050 2448     		ldr	r0, .L37+8
 975 0052 0268     		ldr	r2, [r0]
 285:Lib/Motor/Src/unitreeA1_recv.c **** 
 976              		.loc 1 285 73 view .LVU294
 977 0054 5368     		ldr	r3, [r2, #4]
 285:Lib/Motor/Src/unitreeA1_recv.c **** 
 978              		.loc 1 285 48 view .LVU295
 979 0056 C3F18003 		rsb	r3, r3, #128
 980 005a 9BB2     		uxth	r3, r3
 285:Lib/Motor/Src/unitreeA1_recv.c **** 
 981              		.loc 1 285 30 view .LVU296
 982 005c 2249     		ldr	r1, .L37+12
 983 005e 0B80     		strh	r3, [r1]	@ movhi
 289:Lib/Motor/Src/unitreeA1_recv.c **** 
 984              		.loc 1 289 13 is_stmt 1 view .LVU297
 289:Lib/Motor/Src/unitreeA1_recv.c **** 
 985              		.loc 1 289 43 is_stmt 0 view .LVU298
 986 0060 8021     		movs	r1, #128
 987 0062 5160     		str	r1, [r2, #4]
 293:Lib/Motor/Src/unitreeA1_recv.c **** 
 988              		.loc 1 293 13 is_stmt 1 view .LVU299
 293:Lib/Motor/Src/unitreeA1_recv.c **** 
 989              		.loc 1 293 41 is_stmt 0 view .LVU300
 990 0064 1168     		ldr	r1, [r2]
 991 0066 41F40021 		orr	r1, r1, #524288
 992 006a 1160     		str	r1, [r2]
 297:Lib/Motor/Src/unitreeA1_recv.c **** 
 993              		.loc 1 297 13 is_stmt 1 view .LVU301
 994 006c 0168     		ldr	r1, [r0]
 995 006e 0A68     		ldr	r2, [r1]
 996 0070 42F00102 		orr	r2, r2, #1
 997 0074 0A60     		str	r2, [r1]
 299:Lib/Motor/Src/unitreeA1_recv.c ****             {
 998              		.loc 1 299 13 view .LVU302
 299:Lib/Motor/Src/unitreeA1_recv.c ****             {
ARM GAS  /tmp/ccMwSyRb.s 			page 30


 999              		.loc 1 299 16 is_stmt 0 view .LVU303
 1000 0076 4E2B     		cmp	r3, #78
 1001 0078 D1D1     		bne	.L32
 1002              	.LBB20:
 301:Lib/Motor/Src/unitreeA1_recv.c ****                 unitreeA1_rx(2);
 1003              		.loc 1 301 17 is_stmt 1 view .LVU304
 1004 007a 1C49     		ldr	r1, .L37+16
 1005 007c 1C48     		ldr	r0, .L37+20
 1006 007e FFF7FEFF 		bl	sbus_to_rc
 1007              	.LVL26:
 302:Lib/Motor/Src/unitreeA1_recv.c ****                 send_A1msgToEcat(2);
 1008              		.loc 1 302 17 view .LVU305
 1009 0082 0220     		movs	r0, #2
 1010 0084 FFF7FEFF 		bl	unitreeA1_rx
 1011              	.LVL27:
 303:Lib/Motor/Src/unitreeA1_recv.c ****             }
 1012              		.loc 1 303 17 view .LVU306
 1013 0088 0220     		movs	r0, #2
 1014 008a FFF7FEFF 		bl	send_A1msgToEcat
 1015              	.LVL28:
 1016 008e C6E7     		b	.L32
 1017              	.L35:
 1018              	.LBE20:
 311:Lib/Motor/Src/unitreeA1_recv.c **** 
 1019              		.loc 1 311 13 view .LVU307
 1020 0090 1A68     		ldr	r2, [r3]
 1021 0092 22F00102 		bic	r2, r2, #1
 1022 0096 1A60     		str	r2, [r3]
 315:Lib/Motor/Src/unitreeA1_recv.c **** 
 1023              		.loc 1 315 13 view .LVU308
 315:Lib/Motor/Src/unitreeA1_recv.c **** 
 1024              		.loc 1 315 64 is_stmt 0 view .LVU309
 1025 0098 1249     		ldr	r1, .L37+8
 1026 009a 0868     		ldr	r0, [r1]
 315:Lib/Motor/Src/unitreeA1_recv.c **** 
 1027              		.loc 1 315 73 view .LVU310
 1028 009c 4368     		ldr	r3, [r0, #4]
 315:Lib/Motor/Src/unitreeA1_recv.c **** 
 1029              		.loc 1 315 48 view .LVU311
 1030 009e C3F18003 		rsb	r3, r3, #128
 315:Lib/Motor/Src/unitreeA1_recv.c **** 
 1031              		.loc 1 315 30 view .LVU312
 1032 00a2 114A     		ldr	r2, .L37+12
 1033 00a4 1380     		strh	r3, [r2]	@ movhi
 319:Lib/Motor/Src/unitreeA1_recv.c **** 
 1034              		.loc 1 319 13 is_stmt 1 view .LVU313
 319:Lib/Motor/Src/unitreeA1_recv.c **** 
 1035              		.loc 1 319 43 is_stmt 0 view .LVU314
 1036 00a6 8023     		movs	r3, #128
 1037 00a8 4360     		str	r3, [r0, #4]
 323:Lib/Motor/Src/unitreeA1_recv.c **** 
 1038              		.loc 1 323 13 is_stmt 1 view .LVU315
 323:Lib/Motor/Src/unitreeA1_recv.c **** 
 1039              		.loc 1 323 30 is_stmt 0 view .LVU316
 1040 00aa 1248     		ldr	r0, .L37+24
 1041 00ac 836A     		ldr	r3, [r0, #40]
 1042 00ae 23F40023 		bic	r3, r3, #524288
ARM GAS  /tmp/ccMwSyRb.s 			page 31


 1043 00b2 8362     		str	r3, [r0, #40]
 327:Lib/Motor/Src/unitreeA1_recv.c **** 
 1044              		.loc 1 327 13 is_stmt 1 view .LVU317
 1045 00b4 0968     		ldr	r1, [r1]
 1046 00b6 0B68     		ldr	r3, [r1]
 1047 00b8 43F00103 		orr	r3, r3, #1
 1048 00bc 0B60     		str	r3, [r1]
 329:Lib/Motor/Src/unitreeA1_recv.c ****             {
 1049              		.loc 1 329 13 view .LVU318
 329:Lib/Motor/Src/unitreeA1_recv.c ****             {
 1050              		.loc 1 329 34 is_stmt 0 view .LVU319
 1051 00be 1388     		ldrh	r3, [r2]
 329:Lib/Motor/Src/unitreeA1_recv.c ****             {
 1052              		.loc 1 329 16 view .LVU320
 1053 00c0 4E2B     		cmp	r3, #78
 1054 00c2 ACD1     		bne	.L32
 1055              	.LBB21:
 332:Lib/Motor/Src/unitreeA1_recv.c ****                 unitreeA1_rx(2);
 1056              		.loc 1 332 17 is_stmt 1 view .LVU321
 1057 00c4 0949     		ldr	r1, .L37+16
 1058 00c6 0C48     		ldr	r0, .L37+28
 1059 00c8 FFF7FEFF 		bl	sbus_to_rc
 1060              	.LVL29:
 333:Lib/Motor/Src/unitreeA1_recv.c ****                 send_A1msgToEcat(2);
 1061              		.loc 1 333 17 view .LVU322
 1062 00cc 0220     		movs	r0, #2
 1063 00ce FFF7FEFF 		bl	unitreeA1_rx
 1064              	.LVL30:
 334:Lib/Motor/Src/unitreeA1_recv.c ****             }
 1065              		.loc 1 334 17 view .LVU323
 1066 00d2 0220     		movs	r0, #2
 1067 00d4 FFF7FEFF 		bl	send_A1msgToEcat
 1068              	.LVL31:
 1069              	.LBE21:
 1070              	.LBE18:
 338:Lib/Motor/Src/unitreeA1_recv.c **** 
 1071              		.loc 1 338 1 is_stmt 0 view .LVU324
 1072 00d8 A1E7     		b	.L32
 1073              	.L38:
 1074 00da 00BF     		.align	2
 1075              	.L37:
 1076 00dc 00000000 		.word	huart6
 1077 00e0 00140140 		.word	1073812480
 1078 00e4 00000000 		.word	hdma_usart6_rx
 1079 00e8 00000000 		.word	.LANCHOR8
 1080 00ec E0040000 		.word	.LANCHOR4+1248
 1081 00f0 00000000 		.word	.LANCHOR3
 1082 00f4 00640240 		.word	1073898496
 1083 00f8 80000000 		.word	.LANCHOR3+128
 1084              		.cfi_endproc
 1085              	.LFE138:
 1087              		.global	data_motor
 1088              		.global	leg
 1089              		.section	.bss.data_motor,"aw",%nobits
 1090              		.align	2
 1093              	data_motor:
 1094 0000 00000000 		.space	1632
ARM GAS  /tmp/ccMwSyRb.s 			page 32


 1094      00000000 
 1094      00000000 
 1094      00000000 
 1094      00000000 
 1095              		.section	.bss.leg,"aw",%nobits
 1096              		.align	2
 1097              		.set	.LANCHOR4,. + 0
 1100              	leg:
 1101 0000 00000000 		.space	1680
 1101      00000000 
 1101      00000000 
 1101      00000000 
 1101      00000000 
 1102              		.section	.bss.sbus_rx_buf_LB,"aw",%nobits
 1103              		.align	2
 1104              		.set	.LANCHOR1,. + 0
 1107              	sbus_rx_buf_LB:
 1108 0000 00000000 		.space	256
 1108      00000000 
 1108      00000000 
 1108      00000000 
 1108      00000000 
 1109              		.section	.bss.sbus_rx_buf_LF,"aw",%nobits
 1110              		.align	2
 1111              		.set	.LANCHOR0,. + 0
 1114              	sbus_rx_buf_LF:
 1115 0000 00000000 		.space	256
 1115      00000000 
 1115      00000000 
 1115      00000000 
 1115      00000000 
 1116              		.section	.bss.sbus_rx_buf_RB,"aw",%nobits
 1117              		.align	2
 1118              		.set	.LANCHOR2,. + 0
 1121              	sbus_rx_buf_RB:
 1122 0000 00000000 		.space	256
 1122      00000000 
 1122      00000000 
 1122      00000000 
 1122      00000000 
 1123              		.section	.bss.sbus_rx_buf_RF,"aw",%nobits
 1124              		.align	2
 1125              		.set	.LANCHOR3,. + 0
 1128              	sbus_rx_buf_RF:
 1129 0000 00000000 		.space	256
 1129      00000000 
 1129      00000000 
 1129      00000000 
 1129      00000000 
 1130              		.section	.bss.this_time_rx_len.0,"aw",%nobits
 1131              		.align	1
 1132              		.set	.LANCHOR8,. + 0
 1135              	this_time_rx_len.0:
 1136 0000 0000     		.space	2
 1137              		.section	.bss.this_time_rx_len.1,"aw",%nobits
 1138              		.align	1
 1139              		.set	.LANCHOR7,. + 0
ARM GAS  /tmp/ccMwSyRb.s 			page 33


 1142              	this_time_rx_len.1:
 1143 0000 0000     		.space	2
 1144              		.section	.bss.this_time_rx_len.2,"aw",%nobits
 1145              		.align	1
 1146              		.set	.LANCHOR6,. + 0
 1149              	this_time_rx_len.2:
 1150 0000 0000     		.space	2
 1151              		.section	.bss.this_time_rx_len.3,"aw",%nobits
 1152              		.align	1
 1153              		.set	.LANCHOR5,. + 0
 1156              	this_time_rx_len.3:
 1157 0000 0000     		.space	2
 1158              		.text
 1159              	.Letext0:
 1160              		.file 2 "/usr/share/gcc-arm-none-eabi-10.3-2021.10/arm-none-eabi/include/machine/_default_types.h"
 1161              		.file 3 "/usr/share/gcc-arm-none-eabi-10.3-2021.10/arm-none-eabi/include/sys/_stdint.h"
 1162              		.file 4 "Lib/Motor/Inc/unitreeA1_msg.h"
 1163              		.file 5 "Drivers/CMSIS/Device/ST/STM32F4xx/Include/stm32f405xx.h"
 1164              		.file 6 "Drivers/CMSIS/Device/ST/STM32F4xx/Include/stm32f4xx.h"
 1165              		.file 7 "Drivers/STM32F4xx_HAL_Driver/Inc/stm32f4xx_hal_def.h"
 1166              		.file 8 "Drivers/STM32F4xx_HAL_Driver/Inc/stm32f4xx_hal_dma.h"
 1167              		.file 9 "Drivers/STM32F4xx_HAL_Driver/Inc/stm32f4xx_hal_uart.h"
 1168              		.file 10 "Core/Inc/usart.h"
 1169              		.file 11 "Lib/Motor/Inc/unitreeA1_cmd.h"
 1170              		.file 12 "Lib/Motor/Inc/bsp_dma.h"
 1171              		.file 13 "Lib/Motor/Inc/unitreeA1_recv.h"
 1172              		.file 14 "Lib/SPI_Bus/Inc/data_def.h"
ARM GAS  /tmp/ccMwSyRb.s 			page 34

