ARM GAS  /tmp/ccLmkdSp.s 			page 1


   1              		.cpu cortex-m4
   2              		.arch armv7e-m
   3              		.fpu fpv4-sp-d16
   4              		.eabi_attribute 27, 1
   5              		.eabi_attribute 28, 1
   6              		.eabi_attribute 20, 1
   7              		.eabi_attribute 21, 1
   8              		.eabi_attribute 23, 3
   9              		.eabi_attribute 24, 1
  10              		.eabi_attribute 25, 1
  11              		.eabi_attribute 26, 1
  12              		.eabi_attribute 30, 1
  13              		.eabi_attribute 34, 1
  14              		.eabi_attribute 18, 4
  15              		.file	"unitreeA1_recv.c"
  16              		.text
  17              	.Ltext0:
  18              		.cfi_sections	.debug_frame
  19              		.section	.text.sbus_to_rc,"ax",%progbits
  20              		.align	1
  21              		.syntax unified
  22              		.thumb
  23              		.thumb_func
  25              	sbus_to_rc:
  26              	.LVL0:
  27              	.LFB140:
  28              		.file 1 "Lib/Motor/Src/unitreeA1_recv.c"
   1:Lib/Motor/Src/unitreeA1_recv.c **** #include "unitreeA1_recv.h"
   2:Lib/Motor/Src/unitreeA1_recv.c **** 
   3:Lib/Motor/Src/unitreeA1_recv.c **** #include "data_def.h"
   4:Lib/Motor/Src/unitreeA1_recv.c **** 
   5:Lib/Motor/Src/unitreeA1_recv.c **** #define LF 0
   6:Lib/Motor/Src/unitreeA1_recv.c **** #define LB 1
   7:Lib/Motor/Src/unitreeA1_recv.c **** #define RF 2
   8:Lib/Motor/Src/unitreeA1_recv.c **** #define RB 3
   9:Lib/Motor/Src/unitreeA1_recv.c **** 
  10:Lib/Motor/Src/unitreeA1_recv.c **** Leg leg[4];
  11:Lib/Motor/Src/unitreeA1_recv.c **** 
  12:Lib/Motor/Src/unitreeA1_recv.c **** motor_recv_t data_motor[4][3];
  13:Lib/Motor/Src/unitreeA1_recv.c **** extern A1PackageSpiTx A1date[4][3];
  14:Lib/Motor/Src/unitreeA1_recv.c **** 
  15:Lib/Motor/Src/unitreeA1_recv.c **** static uint8_t sbus_rx_buf_LF[2][SBUS_RX_BUF_NUM]; // 128字节,防越界
  16:Lib/Motor/Src/unitreeA1_recv.c **** static uint8_t sbus_rx_buf_LB[2][SBUS_RX_BUF_NUM]; // 128字节,防越界
  17:Lib/Motor/Src/unitreeA1_recv.c **** static uint8_t sbus_rx_buf_RF[2][SBUS_RX_BUF_NUM]; // 128字节,防越界
  18:Lib/Motor/Src/unitreeA1_recv.c **** static uint8_t sbus_rx_buf_RB[2][SBUS_RX_BUF_NUM]; // 128字节,防越界
  19:Lib/Motor/Src/unitreeA1_recv.c **** 
  20:Lib/Motor/Src/unitreeA1_recv.c **** void remote_control_init(void)
  21:Lib/Motor/Src/unitreeA1_recv.c **** {
  22:Lib/Motor/Src/unitreeA1_recv.c ****     RC1_init(sbus_rx_buf_LF[0], sbus_rx_buf_LF[1], SBUS_RX_BUF_NUM);
  23:Lib/Motor/Src/unitreeA1_recv.c ****     RC2_init(sbus_rx_buf_LB[0], sbus_rx_buf_LB[1], SBUS_RX_BUF_NUM);
  24:Lib/Motor/Src/unitreeA1_recv.c ****     RC3_init(sbus_rx_buf_RB[0], sbus_rx_buf_RB[1], SBUS_RX_BUF_NUM);
  25:Lib/Motor/Src/unitreeA1_recv.c ****     RC6_init(sbus_rx_buf_RF[0], sbus_rx_buf_RF[1], SBUS_RX_BUF_NUM);
  26:Lib/Motor/Src/unitreeA1_recv.c **** }
  27:Lib/Motor/Src/unitreeA1_recv.c **** 
  28:Lib/Motor/Src/unitreeA1_recv.c **** void USART1_IRQHandler(void)
  29:Lib/Motor/Src/unitreeA1_recv.c **** {
  30:Lib/Motor/Src/unitreeA1_recv.c ****     
ARM GAS  /tmp/ccLmkdSp.s 			page 2


  31:Lib/Motor/Src/unitreeA1_recv.c ****     if (huart1.Instance->SR & UART_FLAG_RXNE) // 接收到数据
  32:Lib/Motor/Src/unitreeA1_recv.c ****     {
  33:Lib/Motor/Src/unitreeA1_recv.c ****         __HAL_UART_CLEAR_PEFLAG(&huart1);
  34:Lib/Motor/Src/unitreeA1_recv.c ****     }
  35:Lib/Motor/Src/unitreeA1_recv.c ****     else if (USART1->SR & UART_FLAG_IDLE)
  36:Lib/Motor/Src/unitreeA1_recv.c ****     {
  37:Lib/Motor/Src/unitreeA1_recv.c ****         static uint16_t this_time_rx_len = 0;
  38:Lib/Motor/Src/unitreeA1_recv.c **** 
  39:Lib/Motor/Src/unitreeA1_recv.c ****         __HAL_UART_CLEAR_PEFLAG(&huart1);
  40:Lib/Motor/Src/unitreeA1_recv.c **** 
  41:Lib/Motor/Src/unitreeA1_recv.c ****         if ((hdma_usart1_rx.Instance->CR & DMA_SxCR_CT) == RESET)
  42:Lib/Motor/Src/unitreeA1_recv.c ****         {
  43:Lib/Motor/Src/unitreeA1_recv.c ****             /* Current memory buffer used is Memory 0 */
  44:Lib/Motor/Src/unitreeA1_recv.c **** 
  45:Lib/Motor/Src/unitreeA1_recv.c ****             // disable DMA
  46:Lib/Motor/Src/unitreeA1_recv.c ****             // 失效DMA
  47:Lib/Motor/Src/unitreeA1_recv.c ****             __HAL_DMA_DISABLE(&hdma_usart1_rx);
  48:Lib/Motor/Src/unitreeA1_recv.c **** 
  49:Lib/Motor/Src/unitreeA1_recv.c ****             // get receive data length, length = set_data_length - remain_length
  50:Lib/Motor/Src/unitreeA1_recv.c ****             // 获取接收数据长度,长度 = 设定长度 - 剩余长度
  51:Lib/Motor/Src/unitreeA1_recv.c ****             this_time_rx_len = SBUS_RX_BUF_NUM - hdma_usart1_rx.Instance->NDTR;
  52:Lib/Motor/Src/unitreeA1_recv.c **** 
  53:Lib/Motor/Src/unitreeA1_recv.c ****             // reset set_data_lenght
  54:Lib/Motor/Src/unitreeA1_recv.c ****             // 重新设定数据长度
  55:Lib/Motor/Src/unitreeA1_recv.c ****             hdma_usart1_rx.Instance->NDTR = SBUS_RX_BUF_NUM;
  56:Lib/Motor/Src/unitreeA1_recv.c **** 
  57:Lib/Motor/Src/unitreeA1_recv.c ****             // set memory buffer 1
  58:Lib/Motor/Src/unitreeA1_recv.c ****             // 设定缓冲区1
  59:Lib/Motor/Src/unitreeA1_recv.c ****             hdma_usart1_rx.Instance->CR |= DMA_SxCR_CT;
  60:Lib/Motor/Src/unitreeA1_recv.c **** 
  61:Lib/Motor/Src/unitreeA1_recv.c ****             // enable DMA
  62:Lib/Motor/Src/unitreeA1_recv.c ****             // 使能DMA
  63:Lib/Motor/Src/unitreeA1_recv.c ****             __HAL_DMA_ENABLE(&hdma_usart1_rx);
  64:Lib/Motor/Src/unitreeA1_recv.c **** 
  65:Lib/Motor/Src/unitreeA1_recv.c ****             if (this_time_rx_len == RC_FRAME_LENGTH)
  66:Lib/Motor/Src/unitreeA1_recv.c ****             {
  67:Lib/Motor/Src/unitreeA1_recv.c ****                 sbus_to_rc(sbus_rx_buf_LF[0], &leg[LF].a1_buf);
  68:Lib/Motor/Src/unitreeA1_recv.c ****                 unitreeA1_rx(0);
  69:Lib/Motor/Src/unitreeA1_recv.c ****                 
  70:Lib/Motor/Src/unitreeA1_recv.c ****             }
  71:Lib/Motor/Src/unitreeA1_recv.c ****         }
  72:Lib/Motor/Src/unitreeA1_recv.c ****         else
  73:Lib/Motor/Src/unitreeA1_recv.c ****         {
  74:Lib/Motor/Src/unitreeA1_recv.c ****             /* Current memory buffer used is Memory 1 */
  75:Lib/Motor/Src/unitreeA1_recv.c ****             // disable DMA
  76:Lib/Motor/Src/unitreeA1_recv.c ****             // 失效DMA
  77:Lib/Motor/Src/unitreeA1_recv.c ****             __HAL_DMA_DISABLE(&hdma_usart1_rx);
  78:Lib/Motor/Src/unitreeA1_recv.c **** 
  79:Lib/Motor/Src/unitreeA1_recv.c ****             // get receive data length, length = set_data_length - remain_length
  80:Lib/Motor/Src/unitreeA1_recv.c ****             // 获取接收数据长度,长度 = 设定长度 - 剩余长度
  81:Lib/Motor/Src/unitreeA1_recv.c ****             this_time_rx_len = SBUS_RX_BUF_NUM - hdma_usart1_rx.Instance->NDTR;
  82:Lib/Motor/Src/unitreeA1_recv.c **** 
  83:Lib/Motor/Src/unitreeA1_recv.c ****             // reset set_data_lenght
  84:Lib/Motor/Src/unitreeA1_recv.c ****             // 重新设定数据长度
  85:Lib/Motor/Src/unitreeA1_recv.c ****             hdma_usart1_rx.Instance->NDTR = SBUS_RX_BUF_NUM;
  86:Lib/Motor/Src/unitreeA1_recv.c **** 
  87:Lib/Motor/Src/unitreeA1_recv.c ****             // set memory buffer 0
ARM GAS  /tmp/ccLmkdSp.s 			page 3


  88:Lib/Motor/Src/unitreeA1_recv.c ****             // 设定缓冲区0
  89:Lib/Motor/Src/unitreeA1_recv.c ****             DMA2_Stream2->CR &= ~(DMA_SxCR_CT);
  90:Lib/Motor/Src/unitreeA1_recv.c **** 
  91:Lib/Motor/Src/unitreeA1_recv.c ****             // enable DMA
  92:Lib/Motor/Src/unitreeA1_recv.c ****             // 使能DMA
  93:Lib/Motor/Src/unitreeA1_recv.c ****             __HAL_DMA_ENABLE(&hdma_usart1_rx);
  94:Lib/Motor/Src/unitreeA1_recv.c **** 
  95:Lib/Motor/Src/unitreeA1_recv.c ****             if (this_time_rx_len == RC_FRAME_LENGTH)
  96:Lib/Motor/Src/unitreeA1_recv.c ****             {
  97:Lib/Motor/Src/unitreeA1_recv.c ****                 // 处理数据
  98:Lib/Motor/Src/unitreeA1_recv.c ****                 sbus_to_rc(sbus_rx_buf_LF[1], &leg[LF].a1_buf);
  99:Lib/Motor/Src/unitreeA1_recv.c ****                 unitreeA1_rx(0);
 100:Lib/Motor/Src/unitreeA1_recv.c ****                 
 101:Lib/Motor/Src/unitreeA1_recv.c ****             }
 102:Lib/Motor/Src/unitreeA1_recv.c ****         }
 103:Lib/Motor/Src/unitreeA1_recv.c ****     }
 104:Lib/Motor/Src/unitreeA1_recv.c **** }
 105:Lib/Motor/Src/unitreeA1_recv.c **** 
 106:Lib/Motor/Src/unitreeA1_recv.c **** void USART2_IRQHandler(void)
 107:Lib/Motor/Src/unitreeA1_recv.c **** {
 108:Lib/Motor/Src/unitreeA1_recv.c ****    
 109:Lib/Motor/Src/unitreeA1_recv.c ****     if (huart2.Instance->SR & UART_FLAG_RXNE) // 接收到数据
 110:Lib/Motor/Src/unitreeA1_recv.c ****     {
 111:Lib/Motor/Src/unitreeA1_recv.c ****         __HAL_UART_CLEAR_PEFLAG(&huart2);
 112:Lib/Motor/Src/unitreeA1_recv.c ****     }
 113:Lib/Motor/Src/unitreeA1_recv.c ****     else if (USART2->SR & UART_FLAG_IDLE)
 114:Lib/Motor/Src/unitreeA1_recv.c ****     {
 115:Lib/Motor/Src/unitreeA1_recv.c ****         static uint16_t this_time_rx_len = 0;
 116:Lib/Motor/Src/unitreeA1_recv.c **** 
 117:Lib/Motor/Src/unitreeA1_recv.c ****         __HAL_UART_CLEAR_PEFLAG(&huart2);
 118:Lib/Motor/Src/unitreeA1_recv.c **** 
 119:Lib/Motor/Src/unitreeA1_recv.c ****         if ((hdma_usart2_rx.Instance->CR & DMA_SxCR_CT) == RESET)
 120:Lib/Motor/Src/unitreeA1_recv.c ****         {
 121:Lib/Motor/Src/unitreeA1_recv.c ****             /* Current memory buffer used is Memory 0 */
 122:Lib/Motor/Src/unitreeA1_recv.c **** 
 123:Lib/Motor/Src/unitreeA1_recv.c ****             // disable DMA
 124:Lib/Motor/Src/unitreeA1_recv.c ****             // 失效DMA
 125:Lib/Motor/Src/unitreeA1_recv.c ****             __HAL_DMA_DISABLE(&hdma_usart2_rx);
 126:Lib/Motor/Src/unitreeA1_recv.c **** 
 127:Lib/Motor/Src/unitreeA1_recv.c ****             // get receive data length, length = set_data_length - remain_length
 128:Lib/Motor/Src/unitreeA1_recv.c ****             // 获取接收数据长度,长度 = 设定长度 - 剩余长度
 129:Lib/Motor/Src/unitreeA1_recv.c ****             this_time_rx_len = SBUS_RX_BUF_NUM - hdma_usart2_rx.Instance->NDTR;
 130:Lib/Motor/Src/unitreeA1_recv.c **** 
 131:Lib/Motor/Src/unitreeA1_recv.c ****             // reset set_data_lenght
 132:Lib/Motor/Src/unitreeA1_recv.c ****             // 重新设定数据长度
 133:Lib/Motor/Src/unitreeA1_recv.c ****             hdma_usart2_rx.Instance->NDTR = SBUS_RX_BUF_NUM;
 134:Lib/Motor/Src/unitreeA1_recv.c **** 
 135:Lib/Motor/Src/unitreeA1_recv.c ****             // set memory buffer 1
 136:Lib/Motor/Src/unitreeA1_recv.c ****             // 设定缓冲区1
 137:Lib/Motor/Src/unitreeA1_recv.c ****             hdma_usart2_rx.Instance->CR |= DMA_SxCR_CT;
 138:Lib/Motor/Src/unitreeA1_recv.c **** 
 139:Lib/Motor/Src/unitreeA1_recv.c ****             // enable DMA
 140:Lib/Motor/Src/unitreeA1_recv.c ****             // 使能DMA
 141:Lib/Motor/Src/unitreeA1_recv.c ****             __HAL_DMA_ENABLE(&hdma_usart2_rx);
 142:Lib/Motor/Src/unitreeA1_recv.c **** 
 143:Lib/Motor/Src/unitreeA1_recv.c ****             if (this_time_rx_len == RC_FRAME_LENGTH)
 144:Lib/Motor/Src/unitreeA1_recv.c ****             {
ARM GAS  /tmp/ccLmkdSp.s 			page 4


 145:Lib/Motor/Src/unitreeA1_recv.c ****                 sbus_to_rc(sbus_rx_buf_LB[0], &leg[LB].a1_buf);
 146:Lib/Motor/Src/unitreeA1_recv.c ****                 unitreeA1_rx(1);
 147:Lib/Motor/Src/unitreeA1_recv.c ****                 
 148:Lib/Motor/Src/unitreeA1_recv.c ****             }
 149:Lib/Motor/Src/unitreeA1_recv.c ****         }
 150:Lib/Motor/Src/unitreeA1_recv.c ****         else
 151:Lib/Motor/Src/unitreeA1_recv.c ****         {
 152:Lib/Motor/Src/unitreeA1_recv.c ****             /* Current memory buffer used is Memory 1 */
 153:Lib/Motor/Src/unitreeA1_recv.c ****             // disable DMA
 154:Lib/Motor/Src/unitreeA1_recv.c ****             // 失效DMA
 155:Lib/Motor/Src/unitreeA1_recv.c ****             __HAL_DMA_DISABLE(&hdma_usart6_rx);
 156:Lib/Motor/Src/unitreeA1_recv.c **** 
 157:Lib/Motor/Src/unitreeA1_recv.c ****             // get receive data length, length = set_data_length - remain_length
 158:Lib/Motor/Src/unitreeA1_recv.c ****             // 获取接收数据长度,长度 = 设定长度 - 剩余长度
 159:Lib/Motor/Src/unitreeA1_recv.c ****             this_time_rx_len = SBUS_RX_BUF_NUM - hdma_usart6_rx.Instance->NDTR;
 160:Lib/Motor/Src/unitreeA1_recv.c **** 
 161:Lib/Motor/Src/unitreeA1_recv.c ****             // reset set_data_lenght
 162:Lib/Motor/Src/unitreeA1_recv.c ****             // 重新设定数据长度
 163:Lib/Motor/Src/unitreeA1_recv.c ****             hdma_usart6_rx.Instance->NDTR = SBUS_RX_BUF_NUM;
 164:Lib/Motor/Src/unitreeA1_recv.c **** 
 165:Lib/Motor/Src/unitreeA1_recv.c ****             // set memory buffer 0
 166:Lib/Motor/Src/unitreeA1_recv.c ****             // 设定缓冲区0
 167:Lib/Motor/Src/unitreeA1_recv.c ****             DMA2_Stream1->CR &= ~(DMA_SxCR_CT);
 168:Lib/Motor/Src/unitreeA1_recv.c **** 
 169:Lib/Motor/Src/unitreeA1_recv.c ****             // enable DMA
 170:Lib/Motor/Src/unitreeA1_recv.c ****             // 使能DMA
 171:Lib/Motor/Src/unitreeA1_recv.c ****             __HAL_DMA_ENABLE(&hdma_usart6_rx);
 172:Lib/Motor/Src/unitreeA1_recv.c **** 
 173:Lib/Motor/Src/unitreeA1_recv.c ****             if (this_time_rx_len == RC_FRAME_LENGTH)
 174:Lib/Motor/Src/unitreeA1_recv.c ****             {
 175:Lib/Motor/Src/unitreeA1_recv.c ****                 // 处理数据
 176:Lib/Motor/Src/unitreeA1_recv.c ****                 sbus_to_rc(sbus_rx_buf_LB[1], &leg[LB].a1_buf);
 177:Lib/Motor/Src/unitreeA1_recv.c ****                 unitreeA1_rx(1);
 178:Lib/Motor/Src/unitreeA1_recv.c ****                 
 179:Lib/Motor/Src/unitreeA1_recv.c ****             }
 180:Lib/Motor/Src/unitreeA1_recv.c ****         }
 181:Lib/Motor/Src/unitreeA1_recv.c ****     }
 182:Lib/Motor/Src/unitreeA1_recv.c **** }
 183:Lib/Motor/Src/unitreeA1_recv.c **** 
 184:Lib/Motor/Src/unitreeA1_recv.c **** void USART3_IRQHandler(void)
 185:Lib/Motor/Src/unitreeA1_recv.c **** {
 186:Lib/Motor/Src/unitreeA1_recv.c ****   
 187:Lib/Motor/Src/unitreeA1_recv.c ****     if (huart3.Instance->SR & UART_FLAG_RXNE) // 接收到数据
 188:Lib/Motor/Src/unitreeA1_recv.c ****     {
 189:Lib/Motor/Src/unitreeA1_recv.c ****         __HAL_UART_CLEAR_PEFLAG(&huart3);
 190:Lib/Motor/Src/unitreeA1_recv.c ****     }
 191:Lib/Motor/Src/unitreeA1_recv.c ****     else if (USART3->SR & UART_FLAG_IDLE)
 192:Lib/Motor/Src/unitreeA1_recv.c ****     {
 193:Lib/Motor/Src/unitreeA1_recv.c ****         static uint16_t this_time_rx_len = 0;
 194:Lib/Motor/Src/unitreeA1_recv.c **** 
 195:Lib/Motor/Src/unitreeA1_recv.c ****         __HAL_UART_CLEAR_PEFLAG(&huart3);
 196:Lib/Motor/Src/unitreeA1_recv.c **** 
 197:Lib/Motor/Src/unitreeA1_recv.c ****         if ((hdma_usart3_rx.Instance->CR & DMA_SxCR_CT) == RESET)
 198:Lib/Motor/Src/unitreeA1_recv.c ****         {
 199:Lib/Motor/Src/unitreeA1_recv.c ****             /* Current memory buffer used is Memory 0 */
 200:Lib/Motor/Src/unitreeA1_recv.c **** 
 201:Lib/Motor/Src/unitreeA1_recv.c ****             // disable DMA
ARM GAS  /tmp/ccLmkdSp.s 			page 5


 202:Lib/Motor/Src/unitreeA1_recv.c ****             // 失效DMA
 203:Lib/Motor/Src/unitreeA1_recv.c ****             __HAL_DMA_DISABLE(&hdma_usart3_rx);
 204:Lib/Motor/Src/unitreeA1_recv.c **** 
 205:Lib/Motor/Src/unitreeA1_recv.c ****             // get receive data length, length = set_data_length - remain_length
 206:Lib/Motor/Src/unitreeA1_recv.c ****             // 获取接收数据长度,长度 = 设定长度 - 剩余长度
 207:Lib/Motor/Src/unitreeA1_recv.c ****             this_time_rx_len = SBUS_RX_BUF_NUM - hdma_usart3_rx.Instance->NDTR;
 208:Lib/Motor/Src/unitreeA1_recv.c **** 
 209:Lib/Motor/Src/unitreeA1_recv.c ****             // reset set_data_lenght
 210:Lib/Motor/Src/unitreeA1_recv.c ****             // 重新设定数据长度
 211:Lib/Motor/Src/unitreeA1_recv.c ****             hdma_usart3_rx.Instance->NDTR = SBUS_RX_BUF_NUM;
 212:Lib/Motor/Src/unitreeA1_recv.c **** 
 213:Lib/Motor/Src/unitreeA1_recv.c ****             // set memory buffer 1
 214:Lib/Motor/Src/unitreeA1_recv.c ****             // 设定缓冲区1
 215:Lib/Motor/Src/unitreeA1_recv.c ****             hdma_usart3_rx.Instance->CR |= DMA_SxCR_CT;
 216:Lib/Motor/Src/unitreeA1_recv.c **** 
 217:Lib/Motor/Src/unitreeA1_recv.c ****             // enable DMA
 218:Lib/Motor/Src/unitreeA1_recv.c ****             // 使能DMA
 219:Lib/Motor/Src/unitreeA1_recv.c ****             __HAL_DMA_ENABLE(&hdma_usart3_rx);
 220:Lib/Motor/Src/unitreeA1_recv.c **** 
 221:Lib/Motor/Src/unitreeA1_recv.c ****             if (this_time_rx_len == RC_FRAME_LENGTH)
 222:Lib/Motor/Src/unitreeA1_recv.c ****             {
 223:Lib/Motor/Src/unitreeA1_recv.c ****                 sbus_to_rc(sbus_rx_buf_RB[0], &leg[RB].a1_buf);
 224:Lib/Motor/Src/unitreeA1_recv.c ****                 unitreeA1_rx(3);
 225:Lib/Motor/Src/unitreeA1_recv.c ****                 
 226:Lib/Motor/Src/unitreeA1_recv.c ****             }
 227:Lib/Motor/Src/unitreeA1_recv.c ****         }
 228:Lib/Motor/Src/unitreeA1_recv.c ****         else
 229:Lib/Motor/Src/unitreeA1_recv.c ****         {
 230:Lib/Motor/Src/unitreeA1_recv.c ****             /* Current memory buffer used is Memory 1 */
 231:Lib/Motor/Src/unitreeA1_recv.c ****             // disable DMA
 232:Lib/Motor/Src/unitreeA1_recv.c ****             // 失效DMA
 233:Lib/Motor/Src/unitreeA1_recv.c ****             __HAL_DMA_DISABLE(&hdma_usart6_rx);
 234:Lib/Motor/Src/unitreeA1_recv.c **** 
 235:Lib/Motor/Src/unitreeA1_recv.c ****             // get receive data length, length = set_data_length - remain_length
 236:Lib/Motor/Src/unitreeA1_recv.c ****             // 获取接收数据长度,长度 = 设定长度 - 剩余长度
 237:Lib/Motor/Src/unitreeA1_recv.c ****             this_time_rx_len = SBUS_RX_BUF_NUM - hdma_usart6_rx.Instance->NDTR;
 238:Lib/Motor/Src/unitreeA1_recv.c **** 
 239:Lib/Motor/Src/unitreeA1_recv.c ****             // reset set_data_lenght
 240:Lib/Motor/Src/unitreeA1_recv.c ****             // 重新设定数据长度
 241:Lib/Motor/Src/unitreeA1_recv.c ****             hdma_usart6_rx.Instance->NDTR = SBUS_RX_BUF_NUM;
 242:Lib/Motor/Src/unitreeA1_recv.c **** 
 243:Lib/Motor/Src/unitreeA1_recv.c ****             // set memory buffer 0
 244:Lib/Motor/Src/unitreeA1_recv.c ****             // 设定缓冲区0
 245:Lib/Motor/Src/unitreeA1_recv.c ****             DMA2_Stream1->CR &= ~(DMA_SxCR_CT);
 246:Lib/Motor/Src/unitreeA1_recv.c **** 
 247:Lib/Motor/Src/unitreeA1_recv.c ****             // enable DMA
 248:Lib/Motor/Src/unitreeA1_recv.c ****             // 使能DMA
 249:Lib/Motor/Src/unitreeA1_recv.c ****             __HAL_DMA_ENABLE(&hdma_usart6_rx);
 250:Lib/Motor/Src/unitreeA1_recv.c **** 
 251:Lib/Motor/Src/unitreeA1_recv.c ****             if (this_time_rx_len == RC_FRAME_LENGTH)
 252:Lib/Motor/Src/unitreeA1_recv.c ****             {
 253:Lib/Motor/Src/unitreeA1_recv.c ****                 // 处理数据
 254:Lib/Motor/Src/unitreeA1_recv.c ****                 sbus_to_rc(sbus_rx_buf_RB[1], &leg[RB].a1_buf);
 255:Lib/Motor/Src/unitreeA1_recv.c ****                 unitreeA1_rx(3);
 256:Lib/Motor/Src/unitreeA1_recv.c ****                
 257:Lib/Motor/Src/unitreeA1_recv.c ****             }
 258:Lib/Motor/Src/unitreeA1_recv.c ****         }
ARM GAS  /tmp/ccLmkdSp.s 			page 6


 259:Lib/Motor/Src/unitreeA1_recv.c ****     }
 260:Lib/Motor/Src/unitreeA1_recv.c **** }
 261:Lib/Motor/Src/unitreeA1_recv.c **** 
 262:Lib/Motor/Src/unitreeA1_recv.c **** void USART6_IRQHandler(void)
 263:Lib/Motor/Src/unitreeA1_recv.c **** {
 264:Lib/Motor/Src/unitreeA1_recv.c ****    
 265:Lib/Motor/Src/unitreeA1_recv.c ****     if (huart6.Instance->SR & UART_FLAG_RXNE) // 接收到数据
 266:Lib/Motor/Src/unitreeA1_recv.c ****     {
 267:Lib/Motor/Src/unitreeA1_recv.c ****         __HAL_UART_CLEAR_PEFLAG(&huart6);
 268:Lib/Motor/Src/unitreeA1_recv.c ****     }
 269:Lib/Motor/Src/unitreeA1_recv.c ****     else if (USART6->SR & UART_FLAG_IDLE)
 270:Lib/Motor/Src/unitreeA1_recv.c ****     {
 271:Lib/Motor/Src/unitreeA1_recv.c ****         static uint16_t this_time_rx_len = 0;
 272:Lib/Motor/Src/unitreeA1_recv.c **** 
 273:Lib/Motor/Src/unitreeA1_recv.c ****         __HAL_UART_CLEAR_PEFLAG(&huart6);
 274:Lib/Motor/Src/unitreeA1_recv.c **** 
 275:Lib/Motor/Src/unitreeA1_recv.c ****         if ((hdma_usart6_rx.Instance->CR & DMA_SxCR_CT) == RESET)
 276:Lib/Motor/Src/unitreeA1_recv.c ****         {
 277:Lib/Motor/Src/unitreeA1_recv.c ****             /* Current memory buffer used is Memory 0 */
 278:Lib/Motor/Src/unitreeA1_recv.c **** 
 279:Lib/Motor/Src/unitreeA1_recv.c ****             // disable DMA
 280:Lib/Motor/Src/unitreeA1_recv.c ****             // 失效DMA
 281:Lib/Motor/Src/unitreeA1_recv.c ****             __HAL_DMA_DISABLE(&hdma_usart6_rx);
 282:Lib/Motor/Src/unitreeA1_recv.c **** 
 283:Lib/Motor/Src/unitreeA1_recv.c ****             // get receive data length, length = set_data_length - remain_length
 284:Lib/Motor/Src/unitreeA1_recv.c ****             // 获取接收数据长度,长度 = 设定长度 - 剩余长度
 285:Lib/Motor/Src/unitreeA1_recv.c ****             this_time_rx_len = SBUS_RX_BUF_NUM - hdma_usart6_rx.Instance->NDTR;
 286:Lib/Motor/Src/unitreeA1_recv.c **** 
 287:Lib/Motor/Src/unitreeA1_recv.c ****             // reset set_data_lenght
 288:Lib/Motor/Src/unitreeA1_recv.c ****             // 重新设定数据长度
 289:Lib/Motor/Src/unitreeA1_recv.c ****             hdma_usart6_rx.Instance->NDTR = SBUS_RX_BUF_NUM;
 290:Lib/Motor/Src/unitreeA1_recv.c **** 
 291:Lib/Motor/Src/unitreeA1_recv.c ****             // set memory buffer 1
 292:Lib/Motor/Src/unitreeA1_recv.c ****             // 设定缓冲区1
 293:Lib/Motor/Src/unitreeA1_recv.c ****             hdma_usart6_rx.Instance->CR |= DMA_SxCR_CT;
 294:Lib/Motor/Src/unitreeA1_recv.c **** 
 295:Lib/Motor/Src/unitreeA1_recv.c ****             // enable DMA
 296:Lib/Motor/Src/unitreeA1_recv.c ****             // 使能DMA
 297:Lib/Motor/Src/unitreeA1_recv.c ****             __HAL_DMA_ENABLE(&hdma_usart6_rx);
 298:Lib/Motor/Src/unitreeA1_recv.c **** 
 299:Lib/Motor/Src/unitreeA1_recv.c ****             if (this_time_rx_len == RC_FRAME_LENGTH)
 300:Lib/Motor/Src/unitreeA1_recv.c ****             {
 301:Lib/Motor/Src/unitreeA1_recv.c ****                 sbus_to_rc(sbus_rx_buf_RF[0], &leg[RF].a1_buf);
 302:Lib/Motor/Src/unitreeA1_recv.c ****                 unitreeA1_rx(2);
 303:Lib/Motor/Src/unitreeA1_recv.c ****                
 304:Lib/Motor/Src/unitreeA1_recv.c ****             }
 305:Lib/Motor/Src/unitreeA1_recv.c ****         }
 306:Lib/Motor/Src/unitreeA1_recv.c ****         else
 307:Lib/Motor/Src/unitreeA1_recv.c ****         {
 308:Lib/Motor/Src/unitreeA1_recv.c ****             /* Current memory buffer used is Memory 1 */
 309:Lib/Motor/Src/unitreeA1_recv.c ****             // disable DMA
 310:Lib/Motor/Src/unitreeA1_recv.c ****             // 失效DMA
 311:Lib/Motor/Src/unitreeA1_recv.c ****             __HAL_DMA_DISABLE(&hdma_usart6_rx);
 312:Lib/Motor/Src/unitreeA1_recv.c **** 
 313:Lib/Motor/Src/unitreeA1_recv.c ****             // get receive data length, length = set_data_length - remain_length
 314:Lib/Motor/Src/unitreeA1_recv.c ****             // 获取接收数据长度,长度 = 设定长度 - 剩余长度
 315:Lib/Motor/Src/unitreeA1_recv.c ****             this_time_rx_len = SBUS_RX_BUF_NUM - hdma_usart6_rx.Instance->NDTR;
ARM GAS  /tmp/ccLmkdSp.s 			page 7


 316:Lib/Motor/Src/unitreeA1_recv.c **** 
 317:Lib/Motor/Src/unitreeA1_recv.c ****             // reset set_data_lenght
 318:Lib/Motor/Src/unitreeA1_recv.c ****             // 重新设定数据长度
 319:Lib/Motor/Src/unitreeA1_recv.c ****             hdma_usart6_rx.Instance->NDTR = SBUS_RX_BUF_NUM;
 320:Lib/Motor/Src/unitreeA1_recv.c **** 
 321:Lib/Motor/Src/unitreeA1_recv.c ****             // set memory buffer 0
 322:Lib/Motor/Src/unitreeA1_recv.c ****             // 设定缓冲区0
 323:Lib/Motor/Src/unitreeA1_recv.c ****             DMA2_Stream1->CR &= ~(DMA_SxCR_CT);
 324:Lib/Motor/Src/unitreeA1_recv.c **** 
 325:Lib/Motor/Src/unitreeA1_recv.c ****             // enable DMA
 326:Lib/Motor/Src/unitreeA1_recv.c ****             // 使能DMA
 327:Lib/Motor/Src/unitreeA1_recv.c ****             __HAL_DMA_ENABLE(&hdma_usart6_rx);
 328:Lib/Motor/Src/unitreeA1_recv.c **** 
 329:Lib/Motor/Src/unitreeA1_recv.c ****             if (this_time_rx_len == RC_FRAME_LENGTH)
 330:Lib/Motor/Src/unitreeA1_recv.c ****             {
 331:Lib/Motor/Src/unitreeA1_recv.c ****                 // 处理数据
 332:Lib/Motor/Src/unitreeA1_recv.c ****                 sbus_to_rc(sbus_rx_buf_RF[1], &leg[RF].a1_buf);
 333:Lib/Motor/Src/unitreeA1_recv.c ****                 unitreeA1_rx(2);
 334:Lib/Motor/Src/unitreeA1_recv.c ****                
 335:Lib/Motor/Src/unitreeA1_recv.c ****             }
 336:Lib/Motor/Src/unitreeA1_recv.c ****         }
 337:Lib/Motor/Src/unitreeA1_recv.c ****     }
 338:Lib/Motor/Src/unitreeA1_recv.c **** }
 339:Lib/Motor/Src/unitreeA1_recv.c **** 
 340:Lib/Motor/Src/unitreeA1_recv.c **** void unitreeA1_rx(int leg_id)
 341:Lib/Motor/Src/unitreeA1_recv.c **** {
 342:Lib/Motor/Src/unitreeA1_recv.c ****     data_leg[leg_id].motor_recv_data.head.motorID = leg[leg_id].a1_buf.motorID;
 343:Lib/Motor/Src/unitreeA1_recv.c ****     data_leg[leg_id].motor_recv_data.Mdata.MError = leg[leg_id].a1_buf.MError;
 344:Lib/Motor/Src/unitreeA1_recv.c ****     data_leg[leg_id].motor_recv_data.Mdata.mode = leg[leg_id].a1_buf.mode;
 345:Lib/Motor/Src/unitreeA1_recv.c ****     data_leg[leg_id].motor_recv_data.Mdata.Temp = leg[leg_id].a1_buf.Temp;
 346:Lib/Motor/Src/unitreeA1_recv.c ****     data_leg[leg_id].motor_recv_data.Mdata.MError = leg[leg_id].a1_buf.MError;
 347:Lib/Motor/Src/unitreeA1_recv.c ****     data_leg[leg_id].motor_recv_data.Mdata.T = leg[leg_id].a1_buf.T;
 348:Lib/Motor/Src/unitreeA1_recv.c ****     data_leg[leg_id].motor_recv_data.Mdata.W = leg[leg_id].a1_buf.W;
 349:Lib/Motor/Src/unitreeA1_recv.c ****     data_leg[leg_id].motor_recv_data.Mdata.Acc = leg[leg_id].a1_buf.Acc;
 350:Lib/Motor/Src/unitreeA1_recv.c ****     data_leg[leg_id].motor_recv_data.Mdata.Pos = leg[leg_id].a1_buf.Pos;
 351:Lib/Motor/Src/unitreeA1_recv.c **** 
 352:Lib/Motor/Src/unitreeA1_recv.c **** 
 353:Lib/Motor/Src/unitreeA1_recv.c **** 
 354:Lib/Motor/Src/unitreeA1_recv.c ****     A1date[leg_id][data_leg[leg_id].motor_recv_data.head.motorID].start[0] = 0xD2; 
 355:Lib/Motor/Src/unitreeA1_recv.c ****     A1date[leg_id][data_leg[leg_id].motor_recv_data.head.motorID].start[1] = 0xFE;
 356:Lib/Motor/Src/unitreeA1_recv.c ****     A1date[leg_id][data_leg[leg_id].motor_recv_data.head.motorID].LegID = leg_id;
 357:Lib/Motor/Src/unitreeA1_recv.c ****     A1date[leg_id][data_leg[leg_id].motor_recv_data.head.motorID].MotorID = data_leg[leg_id].motor_
 358:Lib/Motor/Src/unitreeA1_recv.c ****     A1date[leg_id][data_leg[leg_id].motor_recv_data.head.motorID].MError = data_leg[leg_id].motor_r
 359:Lib/Motor/Src/unitreeA1_recv.c ****     A1date[leg_id][data_leg[leg_id].motor_recv_data.head.motorID].mode = data_leg[leg_id].motor_rec
 360:Lib/Motor/Src/unitreeA1_recv.c ****     A1date[leg_id][data_leg[leg_id].motor_recv_data.head.motorID].Temp = data_leg[leg_id].motor_rec
 361:Lib/Motor/Src/unitreeA1_recv.c ****     A1date[leg_id][data_leg[leg_id].motor_recv_data.head.motorID].T = data_leg[leg_id].motor_recv_d
 362:Lib/Motor/Src/unitreeA1_recv.c ****     A1date[leg_id][data_leg[leg_id].motor_recv_data.head.motorID].W = data_leg[leg_id].motor_recv_d
 363:Lib/Motor/Src/unitreeA1_recv.c ****     A1date[leg_id][data_leg[leg_id].motor_recv_data.head.motorID].Acc = data_leg[leg_id].motor_recv
 364:Lib/Motor/Src/unitreeA1_recv.c ****     A1date[leg_id][data_leg[leg_id].motor_recv_data.head.motorID].Pos = data_leg[leg_id].motor_recv
 365:Lib/Motor/Src/unitreeA1_recv.c ****     A1date[leg_id][data_leg[leg_id].motor_recv_data.head.motorID].SumCheck = 0xff + 0xfe + leg_id +
 366:Lib/Motor/Src/unitreeA1_recv.c **** 
 367:Lib/Motor/Src/unitreeA1_recv.c **** 
 368:Lib/Motor/Src/unitreeA1_recv.c **** /*
 369:Lib/Motor/Src/unitreeA1_recv.c ****     data_leg[leg_id].motor_id = data_leg[leg_id].motor_recv_data.head.motorID;
 370:Lib/Motor/Src/unitreeA1_recv.c ****     data_leg[leg_id].MError = data_leg[leg_id].motor_recv_data.Mdata.MError;
 371:Lib/Motor/Src/unitreeA1_recv.c ****     data_leg[leg_id].T = data_leg[leg_id].motor_recv_data.Mdata.T;
 372:Lib/Motor/Src/unitreeA1_recv.c ****     data_leg[leg_id].W = data_leg[leg_id].motor_recv_data.Mdata.W;
ARM GAS  /tmp/ccLmkdSp.s 			page 8


 373:Lib/Motor/Src/unitreeA1_recv.c ****     data_leg[leg_id].Acc = data_leg[leg_id].motor_recv_data.Mdata.Acc;
 374:Lib/Motor/Src/unitreeA1_recv.c ****     data_leg[leg_id].Pos = data_leg[leg_id].motor_recv_data.Mdata.Pos;
 375:Lib/Motor/Src/unitreeA1_recv.c **** 
 376:Lib/Motor/Src/unitreeA1_recv.c ****     data_leg[leg_id].motor_id = data_leg[leg_id].motor_recv_data.head.motorID;
 377:Lib/Motor/Src/unitreeA1_recv.c ****     data_leg[leg_id].MError = data_leg[leg_id].motor_recv_data.Mdata.MError;
 378:Lib/Motor/Src/unitreeA1_recv.c ****     data_leg[leg_id].T = (float)((int32_t)data_leg[leg_id].motor_recv_data.Mdata.T / 256.0f);
 379:Lib/Motor/Src/unitreeA1_recv.c ****     data_leg[leg_id].W = (float)((int32_t)data_leg[leg_id].motor_recv_data.Mdata.W / 128.0f);
 380:Lib/Motor/Src/unitreeA1_recv.c ****     data_leg[leg_id].Acc = (float)data_leg[leg_id].motor_recv_data.Mdata.Acc;
 381:Lib/Motor/Src/unitreeA1_recv.c ****     data_leg[leg_id].Pos = (float)((data_leg[leg_id].motor_recv_data.Mdata.Pos / 16384.0f) * 6.2832
 382:Lib/Motor/Src/unitreeA1_recv.c **** 
 383:Lib/Motor/Src/unitreeA1_recv.c ****     data_motor[leg_id][data_leg[leg_id].motor_id].motor_id = data_leg[leg_id].motor_id;
 384:Lib/Motor/Src/unitreeA1_recv.c ****     data_motor[leg_id][data_leg[leg_id].motor_id].MError = data_leg[leg_id].MError;
 385:Lib/Motor/Src/unitreeA1_recv.c ****     data_motor[leg_id][data_leg[leg_id].motor_id].T = data_leg[leg_id].T;
 386:Lib/Motor/Src/unitreeA1_recv.c ****     data_motor[leg_id][data_leg[leg_id].motor_id].W = data_leg[leg_id].W;
 387:Lib/Motor/Src/unitreeA1_recv.c ****     data_motor[leg_id][data_leg[leg_id].motor_id].Acc = data_leg[leg_id].Acc;
 388:Lib/Motor/Src/unitreeA1_recv.c ****     data_motor[leg_id][data_leg[leg_id].motor_id].Pos = data_leg[leg_id].Pos;
 389:Lib/Motor/Src/unitreeA1_recv.c **** */
 390:Lib/Motor/Src/unitreeA1_recv.c **** }
 391:Lib/Motor/Src/unitreeA1_recv.c **** 
 392:Lib/Motor/Src/unitreeA1_recv.c **** // dma接收赋值函数
 393:Lib/Motor/Src/unitreeA1_recv.c **** static void sbus_to_rc(volatile const uint8_t *sbus_buf, A1_buf *a1_buf)
 394:Lib/Motor/Src/unitreeA1_recv.c **** {
  29              		.loc 1 394 1 view -0
  30              		.cfi_startproc
  31              		@ args = 0, pretend = 0, frame = 0
  32              		@ frame_needed = 0, uses_anonymous_args = 0
  33              		@ link register save eliminated.
 395:Lib/Motor/Src/unitreeA1_recv.c ****     if (sbus_buf == NULL || a1_buf == NULL)
  34              		.loc 1 395 5 view .LVU1
  35              		.loc 1 395 8 is_stmt 0 view .LVU2
  36 0000 0346     		mov	r3, r0
  37 0002 20B3     		cbz	r0, .L1
  38              		.loc 1 395 26 discriminator 1 view .LVU3
  39 0004 19B3     		cbz	r1, .L1
 396:Lib/Motor/Src/unitreeA1_recv.c ****     {
 397:Lib/Motor/Src/unitreeA1_recv.c ****         return;
 398:Lib/Motor/Src/unitreeA1_recv.c ****     }
 399:Lib/Motor/Src/unitreeA1_recv.c **** 
 400:Lib/Motor/Src/unitreeA1_recv.c ****     a1_buf->motorID = sbus_buf[2];
  40              		.loc 1 400 5 is_stmt 1 view .LVU4
  41              		.loc 1 400 21 is_stmt 0 view .LVU5
  42 0006 8278     		ldrb	r2, [r0, #2]	@ zero_extendqisi2
  43 0008 0A70     		strb	r2, [r1]
 401:Lib/Motor/Src/unitreeA1_recv.c ****     a1_buf->mode = sbus_buf[4];
  44              		.loc 1 401 5 is_stmt 1 view .LVU6
  45              		.loc 1 401 18 is_stmt 0 view .LVU7
  46 000a 0279     		ldrb	r2, [r0, #4]	@ zero_extendqisi2
  47 000c 4A70     		strb	r2, [r1, #1]
 402:Lib/Motor/Src/unitreeA1_recv.c ****     a1_buf->Temp = sbus_buf[6];
  48              		.loc 1 402 5 is_stmt 1 view .LVU8
  49              		.loc 1 402 28 is_stmt 0 view .LVU9
  50 000e 8279     		ldrb	r2, [r0, #6]	@ zero_extendqisi2
  51              		.loc 1 402 18 view .LVU10
  52 0010 8A70     		strb	r2, [r1, #2]
 403:Lib/Motor/Src/unitreeA1_recv.c ****     a1_buf->MError = sbus_buf[7];
  53              		.loc 1 403 5 is_stmt 1 view .LVU11
  54              		.loc 1 403 20 is_stmt 0 view .LVU12
ARM GAS  /tmp/ccLmkdSp.s 			page 9


  55 0012 C279     		ldrb	r2, [r0, #7]	@ zero_extendqisi2
  56 0014 CA70     		strb	r2, [r1, #3]
 404:Lib/Motor/Src/unitreeA1_recv.c ****     a1_buf->T = sbus_buf[13] << 8 | sbus_buf[12];
  57              		.loc 1 404 5 is_stmt 1 view .LVU13
  58              		.loc 1 404 25 is_stmt 0 view .LVU14
  59 0016 407B     		ldrb	r0, [r0, #13]	@ zero_extendqisi2
  60              	.LVL1:
  61              		.loc 1 404 45 view .LVU15
  62 0018 1A7B     		ldrb	r2, [r3, #12]	@ zero_extendqisi2
  63              		.loc 1 404 35 view .LVU16
  64 001a 42EA0022 		orr	r2, r2, r0, lsl #8
  65              		.loc 1 404 15 view .LVU17
  66 001e 8A80     		strh	r2, [r1, #4]	@ movhi
 405:Lib/Motor/Src/unitreeA1_recv.c ****     a1_buf->W = sbus_buf[15] << 8 | sbus_buf[14];
  67              		.loc 1 405 5 is_stmt 1 view .LVU18
  68              		.loc 1 405 25 is_stmt 0 view .LVU19
  69 0020 D87B     		ldrb	r0, [r3, #15]	@ zero_extendqisi2
  70              		.loc 1 405 45 view .LVU20
  71 0022 9A7B     		ldrb	r2, [r3, #14]	@ zero_extendqisi2
  72              		.loc 1 405 35 view .LVU21
  73 0024 42EA0022 		orr	r2, r2, r0, lsl #8
  74              		.loc 1 405 15 view .LVU22
  75 0028 CA80     		strh	r2, [r1, #6]	@ movhi
 406:Lib/Motor/Src/unitreeA1_recv.c ****     a1_buf->Acc = sbus_buf[28] << 8 | sbus_buf[27];
  76              		.loc 1 406 5 is_stmt 1 view .LVU23
  77              		.loc 1 406 27 is_stmt 0 view .LVU24
  78 002a 187F     		ldrb	r0, [r3, #28]	@ zero_extendqisi2
  79              		.loc 1 406 47 view .LVU25
  80 002c DA7E     		ldrb	r2, [r3, #27]	@ zero_extendqisi2
  81              		.loc 1 406 37 view .LVU26
  82 002e 42EA0022 		orr	r2, r2, r0, lsl #8
  83              		.loc 1 406 17 view .LVU27
  84 0032 0A81     		strh	r2, [r1, #8]	@ movhi
 407:Lib/Motor/Src/unitreeA1_recv.c ****     a1_buf->Pos = sbus_buf[33] << 24 | sbus_buf[32] << 16 | sbus_buf[31] << 8 | sbus_buf[30];
  85              		.loc 1 407 5 is_stmt 1 view .LVU28
  86              		.loc 1 407 27 is_stmt 0 view .LVU29
  87 0034 93F82100 		ldrb	r0, [r3, #33]	@ zero_extendqisi2
  88              		.loc 1 407 48 view .LVU30
  89 0038 93F82020 		ldrb	r2, [r3, #32]	@ zero_extendqisi2
  90              		.loc 1 407 53 view .LVU31
  91 003c 1204     		lsls	r2, r2, #16
  92              		.loc 1 407 38 view .LVU32
  93 003e 42EA0062 		orr	r2, r2, r0, lsl #24
  94              		.loc 1 407 69 view .LVU33
  95 0042 D87F     		ldrb	r0, [r3, #31]	@ zero_extendqisi2
  96              		.loc 1 407 59 view .LVU34
  97 0044 42EA0022 		orr	r2, r2, r0, lsl #8
  98              		.loc 1 407 89 view .LVU35
  99 0048 9B7F     		ldrb	r3, [r3, #30]	@ zero_extendqisi2
 100              	.LVL2:
 101              		.loc 1 407 79 view .LVU36
 102 004a 1A43     		orrs	r2, r2, r3
 103              		.loc 1 407 17 view .LVU37
 104 004c CA60     		str	r2, [r1, #12]
 105              	.L1:
 408:Lib/Motor/Src/unitreeA1_recv.c **** }
 106              		.loc 1 408 1 view .LVU38
ARM GAS  /tmp/ccLmkdSp.s 			page 10


 107 004e 7047     		bx	lr
 108              		.cfi_endproc
 109              	.LFE140:
 111              		.section	.text.remote_control_init,"ax",%progbits
 112              		.align	1
 113              		.global	remote_control_init
 114              		.syntax unified
 115              		.thumb
 116              		.thumb_func
 118              	remote_control_init:
 119              	.LFB134:
  21:Lib/Motor/Src/unitreeA1_recv.c ****     RC1_init(sbus_rx_buf_LF[0], sbus_rx_buf_LF[1], SBUS_RX_BUF_NUM);
 120              		.loc 1 21 1 is_stmt 1 view -0
 121              		.cfi_startproc
 122              		@ args = 0, pretend = 0, frame = 0
 123              		@ frame_needed = 0, uses_anonymous_args = 0
 124 0000 08B5     		push	{r3, lr}
 125              		.cfi_def_cfa_offset 8
 126              		.cfi_offset 3, -8
 127              		.cfi_offset 14, -4
  22:Lib/Motor/Src/unitreeA1_recv.c ****     RC2_init(sbus_rx_buf_LB[0], sbus_rx_buf_LB[1], SBUS_RX_BUF_NUM);
 128              		.loc 1 22 5 view .LVU40
 129 0002 0A48     		ldr	r0, .L5
 130 0004 8022     		movs	r2, #128
 131 0006 8118     		adds	r1, r0, r2
 132 0008 FFF7FEFF 		bl	RC1_init
 133              	.LVL3:
  23:Lib/Motor/Src/unitreeA1_recv.c ****     RC3_init(sbus_rx_buf_RB[0], sbus_rx_buf_RB[1], SBUS_RX_BUF_NUM);
 134              		.loc 1 23 5 view .LVU41
 135 000c 0848     		ldr	r0, .L5+4
 136 000e 8022     		movs	r2, #128
 137 0010 8118     		adds	r1, r0, r2
 138 0012 FFF7FEFF 		bl	RC2_init
 139              	.LVL4:
  24:Lib/Motor/Src/unitreeA1_recv.c ****     RC6_init(sbus_rx_buf_RF[0], sbus_rx_buf_RF[1], SBUS_RX_BUF_NUM);
 140              		.loc 1 24 5 view .LVU42
 141 0016 0748     		ldr	r0, .L5+8
 142 0018 8022     		movs	r2, #128
 143 001a 8118     		adds	r1, r0, r2
 144 001c FFF7FEFF 		bl	RC3_init
 145              	.LVL5:
  25:Lib/Motor/Src/unitreeA1_recv.c **** }
 146              		.loc 1 25 5 view .LVU43
 147 0020 0548     		ldr	r0, .L5+12
 148 0022 8022     		movs	r2, #128
 149 0024 8118     		adds	r1, r0, r2
 150 0026 FFF7FEFF 		bl	RC6_init
 151              	.LVL6:
  26:Lib/Motor/Src/unitreeA1_recv.c **** 
 152              		.loc 1 26 1 is_stmt 0 view .LVU44
 153 002a 08BD     		pop	{r3, pc}
 154              	.L6:
 155              		.align	2
 156              	.L5:
 157 002c 00000000 		.word	.LANCHOR0
 158 0030 00000000 		.word	.LANCHOR1
 159 0034 00000000 		.word	.LANCHOR2
ARM GAS  /tmp/ccLmkdSp.s 			page 11


 160 0038 00000000 		.word	.LANCHOR3
 161              		.cfi_endproc
 162              	.LFE134:
 164              		.section	.text.unitreeA1_rx,"ax",%progbits
 165              		.align	1
 166              		.global	unitreeA1_rx
 167              		.syntax unified
 168              		.thumb
 169              		.thumb_func
 171              	unitreeA1_rx:
 172              	.LVL7:
 173              	.LFB139:
 341:Lib/Motor/Src/unitreeA1_recv.c ****     data_leg[leg_id].motor_recv_data.head.motorID = leg[leg_id].a1_buf.motorID;
 174              		.loc 1 341 1 is_stmt 1 view -0
 175              		.cfi_startproc
 176              		@ args = 0, pretend = 0, frame = 0
 177              		@ frame_needed = 0, uses_anonymous_args = 0
 341:Lib/Motor/Src/unitreeA1_recv.c ****     data_leg[leg_id].motor_recv_data.head.motorID = leg[leg_id].a1_buf.motorID;
 178              		.loc 1 341 1 is_stmt 0 view .LVU46
 179 0000 2DE9F047 		push	{r4, r5, r6, r7, r8, r9, r10, lr}
 180              		.cfi_def_cfa_offset 32
 181              		.cfi_offset 4, -32
 182              		.cfi_offset 5, -28
 183              		.cfi_offset 6, -24
 184              		.cfi_offset 7, -20
 185              		.cfi_offset 8, -16
 186              		.cfi_offset 9, -12
 187              		.cfi_offset 10, -8
 188              		.cfi_offset 14, -4
 342:Lib/Motor/Src/unitreeA1_recv.c ****     data_leg[leg_id].motor_recv_data.Mdata.MError = leg[leg_id].a1_buf.MError;
 189              		.loc 1 342 5 is_stmt 1 view .LVU47
 342:Lib/Motor/Src/unitreeA1_recv.c ****     data_leg[leg_id].motor_recv_data.Mdata.MError = leg[leg_id].a1_buf.MError;
 190              		.loc 1 342 71 is_stmt 0 view .LVU48
 191 0004 2849     		ldr	r1, .L9
 192 0006 4FF4D473 		mov	r3, #424
 193 000a 03FB0011 		mla	r1, r3, r0, r1
 194 000e 91F89831 		ldrb	r3, [r1, #408]	@ zero_extendqisi2
 342:Lib/Motor/Src/unitreeA1_recv.c ****     data_leg[leg_id].motor_recv_data.Mdata.MError = leg[leg_id].a1_buf.MError;
 195              		.loc 1 342 51 view .LVU49
 196 0012 00EB0014 		add	r4, r0, r0, lsl #4
 197 0016 254A     		ldr	r2, .L9+4
 198 0018 02EBC402 		add	r2, r2, r4, lsl #3
 199 001c 9370     		strb	r3, [r2, #2]
 343:Lib/Motor/Src/unitreeA1_recv.c ****     data_leg[leg_id].motor_recv_data.Mdata.mode = leg[leg_id].a1_buf.mode;
 200              		.loc 1 343 5 is_stmt 1 view .LVU50
 343:Lib/Motor/Src/unitreeA1_recv.c ****     data_leg[leg_id].motor_recv_data.Mdata.mode = leg[leg_id].a1_buf.mode;
 201              		.loc 1 343 71 is_stmt 0 view .LVU51
 202 001e 91F89B81 		ldrb	r8, [r1, #411]	@ zero_extendqisi2
 343:Lib/Motor/Src/unitreeA1_recv.c ****     data_leg[leg_id].motor_recv_data.Mdata.mode = leg[leg_id].a1_buf.mode;
 203              		.loc 1 343 51 view .LVU52
 204 0022 82F80780 		strb	r8, [r2, #7]
 344:Lib/Motor/Src/unitreeA1_recv.c ****     data_leg[leg_id].motor_recv_data.Mdata.Temp = leg[leg_id].a1_buf.Temp;
 205              		.loc 1 344 5 is_stmt 1 view .LVU53
 344:Lib/Motor/Src/unitreeA1_recv.c ****     data_leg[leg_id].motor_recv_data.Mdata.Temp = leg[leg_id].a1_buf.Temp;
 206              		.loc 1 344 69 is_stmt 0 view .LVU54
 207 0026 91F89971 		ldrb	r7, [r1, #409]	@ zero_extendqisi2
 344:Lib/Motor/Src/unitreeA1_recv.c ****     data_leg[leg_id].motor_recv_data.Mdata.Temp = leg[leg_id].a1_buf.Temp;
ARM GAS  /tmp/ccLmkdSp.s 			page 12


 208              		.loc 1 344 49 view .LVU55
 209 002a 1771     		strb	r7, [r2, #4]
 345:Lib/Motor/Src/unitreeA1_recv.c ****     data_leg[leg_id].motor_recv_data.Mdata.MError = leg[leg_id].a1_buf.MError;
 210              		.loc 1 345 5 is_stmt 1 view .LVU56
 345:Lib/Motor/Src/unitreeA1_recv.c ****     data_leg[leg_id].motor_recv_data.Mdata.MError = leg[leg_id].a1_buf.MError;
 211              		.loc 1 345 69 is_stmt 0 view .LVU57
 212 002c 91F99A61 		ldrsb	r6, [r1, #410]
 345:Lib/Motor/Src/unitreeA1_recv.c ****     data_leg[leg_id].motor_recv_data.Mdata.MError = leg[leg_id].a1_buf.MError;
 213              		.loc 1 345 49 view .LVU58
 214 0030 9671     		strb	r6, [r2, #6]
 346:Lib/Motor/Src/unitreeA1_recv.c ****     data_leg[leg_id].motor_recv_data.Mdata.T = leg[leg_id].a1_buf.T;
 215              		.loc 1 346 5 is_stmt 1 view .LVU59
 347:Lib/Motor/Src/unitreeA1_recv.c ****     data_leg[leg_id].motor_recv_data.Mdata.W = leg[leg_id].a1_buf.W;
 216              		.loc 1 347 5 view .LVU60
 347:Lib/Motor/Src/unitreeA1_recv.c ****     data_leg[leg_id].motor_recv_data.Mdata.W = leg[leg_id].a1_buf.W;
 217              		.loc 1 347 66 is_stmt 0 view .LVU61
 218 0032 B1F99C51 		ldrsh	r5, [r1, #412]
 347:Lib/Motor/Src/unitreeA1_recv.c ****     data_leg[leg_id].motor_recv_data.Mdata.W = leg[leg_id].a1_buf.W;
 219              		.loc 1 347 46 view .LVU62
 220 0036 9581     		strh	r5, [r2, #12]	@ unaligned
 348:Lib/Motor/Src/unitreeA1_recv.c ****     data_leg[leg_id].motor_recv_data.Mdata.Acc = leg[leg_id].a1_buf.Acc;
 221              		.loc 1 348 5 is_stmt 1 view .LVU63
 348:Lib/Motor/Src/unitreeA1_recv.c ****     data_leg[leg_id].motor_recv_data.Mdata.Acc = leg[leg_id].a1_buf.Acc;
 222              		.loc 1 348 66 is_stmt 0 view .LVU64
 223 0038 B1F99EE1 		ldrsh	lr, [r1, #414]
 348:Lib/Motor/Src/unitreeA1_recv.c ****     data_leg[leg_id].motor_recv_data.Mdata.Acc = leg[leg_id].a1_buf.Acc;
 224              		.loc 1 348 46 view .LVU65
 225 003c A2F80EE0 		strh	lr, [r2, #14]	@ unaligned
 349:Lib/Motor/Src/unitreeA1_recv.c ****     data_leg[leg_id].motor_recv_data.Mdata.Pos = leg[leg_id].a1_buf.Pos;
 226              		.loc 1 349 5 is_stmt 1 view .LVU66
 349:Lib/Motor/Src/unitreeA1_recv.c ****     data_leg[leg_id].motor_recv_data.Mdata.Pos = leg[leg_id].a1_buf.Pos;
 227              		.loc 1 349 68 is_stmt 0 view .LVU67
 228 0040 B1F9A0C1 		ldrsh	ip, [r1, #416]
 349:Lib/Motor/Src/unitreeA1_recv.c ****     data_leg[leg_id].motor_recv_data.Mdata.Pos = leg[leg_id].a1_buf.Pos;
 229              		.loc 1 349 48 view .LVU68
 230 0044 A2F81AC0 		strh	ip, [r2, #26]	@ unaligned
 350:Lib/Motor/Src/unitreeA1_recv.c **** 
 231              		.loc 1 350 5 is_stmt 1 view .LVU69
 350:Lib/Motor/Src/unitreeA1_recv.c **** 
 232              		.loc 1 350 68 is_stmt 0 view .LVU70
 233 0048 D1F8A441 		ldr	r4, [r1, #420]
 350:Lib/Motor/Src/unitreeA1_recv.c **** 
 234              		.loc 1 350 48 view .LVU71
 235 004c C2F81E40 		str	r4, [r2, #30]	@ unaligned
 354:Lib/Motor/Src/unitreeA1_recv.c ****     A1date[leg_id][data_leg[leg_id].motor_recv_data.head.motorID].start[1] = 0xFE;
 236              		.loc 1 354 5 is_stmt 1 view .LVU72
 354:Lib/Motor/Src/unitreeA1_recv.c ****     A1date[leg_id][data_leg[leg_id].motor_recv_data.head.motorID].start[1] = 0xFE;
 237              		.loc 1 354 76 is_stmt 0 view .LVU73
 238 0050 DFF85C90 		ldr	r9, .L9+8
 239 0054 03EB4301 		add	r1, r3, r3, lsl #1
 240 0058 C1EBC101 		rsb	r1, r1, r1, lsl #3
 241 005c C0EB8012 		rsb	r2, r0, r0, lsl #6
 242 0060 1144     		add	r1, r1, r2
 243 0062 09EB0102 		add	r2, r9, r1
 244 0066 4FF0D20A 		mov	r10, #210
 245 006a 09F801A0 		strb	r10, [r9, r1]
 355:Lib/Motor/Src/unitreeA1_recv.c ****     A1date[leg_id][data_leg[leg_id].motor_recv_data.head.motorID].LegID = leg_id;
ARM GAS  /tmp/ccLmkdSp.s 			page 13


 246              		.loc 1 355 5 is_stmt 1 view .LVU74
 355:Lib/Motor/Src/unitreeA1_recv.c ****     A1date[leg_id][data_leg[leg_id].motor_recv_data.head.motorID].LegID = leg_id;
 247              		.loc 1 355 76 is_stmt 0 view .LVU75
 248 006e FE21     		movs	r1, #254
 249 0070 5170     		strb	r1, [r2, #1]
 356:Lib/Motor/Src/unitreeA1_recv.c ****     A1date[leg_id][data_leg[leg_id].motor_recv_data.head.motorID].MotorID = data_leg[leg_id].motor_
 250              		.loc 1 356 5 is_stmt 1 view .LVU76
 356:Lib/Motor/Src/unitreeA1_recv.c ****     A1date[leg_id][data_leg[leg_id].motor_recv_data.head.motorID].MotorID = data_leg[leg_id].motor_
 251              		.loc 1 356 73 is_stmt 0 view .LVU77
 252 0072 9070     		strb	r0, [r2, #2]
 357:Lib/Motor/Src/unitreeA1_recv.c ****     A1date[leg_id][data_leg[leg_id].motor_recv_data.head.motorID].MError = data_leg[leg_id].motor_r
 253              		.loc 1 357 5 is_stmt 1 view .LVU78
 357:Lib/Motor/Src/unitreeA1_recv.c ****     A1date[leg_id][data_leg[leg_id].motor_recv_data.head.motorID].MError = data_leg[leg_id].motor_r
 254              		.loc 1 357 75 is_stmt 0 view .LVU79
 255 0074 D370     		strb	r3, [r2, #3]
 358:Lib/Motor/Src/unitreeA1_recv.c ****     A1date[leg_id][data_leg[leg_id].motor_recv_data.head.motorID].mode = data_leg[leg_id].motor_rec
 256              		.loc 1 358 5 is_stmt 1 view .LVU80
 358:Lib/Motor/Src/unitreeA1_recv.c ****     A1date[leg_id][data_leg[leg_id].motor_recv_data.head.motorID].mode = data_leg[leg_id].motor_rec
 257              		.loc 1 358 74 is_stmt 0 view .LVU81
 258 0076 82F80680 		strb	r8, [r2, #6]
 359:Lib/Motor/Src/unitreeA1_recv.c ****     A1date[leg_id][data_leg[leg_id].motor_recv_data.head.motorID].Temp = data_leg[leg_id].motor_rec
 259              		.loc 1 359 5 is_stmt 1 view .LVU82
 359:Lib/Motor/Src/unitreeA1_recv.c ****     A1date[leg_id][data_leg[leg_id].motor_recv_data.head.motorID].Temp = data_leg[leg_id].motor_rec
 260              		.loc 1 359 72 is_stmt 0 view .LVU83
 261 007a 1771     		strb	r7, [r2, #4]
 360:Lib/Motor/Src/unitreeA1_recv.c ****     A1date[leg_id][data_leg[leg_id].motor_recv_data.head.motorID].T = data_leg[leg_id].motor_recv_d
 262              		.loc 1 360 5 is_stmt 1 view .LVU84
 360:Lib/Motor/Src/unitreeA1_recv.c ****     A1date[leg_id][data_leg[leg_id].motor_recv_data.head.motorID].T = data_leg[leg_id].motor_recv_d
 263              		.loc 1 360 72 is_stmt 0 view .LVU85
 264 007c 5671     		strb	r6, [r2, #5]
 361:Lib/Motor/Src/unitreeA1_recv.c ****     A1date[leg_id][data_leg[leg_id].motor_recv_data.head.motorID].W = data_leg[leg_id].motor_recv_d
 265              		.loc 1 361 5 is_stmt 1 view .LVU86
 361:Lib/Motor/Src/unitreeA1_recv.c ****     A1date[leg_id][data_leg[leg_id].motor_recv_data.head.motorID].W = data_leg[leg_id].motor_recv_d
 266              		.loc 1 361 69 is_stmt 0 view .LVU87
 267 007e A2F80750 		strh	r5, [r2, #7]	@ unaligned
 362:Lib/Motor/Src/unitreeA1_recv.c ****     A1date[leg_id][data_leg[leg_id].motor_recv_data.head.motorID].Acc = data_leg[leg_id].motor_recv
 268              		.loc 1 362 5 is_stmt 1 view .LVU88
 362:Lib/Motor/Src/unitreeA1_recv.c ****     A1date[leg_id][data_leg[leg_id].motor_recv_data.head.motorID].Acc = data_leg[leg_id].motor_recv
 269              		.loc 1 362 69 is_stmt 0 view .LVU89
 270 0082 A2F809E0 		strh	lr, [r2, #9]	@ unaligned
 363:Lib/Motor/Src/unitreeA1_recv.c ****     A1date[leg_id][data_leg[leg_id].motor_recv_data.head.motorID].Pos = data_leg[leg_id].motor_recv
 271              		.loc 1 363 5 is_stmt 1 view .LVU90
 363:Lib/Motor/Src/unitreeA1_recv.c ****     A1date[leg_id][data_leg[leg_id].motor_recv_data.head.motorID].Pos = data_leg[leg_id].motor_recv
 272              		.loc 1 363 71 is_stmt 0 view .LVU91
 273 0086 A2F80BC0 		strh	ip, [r2, #11]	@ unaligned
 364:Lib/Motor/Src/unitreeA1_recv.c ****     A1date[leg_id][data_leg[leg_id].motor_recv_data.head.motorID].SumCheck = 0xff + 0xfe + leg_id +
 274              		.loc 1 364 5 is_stmt 1 view .LVU92
 364:Lib/Motor/Src/unitreeA1_recv.c ****     A1date[leg_id][data_leg[leg_id].motor_recv_data.head.motorID].SumCheck = 0xff + 0xfe + leg_id +
 275              		.loc 1 364 71 is_stmt 0 view .LVU93
 276 008a C2F80D40 		str	r4, [r2, #13]	@ unaligned
 365:Lib/Motor/Src/unitreeA1_recv.c **** 
 277              		.loc 1 365 5 is_stmt 1 view .LVU94
 365:Lib/Motor/Src/unitreeA1_recv.c **** 
 278              		.loc 1 365 90 is_stmt 0 view .LVU95
 279 008e 00F2FD10 		addw	r0, r0, #509
 280              	.LVL8:
 365:Lib/Motor/Src/unitreeA1_recv.c **** 
ARM GAS  /tmp/ccLmkdSp.s 			page 14


 281              		.loc 1 365 99 view .LVU96
 282 0092 0344     		add	r3, r3, r0
 365:Lib/Motor/Src/unitreeA1_recv.c **** 
 283              		.loc 1 365 146 view .LVU97
 284 0094 3B44     		add	r3, r3, r7
 365:Lib/Motor/Src/unitreeA1_recv.c **** 
 285              		.loc 1 365 191 view .LVU98
 286 0096 3344     		add	r3, r3, r6
 365:Lib/Motor/Src/unitreeA1_recv.c **** 
 287              		.loc 1 365 236 view .LVU99
 288 0098 2B44     		add	r3, r3, r5
 365:Lib/Motor/Src/unitreeA1_recv.c **** 
 289              		.loc 1 365 278 view .LVU100
 290 009a 7344     		add	r3, r3, lr
 365:Lib/Motor/Src/unitreeA1_recv.c **** 
 291              		.loc 1 365 321 view .LVU101
 292 009c 6344     		add	r3, r3, ip
 365:Lib/Motor/Src/unitreeA1_recv.c **** 
 293              		.loc 1 365 366 view .LVU102
 294 009e 2344     		add	r3, r3, r4
 365:Lib/Motor/Src/unitreeA1_recv.c **** 
 295              		.loc 1 365 76 view .LVU103
 296 00a0 C2F81130 		str	r3, [r2, #17]	@ unaligned
 390:Lib/Motor/Src/unitreeA1_recv.c **** 
 297              		.loc 1 390 1 view .LVU104
 298 00a4 BDE8F087 		pop	{r4, r5, r6, r7, r8, r9, r10, pc}
 299              	.L10:
 300              		.align	2
 301              	.L9:
 302 00a8 00000000 		.word	.LANCHOR4
 303 00ac 00000000 		.word	data_leg
 304 00b0 00000000 		.word	A1date
 305              		.cfi_endproc
 306              	.LFE139:
 308              		.section	.text.USART1_IRQHandler,"ax",%progbits
 309              		.align	1
 310              		.global	USART1_IRQHandler
 311              		.syntax unified
 312              		.thumb
 313              		.thumb_func
 315              	USART1_IRQHandler:
 316              	.LFB135:
  29:Lib/Motor/Src/unitreeA1_recv.c ****     
 317              		.loc 1 29 1 is_stmt 1 view -0
 318              		.cfi_startproc
 319              		@ args = 0, pretend = 0, frame = 8
 320              		@ frame_needed = 0, uses_anonymous_args = 0
 321 0000 00B5     		push	{lr}
 322              		.cfi_def_cfa_offset 4
 323              		.cfi_offset 14, -4
 324 0002 83B0     		sub	sp, sp, #12
 325              		.cfi_def_cfa_offset 16
  31:Lib/Motor/Src/unitreeA1_recv.c ****     {
 326              		.loc 1 31 5 view .LVU106
  31:Lib/Motor/Src/unitreeA1_recv.c ****     {
 327              		.loc 1 31 15 is_stmt 0 view .LVU107
 328 0004 324B     		ldr	r3, .L16
ARM GAS  /tmp/ccLmkdSp.s 			page 15


 329 0006 1B68     		ldr	r3, [r3]
  31:Lib/Motor/Src/unitreeA1_recv.c ****     {
 330              		.loc 1 31 24 view .LVU108
 331 0008 1A68     		ldr	r2, [r3]
  31:Lib/Motor/Src/unitreeA1_recv.c ****     {
 332              		.loc 1 31 8 view .LVU109
 333 000a 12F0200F 		tst	r2, #32
 334 000e 09D0     		beq	.L12
  33:Lib/Motor/Src/unitreeA1_recv.c ****     }
 335              		.loc 1 33 9 is_stmt 1 view .LVU110
 336              	.LBB2:
  33:Lib/Motor/Src/unitreeA1_recv.c ****     }
 337              		.loc 1 33 9 view .LVU111
 338 0010 0022     		movs	r2, #0
 339 0012 0092     		str	r2, [sp]
  33:Lib/Motor/Src/unitreeA1_recv.c ****     }
 340              		.loc 1 33 9 view .LVU112
 341 0014 1A68     		ldr	r2, [r3]
 342 0016 0092     		str	r2, [sp]
  33:Lib/Motor/Src/unitreeA1_recv.c ****     }
 343              		.loc 1 33 9 view .LVU113
 344 0018 5B68     		ldr	r3, [r3, #4]
 345 001a 0093     		str	r3, [sp]
  33:Lib/Motor/Src/unitreeA1_recv.c ****     }
 346              		.loc 1 33 9 view .LVU114
 347 001c 009B     		ldr	r3, [sp]
 348              	.LBE2:
  33:Lib/Motor/Src/unitreeA1_recv.c ****     }
 349              		.loc 1 33 9 view .LVU115
 350              	.L11:
 104:Lib/Motor/Src/unitreeA1_recv.c **** 
 351              		.loc 1 104 1 is_stmt 0 view .LVU116
 352 001e 03B0     		add	sp, sp, #12
 353              		.cfi_remember_state
 354              		.cfi_def_cfa_offset 4
 355              		@ sp needed
 356 0020 5DF804FB 		ldr	pc, [sp], #4
 357              	.L12:
 358              		.cfi_restore_state
  35:Lib/Motor/Src/unitreeA1_recv.c ****     {
 359              		.loc 1 35 10 is_stmt 1 view .LVU117
  35:Lib/Motor/Src/unitreeA1_recv.c ****     {
 360              		.loc 1 35 20 is_stmt 0 view .LVU118
 361 0024 2B4A     		ldr	r2, .L16+4
 362 0026 1268     		ldr	r2, [r2]
  35:Lib/Motor/Src/unitreeA1_recv.c ****     {
 363              		.loc 1 35 13 view .LVU119
 364 0028 12F0100F 		tst	r2, #16
 365 002c F7D0     		beq	.L11
 366              	.LBB3:
  37:Lib/Motor/Src/unitreeA1_recv.c **** 
 367              		.loc 1 37 9 is_stmt 1 view .LVU120
  39:Lib/Motor/Src/unitreeA1_recv.c **** 
 368              		.loc 1 39 9 view .LVU121
 369              	.LBB4:
  39:Lib/Motor/Src/unitreeA1_recv.c **** 
 370              		.loc 1 39 9 view .LVU122
ARM GAS  /tmp/ccLmkdSp.s 			page 16


 371 002e 0022     		movs	r2, #0
 372 0030 0192     		str	r2, [sp, #4]
  39:Lib/Motor/Src/unitreeA1_recv.c **** 
 373              		.loc 1 39 9 view .LVU123
 374 0032 1A68     		ldr	r2, [r3]
 375 0034 0192     		str	r2, [sp, #4]
  39:Lib/Motor/Src/unitreeA1_recv.c **** 
 376              		.loc 1 39 9 view .LVU124
 377 0036 5B68     		ldr	r3, [r3, #4]
 378 0038 0193     		str	r3, [sp, #4]
  39:Lib/Motor/Src/unitreeA1_recv.c **** 
 379              		.loc 1 39 9 view .LVU125
 380 003a 019B     		ldr	r3, [sp, #4]
 381              	.LBE4:
  39:Lib/Motor/Src/unitreeA1_recv.c **** 
 382              		.loc 1 39 9 view .LVU126
  41:Lib/Motor/Src/unitreeA1_recv.c ****         {
 383              		.loc 1 41 9 view .LVU127
  41:Lib/Motor/Src/unitreeA1_recv.c ****         {
 384              		.loc 1 41 28 is_stmt 0 view .LVU128
 385 003c 264B     		ldr	r3, .L16+8
 386 003e 1B68     		ldr	r3, [r3]
  41:Lib/Motor/Src/unitreeA1_recv.c ****         {
 387              		.loc 1 41 37 view .LVU129
 388 0040 1A68     		ldr	r2, [r3]
  41:Lib/Motor/Src/unitreeA1_recv.c ****         {
 389              		.loc 1 41 12 view .LVU130
 390 0042 12F4002F 		tst	r2, #524288
 391 0046 20D1     		bne	.L14
  47:Lib/Motor/Src/unitreeA1_recv.c **** 
 392              		.loc 1 47 13 is_stmt 1 view .LVU131
 393 0048 1A68     		ldr	r2, [r3]
 394 004a 22F00102 		bic	r2, r2, #1
 395 004e 1A60     		str	r2, [r3]
  51:Lib/Motor/Src/unitreeA1_recv.c **** 
 396              		.loc 1 51 13 view .LVU132
  51:Lib/Motor/Src/unitreeA1_recv.c **** 
 397              		.loc 1 51 64 is_stmt 0 view .LVU133
 398 0050 2148     		ldr	r0, .L16+8
 399 0052 0268     		ldr	r2, [r0]
  51:Lib/Motor/Src/unitreeA1_recv.c **** 
 400              		.loc 1 51 73 view .LVU134
 401 0054 5368     		ldr	r3, [r2, #4]
  51:Lib/Motor/Src/unitreeA1_recv.c **** 
 402              		.loc 1 51 48 view .LVU135
 403 0056 C3F18003 		rsb	r3, r3, #128
 404 005a 9BB2     		uxth	r3, r3
  51:Lib/Motor/Src/unitreeA1_recv.c **** 
 405              		.loc 1 51 30 view .LVU136
 406 005c 1F49     		ldr	r1, .L16+12
 407 005e 0B80     		strh	r3, [r1]	@ movhi
  55:Lib/Motor/Src/unitreeA1_recv.c **** 
 408              		.loc 1 55 13 is_stmt 1 view .LVU137
  55:Lib/Motor/Src/unitreeA1_recv.c **** 
 409              		.loc 1 55 43 is_stmt 0 view .LVU138
 410 0060 8021     		movs	r1, #128
 411 0062 5160     		str	r1, [r2, #4]
ARM GAS  /tmp/ccLmkdSp.s 			page 17


  59:Lib/Motor/Src/unitreeA1_recv.c **** 
 412              		.loc 1 59 13 is_stmt 1 view .LVU139
  59:Lib/Motor/Src/unitreeA1_recv.c **** 
 413              		.loc 1 59 41 is_stmt 0 view .LVU140
 414 0064 1168     		ldr	r1, [r2]
 415 0066 41F40021 		orr	r1, r1, #524288
 416 006a 1160     		str	r1, [r2]
  63:Lib/Motor/Src/unitreeA1_recv.c **** 
 417              		.loc 1 63 13 is_stmt 1 view .LVU141
 418 006c 0168     		ldr	r1, [r0]
 419 006e 0A68     		ldr	r2, [r1]
 420 0070 42F00102 		orr	r2, r2, #1
 421 0074 0A60     		str	r2, [r1]
  65:Lib/Motor/Src/unitreeA1_recv.c ****             {
 422              		.loc 1 65 13 view .LVU142
  65:Lib/Motor/Src/unitreeA1_recv.c ****             {
 423              		.loc 1 65 16 is_stmt 0 view .LVU143
 424 0076 4E2B     		cmp	r3, #78
 425 0078 D1D1     		bne	.L11
  67:Lib/Motor/Src/unitreeA1_recv.c ****                 unitreeA1_rx(0);
 426              		.loc 1 67 17 is_stmt 1 view .LVU144
 427 007a 1949     		ldr	r1, .L16+16
 428 007c 1948     		ldr	r0, .L16+20
 429 007e FFF7FEFF 		bl	sbus_to_rc
 430              	.LVL9:
  68:Lib/Motor/Src/unitreeA1_recv.c ****                 
 431              		.loc 1 68 17 view .LVU145
 432 0082 0020     		movs	r0, #0
 433 0084 FFF7FEFF 		bl	unitreeA1_rx
 434              	.LVL10:
 435 0088 C9E7     		b	.L11
 436              	.L14:
  77:Lib/Motor/Src/unitreeA1_recv.c **** 
 437              		.loc 1 77 13 view .LVU146
 438 008a 1A68     		ldr	r2, [r3]
 439 008c 22F00102 		bic	r2, r2, #1
 440 0090 1A60     		str	r2, [r3]
  81:Lib/Motor/Src/unitreeA1_recv.c **** 
 441              		.loc 1 81 13 view .LVU147
  81:Lib/Motor/Src/unitreeA1_recv.c **** 
 442              		.loc 1 81 64 is_stmt 0 view .LVU148
 443 0092 1149     		ldr	r1, .L16+8
 444 0094 0868     		ldr	r0, [r1]
  81:Lib/Motor/Src/unitreeA1_recv.c **** 
 445              		.loc 1 81 73 view .LVU149
 446 0096 4368     		ldr	r3, [r0, #4]
  81:Lib/Motor/Src/unitreeA1_recv.c **** 
 447              		.loc 1 81 48 view .LVU150
 448 0098 C3F18003 		rsb	r3, r3, #128
  81:Lib/Motor/Src/unitreeA1_recv.c **** 
 449              		.loc 1 81 30 view .LVU151
 450 009c 0F4A     		ldr	r2, .L16+12
 451 009e 1380     		strh	r3, [r2]	@ movhi
  85:Lib/Motor/Src/unitreeA1_recv.c **** 
 452              		.loc 1 85 13 is_stmt 1 view .LVU152
  85:Lib/Motor/Src/unitreeA1_recv.c **** 
 453              		.loc 1 85 43 is_stmt 0 view .LVU153
ARM GAS  /tmp/ccLmkdSp.s 			page 18


 454 00a0 8023     		movs	r3, #128
 455 00a2 4360     		str	r3, [r0, #4]
  89:Lib/Motor/Src/unitreeA1_recv.c **** 
 456              		.loc 1 89 13 is_stmt 1 view .LVU154
  89:Lib/Motor/Src/unitreeA1_recv.c **** 
 457              		.loc 1 89 30 is_stmt 0 view .LVU155
 458 00a4 1048     		ldr	r0, .L16+24
 459 00a6 036C     		ldr	r3, [r0, #64]
 460 00a8 23F40023 		bic	r3, r3, #524288
 461 00ac 0364     		str	r3, [r0, #64]
  93:Lib/Motor/Src/unitreeA1_recv.c **** 
 462              		.loc 1 93 13 is_stmt 1 view .LVU156
 463 00ae 0968     		ldr	r1, [r1]
 464 00b0 0B68     		ldr	r3, [r1]
 465 00b2 43F00103 		orr	r3, r3, #1
 466 00b6 0B60     		str	r3, [r1]
  95:Lib/Motor/Src/unitreeA1_recv.c ****             {
 467              		.loc 1 95 13 view .LVU157
  95:Lib/Motor/Src/unitreeA1_recv.c ****             {
 468              		.loc 1 95 34 is_stmt 0 view .LVU158
 469 00b8 1388     		ldrh	r3, [r2]
  95:Lib/Motor/Src/unitreeA1_recv.c ****             {
 470              		.loc 1 95 16 view .LVU159
 471 00ba 4E2B     		cmp	r3, #78
 472 00bc AFD1     		bne	.L11
  98:Lib/Motor/Src/unitreeA1_recv.c ****                 unitreeA1_rx(0);
 473              		.loc 1 98 17 is_stmt 1 view .LVU160
 474 00be 0849     		ldr	r1, .L16+16
 475 00c0 0A48     		ldr	r0, .L16+28
 476 00c2 FFF7FEFF 		bl	sbus_to_rc
 477              	.LVL11:
  99:Lib/Motor/Src/unitreeA1_recv.c ****                 
 478              		.loc 1 99 17 view .LVU161
 479 00c6 0020     		movs	r0, #0
 480 00c8 FFF7FEFF 		bl	unitreeA1_rx
 481              	.LVL12:
 482              	.LBE3:
 104:Lib/Motor/Src/unitreeA1_recv.c **** 
 483              		.loc 1 104 1 is_stmt 0 view .LVU162
 484 00cc A7E7     		b	.L11
 485              	.L17:
 486 00ce 00BF     		.align	2
 487              	.L16:
 488 00d0 00000000 		.word	huart1
 489 00d4 00100140 		.word	1073811456
 490 00d8 00000000 		.word	hdma_usart1_rx
 491 00dc 00000000 		.word	.LANCHOR5
 492 00e0 98010000 		.word	.LANCHOR4+408
 493 00e4 00000000 		.word	.LANCHOR0
 494 00e8 00640240 		.word	1073898496
 495 00ec 80000000 		.word	.LANCHOR0+128
 496              		.cfi_endproc
 497              	.LFE135:
 499              		.section	.text.USART2_IRQHandler,"ax",%progbits
 500              		.align	1
 501              		.global	USART2_IRQHandler
 502              		.syntax unified
ARM GAS  /tmp/ccLmkdSp.s 			page 19


 503              		.thumb
 504              		.thumb_func
 506              	USART2_IRQHandler:
 507              	.LFB136:
 107:Lib/Motor/Src/unitreeA1_recv.c ****    
 508              		.loc 1 107 1 is_stmt 1 view -0
 509              		.cfi_startproc
 510              		@ args = 0, pretend = 0, frame = 8
 511              		@ frame_needed = 0, uses_anonymous_args = 0
 512 0000 00B5     		push	{lr}
 513              		.cfi_def_cfa_offset 4
 514              		.cfi_offset 14, -4
 515 0002 83B0     		sub	sp, sp, #12
 516              		.cfi_def_cfa_offset 16
 109:Lib/Motor/Src/unitreeA1_recv.c ****     {
 517              		.loc 1 109 5 view .LVU164
 109:Lib/Motor/Src/unitreeA1_recv.c ****     {
 518              		.loc 1 109 15 is_stmt 0 view .LVU165
 519 0004 324B     		ldr	r3, .L23
 520 0006 1B68     		ldr	r3, [r3]
 109:Lib/Motor/Src/unitreeA1_recv.c ****     {
 521              		.loc 1 109 24 view .LVU166
 522 0008 1A68     		ldr	r2, [r3]
 109:Lib/Motor/Src/unitreeA1_recv.c ****     {
 523              		.loc 1 109 8 view .LVU167
 524 000a 12F0200F 		tst	r2, #32
 525 000e 09D0     		beq	.L19
 111:Lib/Motor/Src/unitreeA1_recv.c ****     }
 526              		.loc 1 111 9 is_stmt 1 view .LVU168
 527              	.LBB5:
 111:Lib/Motor/Src/unitreeA1_recv.c ****     }
 528              		.loc 1 111 9 view .LVU169
 529 0010 0022     		movs	r2, #0
 530 0012 0092     		str	r2, [sp]
 111:Lib/Motor/Src/unitreeA1_recv.c ****     }
 531              		.loc 1 111 9 view .LVU170
 532 0014 1A68     		ldr	r2, [r3]
 533 0016 0092     		str	r2, [sp]
 111:Lib/Motor/Src/unitreeA1_recv.c ****     }
 534              		.loc 1 111 9 view .LVU171
 535 0018 5B68     		ldr	r3, [r3, #4]
 536 001a 0093     		str	r3, [sp]
 111:Lib/Motor/Src/unitreeA1_recv.c ****     }
 537              		.loc 1 111 9 view .LVU172
 538 001c 009B     		ldr	r3, [sp]
 539              	.LBE5:
 111:Lib/Motor/Src/unitreeA1_recv.c ****     }
 540              		.loc 1 111 9 view .LVU173
 541              	.L18:
 182:Lib/Motor/Src/unitreeA1_recv.c **** 
 542              		.loc 1 182 1 is_stmt 0 view .LVU174
 543 001e 03B0     		add	sp, sp, #12
 544              		.cfi_remember_state
 545              		.cfi_def_cfa_offset 4
 546              		@ sp needed
 547 0020 5DF804FB 		ldr	pc, [sp], #4
 548              	.L19:
ARM GAS  /tmp/ccLmkdSp.s 			page 20


 549              		.cfi_restore_state
 113:Lib/Motor/Src/unitreeA1_recv.c ****     {
 550              		.loc 1 113 10 is_stmt 1 view .LVU175
 113:Lib/Motor/Src/unitreeA1_recv.c ****     {
 551              		.loc 1 113 20 is_stmt 0 view .LVU176
 552 0024 2B4A     		ldr	r2, .L23+4
 553 0026 1268     		ldr	r2, [r2]
 113:Lib/Motor/Src/unitreeA1_recv.c ****     {
 554              		.loc 1 113 13 view .LVU177
 555 0028 12F0100F 		tst	r2, #16
 556 002c F7D0     		beq	.L18
 557              	.LBB6:
 115:Lib/Motor/Src/unitreeA1_recv.c **** 
 558              		.loc 1 115 9 is_stmt 1 view .LVU178
 117:Lib/Motor/Src/unitreeA1_recv.c **** 
 559              		.loc 1 117 9 view .LVU179
 560              	.LBB7:
 117:Lib/Motor/Src/unitreeA1_recv.c **** 
 561              		.loc 1 117 9 view .LVU180
 562 002e 0022     		movs	r2, #0
 563 0030 0192     		str	r2, [sp, #4]
 117:Lib/Motor/Src/unitreeA1_recv.c **** 
 564              		.loc 1 117 9 view .LVU181
 565 0032 1A68     		ldr	r2, [r3]
 566 0034 0192     		str	r2, [sp, #4]
 117:Lib/Motor/Src/unitreeA1_recv.c **** 
 567              		.loc 1 117 9 view .LVU182
 568 0036 5B68     		ldr	r3, [r3, #4]
 569 0038 0193     		str	r3, [sp, #4]
 117:Lib/Motor/Src/unitreeA1_recv.c **** 
 570              		.loc 1 117 9 view .LVU183
 571 003a 019B     		ldr	r3, [sp, #4]
 572              	.LBE7:
 117:Lib/Motor/Src/unitreeA1_recv.c **** 
 573              		.loc 1 117 9 view .LVU184
 119:Lib/Motor/Src/unitreeA1_recv.c ****         {
 574              		.loc 1 119 9 view .LVU185
 119:Lib/Motor/Src/unitreeA1_recv.c ****         {
 575              		.loc 1 119 28 is_stmt 0 view .LVU186
 576 003c 264B     		ldr	r3, .L23+8
 577 003e 1B68     		ldr	r3, [r3]
 119:Lib/Motor/Src/unitreeA1_recv.c ****         {
 578              		.loc 1 119 37 view .LVU187
 579 0040 1A68     		ldr	r2, [r3]
 119:Lib/Motor/Src/unitreeA1_recv.c ****         {
 580              		.loc 1 119 12 view .LVU188
 581 0042 12F4002F 		tst	r2, #524288
 582 0046 20D1     		bne	.L21
 125:Lib/Motor/Src/unitreeA1_recv.c **** 
 583              		.loc 1 125 13 is_stmt 1 view .LVU189
 584 0048 1A68     		ldr	r2, [r3]
 585 004a 22F00102 		bic	r2, r2, #1
 586 004e 1A60     		str	r2, [r3]
 129:Lib/Motor/Src/unitreeA1_recv.c **** 
 587              		.loc 1 129 13 view .LVU190
 129:Lib/Motor/Src/unitreeA1_recv.c **** 
 588              		.loc 1 129 64 is_stmt 0 view .LVU191
ARM GAS  /tmp/ccLmkdSp.s 			page 21


 589 0050 2148     		ldr	r0, .L23+8
 590 0052 0268     		ldr	r2, [r0]
 129:Lib/Motor/Src/unitreeA1_recv.c **** 
 591              		.loc 1 129 73 view .LVU192
 592 0054 5368     		ldr	r3, [r2, #4]
 129:Lib/Motor/Src/unitreeA1_recv.c **** 
 593              		.loc 1 129 48 view .LVU193
 594 0056 C3F18003 		rsb	r3, r3, #128
 595 005a 9BB2     		uxth	r3, r3
 129:Lib/Motor/Src/unitreeA1_recv.c **** 
 596              		.loc 1 129 30 view .LVU194
 597 005c 1F49     		ldr	r1, .L23+12
 598 005e 0B80     		strh	r3, [r1]	@ movhi
 133:Lib/Motor/Src/unitreeA1_recv.c **** 
 599              		.loc 1 133 13 is_stmt 1 view .LVU195
 133:Lib/Motor/Src/unitreeA1_recv.c **** 
 600              		.loc 1 133 43 is_stmt 0 view .LVU196
 601 0060 8021     		movs	r1, #128
 602 0062 5160     		str	r1, [r2, #4]
 137:Lib/Motor/Src/unitreeA1_recv.c **** 
 603              		.loc 1 137 13 is_stmt 1 view .LVU197
 137:Lib/Motor/Src/unitreeA1_recv.c **** 
 604              		.loc 1 137 41 is_stmt 0 view .LVU198
 605 0064 1168     		ldr	r1, [r2]
 606 0066 41F40021 		orr	r1, r1, #524288
 607 006a 1160     		str	r1, [r2]
 141:Lib/Motor/Src/unitreeA1_recv.c **** 
 608              		.loc 1 141 13 is_stmt 1 view .LVU199
 609 006c 0168     		ldr	r1, [r0]
 610 006e 0A68     		ldr	r2, [r1]
 611 0070 42F00102 		orr	r2, r2, #1
 612 0074 0A60     		str	r2, [r1]
 143:Lib/Motor/Src/unitreeA1_recv.c ****             {
 613              		.loc 1 143 13 view .LVU200
 143:Lib/Motor/Src/unitreeA1_recv.c ****             {
 614              		.loc 1 143 16 is_stmt 0 view .LVU201
 615 0076 4E2B     		cmp	r3, #78
 616 0078 D1D1     		bne	.L18
 145:Lib/Motor/Src/unitreeA1_recv.c ****                 unitreeA1_rx(1);
 617              		.loc 1 145 17 is_stmt 1 view .LVU202
 618 007a 1949     		ldr	r1, .L23+16
 619 007c 1948     		ldr	r0, .L23+20
 620 007e FFF7FEFF 		bl	sbus_to_rc
 621              	.LVL13:
 146:Lib/Motor/Src/unitreeA1_recv.c ****                 
 622              		.loc 1 146 17 view .LVU203
 623 0082 0120     		movs	r0, #1
 624 0084 FFF7FEFF 		bl	unitreeA1_rx
 625              	.LVL14:
 626 0088 C9E7     		b	.L18
 627              	.L21:
 155:Lib/Motor/Src/unitreeA1_recv.c **** 
 628              		.loc 1 155 13 view .LVU204
 629 008a 174B     		ldr	r3, .L23+24
 630 008c 1968     		ldr	r1, [r3]
 631 008e 0A68     		ldr	r2, [r1]
 632 0090 22F00102 		bic	r2, r2, #1
ARM GAS  /tmp/ccLmkdSp.s 			page 22


 633 0094 0A60     		str	r2, [r1]
 159:Lib/Motor/Src/unitreeA1_recv.c **** 
 634              		.loc 1 159 13 view .LVU205
 159:Lib/Motor/Src/unitreeA1_recv.c **** 
 635              		.loc 1 159 64 is_stmt 0 view .LVU206
 636 0096 1868     		ldr	r0, [r3]
 159:Lib/Motor/Src/unitreeA1_recv.c **** 
 637              		.loc 1 159 73 view .LVU207
 638 0098 4268     		ldr	r2, [r0, #4]
 159:Lib/Motor/Src/unitreeA1_recv.c **** 
 639              		.loc 1 159 48 view .LVU208
 640 009a C2F18002 		rsb	r2, r2, #128
 159:Lib/Motor/Src/unitreeA1_recv.c **** 
 641              		.loc 1 159 30 view .LVU209
 642 009e 0F49     		ldr	r1, .L23+12
 643 00a0 0A80     		strh	r2, [r1]	@ movhi
 163:Lib/Motor/Src/unitreeA1_recv.c **** 
 644              		.loc 1 163 13 is_stmt 1 view .LVU210
 163:Lib/Motor/Src/unitreeA1_recv.c **** 
 645              		.loc 1 163 43 is_stmt 0 view .LVU211
 646 00a2 8022     		movs	r2, #128
 647 00a4 4260     		str	r2, [r0, #4]
 167:Lib/Motor/Src/unitreeA1_recv.c **** 
 648              		.loc 1 167 13 is_stmt 1 view .LVU212
 167:Lib/Motor/Src/unitreeA1_recv.c **** 
 649              		.loc 1 167 30 is_stmt 0 view .LVU213
 650 00a6 1148     		ldr	r0, .L23+28
 651 00a8 826A     		ldr	r2, [r0, #40]
 652 00aa 22F40022 		bic	r2, r2, #524288
 653 00ae 8262     		str	r2, [r0, #40]
 171:Lib/Motor/Src/unitreeA1_recv.c **** 
 654              		.loc 1 171 13 is_stmt 1 view .LVU214
 655 00b0 1A68     		ldr	r2, [r3]
 656 00b2 1368     		ldr	r3, [r2]
 657 00b4 43F00103 		orr	r3, r3, #1
 658 00b8 1360     		str	r3, [r2]
 173:Lib/Motor/Src/unitreeA1_recv.c ****             {
 659              		.loc 1 173 13 view .LVU215
 173:Lib/Motor/Src/unitreeA1_recv.c ****             {
 660              		.loc 1 173 34 is_stmt 0 view .LVU216
 661 00ba 0B88     		ldrh	r3, [r1]
 173:Lib/Motor/Src/unitreeA1_recv.c ****             {
 662              		.loc 1 173 16 view .LVU217
 663 00bc 4E2B     		cmp	r3, #78
 664 00be AED1     		bne	.L18
 176:Lib/Motor/Src/unitreeA1_recv.c ****                 unitreeA1_rx(1);
 665              		.loc 1 176 17 is_stmt 1 view .LVU218
 666 00c0 0749     		ldr	r1, .L23+16
 667 00c2 0B48     		ldr	r0, .L23+32
 668 00c4 FFF7FEFF 		bl	sbus_to_rc
 669              	.LVL15:
 177:Lib/Motor/Src/unitreeA1_recv.c ****                 
 670              		.loc 1 177 17 view .LVU219
 671 00c8 0120     		movs	r0, #1
 672 00ca FFF7FEFF 		bl	unitreeA1_rx
 673              	.LVL16:
 674              	.LBE6:
ARM GAS  /tmp/ccLmkdSp.s 			page 23


 182:Lib/Motor/Src/unitreeA1_recv.c **** 
 675              		.loc 1 182 1 is_stmt 0 view .LVU220
 676 00ce A6E7     		b	.L18
 677              	.L24:
 678              		.align	2
 679              	.L23:
 680 00d0 00000000 		.word	huart2
 681 00d4 00440040 		.word	1073759232
 682 00d8 00000000 		.word	hdma_usart2_rx
 683 00dc 00000000 		.word	.LANCHOR6
 684 00e0 40030000 		.word	.LANCHOR4+832
 685 00e4 00000000 		.word	.LANCHOR1
 686 00e8 00000000 		.word	hdma_usart6_rx
 687 00ec 00640240 		.word	1073898496
 688 00f0 80000000 		.word	.LANCHOR1+128
 689              		.cfi_endproc
 690              	.LFE136:
 692              		.section	.text.USART3_IRQHandler,"ax",%progbits
 693              		.align	1
 694              		.global	USART3_IRQHandler
 695              		.syntax unified
 696              		.thumb
 697              		.thumb_func
 699              	USART3_IRQHandler:
 700              	.LFB137:
 185:Lib/Motor/Src/unitreeA1_recv.c ****   
 701              		.loc 1 185 1 is_stmt 1 view -0
 702              		.cfi_startproc
 703              		@ args = 0, pretend = 0, frame = 8
 704              		@ frame_needed = 0, uses_anonymous_args = 0
 705 0000 00B5     		push	{lr}
 706              		.cfi_def_cfa_offset 4
 707              		.cfi_offset 14, -4
 708 0002 83B0     		sub	sp, sp, #12
 709              		.cfi_def_cfa_offset 16
 187:Lib/Motor/Src/unitreeA1_recv.c ****     {
 710              		.loc 1 187 5 view .LVU222
 187:Lib/Motor/Src/unitreeA1_recv.c ****     {
 711              		.loc 1 187 15 is_stmt 0 view .LVU223
 712 0004 324B     		ldr	r3, .L30
 713 0006 1B68     		ldr	r3, [r3]
 187:Lib/Motor/Src/unitreeA1_recv.c ****     {
 714              		.loc 1 187 24 view .LVU224
 715 0008 1A68     		ldr	r2, [r3]
 187:Lib/Motor/Src/unitreeA1_recv.c ****     {
 716              		.loc 1 187 8 view .LVU225
 717 000a 12F0200F 		tst	r2, #32
 718 000e 09D0     		beq	.L26
 189:Lib/Motor/Src/unitreeA1_recv.c ****     }
 719              		.loc 1 189 9 is_stmt 1 view .LVU226
 720              	.LBB8:
 189:Lib/Motor/Src/unitreeA1_recv.c ****     }
 721              		.loc 1 189 9 view .LVU227
 722 0010 0022     		movs	r2, #0
 723 0012 0092     		str	r2, [sp]
 189:Lib/Motor/Src/unitreeA1_recv.c ****     }
 724              		.loc 1 189 9 view .LVU228
ARM GAS  /tmp/ccLmkdSp.s 			page 24


 725 0014 1A68     		ldr	r2, [r3]
 726 0016 0092     		str	r2, [sp]
 189:Lib/Motor/Src/unitreeA1_recv.c ****     }
 727              		.loc 1 189 9 view .LVU229
 728 0018 5B68     		ldr	r3, [r3, #4]
 729 001a 0093     		str	r3, [sp]
 189:Lib/Motor/Src/unitreeA1_recv.c ****     }
 730              		.loc 1 189 9 view .LVU230
 731 001c 009B     		ldr	r3, [sp]
 732              	.LBE8:
 189:Lib/Motor/Src/unitreeA1_recv.c ****     }
 733              		.loc 1 189 9 view .LVU231
 734              	.L25:
 260:Lib/Motor/Src/unitreeA1_recv.c **** 
 735              		.loc 1 260 1 is_stmt 0 view .LVU232
 736 001e 03B0     		add	sp, sp, #12
 737              		.cfi_remember_state
 738              		.cfi_def_cfa_offset 4
 739              		@ sp needed
 740 0020 5DF804FB 		ldr	pc, [sp], #4
 741              	.L26:
 742              		.cfi_restore_state
 191:Lib/Motor/Src/unitreeA1_recv.c ****     {
 743              		.loc 1 191 10 is_stmt 1 view .LVU233
 191:Lib/Motor/Src/unitreeA1_recv.c ****     {
 744              		.loc 1 191 20 is_stmt 0 view .LVU234
 745 0024 2B4A     		ldr	r2, .L30+4
 746 0026 1268     		ldr	r2, [r2]
 191:Lib/Motor/Src/unitreeA1_recv.c ****     {
 747              		.loc 1 191 13 view .LVU235
 748 0028 12F0100F 		tst	r2, #16
 749 002c F7D0     		beq	.L25
 750              	.LBB9:
 193:Lib/Motor/Src/unitreeA1_recv.c **** 
 751              		.loc 1 193 9 is_stmt 1 view .LVU236
 195:Lib/Motor/Src/unitreeA1_recv.c **** 
 752              		.loc 1 195 9 view .LVU237
 753              	.LBB10:
 195:Lib/Motor/Src/unitreeA1_recv.c **** 
 754              		.loc 1 195 9 view .LVU238
 755 002e 0022     		movs	r2, #0
 756 0030 0192     		str	r2, [sp, #4]
 195:Lib/Motor/Src/unitreeA1_recv.c **** 
 757              		.loc 1 195 9 view .LVU239
 758 0032 1A68     		ldr	r2, [r3]
 759 0034 0192     		str	r2, [sp, #4]
 195:Lib/Motor/Src/unitreeA1_recv.c **** 
 760              		.loc 1 195 9 view .LVU240
 761 0036 5B68     		ldr	r3, [r3, #4]
 762 0038 0193     		str	r3, [sp, #4]
 195:Lib/Motor/Src/unitreeA1_recv.c **** 
 763              		.loc 1 195 9 view .LVU241
 764 003a 019B     		ldr	r3, [sp, #4]
 765              	.LBE10:
 195:Lib/Motor/Src/unitreeA1_recv.c **** 
 766              		.loc 1 195 9 view .LVU242
 197:Lib/Motor/Src/unitreeA1_recv.c ****         {
ARM GAS  /tmp/ccLmkdSp.s 			page 25


 767              		.loc 1 197 9 view .LVU243
 197:Lib/Motor/Src/unitreeA1_recv.c ****         {
 768              		.loc 1 197 28 is_stmt 0 view .LVU244
 769 003c 264B     		ldr	r3, .L30+8
 770 003e 1B68     		ldr	r3, [r3]
 197:Lib/Motor/Src/unitreeA1_recv.c ****         {
 771              		.loc 1 197 37 view .LVU245
 772 0040 1A68     		ldr	r2, [r3]
 197:Lib/Motor/Src/unitreeA1_recv.c ****         {
 773              		.loc 1 197 12 view .LVU246
 774 0042 12F4002F 		tst	r2, #524288
 775 0046 20D1     		bne	.L28
 203:Lib/Motor/Src/unitreeA1_recv.c **** 
 776              		.loc 1 203 13 is_stmt 1 view .LVU247
 777 0048 1A68     		ldr	r2, [r3]
 778 004a 22F00102 		bic	r2, r2, #1
 779 004e 1A60     		str	r2, [r3]
 207:Lib/Motor/Src/unitreeA1_recv.c **** 
 780              		.loc 1 207 13 view .LVU248
 207:Lib/Motor/Src/unitreeA1_recv.c **** 
 781              		.loc 1 207 64 is_stmt 0 view .LVU249
 782 0050 2148     		ldr	r0, .L30+8
 783 0052 0268     		ldr	r2, [r0]
 207:Lib/Motor/Src/unitreeA1_recv.c **** 
 784              		.loc 1 207 73 view .LVU250
 785 0054 5368     		ldr	r3, [r2, #4]
 207:Lib/Motor/Src/unitreeA1_recv.c **** 
 786              		.loc 1 207 48 view .LVU251
 787 0056 C3F18003 		rsb	r3, r3, #128
 788 005a 9BB2     		uxth	r3, r3
 207:Lib/Motor/Src/unitreeA1_recv.c **** 
 789              		.loc 1 207 30 view .LVU252
 790 005c 1F49     		ldr	r1, .L30+12
 791 005e 0B80     		strh	r3, [r1]	@ movhi
 211:Lib/Motor/Src/unitreeA1_recv.c **** 
 792              		.loc 1 211 13 is_stmt 1 view .LVU253
 211:Lib/Motor/Src/unitreeA1_recv.c **** 
 793              		.loc 1 211 43 is_stmt 0 view .LVU254
 794 0060 8021     		movs	r1, #128
 795 0062 5160     		str	r1, [r2, #4]
 215:Lib/Motor/Src/unitreeA1_recv.c **** 
 796              		.loc 1 215 13 is_stmt 1 view .LVU255
 215:Lib/Motor/Src/unitreeA1_recv.c **** 
 797              		.loc 1 215 41 is_stmt 0 view .LVU256
 798 0064 1168     		ldr	r1, [r2]
 799 0066 41F40021 		orr	r1, r1, #524288
 800 006a 1160     		str	r1, [r2]
 219:Lib/Motor/Src/unitreeA1_recv.c **** 
 801              		.loc 1 219 13 is_stmt 1 view .LVU257
 802 006c 0168     		ldr	r1, [r0]
 803 006e 0A68     		ldr	r2, [r1]
 804 0070 42F00102 		orr	r2, r2, #1
 805 0074 0A60     		str	r2, [r1]
 221:Lib/Motor/Src/unitreeA1_recv.c ****             {
 806              		.loc 1 221 13 view .LVU258
 221:Lib/Motor/Src/unitreeA1_recv.c ****             {
 807              		.loc 1 221 16 is_stmt 0 view .LVU259
ARM GAS  /tmp/ccLmkdSp.s 			page 26


 808 0076 4E2B     		cmp	r3, #78
 809 0078 D1D1     		bne	.L25
 223:Lib/Motor/Src/unitreeA1_recv.c ****                 unitreeA1_rx(3);
 810              		.loc 1 223 17 is_stmt 1 view .LVU260
 811 007a 1949     		ldr	r1, .L30+16
 812 007c 1948     		ldr	r0, .L30+20
 813 007e FFF7FEFF 		bl	sbus_to_rc
 814              	.LVL17:
 224:Lib/Motor/Src/unitreeA1_recv.c ****                 
 815              		.loc 1 224 17 view .LVU261
 816 0082 0320     		movs	r0, #3
 817 0084 FFF7FEFF 		bl	unitreeA1_rx
 818              	.LVL18:
 819 0088 C9E7     		b	.L25
 820              	.L28:
 233:Lib/Motor/Src/unitreeA1_recv.c **** 
 821              		.loc 1 233 13 view .LVU262
 822 008a 174B     		ldr	r3, .L30+24
 823 008c 1968     		ldr	r1, [r3]
 824 008e 0A68     		ldr	r2, [r1]
 825 0090 22F00102 		bic	r2, r2, #1
 826 0094 0A60     		str	r2, [r1]
 237:Lib/Motor/Src/unitreeA1_recv.c **** 
 827              		.loc 1 237 13 view .LVU263
 237:Lib/Motor/Src/unitreeA1_recv.c **** 
 828              		.loc 1 237 64 is_stmt 0 view .LVU264
 829 0096 1868     		ldr	r0, [r3]
 237:Lib/Motor/Src/unitreeA1_recv.c **** 
 830              		.loc 1 237 73 view .LVU265
 831 0098 4268     		ldr	r2, [r0, #4]
 237:Lib/Motor/Src/unitreeA1_recv.c **** 
 832              		.loc 1 237 48 view .LVU266
 833 009a C2F18002 		rsb	r2, r2, #128
 237:Lib/Motor/Src/unitreeA1_recv.c **** 
 834              		.loc 1 237 30 view .LVU267
 835 009e 0F49     		ldr	r1, .L30+12
 836 00a0 0A80     		strh	r2, [r1]	@ movhi
 241:Lib/Motor/Src/unitreeA1_recv.c **** 
 837              		.loc 1 241 13 is_stmt 1 view .LVU268
 241:Lib/Motor/Src/unitreeA1_recv.c **** 
 838              		.loc 1 241 43 is_stmt 0 view .LVU269
 839 00a2 8022     		movs	r2, #128
 840 00a4 4260     		str	r2, [r0, #4]
 245:Lib/Motor/Src/unitreeA1_recv.c **** 
 841              		.loc 1 245 13 is_stmt 1 view .LVU270
 245:Lib/Motor/Src/unitreeA1_recv.c **** 
 842              		.loc 1 245 30 is_stmt 0 view .LVU271
 843 00a6 1148     		ldr	r0, .L30+28
 844 00a8 826A     		ldr	r2, [r0, #40]
 845 00aa 22F40022 		bic	r2, r2, #524288
 846 00ae 8262     		str	r2, [r0, #40]
 249:Lib/Motor/Src/unitreeA1_recv.c **** 
 847              		.loc 1 249 13 is_stmt 1 view .LVU272
 848 00b0 1A68     		ldr	r2, [r3]
 849 00b2 1368     		ldr	r3, [r2]
 850 00b4 43F00103 		orr	r3, r3, #1
 851 00b8 1360     		str	r3, [r2]
ARM GAS  /tmp/ccLmkdSp.s 			page 27


 251:Lib/Motor/Src/unitreeA1_recv.c ****             {
 852              		.loc 1 251 13 view .LVU273
 251:Lib/Motor/Src/unitreeA1_recv.c ****             {
 853              		.loc 1 251 34 is_stmt 0 view .LVU274
 854 00ba 0B88     		ldrh	r3, [r1]
 251:Lib/Motor/Src/unitreeA1_recv.c ****             {
 855              		.loc 1 251 16 view .LVU275
 856 00bc 4E2B     		cmp	r3, #78
 857 00be AED1     		bne	.L25
 254:Lib/Motor/Src/unitreeA1_recv.c ****                 unitreeA1_rx(3);
 858              		.loc 1 254 17 is_stmt 1 view .LVU276
 859 00c0 0749     		ldr	r1, .L30+16
 860 00c2 0B48     		ldr	r0, .L30+32
 861 00c4 FFF7FEFF 		bl	sbus_to_rc
 862              	.LVL19:
 255:Lib/Motor/Src/unitreeA1_recv.c ****                
 863              		.loc 1 255 17 view .LVU277
 864 00c8 0320     		movs	r0, #3
 865 00ca FFF7FEFF 		bl	unitreeA1_rx
 866              	.LVL20:
 867              	.LBE9:
 260:Lib/Motor/Src/unitreeA1_recv.c **** 
 868              		.loc 1 260 1 is_stmt 0 view .LVU278
 869 00ce A6E7     		b	.L25
 870              	.L31:
 871              		.align	2
 872              	.L30:
 873 00d0 00000000 		.word	huart3
 874 00d4 00480040 		.word	1073760256
 875 00d8 00000000 		.word	hdma_usart3_rx
 876 00dc 00000000 		.word	.LANCHOR7
 877 00e0 90060000 		.word	.LANCHOR4+1680
 878 00e4 00000000 		.word	.LANCHOR2
 879 00e8 00000000 		.word	hdma_usart6_rx
 880 00ec 00640240 		.word	1073898496
 881 00f0 80000000 		.word	.LANCHOR2+128
 882              		.cfi_endproc
 883              	.LFE137:
 885              		.section	.text.USART6_IRQHandler,"ax",%progbits
 886              		.align	1
 887              		.global	USART6_IRQHandler
 888              		.syntax unified
 889              		.thumb
 890              		.thumb_func
 892              	USART6_IRQHandler:
 893              	.LFB138:
 263:Lib/Motor/Src/unitreeA1_recv.c ****    
 894              		.loc 1 263 1 is_stmt 1 view -0
 895              		.cfi_startproc
 896              		@ args = 0, pretend = 0, frame = 8
 897              		@ frame_needed = 0, uses_anonymous_args = 0
 898 0000 00B5     		push	{lr}
 899              		.cfi_def_cfa_offset 4
 900              		.cfi_offset 14, -4
 901 0002 83B0     		sub	sp, sp, #12
 902              		.cfi_def_cfa_offset 16
 265:Lib/Motor/Src/unitreeA1_recv.c ****     {
ARM GAS  /tmp/ccLmkdSp.s 			page 28


 903              		.loc 1 265 5 view .LVU280
 265:Lib/Motor/Src/unitreeA1_recv.c ****     {
 904              		.loc 1 265 15 is_stmt 0 view .LVU281
 905 0004 324B     		ldr	r3, .L37
 906 0006 1B68     		ldr	r3, [r3]
 265:Lib/Motor/Src/unitreeA1_recv.c ****     {
 907              		.loc 1 265 24 view .LVU282
 908 0008 1A68     		ldr	r2, [r3]
 265:Lib/Motor/Src/unitreeA1_recv.c ****     {
 909              		.loc 1 265 8 view .LVU283
 910 000a 12F0200F 		tst	r2, #32
 911 000e 09D0     		beq	.L33
 267:Lib/Motor/Src/unitreeA1_recv.c ****     }
 912              		.loc 1 267 9 is_stmt 1 view .LVU284
 913              	.LBB11:
 267:Lib/Motor/Src/unitreeA1_recv.c ****     }
 914              		.loc 1 267 9 view .LVU285
 915 0010 0022     		movs	r2, #0
 916 0012 0092     		str	r2, [sp]
 267:Lib/Motor/Src/unitreeA1_recv.c ****     }
 917              		.loc 1 267 9 view .LVU286
 918 0014 1A68     		ldr	r2, [r3]
 919 0016 0092     		str	r2, [sp]
 267:Lib/Motor/Src/unitreeA1_recv.c ****     }
 920              		.loc 1 267 9 view .LVU287
 921 0018 5B68     		ldr	r3, [r3, #4]
 922 001a 0093     		str	r3, [sp]
 267:Lib/Motor/Src/unitreeA1_recv.c ****     }
 923              		.loc 1 267 9 view .LVU288
 924 001c 009B     		ldr	r3, [sp]
 925              	.LBE11:
 267:Lib/Motor/Src/unitreeA1_recv.c ****     }
 926              		.loc 1 267 9 view .LVU289
 927              	.L32:
 338:Lib/Motor/Src/unitreeA1_recv.c **** 
 928              		.loc 1 338 1 is_stmt 0 view .LVU290
 929 001e 03B0     		add	sp, sp, #12
 930              		.cfi_remember_state
 931              		.cfi_def_cfa_offset 4
 932              		@ sp needed
 933 0020 5DF804FB 		ldr	pc, [sp], #4
 934              	.L33:
 935              		.cfi_restore_state
 269:Lib/Motor/Src/unitreeA1_recv.c ****     {
 936              		.loc 1 269 10 is_stmt 1 view .LVU291
 269:Lib/Motor/Src/unitreeA1_recv.c ****     {
 937              		.loc 1 269 20 is_stmt 0 view .LVU292
 938 0024 2B4A     		ldr	r2, .L37+4
 939 0026 1268     		ldr	r2, [r2]
 269:Lib/Motor/Src/unitreeA1_recv.c ****     {
 940              		.loc 1 269 13 view .LVU293
 941 0028 12F0100F 		tst	r2, #16
 942 002c F7D0     		beq	.L32
 943              	.LBB12:
 271:Lib/Motor/Src/unitreeA1_recv.c **** 
 944              		.loc 1 271 9 is_stmt 1 view .LVU294
 273:Lib/Motor/Src/unitreeA1_recv.c **** 
ARM GAS  /tmp/ccLmkdSp.s 			page 29


 945              		.loc 1 273 9 view .LVU295
 946              	.LBB13:
 273:Lib/Motor/Src/unitreeA1_recv.c **** 
 947              		.loc 1 273 9 view .LVU296
 948 002e 0022     		movs	r2, #0
 949 0030 0192     		str	r2, [sp, #4]
 273:Lib/Motor/Src/unitreeA1_recv.c **** 
 950              		.loc 1 273 9 view .LVU297
 951 0032 1A68     		ldr	r2, [r3]
 952 0034 0192     		str	r2, [sp, #4]
 273:Lib/Motor/Src/unitreeA1_recv.c **** 
 953              		.loc 1 273 9 view .LVU298
 954 0036 5B68     		ldr	r3, [r3, #4]
 955 0038 0193     		str	r3, [sp, #4]
 273:Lib/Motor/Src/unitreeA1_recv.c **** 
 956              		.loc 1 273 9 view .LVU299
 957 003a 019B     		ldr	r3, [sp, #4]
 958              	.LBE13:
 273:Lib/Motor/Src/unitreeA1_recv.c **** 
 959              		.loc 1 273 9 view .LVU300
 275:Lib/Motor/Src/unitreeA1_recv.c ****         {
 960              		.loc 1 275 9 view .LVU301
 275:Lib/Motor/Src/unitreeA1_recv.c ****         {
 961              		.loc 1 275 28 is_stmt 0 view .LVU302
 962 003c 264B     		ldr	r3, .L37+8
 963 003e 1B68     		ldr	r3, [r3]
 275:Lib/Motor/Src/unitreeA1_recv.c ****         {
 964              		.loc 1 275 37 view .LVU303
 965 0040 1A68     		ldr	r2, [r3]
 275:Lib/Motor/Src/unitreeA1_recv.c ****         {
 966              		.loc 1 275 12 view .LVU304
 967 0042 12F4002F 		tst	r2, #524288
 968 0046 20D1     		bne	.L35
 281:Lib/Motor/Src/unitreeA1_recv.c **** 
 969              		.loc 1 281 13 is_stmt 1 view .LVU305
 970 0048 1A68     		ldr	r2, [r3]
 971 004a 22F00102 		bic	r2, r2, #1
 972 004e 1A60     		str	r2, [r3]
 285:Lib/Motor/Src/unitreeA1_recv.c **** 
 973              		.loc 1 285 13 view .LVU306
 285:Lib/Motor/Src/unitreeA1_recv.c **** 
 974              		.loc 1 285 64 is_stmt 0 view .LVU307
 975 0050 2148     		ldr	r0, .L37+8
 976 0052 0268     		ldr	r2, [r0]
 285:Lib/Motor/Src/unitreeA1_recv.c **** 
 977              		.loc 1 285 73 view .LVU308
 978 0054 5368     		ldr	r3, [r2, #4]
 285:Lib/Motor/Src/unitreeA1_recv.c **** 
 979              		.loc 1 285 48 view .LVU309
 980 0056 C3F18003 		rsb	r3, r3, #128
 981 005a 9BB2     		uxth	r3, r3
 285:Lib/Motor/Src/unitreeA1_recv.c **** 
 982              		.loc 1 285 30 view .LVU310
 983 005c 1F49     		ldr	r1, .L37+12
 984 005e 0B80     		strh	r3, [r1]	@ movhi
 289:Lib/Motor/Src/unitreeA1_recv.c **** 
 985              		.loc 1 289 13 is_stmt 1 view .LVU311
ARM GAS  /tmp/ccLmkdSp.s 			page 30


 289:Lib/Motor/Src/unitreeA1_recv.c **** 
 986              		.loc 1 289 43 is_stmt 0 view .LVU312
 987 0060 8021     		movs	r1, #128
 988 0062 5160     		str	r1, [r2, #4]
 293:Lib/Motor/Src/unitreeA1_recv.c **** 
 989              		.loc 1 293 13 is_stmt 1 view .LVU313
 293:Lib/Motor/Src/unitreeA1_recv.c **** 
 990              		.loc 1 293 41 is_stmt 0 view .LVU314
 991 0064 1168     		ldr	r1, [r2]
 992 0066 41F40021 		orr	r1, r1, #524288
 993 006a 1160     		str	r1, [r2]
 297:Lib/Motor/Src/unitreeA1_recv.c **** 
 994              		.loc 1 297 13 is_stmt 1 view .LVU315
 995 006c 0168     		ldr	r1, [r0]
 996 006e 0A68     		ldr	r2, [r1]
 997 0070 42F00102 		orr	r2, r2, #1
 998 0074 0A60     		str	r2, [r1]
 299:Lib/Motor/Src/unitreeA1_recv.c ****             {
 999              		.loc 1 299 13 view .LVU316
 299:Lib/Motor/Src/unitreeA1_recv.c ****             {
 1000              		.loc 1 299 16 is_stmt 0 view .LVU317
 1001 0076 4E2B     		cmp	r3, #78
 1002 0078 D1D1     		bne	.L32
 301:Lib/Motor/Src/unitreeA1_recv.c ****                 unitreeA1_rx(2);
 1003              		.loc 1 301 17 is_stmt 1 view .LVU318
 1004 007a 1949     		ldr	r1, .L37+16
 1005 007c 1948     		ldr	r0, .L37+20
 1006 007e FFF7FEFF 		bl	sbus_to_rc
 1007              	.LVL21:
 302:Lib/Motor/Src/unitreeA1_recv.c ****                
 1008              		.loc 1 302 17 view .LVU319
 1009 0082 0220     		movs	r0, #2
 1010 0084 FFF7FEFF 		bl	unitreeA1_rx
 1011              	.LVL22:
 1012 0088 C9E7     		b	.L32
 1013              	.L35:
 311:Lib/Motor/Src/unitreeA1_recv.c **** 
 1014              		.loc 1 311 13 view .LVU320
 1015 008a 1A68     		ldr	r2, [r3]
 1016 008c 22F00102 		bic	r2, r2, #1
 1017 0090 1A60     		str	r2, [r3]
 315:Lib/Motor/Src/unitreeA1_recv.c **** 
 1018              		.loc 1 315 13 view .LVU321
 315:Lib/Motor/Src/unitreeA1_recv.c **** 
 1019              		.loc 1 315 64 is_stmt 0 view .LVU322
 1020 0092 1149     		ldr	r1, .L37+8
 1021 0094 0868     		ldr	r0, [r1]
 315:Lib/Motor/Src/unitreeA1_recv.c **** 
 1022              		.loc 1 315 73 view .LVU323
 1023 0096 4368     		ldr	r3, [r0, #4]
 315:Lib/Motor/Src/unitreeA1_recv.c **** 
 1024              		.loc 1 315 48 view .LVU324
 1025 0098 C3F18003 		rsb	r3, r3, #128
 315:Lib/Motor/Src/unitreeA1_recv.c **** 
 1026              		.loc 1 315 30 view .LVU325
 1027 009c 0F4A     		ldr	r2, .L37+12
 1028 009e 1380     		strh	r3, [r2]	@ movhi
ARM GAS  /tmp/ccLmkdSp.s 			page 31


 319:Lib/Motor/Src/unitreeA1_recv.c **** 
 1029              		.loc 1 319 13 is_stmt 1 view .LVU326
 319:Lib/Motor/Src/unitreeA1_recv.c **** 
 1030              		.loc 1 319 43 is_stmt 0 view .LVU327
 1031 00a0 8023     		movs	r3, #128
 1032 00a2 4360     		str	r3, [r0, #4]
 323:Lib/Motor/Src/unitreeA1_recv.c **** 
 1033              		.loc 1 323 13 is_stmt 1 view .LVU328
 323:Lib/Motor/Src/unitreeA1_recv.c **** 
 1034              		.loc 1 323 30 is_stmt 0 view .LVU329
 1035 00a4 1048     		ldr	r0, .L37+24
 1036 00a6 836A     		ldr	r3, [r0, #40]
 1037 00a8 23F40023 		bic	r3, r3, #524288
 1038 00ac 8362     		str	r3, [r0, #40]
 327:Lib/Motor/Src/unitreeA1_recv.c **** 
 1039              		.loc 1 327 13 is_stmt 1 view .LVU330
 1040 00ae 0968     		ldr	r1, [r1]
 1041 00b0 0B68     		ldr	r3, [r1]
 1042 00b2 43F00103 		orr	r3, r3, #1
 1043 00b6 0B60     		str	r3, [r1]
 329:Lib/Motor/Src/unitreeA1_recv.c ****             {
 1044              		.loc 1 329 13 view .LVU331
 329:Lib/Motor/Src/unitreeA1_recv.c ****             {
 1045              		.loc 1 329 34 is_stmt 0 view .LVU332
 1046 00b8 1388     		ldrh	r3, [r2]
 329:Lib/Motor/Src/unitreeA1_recv.c ****             {
 1047              		.loc 1 329 16 view .LVU333
 1048 00ba 4E2B     		cmp	r3, #78
 1049 00bc AFD1     		bne	.L32
 332:Lib/Motor/Src/unitreeA1_recv.c ****                 unitreeA1_rx(2);
 1050              		.loc 1 332 17 is_stmt 1 view .LVU334
 1051 00be 0849     		ldr	r1, .L37+16
 1052 00c0 0A48     		ldr	r0, .L37+28
 1053 00c2 FFF7FEFF 		bl	sbus_to_rc
 1054              	.LVL23:
 333:Lib/Motor/Src/unitreeA1_recv.c ****                
 1055              		.loc 1 333 17 view .LVU335
 1056 00c6 0220     		movs	r0, #2
 1057 00c8 FFF7FEFF 		bl	unitreeA1_rx
 1058              	.LVL24:
 1059              	.LBE12:
 338:Lib/Motor/Src/unitreeA1_recv.c **** 
 1060              		.loc 1 338 1 is_stmt 0 view .LVU336
 1061 00cc A7E7     		b	.L32
 1062              	.L38:
 1063 00ce 00BF     		.align	2
 1064              	.L37:
 1065 00d0 00000000 		.word	huart6
 1066 00d4 00140140 		.word	1073812480
 1067 00d8 00000000 		.word	hdma_usart6_rx
 1068 00dc 00000000 		.word	.LANCHOR8
 1069 00e0 E8040000 		.word	.LANCHOR4+1256
 1070 00e4 00000000 		.word	.LANCHOR3
 1071 00e8 00640240 		.word	1073898496
 1072 00ec 80000000 		.word	.LANCHOR3+128
 1073              		.cfi_endproc
 1074              	.LFE138:
ARM GAS  /tmp/ccLmkdSp.s 			page 32


 1076              		.global	data_motor
 1077              		.global	leg
 1078              		.section	.bss.data_motor,"aw",%nobits
 1079              		.align	2
 1082              	data_motor:
 1083 0000 00000000 		.space	1632
 1083      00000000 
 1083      00000000 
 1083      00000000 
 1083      00000000 
 1084              		.section	.bss.leg,"aw",%nobits
 1085              		.align	2
 1086              		.set	.LANCHOR4,. + 0
 1089              	leg:
 1090 0000 00000000 		.space	1696
 1090      00000000 
 1090      00000000 
 1090      00000000 
 1090      00000000 
 1091              		.section	.bss.sbus_rx_buf_LB,"aw",%nobits
 1092              		.align	2
 1093              		.set	.LANCHOR1,. + 0
 1096              	sbus_rx_buf_LB:
 1097 0000 00000000 		.space	256
 1097      00000000 
 1097      00000000 
 1097      00000000 
 1097      00000000 
 1098              		.section	.bss.sbus_rx_buf_LF,"aw",%nobits
 1099              		.align	2
 1100              		.set	.LANCHOR0,. + 0
 1103              	sbus_rx_buf_LF:
 1104 0000 00000000 		.space	256
 1104      00000000 
 1104      00000000 
 1104      00000000 
 1104      00000000 
 1105              		.section	.bss.sbus_rx_buf_RB,"aw",%nobits
 1106              		.align	2
 1107              		.set	.LANCHOR2,. + 0
 1110              	sbus_rx_buf_RB:
 1111 0000 00000000 		.space	256
 1111      00000000 
 1111      00000000 
 1111      00000000 
 1111      00000000 
 1112              		.section	.bss.sbus_rx_buf_RF,"aw",%nobits
 1113              		.align	2
 1114              		.set	.LANCHOR3,. + 0
 1117              	sbus_rx_buf_RF:
 1118 0000 00000000 		.space	256
 1118      00000000 
 1118      00000000 
 1118      00000000 
 1118      00000000 
 1119              		.section	.bss.this_time_rx_len.0,"aw",%nobits
 1120              		.align	1
ARM GAS  /tmp/ccLmkdSp.s 			page 33


 1121              		.set	.LANCHOR8,. + 0
 1124              	this_time_rx_len.0:
 1125 0000 0000     		.space	2
 1126              		.section	.bss.this_time_rx_len.1,"aw",%nobits
 1127              		.align	1
 1128              		.set	.LANCHOR7,. + 0
 1131              	this_time_rx_len.1:
 1132 0000 0000     		.space	2
 1133              		.section	.bss.this_time_rx_len.2,"aw",%nobits
 1134              		.align	1
 1135              		.set	.LANCHOR6,. + 0
 1138              	this_time_rx_len.2:
 1139 0000 0000     		.space	2
 1140              		.section	.bss.this_time_rx_len.3,"aw",%nobits
 1141              		.align	1
 1142              		.set	.LANCHOR5,. + 0
 1145              	this_time_rx_len.3:
 1146 0000 0000     		.space	2
 1147              		.text
 1148              	.Letext0:
 1149              		.file 2 "/usr/share/gcc-arm-none-eabi-10.3-2021.10/arm-none-eabi/include/machine/_default_types.h"
 1150              		.file 3 "/usr/share/gcc-arm-none-eabi-10.3-2021.10/arm-none-eabi/include/sys/_stdint.h"
 1151              		.file 4 "Lib/Motor/Inc/unitreeA1_msg.h"
 1152              		.file 5 "Drivers/CMSIS/Device/ST/STM32F4xx/Include/stm32f405xx.h"
 1153              		.file 6 "Drivers/CMSIS/Device/ST/STM32F4xx/Include/stm32f4xx.h"
 1154              		.file 7 "Drivers/STM32F4xx_HAL_Driver/Inc/stm32f4xx_hal_def.h"
 1155              		.file 8 "Drivers/STM32F4xx_HAL_Driver/Inc/stm32f4xx_hal_dma.h"
 1156              		.file 9 "Drivers/STM32F4xx_HAL_Driver/Inc/stm32f4xx_hal_uart.h"
 1157              		.file 10 "Core/Inc/usart.h"
 1158              		.file 11 "Lib/Motor/Inc/unitreeA1_cmd.h"
 1159              		.file 12 "Lib/Motor/Inc/bsp_dma.h"
 1160              		.file 13 "Lib/Motor/Inc/unitreeA1_recv.h"
 1161              		.file 14 "Lib/SPI_Bus/Inc/data_def.h"
ARM GAS  /tmp/ccLmkdSp.s 			page 34


DEFINED SYMBOLS
                            *ABS*:0000000000000000 unitreeA1_recv.c
     /tmp/ccLmkdSp.s:20     .text.sbus_to_rc:0000000000000000 $t
     /tmp/ccLmkdSp.s:25     .text.sbus_to_rc:0000000000000000 sbus_to_rc
     /tmp/ccLmkdSp.s:112    .text.remote_control_init:0000000000000000 $t
     /tmp/ccLmkdSp.s:118    .text.remote_control_init:0000000000000000 remote_control_init
     /tmp/ccLmkdSp.s:157    .text.remote_control_init:000000000000002c $d
     /tmp/ccLmkdSp.s:165    .text.unitreeA1_rx:0000000000000000 $t
     /tmp/ccLmkdSp.s:171    .text.unitreeA1_rx:0000000000000000 unitreeA1_rx
     /tmp/ccLmkdSp.s:302    .text.unitreeA1_rx:00000000000000a8 $d
     /tmp/ccLmkdSp.s:309    .text.USART1_IRQHandler:0000000000000000 $t
     /tmp/ccLmkdSp.s:315    .text.USART1_IRQHandler:0000000000000000 USART1_IRQHandler
     /tmp/ccLmkdSp.s:488    .text.USART1_IRQHandler:00000000000000d0 $d
     /tmp/ccLmkdSp.s:500    .text.USART2_IRQHandler:0000000000000000 $t
     /tmp/ccLmkdSp.s:506    .text.USART2_IRQHandler:0000000000000000 USART2_IRQHandler
     /tmp/ccLmkdSp.s:680    .text.USART2_IRQHandler:00000000000000d0 $d
     /tmp/ccLmkdSp.s:693    .text.USART3_IRQHandler:0000000000000000 $t
     /tmp/ccLmkdSp.s:699    .text.USART3_IRQHandler:0000000000000000 USART3_IRQHandler
     /tmp/ccLmkdSp.s:873    .text.USART3_IRQHandler:00000000000000d0 $d
     /tmp/ccLmkdSp.s:886    .text.USART6_IRQHandler:0000000000000000 $t
     /tmp/ccLmkdSp.s:892    .text.USART6_IRQHandler:0000000000000000 USART6_IRQHandler
     /tmp/ccLmkdSp.s:1065   .text.USART6_IRQHandler:00000000000000d0 $d
     /tmp/ccLmkdSp.s:1082   .bss.data_motor:0000000000000000 data_motor
     /tmp/ccLmkdSp.s:1089   .bss.leg:0000000000000000 leg
     /tmp/ccLmkdSp.s:1079   .bss.data_motor:0000000000000000 $d
     /tmp/ccLmkdSp.s:1085   .bss.leg:0000000000000000 $d
     /tmp/ccLmkdSp.s:1092   .bss.sbus_rx_buf_LB:0000000000000000 $d
     /tmp/ccLmkdSp.s:1096   .bss.sbus_rx_buf_LB:0000000000000000 sbus_rx_buf_LB
     /tmp/ccLmkdSp.s:1099   .bss.sbus_rx_buf_LF:0000000000000000 $d
     /tmp/ccLmkdSp.s:1103   .bss.sbus_rx_buf_LF:0000000000000000 sbus_rx_buf_LF
     /tmp/ccLmkdSp.s:1106   .bss.sbus_rx_buf_RB:0000000000000000 $d
     /tmp/ccLmkdSp.s:1110   .bss.sbus_rx_buf_RB:0000000000000000 sbus_rx_buf_RB
     /tmp/ccLmkdSp.s:1113   .bss.sbus_rx_buf_RF:0000000000000000 $d
     /tmp/ccLmkdSp.s:1117   .bss.sbus_rx_buf_RF:0000000000000000 sbus_rx_buf_RF
     /tmp/ccLmkdSp.s:1120   .bss.this_time_rx_len.0:0000000000000000 $d
     /tmp/ccLmkdSp.s:1124   .bss.this_time_rx_len.0:0000000000000000 this_time_rx_len.0
     /tmp/ccLmkdSp.s:1127   .bss.this_time_rx_len.1:0000000000000000 $d
     /tmp/ccLmkdSp.s:1131   .bss.this_time_rx_len.1:0000000000000000 this_time_rx_len.1
     /tmp/ccLmkdSp.s:1134   .bss.this_time_rx_len.2:0000000000000000 $d
     /tmp/ccLmkdSp.s:1138   .bss.this_time_rx_len.2:0000000000000000 this_time_rx_len.2
     /tmp/ccLmkdSp.s:1141   .bss.this_time_rx_len.3:0000000000000000 $d
     /tmp/ccLmkdSp.s:1145   .bss.this_time_rx_len.3:0000000000000000 this_time_rx_len.3

UNDEFINED SYMBOLS
RC1_init
RC2_init
RC3_init
RC6_init
data_leg
A1date
huart1
hdma_usart1_rx
huart2
hdma_usart2_rx
hdma_usart6_rx
huart3
hdma_usart3_rx
ARM GAS  /tmp/ccLmkdSp.s 			page 35


huart6
